(lp0
S'Man jailed after tot slapped, kicked - San Antonio Express ...'
p1
aS"New Braunfels artist is among U.S. Mint's best - San Antonio ..."
p2
aS'Key informant against Mexican Mafia gets 14 years - San ...'
p3
aS"Lennar's building green - San Antonio Express-News"
p4
aS'Restaurateur honors family - San Antonio Express-News'
p5
aS'Fire union says CAD has been a flop - San Antonio Express ...'
p6
aS"Latin Notes: Jordan's last days: pain, tenderness - San ..."
p7
aS'DVN: Dividend Date & History for Devon Energy'
p8
aS'Texas oil vs. California clean tech: the battle over ... - Grist'
p9
aS"Are Capital Punishment's Financial Costs Worth It? | East ..."
p10
a.