(lp0
S'News Update: Valero Energy Corp (NYSE:VLO) Joint ...'
p1
aS'Algenol Partners With Valero Services, Inc. - PR Newswire'
p2
aS'Man fatally shot by police was burglary suspect - San ...'
p3
aS'Veteran paramedic killed in accidental shooting - San ...'
p4
aS'VA nurses may have to return pay raises - San Antonio ...'
p5
aS'Motorcyclist being pursued by deputy dies in crash - San ...'
p6
aS'A lavish lifestyle leads to jail cell - San Antonio Express-News'
p7
aS'High-Tech Transportation for a Growing Nation | Center for ...'
p8
aS'Greening the Greeks at UC Berkeley | East Bay Express'
p9
aS'John Williams: Believe Him or Not | East Bay Express'
p10
a.