(lp0
S'Prop. 23: Why did Valero launch a campaign against ...'
p1
aS'Oil Companies Bankroll California Climate-Change ...'
p2
aS'Cap-and-Trade Proposal Released by California ...'
p3
aS'Bruneette Troy | LinkedIn'
p4
aS'Rate hikes aimed at reining in water use - San Antonio ...'
p5
aS'Suit centers on silhouette cowboy - San Antonio Express ...'
p6
aS"'Boomer dementia' alarming - San Antonio Express-News"
p7
aS'OGJ Newsletter - Oil & Gas Journal'
p8
aS'Physical fitness curbs frequency and severity of colds, study ...'
p9
aS'William E. Greehey: Executive Profile & Biography ...'
p10
a.