(lp0
S'Taking up Report of International Atomic Energy Agency ...'
p1
aS'Man killed in botched drug deal - San Antonio Express-News'
p2
aS'Clues to past found in secret closet - San Antonio Express ...'
p3
aS'Factory Turns Chicken Fat to Diesel - WSJ'
p4
aS'Water quality issues making a SPLASH - Standard-Times'
p5
aS'[DOC]\nResume_and_Cover_Letter_Packet.doc - Texas A&M ...'
p6
aS'Lawyer for industry played key role establishing Texas ...'
p7
aS'Gas City Seeks DIP Financing | CSPnet'
p8
aS'Keanu thought his two years were running out | Balder and ...'
p9
aS'Trailing Spouses - Job Hunting - Relocating to San Antonio ...'
p10
a.