(lp0
S'Terminal News from Tank Storage Magazine'
p1
aS'Mexican Mafia killings detailed - San Antonio Express-News'
p2
aS'Driver for marijuana cartel gets 5-year sentence - San ...'
p3
aS"McDonald's franchisee understands teamwork - San ..."
p4
aS'OSHA Voluntary Protection Programs (VPP) | Industries in ...'
p5
aS'Another shocking twist to the Edwin Valero tragedy; Body ...'
p6
aS'Couple commit to aiding world - Standard-Times'
p7
aS'Essential San Antonio - Relocating to San Antonio ...'
p8
aS'Atkinson Service Buffalo NY, 14217  Manta.com'
p9
aS'Growth, Shrinking, and Breaking of Pluronic Micelles in the ...'
p10
a.