(lp0
S'Ex-Chase VP sues over her firing - San Antonio Express-News'
p1
aS'Teen fatally shot on West Side - San Antonio Express-News'
p2
aS'Teen given 40 years in murder - San Antonio Express-News'
p3
aS'He gave military its wings - San Antonio Express-News'
p4
aS'Viola Barrios slaying case timeline - San Antonio Express ...'
p5
aS'February Newsmakers - San Antonio Express-News'
p6
aS'You Got Schooled: Casting a vote for the Chupacabras ...'
p7
aS'Mercuria Seeks Oil Tanks, Coal Mines in US Drive'
p8
aS'J.P. McGuire has strong lead at 54 percent - Standard-Times'
p9
aS'Timeline of chemical company job cuts - ICIS.com'
p10
a.