(lp0
S'CERA Week: Valero: Still Considering Options For Aruba ...'
p1
aS'Alamodome general manager selected - San Antonio ...'
p2
aS'Syncing up the law - San Antonio Express-News'
p3
aS'Special-needs kids get help with independent living - San ...'
p4
aS'S.A. is urged to look to gulf for more water - San Antonio ...'
p5
aS'Supreme Court Will Not Reopen Case That Closed Air ...'
p6
aS'Houston Metro faults fired general counsel Pauline Higgins ...'
p7
aS'News Update: Chevron (NYSE: CVX) Will Cut 2,000 Jobs in ...'
p8
aS"Delhi's Centuries-Old Transportation Vehicles on Last Legs"
p9
aS'6 Month Analysis Top 1000 Single Names - from ... - DTCC'
p10
a.