(lp0
S'PBF Energy of Greenwich buys Valero refinery ...'
p1
aS'PBF to Acquire Valero Energy Refinery in Paulsboro, N.J.'
p2
aS'Schwarzenegger defends climate law, slams Texans - SFGate'
p3
aS"I'm A Cabbage, That's What I Think. What Do You Think?"
p4
aS'DK Stock Price & News - Delek US Holdings Inc. - Wall ...'
p5
aS'Goro Pitchford - San Antonio Express-News'
p6
aS'Younger Wilkerson forges his own legacy - San Antonio ...'
p7
aS'Big changes in store for Southwest School of Art - San ...'
p8
aS"A conversation with Kirk Waisner, Church's Chicken - San ..."
p9
aS'Land for Sale in Valero Estates, Spring Branch, TX - realtor ...'
p10
a.