(lp0
S'Angry Northeast Ohioans boycotting BP gas stations ...'
p1
aS'Vespa conference is buzzing - San Antonio Express-News'
p2
aS'Global Market News - World Market News, Reports, Reuters ...'
p3
aS'Valero, Refining Margins and Making Money | Seeking Alpha'
p4
aS'Memphis City Schools Foundation raises fast $12.1 million ...'
p5
aS'Texas Gas Prices - KCBD NewsChannel 11 Lubbock'
p6
aS"Landowner Center | We Treat Your Land Like It's Our Own ..."
p7
aS'Food for the body and soul - Standard-Times'
p8
aS'oil | Southern Beale'
p9
aS'PGATOUR.com  Phil Blackmar media-guide'
p10
a.