(lp0
S"Supertanker 'hijacked by pirates' - Telegraph"
p1
aS'BBC News - South Korean navy pursues hijacked oil tanker'
p2
aS'Tools to operate your virtual office - San Antonio Express ...'
p3
aS'South Korean navy pursuing hijacked tanker off Somalia ...'
p4
aS'South Korean Tanker Hijacked | MediaSteed'
p5
aS'News Clips - hunterkirk - LiveJournal'
p6
aS'How to Sell to The Bama Companies | Inc.com'
p7
aS'Snus News & Other Tobacco Products: 4/4/10 - 4/11/10'
p8
aS'Basic healthcare gets a green signal from Assam ... - TopNews'
p9
aS'Corn Ethanol Ripe for a Rebound? | Seeking Alpha'
p10
a.