(lp0
S"Junk takes flight in artist's hands - San Antonio Express-News"
p1
aS'Cary Clack - San Antonio Express-News'
p2
aS'Event spotlights Down syndrome - San Antonio Express-News'
p3
aS'Recovery seems far off for Haiti - San Antonio Express-News'
p4
aS'Critical illness glues along pregnant ladies with swine flu ...'
p5
aS'Bank told to pay Rs.11 lakh for negligence | TopNews'
p6
aS'Deepika Padukone unfazed by rumours of link-ups | TopNews'
p7
aS"Kellogg's to Provide Valero with MagnaCat Catalyst System"
p8
aS'Girls Inc. 4th Annual Science Festival Presented by Valero ...'
p9
aS'Entropy | Free Full-Text | Application of Thermoeconomics to ...'
p10
a.