(lp0
S'Biodiesel Magazine - The Latest News and Data About ...'
p1
aS'Local solar farm gets powered up - San Antonio Express ...'
p2
aS'Tiger Rescue - San Antonio Express-News'
p3
aS'4 SWAT officers shot, 2 seriously - San Antonio Express-News'
p4
aS'LINE  Linn Energy, LLC | Corporate Bond  Yields, Rates ...'
p5
aS'Links - OMB Valves SpA'
p6
aS'BREAKING NEWS: Huge flare-ups at the Tesoro refinery ...'
p7
aS'Biking to the City | East Bay Express'
p8
aS'Collective Bike Rides Gaining Traction | East Bay Express'
p9
aS'Another Tesoro Flare-Up | Sightline Institute'
p10
a.