(lp0
S'Tootelian Associates - Huffington Post'
p1
aS'Coke dealing gets woman 10 years - San Antonio Express ...'
p2
aS'Jay star Ross still living the dream - San Antonio Express ...'
p3
aS'Ex-Chase VP sues over her firing - San Antonio Express-News'
p4
aS'Wood Bioenergy News | Spring 2010'
p5
aS'US Faces Challenges and Weaknesses in Foreign ... - VOA'
p6
aS'Mercuria Seeks Oil Tanks, Coal Mines in US Drive'
p7
aS'What the hell are they thinking? - Sacramento News & Review'
p8
aS'Timeline of chemical company job cuts - ICIS.com'
p9
aS'HIGH SCHOOL BASKETBALL: Austin bound - Standard-Times'
p10
a.