(lp0
S'[PDF]\n2009 ERCOT Annual Report - ERCOT.com'
p1
aS'[PDF]\nERCOT Quick Facts - July 2010 - ERCOT.com'
p2
aS'Alterman Inc. | 2010-07-01 | ENR'
p3
aS'Mom who mutilated newborn enters plea - San Antonio ...'
p4
aS'Exchange student fit well with diverse family - San Antonio ...'
p5
aS"Spaces: In a designer's hands - San Antonio Express-News"
p6
aS"Siblings' resolve drives Madison assistant coach - San ..."
p7
aS"'Stars begin play with dreams of Williamsport - San Jose ..."
p8
aS'The evolution of Ken Norton Jr. | Seattle Seahawks'
p9
aS'[PDF]\n2009 ERCOT Annual Report.qxd'
p10
a.