(lp0
S'Police make arrest in 2002 fatal stabbing - San Antonio ...'
p1
aS'Clean and comfy ride - San Antonio Express-News'
p2
aS'Professional Category - San Antonio Express-News'
p3
aS'Boston Private Financial Holdings Appoints Stephen M ...'
p4
aS'Fun 101 Local News: August 2010'
p5
aS'Scrappers to honor Luke Holko - WFMJ.com News weather ...'
p6
aS'[PDF]\nboardr eport - Texas State Board of Public Accountancy'
p7
aS'Texas Workforce Commission | Coastal Bend College ...'
p8
aS"Catching Life's Perfect Wave - VOA"
p9
aS'Kinetic Kids Donor Page'
p10
a.