(lp0
S"Ginobili's summer more than diaper changes - San Antonio ..."
p1
aS'Jeanne Jakle: Whatever happened to ... revealed - San ...'
p2
aS'Teen killed in South Side crash Friday identified - San ...'
p3
aS'Ideas lacking for 300th birthday - San Antonio Express-News'
p4
aS'Philip Delaplane, Little Gretel - San Antonio Express-News'
p5
aS'Mexican businessman indicted in fraud plot - San Antonio ...'
p6
aS'Talent competition opens auditions to aspiring performers ...'
p7
aS'Recipe Find: Old-fashioned bakery cake - San Antonio ...'
p8
aS'Former manufacturing executives claim false promises ...'
p9
aS'City of Arlington, Sullo & Bobbitt law firm tussle over records ...'
p10
a.