(lp0
S'St. Charles Parish Council endorses Valero Energy bid for ...'
p1
aS'If Proposition 23 passes, will other greenhouse-gas laws fall ...'
p2
aS'Oil & Gas Data News and Analysis from Evaluate Energy'
p3
aS'Gas from sewage sweet for SAWS - San Antonio Express ...'
p4
aS"Posco's Indian Steel Project in Doubt After Report - Bloomberg"
p5
aS'Oil Watchdog | Tag Archive | junk science'
p6
aS'Algenol Biofuels Opens State-of-the-Art Labs in Lee County ...'
p7
aS'Pipeline Energy Dynamics | Pipeline Scheduling | Pipeline ...'
p8
aS'Dr. Tommie Smith: Still Running the Race of his Life ...'
p9
aS'Green Rankings 2010: U.S. Companies - Newsweek'
p10
a.