(lp0
S"Valero's Big Ethanol Push: Selling E-85 at the Company ..."
p1
aS'CPS pays 18 execs average of $233,000 - San Antonio ...'
p2
aS'Dresser Wayne Announces Valero Approval of Popular ...'
p3
aS'Indicated Dividend Yield Ranking for the S&P 500 by Industry'
p4
aS'Mooresville Oil and Propane- News'
p5
aS'Strong Buys Among Oil Stocks - Forbes'
p6
aS"What can Mexico learn from Colombia's drug war? - Yahoo"
p7
aS'Gas Prices Explained - Reason.com'
p8
aS'IPCC told to stop lobbying and restrict role to explaining ...'
p9
aS'RCOM looking out for 3G alliance | TopNews'
p10
a.