(lp0
S'Flight school brings economic benefits to Hondo - San ...'
p1
aS"Spurs' Parker reportedly involved in airport dispute - San ..."
p2
aS'Teen suspected of kidnapping, beating girl - San Antonio ...'
p3
aS'arubalife.net  Blog'
p4
aS'arubalife.net  Euphoria: Valero Reopens'
p5
aS'Five Challenges of Next-Generation Biofuels - Energy ...'
p6
aS"Captain's Blog  06/07/2010  Velo Valero - PowWeb"
p7
aS'A Focus on Human Needs at New York Design Show - VOA'
p8
aS'Eagle Asphalt Products Corpus Christi TX, 78409  Manta ...'
p9
aS'Border mediation with Slovenia could help Croatia join ...'
p10
a.