(lp0
S'Man fatally stabbed in motel identified - San Antonio ...'
p1
aS'Clean and comfy ride - San Antonio Express-News'
p2
aS'Cowboys kicker learns to curb his enthusiasm - San Antonio ...'
p3
aS'Program helps parents pay child support - San Antonio ...'
p4
aS'Boston Private Financial Holdings Appoints Stephen M ...'
p5
aS'Carrying a Torch for Amoco? | CSPnet'
p6
aS'[PDF]\nboardr eport - Texas State Board of Public Accountancy'
p7
aS'Kinetic Kids Donor Page'
p8
aS"CSDecisions awards Rutter's as the 2010 Convenience ..."
p9
aS'Scrappers to honor Luke Holko - WFMJ.com News weather ...'
p10
a.