(lp0
S'UPDATE 1-Valero says Aruba refinery tax dispute deal ...'
p1
aS"UPDATE 1-Chevron's Richmond refinery likely to close ..."
p2
aS'Chevron to Cut Refining Jobs in Restructuring - WSJ'
p3
aS'mySouTex.com - Valero Energy Corporation celebrates 30 ...'
p4
aS'Conoco Phillips Alliance RFNRY Belle Chasse LA, 70037 ...'
p5
aS'Learning Medicine the Cuban Way | East Bay Express'
p6
aS'Learning to Love Roadkill | East Bay Express'
p7
aS'Thomson Reuters CRB Energy Producers Index'
p8
aS'Anglican Church in lawsuit limbo - Standard-Times'
p9
aS'Parma Heights Mayor Mike Byrne plans changes as he ...'
p10
a.