(lp0
S'St. Charles Parish Council endorses Valero Energy bid for ...'
p1
aS'If Proposition 23 passes, will other greenhouse-gas laws fall ...'
p2
aS'Starcon International > News & Awards - STARCON ...'
p3
aS"Investor groups balk at oil companies' support of Prop. 23 ..."
p4
aS'Oil & Gas Data News and Analysis from Evaluate Energy'
p5
aS'Gas from sewage sweet for SAWS - San Antonio Express ...'
p6
aS'Couple accused of luring teen into prostitution - San Antonio ...'
p7
aS'Purdue student turns old Suzuki into solar ride - San Antonio ...'
p8
aS'Family races from place to place - San Antonio Express-News'
p9
aS'University of Texas at San Antonio - College of Business ...'
p10
a.