(lp0
S'EnSys Energy Netbacks Archives | EnSys Energy'
p1
aS'Texas Oil Companies Oppose California Climate Change Law'
p2
aS'PBF to Acquire Delaware City Refinery | Business Wire'
p3
aS'Indiana home to many of the worst polluters | News | NUVO ...'
p4
aS'Former Tesoro employee files discrimination suit - San ...'
p5
aS'Blind Marine re-enlists - San Antonio Express-News'
p6
aS'Suspect in killing nabbed in N.M. - San Antonio Express-News'
p7
aS'Texas oil firms oppose California climate law - USA Today'
p8
aS'Back to the Green Future | East Bay Express'
p9
aS'The Search for More Oil  VLO, TLW, APC, OXY, EOG ...'
p10
a.