(lp0
S'Alamodome general manager selected - San Antonio ...'
p1
aS'Detention center on cusp of change - San Antonio Express ...'
p2
aS'Relatives identify victim of fatal helicopter crash - San ...'
p3
aS'Steal away to Rockport - Houston Chronicle'
p4
aS'Nissan to continue sourcing A-star from Maruti Suzuki ...'
p5
aS'BSNL to scrap its GSM tender | TopNews'
p6
aS'Purulia girls fight off marriage for school | TopNews'
p7
aS'Six Industries in Search of Survival - Strategy+Business'
p8
aS'McCrea-Bahlman engagement - Standard-Times'
p9
aS'USW 10-1 - Weekly Refinery Events'
p10
a.