(lp0
S'Valero Energy to sell Paulsboro refinery for $360M | NJ.com'
p1
aS"UPDATE 1-PBF to buy Valero's Paulsboro plant for $360 ..."
p2
aS'Spirit of hope survives | Amarillo Globe-News'
p3
aS"Fit Duncan: 'I'll play until wheels fall off' - San Antonio ..."
p4
aS'Fighting Prop. 23 one phone call at a time - latimes'
p5
aS'J C G Wilmington DE, 19803  Manta.com'
p6
aS'Producers, refiners post improved second-quarter 2010 ...'
p7
aS'Top Litigation Chiefs: Croesus, Esq. | The American Lawyer'
p8
aS'Amnesty Says Deported Roma Face Persecution in Kosovo'
p9
aS'Leigh-Meeks wedding - Standard-Times'
p10
a.