(lp0
S'News Update: Valero Energy Corp (NYSE:VLO) Joint ...'
p1
aS'Algenol Partners With Valero Services, Inc. - PR Newswire'
p2
aS'NewEnergyNews: QUICK NEWS, 5-6: HUGE WIND ...'
p3
aS'The heartbreaking past year in boxing has prompted ...'
p4
aS'Man falls off downtown hotel balcony - San Antonio Express ...'
p5
aS'Green graduation: Gowns now recycle or biodegrade - San ...'
p6
aS'Veteran paramedic killed in accidental shooting - San ...'
p7
aS'Defrauded bank blames 2 former execs - San Antonio ...'
p8
aS'I Love CO2: 800,000 signatures submitted for measure to ...'
p9
aS'Greening the Greeks at UC Berkeley | East Bay Express'
p10
a.