(lp0
S'View All Industry News - Machinery Lubrication'
p1
aS'Innovation is the key to removing human suffering: Bill Gates ...'
p2
aS'Sachin Tendulkar Gets Notice From Navi Mumbai Cess ...'
p3
aS'Coast Guard reveals details, but no cause to oil spill ...'
p4
aS'New Graphic Novel Retells Story of New Orleans and ... - VOA'
p5
aS'HIGH SCHOOL BASKETBALL: Owls defense gets job done'
p6
aS'Bridal event offers latest trends for weddings - Standard-Times'
p7
aS'Low Voltage Systems Technician Job at POWER DESIGN in ...'
p8
aS'[PDF]\nModeling Heavy Oils in Aspen HYSYS - AspenTech'
p9
aS'Peroxiredoxin IV Regulates Pro-Inflammatory Responses in ...'
p10
a.