(lp0
S'ZeaChem CEO: Sound Cellulosic Biofuel Solutions Will ...'
p1
aS'Police make arrest in 2002 fatal stabbing - San Antonio ...'
p2
aS'A loving gesture leads to a killing - San Antonio Express-News'
p3
aS'S.A. man drowns in Guadalupe River - San Antonio Express ...'
p4
aS'Fun 101 Local News: August 2010'
p5
aS'Pipes 2 The People Goes National | East Bay Express'
p6
aS'Pushing Foster Children Off the Plank | East Bay Express'
p7
aS'UTSA Alumni Association announces honorees for ...'
p8
aS"Catching Life's Perfect Wave - VOA"
p9
aS'Council picks contractor to transform school into community ...'
p10
a.