(lp0
S'Keystone Pipeline - DownstreamToday.com - News and ...'
p1
aS'Proposition 23: Would it worsen gas-price shocks? - LA Now'
p2
aS'One killed, two injured in Southeast Bexar County crash ...'
p3
aS'Exploring anti-aging claims - San Antonio Express-News'
p4
aS'Euphoric Energy | Phoenix New Times'
p5
aS'Gasoline prices to head for $3 a gallon after pipeline break ...'
p6
aS'History - Pape-Dawson Engineers, Inc.'
p7
aS'Gilliam-Dorris engagement - Standard-Times'
p8
aS'Rossi double as Villarreal score four - CNN.com'
p9
aS'Binding and Removal of Sulfate, Phosphate, Arsenate ...'
p10
a.