(lp0
S"Mayor Villaraigosa: 'Go home, Texas oil companies!' - LA Now"
p1
aS'Billionaire Koch brothers back suspension of California ...'
p2
aS'Cheaper fuel ahead - San Antonio Express-News'
p3
aS'Valero improves its POS technology'
p4
aS'Waste Management Inc. buys majority interest in Garick LLC ...'
p5
aS'A Troubled Rape Case Becomes Even More Troubling ...'
p6
aS'Re: HempCon Blasted for Cheap Medical Pot Prescriptions'
p7
aS'Clean Energy News: September 2010'
p8
aS'Sense of Community Supports US Muslims During Ramadan'
p9
aS'Hell No to Prop 23! - EcoLocalizer'
p10
a.