(lp0
S'Refinery Status: Motiva Port Arthur Unit Shut After Flash Fire ...'
p1
aS'A new Plus in the hood - San Antonio Express-News'
p2
aS"Tivy's titan tops man of Steele - San Antonio Express-News"
p3
aS'Too many hotels, too few guests - San Antonio Express-News'
p4
aS'Prop. 23: Terrorism vs. gas price hikes? | Greenspace | Los ...'
p5
aS'Human Resources Of Valero Refinery Texas Corpus Christi ...'
p6
aS'Planned Koran Burning Drew International Scorn - The New ...'
p7
aS'Adopting Consensus Resolution, General Assembly ...'
p8
aS'Signs of Life :: Fall 2010  YES! Magazine'
p9
aS'TVS Motor All Set To Invest Rs 400 Cr On Capacity ...'
p10
a.