(lp0
S'Lead Economist for State Analysis Linked to Pro-Climate ...'
p1
aS'Cabinet maker builds his business - San Antonio Express ...'
p2
aS'Zoe Saldana is going great guns - San Antonio Express-News'
p3
aS'A deadly month for motorcyclists - San Antonio Express-News'
p4
aS'A New Savior for California State Parks? | East Bay Express'
p5
aS'The Death of C3 Cannabis Collective | East Bay Express'
p6
aS'CTL: Dividend Date & History for CenturyLink Inc.'
p7
aS"Sacramento News & Review - Faber's way - Feature Story ..."
p8
aS"Zee's news channels post Rs. 2.82 crore profit in Q4 ..."
p9
aS'API | Standard RP-755'
p10
a.