(lp0
S'Savings and Optimization: Case Studies (Energy Engineering)'
p1
aS'European Oil Refineries Sold And Up For Sale - CHEManager'
p2
aS'Metro gets maintenance depot | TopNews'
p3
aS'Reason #454738 Not to Shop @ Muslim-Owned Gas Stations'
p4
aS'Oakland Meter Maids to Snap Photos | East Bay Express'
p5
aS'Historic Home Available for Your Special Party - Tanji Patton'
p6
aS"Elsa Ramon: Olympics, 'zombie' hours and she's married ..."
p7
aS'The inspiring 1979 treasure "Breaking Away" | Far Flungers ...'
p8
aS'Family provides more insights into life of John Allen Rubio ...'
p9
aS'Cupertino students prepare for spotlight in S.F. New Year ...'
p10
a.