(lp0
S'Qteros News and Press Releases - Qteros - Cellulosic ...'
p1
aS'Oil & Industry: Connecting the Dots in the War Over ...'
p2
aS'UMass researchers receive patent for getting Q Microbe to ...'
p3
aS'Trial begins for man accused of killing lover - San Antonio ...'
p4
aS'Texas Billionaires - San Antonio Express-News'
p5
aS'Moya was in Iraq when diagnosed with lupus - San Antonio ...'
p6
aS'Police arrest eighth man in failed kidnapping - San Antonio ...'
p7
aS'The Rise of the Stay-at-Home Dad | East Bay Express'
p8
aS'Cost cutting causes worry about refinery safety - Texas City ...'
p9
aS'San Francisco Rallies to Support CCA, Against PG&E ...'
p10
a.