(lp0
S'NewEnergyNews: QUICK NEWS, 5-6: HUGE WIND ...'
p1
aS'The heartbreaking past year in boxing has prompted ...'
p2
aS'Man falls off downtown hotel balcony - San Antonio Express ...'
p3
aS'Green graduation: Gowns now recycle or biodegrade - San ...'
p4
aS"May | 2010 | Setty's notebook | Page 4"
p5
aS'I Love CO2: 800,000 signatures submitted for measure to ...'
p6
aS'RICK SMITH: Flying home at the speed of sound'
p7
aS'All but one council hopeful see fundraising drop'
p8
aS'Artnet News: Michelle Kuo to be editor-in-chief at Artforum, "No ...'
p9
aS"Lansing XtraMart and Dunkin' Donuts Opens Today - The ..."
p10
a.