(lp0
S'DSAOC Center News  DSA|OC Blog'
p1
aS'Healthcare  DSA|OC Blog'
p2
aS'Neighborhood Comes Together Around New Market | East ...'
p3
aS"UCO Bank's third quarter net interest margin rises | TopNews"
p4
aS'Shah Rukh to perform at awards function | TopNews'
p5
aS'Lubricant Storage And Handling - Resources And Advice'
p6
aS'Japanese whaler rams Sea Shepherd boat - UPI.com'
p7
aS'HIGH SCHOOL BASKETBALL: Bearcats sink shots, Maidens'
p8
aS"SAN ANGELO'S 42ND MAYOR: New takes city's reins"
p9
aS'Attention, Danica Patrick fans! Meet foxy racing phenom at ...'
p10
a.