(lp0
S"PBF Energy Agrees to Buy Sunoco's Toledo Refinery ..."
p1
aS'UPDATE 2-Sunoco to sell Toledo refinery to PBF | Reuters'
p2
aS'2016 Annual Meeting - Conferences & Exhibitions'
p3
aS'Baker Botts LLP'
p4
aS'Catamount Constructors opens S.A. office - San Antonio ...'
p5
aS'Tortillas getting some serious competition from flatbreads ...'
p6
aS'Restaurateur hungry for success - San Antonio Express-News'
p7
aS'Ex-officer apologizes for fatal crash - San Antonio Express ...'
p8
aS'Oil Watchdog | Archive | Occidental'
p9
aS'News - San Diego Home Inspection'
p10
a.