(lp0
S'VLO-N - Stock Quote - The Globe and Mail'
p1
aS'Valero Energy Price to Book Value (VLO) - YCharts'
p2
aS'Valero Energy PE Ratio (TTM) (VLO) - YCharts'
p3
aS'Valero Energy Current Ratio (Quarterly) (VLO) - YCharts'
p4
aS'Valero Energy Enterprise Value (VLO) - YCharts'
p5
aS'Valero Energy EPS Diluted (Quarterly) (VLO) - YCharts'
p6
aS'Valero Energy Free Cash Flow (Quarterly) (VLO) - YCharts'
p7
aS'Valero Energy Return on Equity (TTM) (VLO) - YCharts'
p8
aS'Valero Energy Profit Margin (Quarterly) (VLO) - YCharts'
p9
aS'Valero Energy Dividend Yield (TTM) (VLO) - YCharts'
p10
a.