(lp0
S'Jazan Refinery Project - DownstreamToday.com - News and ...'
p1
aS'5 Bad Democratic Policy Ideas | US News Opinion'
p2
aS'News - Qteros - Cellulosic Ethanol and Biofuel Technology'
p3
aS"Drivers go '20Green' for safer Terrell Hills - San Antonio ..."
p4
aS'Juvenile jailer faces sex charges - San Antonio Express-News'
p5
aS'Flight school closure strands foreign students - San Antonio ...'
p6
aS'Conoco, Murphy to Sell, Convert European Oil Refineries ...'
p7
aS"Will Oakland's Giant Pot Farms Be Green? | East Bay Express"
p8
aS'USW 10-1 - OSHA News Releases'
p9
aS'ETFs Tripped Up By Weak Order Numbers | ETF Trends'
p10
a.