(lp0
S'Valero Says Pipe Sending Crude From Cushing to Ardmore ...'
p1
aS'Oil-gas drilling looking toward greener future - San Antonio ...'
p2
aS'101 gold coins recovered from convicted pharmacist - San ...'
p3
aS'The Signs: Good news for the Aces of Bio-Based may spell ...'
p4
aS'Enterprise and Magellan File Joint Tariff to Facilitate Crude ...'
p5
aS'Is Oakland Now a Safer Place to Break the Law? | East Bay ...'
p6
aS"Flaring marks start of refinery 'turnaround' - Benicia Herald"
p7
aS'oil and gas projects and news contracts for contractors and ...'
p8
aS'Congenital Muscular Dystrophy - NORD (National ...'
p9
aS'Snedeker Energy LLC in Lewistown, PA 17044 - PennLive ...'
p10
a.