(lp0
S'Terminal News from Tank Storage Magazine'
p1
aS'USAA will cover domestic partners - San Antonio Express ...'
p2
aS'Police union alone in supporting Reed - San Antonio ...'
p3
aS"Jerry Brown's Environmental Record Runs Deep - NYTimes ..."
p4
aS"'Refinery 101': Stanford students get tour of Valero"
p5
aS'ACON Investments and TPG Capital Sign Definitive ...'
p6
aS'Multi-Day - Technology Conferences Across Vertical ...'
p7
aS'Vertical - Technology Conferences Across Vertical Markets ...'
p8
aS'How One Small Business Cut Its Energy Use and Costs by ...'
p9
aS'- GE Continues Expansion of USD40 Billion... - Europtrole'
p10
a.