(lp0
S'Base oils 2010: North America is seeing more Group I base ...'
p1
aS'Metro gets maintenance depot | TopNews'
p2
aS'Eliza Doolittle at ELLE Style Awards 2010 - Arrivals | TopNews'
p3
aS"Al Cowan's top issue is term limits - Standard-Times"
p4
aS'Reason #454738 Not to Shop @ Muslim-Owned Gas Stations'
p5
aS'Dollar went a long way at Asian Festival - The Downtown Blog'
p6
aS'Historic Home Available for Your Special Party - Tanji Patton'
p7
aS'Infrared Characterization of the Guanine Radical Cation ...'
p8
aS'Membership - the Galveston County Economic Alliance'
p9
aS'Determining incremental refining yields can reduce runs ...'
p10
a.