(lp0
S'CPS Energy fires three employees - San Antonio Express ...'
p1
aS'Texas on a deadly pill-popping bender - San Antonio ...'
p2
aS'Postal service looking to fill temporary positions - San ...'
p3
aS'Jury recommends probation for ex-PEC boss - San Antonio ...'
p4
aS'World Fuel Services Corp (INT.N) Quote| Reuters.com'
p5
aS'Fighting Bad Air with Cellphones | East Bay Express'
p6
aS'The Miracle Portraits | East Bay Express'
p7
aS"It's bike rack time at HPRC - Benicia Herald"
p8
aS'[PDF]\nAnnual Report - Environment America'
p9
aS'Toph Peterson | Golf Channel'
p10
a.