(lp0
S'Valero Energy Corp. (VLO) Earnings - StreetInsider.com'
p1
aS'Former mayors focuson better education - San Antonio ...'
p2
aS'San Antonio a dumb city? - San Antonio Express-News'
p3
aS'Driver killed in collision with bus - San Antonio Express-News'
p4
aS'Home remodeler handed 20 more years in prison - San ...'
p5
aS'Motel drug dispute nets killer 30-year sentence - San ...'
p6
aS'Oil Watchdog | Tag Archive | profiteering'
p7
aS'New Recycling Carts Roll into Berkeley | East Bay Express'
p8
aS'here. - Flyers Energy, LLC'
p9
aS'[PDF]\nTexas Recovery Act State Memo - Department of Energy'
p10
a.