(lp0
S'NBAA Recognizes 52 Individuals for Achievement in ...'
p1
aS'New owners for Hawkeye ethanol plants? | Des Moines ...'
p2
aS'Refinery Profit Squeeze Threat To Petchems | Asian ...'
p3
aS'SilkTek Petroleum Canopy Cladding | FormaShape'
p4
aS'[PDF]\nE-Specialist Options Allocation - New York Stock Exchange'
p5
aS'Simulated volcanic eruptions to block sun - Telegraph'
p6
aS'Science is for girls: UTSA hosts girls in grades 6-8 at STEM ...'
p7
aS'A Closer Look at the Q Microbe | Greentech Media'
p8
aS'Stick A Needle In My Eye - Patti Tucker - mySanAntonio.com'
p9
aS'Atmos Energy in Harvey, Louisiana with Reviews & Ratings ...'
p10
a.