(lp0
S'Shutdowns costly, but old refineries find other work ...'
p1
aS'Wind energy grants under stimulus program - Blown Away ...'
p2
aS'HIGH SCHOOL SOCCER: A clean sheet - Standard-Times'
p3
aS'No headline - GALLERYslack - Standard-Times'
p4
aS"'Hug a Thug' Beats Prison or Probation - VOA"
p5
aS'Company Overview - Energy Transfer'
p6
aS'H-1B Approved Petitioners FY 2009 (CSV, 707 KB) - USCIS'
p7
aS'Influence of Brewing Method and Acidity Regulators on the ...'
p8
aS'Coffee Kiss - The Intersection : The Intersection'
p9
aS"GOP lawmaker Todd Smith references 'stupid' GOP women ..."
p10
a.