(lp0
S'Valero Energy Washington DC, 20004  Manta.com'
p1
aS'Ohio Refinery Ordered to Pay Nearly $1 Million in Owed ...'
p2
aS'Mexican military copter over U.S. neighborhood - San ...'
p3
aS'TMI scholarships awarded on merit - San Antonio Express ...'
p4
aS'References - Victor Epstein, journalism lifer'
p5
aS'Oakland Pot Doc Is Defrocked | East Bay Express'
p6
aS'Breast-Feeding in the Internet Age | East Bay Express'
p7
aS'Not Your Average Field Trip | East Bay Express'
p8
aS'Liberty Hill Partner Jesse Marquez Prevails at The Supreme ...'
p9
aS'BRONTE BASKETBALL: Team concept - Standard-Times'
p10
a.