(lp0
S'Importing Solar Power with Biomass - Renewable Energy ...'
p1
aS'Orissa man wakes up after being declared dead | TopNews'
p2
aS'[PDF]\nNORTH EAST CO NNECTIONS Fall 2009'
p3
aS'Claudia del Castillo | LinkedIn'
p4
aS'Bask Enterprises Phoenix AZ, 85015  Manta.com'
p5
aS'Title V Permits - State of West Virginia'
p6
aS'New Home Construction Framing Inspections - Home ...'
p7
aS"Eva ages 30 years on 'Desperate Housewives' - Jakle's ..."
p8
aS'[PDF]\nto download full article - CSPnet'
p9
aS'Saudi Arabia receives two bids for Jizan refinery - Emirates ...'
p10
a.