(lp0
S'Nuveen Energy MLP Total Return Fund: NYSE:JMF quotes ...'
p1
aS'oil may be headed toward Texas - San Antonio Express-News'
p2
aS'Rio Grande pounds border cities - San Antonio Express-News'
p3
aS'Questions, animosity surround multimillionaire?s death ...'
p4
aS'Human Resources: CEO as Culture Setter * Putting ...'
p5
aS'Foes of Hayward Power Plant Fight Back | East Bay Express'
p6
aS"The Closure of Berkeley's Willard Pool | East Bay Express"
p7
aS"Be Cool | Editor's Note | East Bay Express"
p8
aS'Marquette Hall of Famer Ellis hosts charity golf outing'
p9
aS'WSF Global Equity Fund - USD Class I - 1Cornhill.com'
p10
a.