(lp0
S'Noria news wires - Machinery Lubrication'
p1
aS'Oil Watchdog | Archive | January'
p2
aS'Memoir Follows Baxter, a Therapy Dog with a Healing Touch'
p3
aS'My BCS National Championship Diary - Rick Hill'
p4
aS"Making out is its own reward | Roger Ebert's Journal | Roger ..."
p5
aS"Na'vi sex scene found. How they do it: For Your Consideration"
p6
aS'arubalife.net  Valero Still Closed'
p7
aS'A Bioinspired Approach to the Synthesis of Bimetallic CoNi ...'
p8
aS'polllution | Green Delaware'
p9
aS'[PDF]\nAR 09 - Lubbock Area United Way'
p10
a.