(lp0
S'Oil & Industry: Connecting the Dots in the War Over ...'
p1
aS'Paying more taxes for more pollution? - KHOU.com'
p2
aS'EnSys Energy Netbacks Archives | EnSys Energy'
p3
aS'Sculpture greets visitors to Morgan?s Wonderland - San ...'
p4
aS'Texas Billionaires - San Antonio Express-News'
p5
aS'UTSA weeds out walk-ons - San Antonio Express-News'
p6
aS'Mandocas for breakfast - San Antonio Express-News'
p7
aS'Trial begins for man accused of killing lover - San Antonio ...'
p8
aS"Edwin Valero alleged to have brutally KO'd his wife in ..."
p9
aS'The Rise of the Stay-at-Home Dad | East Bay Express'
p10
a.