(lp0
S'Refiner Valero Restarts $3 Billion in Projects | 2010-09-30 ...'
p1
aS'Innovation Mandate: Valero Execs On Keys To U.S. Success ...'
p2
aS'October 2010 ~ Oil & Energy News'
p3
aS'News - 12 News'
p4
aS"What's On - WREX.com  Rockford's News Leader"
p5
aS'Prop 23 battle heats up in California as Schwarzenegger ...'
p6
aS'Higher U.S. ethanol blends may face road blocks | Reuters'
p7
aS'Schwarzenegger vs. Big Oil and The Billionaire Koch ...'
p8
aS'Foxes marooned on an urban island - San Antonio Express ...'
p9
aS'Veteran accused of using HIV as weapon - San Antonio ...'
p10
a.