(lp0
S'Roy Martin Obituary - San Antonio, TX | Express-News'
p1
aS'Gasoline Refining Margins Double on Outages: Energy ...'
p2
aS"Report: Driving on S.A.'s streets costly - San Antonio ..."
p3
aS'Malacara is an icon at the Menger Hotel - San Antonio ...'
p4
aS"Anxious hours end in cougar's capture - San Antonio ..."
p5
aS'Man killed on school playground identified - San Antonio ...'
p6
aS'Garcia Construction expands to S.A. - San Antonio Express ...'
p7
aS'EPA Found that Gas Mileage Improved 7% to Record ...'
p8
aS'USC - Viterbi School of Engineering - CONACyT ...'
p9
aS"America's Dirtiest Cities - do you live in one? - In Flex We Trust"
p10
a.