(lp0
S'[PDF]\nWeekly News 031310 - Photos'
p1
aS'Biofuels: Putting Pressure on Petrol - Renewable Energy ...'
p2
aS'Ex-police officer handed probation - San Antonio Express ...'
p3
aS"Affordable housing developer's tactics artful - San Antonio ..."
p4
aS'Making a difference - San Antonio Express-News'
p5
aS'Police issue tickets to drivers ignoring railroad warnings ...'
p6
aS"It's never too late to jump, even at 80 - San Antonio Express ..."
p7
aS"Meet UC Berkeley's Robo-Maid | East Bay Express"
p8
aS'Ploughshares Nursery: From Homeless to Gardening | East ...'
p9
aS'-Valerolactone Ring-Opening and Decarboxylation over ...'
p10
a.