(lp0
S'Valero Energy Corporation Hammond IN, 46327  Manta.com'
p1
aS'He gave military its wings - San Antonio Express-News'
p2
aS'Teen fatally shot on West Side - San Antonio Express-News'
p3
aS'Teen given 40 years in murder - San Antonio Express-News'
p4
aS'Dumb Looks Still Free: March 2010'
p5
aS'Joe Beck | Denver Landlord Representation, Tenant ...'
p6
aS'Peak demand leaves refineries idle - Reuters'
p7
aS'Market Status: US wind market grows in the gloom ...'
p8
aS'J.P. McGuire has strong lead at 54 percent - Standard-Times'
p9
aS'Road to state: Wall versus Shallowater - Standard-Times'
p10
a.