(lp0
S"Georgia's bioenergy industry faces growing pains | www.ajc ..."
p1
aS'US Sweepstakes & Fulfillment | LinkedIn'
p2
aS'Valero Marketing & Supply Company Burlington VT, 05401 ...'
p3
aS'The Ultramar Jean-gaulin Refinery Is Pictured In Levis ...'
p4
aS'"What colour\'s your bra?" becomes latest Facebook fad ...'
p5
aS'Angry eunuch drinks poison at Haryana police headquarters ...'
p6
aS'Dual SIM phone on offer from Zen Mobile | TopNews'
p7
aS'Montreal refinery victim of slow demand - The Globe and Mail'
p8
aS'Clean Fuels Clearinghouse  RFS'
p9
aS'Clean Fuels Clearinghouse  Renewable Fuel Standard'
p10
a.