(lp0
S'Valero Says Pipe Sending Crude From Cushing to Ardmore ...'
p1
aS'Business Briefs - Biodiesel Magazine - The Latest News and ...'
p2
aS'Oil-gas drilling looking toward greener future - San Antonio ...'
p3
aS'101 gold coins recovered from convicted pharmacist - San ...'
p4
aS'[PDF]\nopen interest and transaction activity for index cds and ... - ICE'
p5
aS"Flaring marks start of refinery 'turnaround' - Benicia Herald"
p6
aS'Enterprise and Magellan File Joint Tariff to Facilitate Crude ...'
p7
aS'SWOT ANALYSIS ON Valero Energy Corporation - ManagementParadise.com'
p8
aS'Bigg Boss 4: Why Is The House Turning Into A Cold War ...'
p9
aS"Spotlight: The US Military's December 2010 Fuel Contracts"
p10
a.