(lp0
S'Jack Valero | The Guardian'
p1
aS'Child Protective Services worker arrested in theft - San ...'
p2
aS'30 years of Tejano - San Antonio Express-News'
p3
aS'Fenstermaker?s varied interests made for a full life - San ...'
p4
aS'Battle Over California Climate Law Will Have National ...'
p5
aS'[PDF]\nJuly- August 2010 News & Views.pub'
p6
aS'FAITH Q&A: Filling a need for God - Standard-Times'
p7
aS'SAN ANGELO STAMPEDE EXPRESS: Surging ahead'
p8
aS'Sylvia Handy sentenced to 21/2 years in federal prison, plus ...'
p9
aS'OSA | Broadband extraordinary transmission in a single sub ...'
p10
a.