(lp0
S"GOP, Silicon Valley 'disconnect' over green - SFGate"
p1
aS'Valero, Refining Margins and Making Money | Seeking Alpha'
p2
aS'Jury finds man guilty in Schertz home invasion - San ...'
p3
aS'ICP representatives grilled at public meeting - San Antonio ...'
p4
aS'Memphis City Schools Foundation raises fast $12.1 million ...'
p5
aS'Peru goes after U.S. oil exec, Ecopetrol deal at stake ...'
p6
aS'Texas Gas Prices - KCBD NewsChannel 11 Lubbock'
p7
aS"Fighting for Gail Steele's Seat | East Bay Express"
p8
aS'Spotlight on local athletes - Richmond Times-Dispatch: Sports'
p9
aS'Revolvers - The Texas Observer'
p10
a.