(lp0
S'Valero is expanding the availability of E85, a blend of 85 ...'
p1
aS'Valero is expanding availability of E85 fuel - Houston ...'
p2
aS"California's Prop 23 is bad news for Latino families | Grist"
p3
aS'Business Wire Opens Austin Office to Serve Central and ...'
p4
aS'Projects Cancelled in Uncertain Climate | 2010-09-08 | ENR'
p5
aS'San Antonio traffic map - San Antonio Express-News'
p6
aS"Wednesday's downpour sets new daily record - San Antonio ..."
p7
aS'Shooting victim is identified - San Antonio Express-News'
p8
aS"Redding is Jefferson's new head football coach - San ..."
p9
aS'United Way campaign under way | Amarillo Globe-News'
p10
a.