(lp0
S'A U.S. Cap-And-Trade Experiment to End'
p1
aS'Intox manslaughter probationer back in jail - San Antonio ...'
p2
aS'San Antonio Express-News History, Part 1: In the beginning ...'
p3
aS'San Antonio Express-News History, Part 2: A new century ...'
p4
aS'Prop. 23 campaign concedes defeat | Greenspace | Los ...'
p5
aS'California Rejects Prop 23, Providing a Likely Boost for ...'
p6
aS'California Christmas Gift From Voters. Victory For Solar Energy'
p7
aS'The Art of Canvassing | East Bay Express'
p8
aS'Study Finds Air in Bay Area Homes Is Toxic | East Bay Express'
p9
aS'Will Lehman Abandon Oak Knoll? | East Bay Express'
p10
a.