(lp0
S'Editor of SA Current resigning - San Antonio Express-News'
p1
aS'MujerArtes marks 15 years of telling stories in clay - San ...'
p2
aS'David Gross | LinkedIn'
p3
aS'EPA, Texas Fight Over Air Pollution | Government & Policy ...'
p4
aS'Data Center Management - Vision Technologies'
p5
aS'Waste Management (corporation) - Wikipedia, the free ...'
p6
aS'HIGH SCHOOL SPORTS: SAISD flexes its muscles with new ...'
p7
aS'WEST TEXAS FOOTBALL 2010: Coleman Bluecats Capsule'
p8
aS'WEST TEXAS FOOTBALL 2010: Lohn Eagles Capsule'
p9
aS'WEST TEXAS FOOTBALL 2010: DAVID MORA - Preseason ...'
p10
a.