(lp0
S'Boycott Valero and Tesoro Gas Stations. Tell Everyone You Know ...'
p1
aS"Cute Garcia leaves L.A. to return to S.A. TV news - Jakle's ..."
p2
aS'Viva Vogue Italia? Oil-inspired spread stirs muck - San ...'
p3
aS'Reality-based pain relief - San Antonio Express-News'
p4
aS'NewEnergyNews: QUICK NEWS, 8-11: NEW ENERGY VS ...'
p5
aS'Great Expectations | East Bay Express'
p6
aS'#603 University of Texas, San Antonio - Forbes.com'
p7
aS'ZeaChem, Pursuing the Dream of Ethanol from Wood Chips ...'
p8
aS"For one day, it's Soggy Straits at the PGA"
p9
aS'Slaughter Gas Plant Sundown TX, 79372  Manta.com'
p10
a.