(lp0
S'Green Technology | Cleantech and Renewable Energy ...'
p1
aS'Biofuels: Putting Pressure on Petrol - Renewable Energy ...'
p2
aS'Ex-police officer handed probation - San Antonio Express ...'
p3
aS'Zamora arguably the best athlete in South San High ...'
p4
aS'Making a difference - San Antonio Express-News'
p5
aS"Oribe's star-struck hair - San Antonio Express-News"
p6
aS'Canyon foursome eyes grand finale - San Antonio Express ...'
p7
aS"Meet UC Berkeley's Robo-Maid | East Bay Express"
p8
aS'Ploughshares Nursery: From Homeless to Gardening | East ...'
p9
aS'Sacramento News & Review - Barter Town - Feature Story ...'
p10
a.