(lp0
S"Steele's Simmons out of the shadows - San Antonio Express ..."
p1
aS'Quiznos murder nets 40-year prison term - San Antonio ...'
p2
aS'Consider what foods you donate - San Antonio Express-News'
p3
aS'New archbishop takes helm of San Antonio diocese - San ...'
p4
aS'Wait for food stamps shrinks - San Antonio Express-News'
p5
aS'A tamal-making tradition - San Antonio Express-News'
p6
aS'BAMC cost soars - San Antonio Express-News'
p7
aS"Meredith Maran's New Look At Recovered Memories | East ..."
p8
aS'Carbon emissions: tips to save money and reduce CO2 ...'
p9
aS'John DeCock - Huffington Post'
p10
a.