(lp0
S'[PDF]\nmidstreamnews - PLS'
p1
aS'A New Dark Age for Refiners  VLO, XOM, CVX, VLO, DRQ ...'
p2
aS'Chalmette Refinery LLC - Manta'
p3
aS'[PDF]\nFebruary 2010 Issue - Pipelinejobs'
p4
aS'Ad industry to grow by 13 pc in 2010 | TopNews'
p5
aS'Westfield returns to profit in the second half of the year ...'
p6
aS'Lyondell creditor deal jeopardises Reliance bid | Reuters'
p7
aS'The Fruitvale Pushcart Wars | East Bay Express'
p8
aS'Still Seeking Refuge | East Bay Express'
p9
aS'[PDF]\nWinter 2009 Edition - The Association of Union Constructors'
p10
a.