(lp0
S'[PDF]\nNEWS RELEASE'
p1
aS'Train horns keep homeless awake - San Antonio Express ...'
p2
aS'Longtime carpenter rebuilds mission doors - San Antonio ...'
p3
aS'Man gets 12 years for manslaughter - San Antonio Express ...'
p4
aS'Off-duty deputy shoots teen - San Antonio Express-News'
p5
aS'Physician with clinics in S.A. and El Paso indicted - San ...'
p6
aS'Robertson was a New York philanthropist - San Antonio ...'
p7
aS'News from the California Bicycle Coalition - Constant Contact'
p8
aS'Amelia Rivas Obituary - San Antonio, TX | Express-News'
p9
aS'Elms sentenced to life - Odessa American: News'
p10
a.