(lp0
S's ER shows signs of recovery - San Antonio Express-News'
p1
aS"Mexico's fighting Irish - San Antonio Express-News"
p2
aS'Kin see slaying as crime of hate - San Antonio Express-News'
p3
aS'The Toxic 100: Top Corporate Air Polluters in the United ...'
p4
aS'TCS signs five-year deal with MAS | TopNews'
p5
aS'SBI may not charge royalty for its logo | TopNews'
p6
aS"Mahindra's World SUV to debut by 2011 | TopNews"
p7
aS'Napa-Solano county industrial: Some new demand in 2010 ...'
p8
aS'Paul Eisman | alonusa.com'
p9
aS'Glenn Beck Confirms That Your Rights Come From God ...'
p10
a.