(lp0
S'Valero Texas Open - Course Overview'
p1
aS'SA Youth'
p2
aS"O'Neal To Construct Biorefinery Project : O'Neal Inc."
p3
aS'[PDF]\n2009 Annual Report - jsg - The University of Texas at Austin'
p4
aS'The Angel Karly Foundation!'
p5
aS"Why Farouk Shami can't win - The Arena - mySanAntonio.com"
p6
aS'Fire: The Hand Drill - Sam Coffman - mySanAntonio.com'
p7
aS'Visions & Missions of Fortune Global 100 - SlideShare'
p8
aS'HIGH SCHOOL BASKETBALL: Irion County in control'
p9
aS'Antitrust Highlights | State of California - Department of ...'
p10
a.