(lp0
S'Valero Energy Scholarship - Archer Daniels Midland ...'
p1
aS'Man fatally shot Sunday night identified - San Antonio ...'
p2
aS'Woman killed in North Side crash - San Antonio Express ...'
p3
aS'Another person killed near apartments - San Antonio ...'
p4
aS'Priest accused of sex crimes faces murder-for-hire count ...'
p5
aS'4 killed, 1 injured in Harlingen fire - San Antonio Express ...'
p6
aS'Man charged in slaying - San Antonio Express-News'
p7
aS'Residents cheer first linear park on West Side - San Antonio ...'
p8
aS'Hidden history of gangsters and guns - San Antonio Express ...'
p9
aS'[PDF]\nThe U.S. Oil Refining Industry: Background in Changing ...'
p10
a.