(lp0
S'[PDF]\nhere. - Lamar University'
p1
aS"Vecenergy's Port Everglades Terminal Enters Second Year ..."
p2
aS'U Force Private Brand Energy From Valero - My Private Brand'
p3
aS"Newer - Sigalon's Environment/Energy Soup"
p4
aS'Appliance rebate program good for Texans - San Antonio ...'
p5
aS'Getting rid of old gadgets - San Antonio Express-News'
p6
aS"Autopsy can't explain boy's death - San Antonio Express-News"
p7
aS'Procter & Gamble choose CEVA as new logistics partner in ...'
p8
aS"Oakland's Arts Face Deep Cuts | East Bay Express"
p9
aS'4/1/10 - 5/1/10 | Values Voter News'
p10
a.