(lp0
S'[PDF]\nERCOT Quick Facts - July 2010 - ERCOT.com'
p1
aS'Valero St. Charles Diesel Processing Facility  CB&I'
p2
aS'Alterman Inc. | 2010-07-01 | ENR'
p3
aS'Leon Creek fish warning extended - San Antonio Express ...'
p4
aS'Exchange student fit well with diverse family - San Antonio ...'
p5
aS'Mom who mutilated newborn enters plea - San Antonio ...'
p6
aS'Aventura of a lifetime - San Antonio Express-News'
p7
aS"'Stars begin play with dreams of Williamsport - San Jose ..."
p8
aS"Oakland's New Sewer Fees Penalize Water Conservation ..."
p9
aS'The evolution of Ken Norton Jr. | Seattle Seahawks'
p10
a.