(lp0
S'Flyers Energy, LLC: quotes & news - Google Finance'
p1
aS'Western to Shut Virginia Oil Refinery on Poor Margins ...'
p2
aS'Tacoma Day in S.A. - San Antonio Express-News'
p3
aS'Jurors grant short sentence in road rage murder - San ...'
p4
aS'Helmet maker Riddell to lay off 75 workers - San Antonio ...'
p5
aS'San Antonio business focus of tax fraud indictment - San ...'
p6
aS'65 Drug Court graduates thankful for second chance - San ...'
p7
aS'A throwback to childhood - San Antonio Express-News'
p8
aS'Abengoa Solar :: About us :: Press :: News :: 2010'
p9
aS'Founding Partners - Welcome to KTK General Contracting Ltd.'
p10
a.