(lp0
S'ZeaChem CEO: Sound Cellulosic Biofuel Solutions Will ...'
p1
aS'Flyers Energy, LLC: quotes & news - Google Finance'
p2
aS'Western to Shut Virginia Oil Refinery on Poor Margins ...'
p3
aS'Jurors grant short sentence in road rage murder - San ...'
p4
aS'A loving gesture leads to a killing - San Antonio Express-News'
p5
aS'Helmet maker Riddell to lay off 75 workers - San Antonio ...'
p6
aS'San Antonio business focus of tax fraud indictment - San ...'
p7
aS'65 Drug Court graduates thankful for second chance - San ...'
p8
aS'Abengoa Solar :: About us :: Press :: News :: 2010'
p9
aS'Pipes 2 The People Goes National | East Bay Express'
p10
a.