(lp0
S"Vecenergy's Port Everglades Terminal In Second Year Of ..."
p1
aS'January 2011 ~ Oil & Energy News'
p2
aS'Best Photos of 2010: Bob Owen - San Antonio Express-News'
p3
aS'Oklahoma State does Alamo Bowl stroll - San Antonio ...'
p4
aS"S.A.'s naked mole rat dies in captivity after 30 years - San ..."
p5
aS'Man is slain with a shovel - San Antonio Express-News'
p6
aS'Suspect nabbed in East Side slaying - San Antonio Express ...'
p7
aS'Sacramento News & Review - Know thy master - News ...'
p8
aS'Security News - Recent Stories - Security Awareness, Inc.'
p9
aS'Press Releases - 2010 | State of California - Department of ...'
p10
a.