(lp0
S"ALL Fuels Agrees to Valero's Offer of $100 Million to Sell the ..."
p1
aS'read more - Western Emulsions'
p2
aS"Exxon Mobil says it's not forsaking oil for natural gas ..."
p3
aS'Dan Roche  CBS Boston'
p4
aS"Why We're Losing the News - The Intersection : The ..."
p5
aS'About Us | Victron'
p6
aS'Ford sales up 25% in January | TopNews'
p7
aS'Terrorists: Criminals or Enemy Combatants? - VOA'
p8
aS'Prosecutor Works to Prevent Crime in Maryland - VOA'
p9
aS'Wisconsin Energy (NYSE:WEC) Stock Trading Idea: 9 ...'
p10
a.