(lp0
S'oil and gas projects and news contracts for contractors and ...'
p1
aS"Ghost hunter says dad's secret could be Nazi gold - San ..."
p2
aS'From Eastern Europe to South Texas - San Antonio Express ...'
p3
aS'Pension Plan Lump Sum Payments: Why You Should Avoid ...'
p4
aS'About Us - Tax Calendar Software - AKORE TAX'
p5
aS'UForce Energy drink decent for being private label ...'
p6
aS'Roma deportations by France a disgrace, says EU | World ...'
p7
aS'Oil Watchdog | Archive | Natural Gas'
p8
aS'French Parliament Passes Law Banning Burqas - Wall ...'
p9
aS'SEMPRA (SDG&E) & LA MESA COUNCIL ENDORSE NO ...'
p10
a.