(lp0
S'Valero Texas Open - Tournament Leadership Council'
p1
aS's ER shows signs of recovery - San Antonio Express-News'
p2
aS"Mexico's fighting Irish - San Antonio Express-News"
p3
aS'Kin see slaying as crime of hate - San Antonio Express-News'
p4
aS'Smith Elected to Third Term as Managing Partner of Baker ...'
p5
aS'Danville Becomes "Banville" | East Bay Express'
p6
aS'Running to Washington, DC | East Bay Express'
p7
aS"Climate change adverts 'simplistic tools' - Telegraph"
p8
aS'TCS signs five-year deal with MAS | TopNews'
p9
aS'Glenn Beck Confirms That Your Rights Come From God ...'
p10
a.