(lp0
S'About  Velo Valero - PowWeb'
p1
aS'Inside the course: TPC San Antonio - PGA Tour'
p2
aS'SAPD crisis team helps vulnerable population - San Antonio ...'
p3
aS'Killings leave sorrow, questions - San Antonio Express-News'
p4
aS'Mexican Mafia trial begins in federal court - San Antonio ...'
p5
aS'Teenager shot outside Embassy theaters - San Antonio ...'
p6
aS'Luxuriate at the JW Marriott and 5 other resorts for Hill ...'
p7
aS"Valero Invests in Algenol: What's Going On? | Greentech ..."
p8
aS'Service and Scholarship Legacy of Achievement ... - news'
p9
aS'Putting Tar Sands in Your Tank - Oil Change International'
p10
a.