(lp0
S'Refinery Status: Valero To Restart Idled Aruba Refinery Bp BP'
p1
aS'Guitars, guns and coke seized; 2 brothers jailed - San ...'
p2
aS'Safety nets failed to halt fatal slide to mental illness - San ...'
p3
aS'Drawing from young talent - San Antonio Express-News'
p4
aS'Guilty on all counts in sex slavery case - San Antonio ...'
p5
aS"Admission of guilt reported in baby's death - San Antonio ..."
p6
aS'CNBNEWS.NET: Westville'
p7
aS'Sacramento News & Review - The Sac 100 - Feature Story ...'
p8
aS'The State of the Nation [as Arranged by Polluters, Inc ...'
p9
aS'KUSP Reports Archives'
p10
a.