(lp0
S'News Update: Valero Energy Corp. Plans Catalytic ...'
p1
aS"Los Angeles is still the nation's smoggiest city - latimes"
p2
aS"Short finishing productive run as Northside's AD - San ..."
p3
aS'Man arrested for sexually assaulting young girl - San ...'
p4
aS'Energy Companies - NASDAQ.com'
p5
aS'Companies by Name: V - NASDAQ.com'
p6
aS'Ethanol profitable for Green Plains, Valero | Des Moines ...'
p7
aS'Solar Energy News: April 2010'
p8
aS'Former Boxing Champ Tries to Give Inner City Youth a ...'
p9
aS'Jerry Brown Raised $12 Million for His Two Oakland Schools'
p10
a.