(lp0
S'Mandarin Monday - China Tightens, While Snow Chills ...'
p1
aS'Oil Rise to $100 May Stall as Refiners Curb Tax: Energy ...'
p2
aS'Prediction Articles - Oil & Gas Financial Journal'
p3
aS"Moving to 'green jobs' proves tough - San Antonio Express ..."
p4
aS'Woman is third charged in revenge killing - San Antonio ...'
p5
aS"New Year's tears, cheers: Leila leaving, news expanding ..."
p6
aS'Veteran minister pens book for Christians to enjoy wine ...'
p7
aS'Snowbound students return from London - San Antonio ...'
p8
aS'Comfort general store to rise from ashes - San Antonio ...'
p9
aS"Cote d'Ivoire 'civil war' warning - Al Jazeera English"
p10
a.