(lp0
S'Biofuel Firms Seek New Life Amid Changes - Memphis ...'
p1
aS'In Depth: Outlook and Perspective - Ethanol Producer ...'
p2
aS'Plants in Transition - Ethanol Producer Magazine  The ...'
p3
aS'Petroplus, Tamoil Are Among World Refiners to Shut Sites ...'
p4
aS'Time to Stop Subsidizing Ethanol - Huffington Post'
p5
aS'Sunoco Ethanol Fuel Plant - Chemicals Technology'
p6
aS"America's Dirtiest Cities - Forbes"
p7
aS'Oil Watchdog | Tag Archive | cash register politics'
p8
aS'Doctor sues Fresenius over her dismissal - San Antonio ...'
p9
aS'USW 10-1 - OSHA News Releases'
p10
a.