(lp0
S'Valero Introduces Store Brand Sports Drink - Store Brands ...'
p1
aS'Valero crude oil in hijacked tanker - Houston Chronicle'
p2
aS'Texas Oil Companies Oppose California Climate Change Law'
p3
aS'South Korea warship catches up to seized tanker - SFGate'
p4
aS'Indiana home to many of the worst polluters | News | NUVO ...'
p5
aS'Former Tesoro employee files discrimination suit - San ...'
p6
aS'Zachry: Natural gas only power option left - San Antonio ...'
p7
aS'Suspect in killing nabbed in N.M. - San Antonio Express-News'
p8
aS"The Board's Role in Risk Oversight: A Survey of Recent ..."
p9
aS'Back to the Green Future | East Bay Express'
p10
a.