(lp0
S'Knight excelled at selling insurance, helping others - San ...'
p1
aS'New focus for Rivercenter - San Antonio Express-News'
p2
aS"Will Prop. 23 Hurt California's Economy Or Help It? | KPBS"
p3
aS'NewEnergyNews: QUICK NEWS, 9-22: THE THREAT OF ...'
p4
aS'PKD  Parker Drilling Co. | Bond - Bond Investment News ...'
p5
aS'Environment second to jobs in Ventura County - SFGate'
p6
aS'When It Comes to Water, Chevron Is a Role Model | East ...'
p7
aS'Inspections from Hell | East Bay Express'
p8
aS"[PDF]\nChina's Sovereign Wealth Fund - Federation of American ..."
p9
aS'You Again Movie Review & Film Summary (2010) | Roger ...'
p10
a.