(lp0
S'Valero in Paradis, Louisiana with Reviews & Ratings - YP.com'
p1
aS'Valero in Marrero, Louisiana with Reviews & Ratings - YP.com'
p2
aS'A New Dark Age for Refiners  VLO, XOM, CVX, VLO, DRQ ...'
p3
aS'Hillary dares Iran to hold town hall meeting to discuss Israel ...'
p4
aS'Lyondell creditor deal jeopardises Reliance bid | Reuters'
p5
aS'Ad industry to grow by 13 pc in 2010 | TopNews'
p6
aS'Perella Weinberg Hires Longtime Energy Banker - The New ...'
p7
aS'The Fruitvale Pushcart Wars | East Bay Express'
p8
aS'Winter Olympic Souvenirs Sell Out Fast - VOA'
p9
aS'PSEA.org - PACE Myth vs. FACT'
p10
a.