(lp0
S'Leader of the pack - San Antonio Express-News'
p1
aS'Philip Delaplane, Little Gretel - San Antonio Express-News'
p2
aS'Jeanne Jakle: Whatever happened to ... revealed - San ...'
p3
aS"Ginobili's summer more than diaper changes - San Antonio ..."
p4
aS'Ali Sharaf Biography | Victron'
p5
aS'Open Season on California Halibut | East Bay Express'
p6
aS'Little Mac Vs. Big Mac | East Bay Express'
p7
aS'Liz Figueroa Lies About Her Residence | Politics ...'
p8
aS'FLDS TRIALS: Jeffs gets 17 years in assault - Standard-Times'
p9
aS'Former manufacturing executives claim false promises ...'
p10
a.