(lp0
S'Principal inspires as he strives for improvements - San ...'
p1
aS'Cooks & Cocinas: Jorge Vela - San Antonio Express-News'
p2
aS'Sam Life - San Antonio Express-News'
p3
aS'[PDF]\nIssue 13'
p4
aS'Several area gas stations cover up "BP" on signs - News ...'
p5
aS'Rainwater Collective | East Bay Express'
p6
aS'Recycling and Anxiety in Berkeley | East Bay Express'
p7
aS'Advantage BART Cop as Oscar Grant Case Goes to Trial ...'
p8
aS'Powhatan man Tasered, jailed after struggle with deputies ...'
p9
aS"Bill White's Bottom Line - The Texas Observer"
p10
a.