(lp0
S'Terminal News from Tank Storage Magazine'
p1
aS'Ex-teacher gives $22 million to UTSA - San Antonio Express ...'
p2
aS'USAA will cover domestic partners - San Antonio Express ...'
p3
aS'LED Associates - LED Lighting News'
p4
aS'Why Do Texas Energy Companies Hate California?'
p5
aS"Report Highlights Prop. 23 Backers' Pollution History - The ..."
p6
aS'Marathon sells Minn. facilities for $900M - StarTribune.com'
p7
aS'ACON Investments and TPG Capital Sign Definitive ...'
p8
aS'- GE Continues Expansion of USD40 Billion... - Europtrole'
p9
aS'The Dark Horses | East Bay Express'
p10
a.