(lp0
S'Tips/Snippets: Conan off to Prison, New Westville Fire Chief ...'
p1
aS'Care Packages Make All the Difference | Article | The United ...'
p2
aS"Tears of joy: CNN's uplifting Haiti story of S.A. mom, kids ..."
p3
aS'Gas Stations - Bedminster, NJ - NJ.com'
p4
aS"Amir Khan's love of America isfuelled by the hate of British ..."
p5
aS'San Antonio Missions - Wikipedia, the free encyclopedia'
p6
aS'Vegas Beat: Was Vanes Martirosyan awarded a gift over ...'
p7
aS'Is there any gas stations that sell only American gas???? - The ...'
p8
aS'The UNWhere Good and Evil Stand as Equals [Was: Dollars'
p9
aS'New Chief Executive for Milford Haven Port Authority'
p10
a.