(lp0
S'Biodiesel Magazine - The Latest News and Data About ...'
p1
aS'GAGEX Holdings | Guinness Atkinson GlobaL Energy Stock ...'
p2
aS'Former Hill Country judge admits theft - San Antonio ...'
p3
aS'Mumbai tops in cyber crime | TopNews'
p4
aS'English (United States) CustomerSupport - Valero'
p5
aS'Sympathy in short supply for Edwin Valero, another boxing ...'
p6
aS"Pope receives apology from UK Foreign Office for 'condom ..."
p7
aS'MBA Programs: Good business - San Antonio Business ...'
p8
aS'$1.24B in US DESC Aviation Fuel Contracts'
p9
aS"Hugo Chavez pimping Edwin Valero's moldy grave ..."
p10
a.