(lp0
S'Knight excelled at selling insurance, helping others - San ...'
p1
aS'New focus for Rivercenter - San Antonio Express-News'
p2
aS'Universal City bans driver texting - San Antonio Express-News'
p3
aS'Death penalty avoided, cold case solved - San Antonio ...'
p4
aS'PKD  Parker Drilling Co. | Bond - Bond Investment News ...'
p5
aS'Environment second to jobs in Ventura County - SFGate'
p6
aS'Inspections from Hell | East Bay Express'
p7
aS'When It Comes to Water, Chevron Is a Role Model | East ...'
p8
aS"James Franco's 'Howl' Resonates Beyond the Beats | East ..."
p9
aS'[PDF]\npersonalizing the corporation  strategies for in-house ...'
p10
a.