(lp0
S'Five ounces at a time - San Antonio Express-News'
p1
aS'Tech firms buying space - San Antonio Express-News'
p2
aS'Recruiter charged with intoxication manslaughter - San ...'
p3
aS'Ethanol Producer Magazine  The Latest News and Data ...'
p4
aS"No place like (the St. PJ's Children's) home: Stars come out ..."
p5
aS'Putting Green Dedication at the Warrior and Family Support ...'
p6
aS"'Our Challenges Are Shared; So, Too, Is Our Commitment to ..."
p7
aS'College Notebook: Tarleton golf has occasions to recruit ...'
p8
aS"'Heathens, saved by grace' - Standard-Times"
p9
aS'Beta Oil Corporation San Antonio TX, 78232  Manta.com'
p10
a.