(lp0
S"Valero's Big Ethanol Push: Selling E-85 at the Company ..."
p1
aS"Mayor Villaraigosa: 'Go home, Texas oil companies!' - LA Now"
p2
aS'Cheaper fuel ahead - San Antonio Express-News'
p3
aS'Valero improves its POS technology'
p4
aS'Indicated Dividend Yield Ranking for the S&P 500 by Industry'
p5
aS'Waste Management Inc. buys majority interest in Garick LLC ...'
p6
aS'A Troubled Rape Case Becomes Even More Troubling ...'
p7
aS'Re: HempCon Blasted for Cheap Medical Pot Prescriptions'
p8
aS'Sense of Community Supports US Muslims During Ramadan'
p9
aS"What can Mexico learn from Colombia's drug war? - Yahoo"
p10
a.