(lp0
S'Toxic Shock | Cover Feature | Memphis News and Events ...'
p1
aS'Ethanol Producer Magazine  The Latest News and Data ...'
p2
aS'Bp Share News - ADVFN.com'
p3
aS'New Voices, New Approaches: Drowning in Data | Issues in ...'
p4
aS"Man, 20, charged in baby's death - San Antonio Express-News"
p5
aS'Teenage girls go missing in Pearsall - San Antonio Express ...'
p6
aS"Luby's new ingredient - San Antonio Express-News"
p7
aS'Sacramento News & Review - Calm down - Feature Story ...'
p8
aS"About Us - The Children's Shelter"
p9
aS'Oil Watchdog | Archive | Big Oil U'
p10
a.