(lp0
S'Valero Rewards Club - Convenience Store News'
p1
aS'Santa Barbara Weighs In for Clean Energy'
p2
aS'Man jailed after tot slapped, kicked - San Antonio Express ...'
p3
aS'Chocolate career worth waiting for - San Antonio Express ...'
p4
aS"New Braunfels artist is among U.S. Mint's best - San Antonio ..."
p5
aS'A sea of glass - San Antonio Express-News'
p6
aS'Preventing graffiti through art - San Antonio Express-News'
p7
aS'Texas oil vs. California clean tech: the battle over ... - Grist'
p8
aS"Are Capital Punishment's Financial Costs Worth It? | East ..."
p9
aS'Flint Hills to buy Hawkeye ethanol plants | Des Moines ...'
p10
a.