(lp0
S'Teen details alleged sex assault by church volunteer - San ...'
p1
aS'Final Night at Liberty Bar - San Antonio Express-News'
p2
aS'Mural dedicated at Haven for Hope - San Antonio Express ...'
p3
aS'Acon Investments Plans Downstream Debut - Private Equity ...'
p4
aS'Rajiv Dube may join M&M | TopNews'
p5
aS'Poland floods leave three people dead | TopNews'
p6
aS'Jabari Brown Soldiers On | East Bay Express'
p7
aS"AC Transit's Duplication of Service | Politics & Government ..."
p8
aS'Insurance/Scheduling - Baptist Health System M&S Imaging'
p9
aS'Brady Elementary teams sweep state robotics contest'
p10
a.