(lp0
S"Lennar's building green - San Antonio Express-News"
p1
aS'Creekway boardwalk honors local soldier - San Antonio ...'
p2
aS'Key informant against Mexican Mafia gets 14 years - San ...'
p3
aS'Woman is handed 40-year term - San Antonio Express-News'
p4
aS'Fire union says CAD has been a flop - San Antonio Express ...'
p5
aS"W. Side dopers' den to be razed - San Antonio Express-News"
p6
aS'Some experts see signs of hope for coastal recovery from oil ...'
p7
aS"Latin Notes: Jordan's last days: pain, tenderness - San ..."
p8
aS'DVN: Dividend Date & History for Devon Energy'
p9
aS"The Color Purple is Still on Avery's Mind  News4usonline"
p10
a.