(lp0
S'With Neighbors Unaware, Toxic Spill at a BP Plant - The ...'
p1
aS'Strong Buys Among Oil Stocks - Forbes'
p2
aS'Mooresville Oil and Propane- News'
p3
aS'RCOM looking out for 3G alliance | TopNews'
p4
aS'Jessica Belasco: Riding a unicycle is a balancing act  and ...'
p5
aS'S.A. mural painter gets high-profile Pearl project - San ...'
p6
aS'A rare breed, cowboys live on - San Antonio Express-News'
p7
aS"KENS ex does Emmy party scene; show's ratings up slightly ..."
p8
aS'Tulane University Plays Big Role in New Orleans Recovery'
p9
aS'[PDF]\nSaint Louis University'
p10
a.