(lp0
S'[PDF]\nmidstreamnews - PLS'
p1
aS"Toyota's UK production plant to shut down operations next ..."
p2
aS'Sugar recovery rate improves, Thanks to winters | TopNews'
p3
aS'Chalmette Refinery LLC - Manta'
p4
aS'[PDF]\nFebruary 2010 Issue - Pipelinejobs'
p5
aS'Projects - US Southeast | Deep South Crane & Rigging'
p6
aS"[PDF]\nForty Years After NEPA's Enactment, It Is Time for a ..."
p7
aS'[PDF]\nWinter 2009 Edition - The Association of Union Constructors'
p8
aS'Zesty, Blanca & Margaritas - Tanji Patton - mySanAntonio.com'
p9
aS'Vicksburg, Frio successes lift Galveston Bay area prospects ...'
p10
a.