(lp0
S'Valero changing organizational chart at the top - San ...'
p1
aS'S.A. could become a boomtown - San Antonio Express-News'
p2
aS'Former EN columnist found dead - San Antonio Express-News'
p3
aS'Lawsuit filed over SAPD raid tossed - San Antonio Express ...'
p4
aS'Man gets 50-year sentence for burning child - San Antonio ...'
p5
aS"Judson's surge brings down No. 1 Chargers - San Antonio ..."
p6
aS'Recent Spinoffs - Stock Spinoffs'
p7
aS'MADP, Missourians for Alternatives to the Death Penalty ...'
p8
aS'Weedmaps.com Now Taking Investors | East Bay Express'
p9
aS'Oakland Invades the Desert | East Bay Express'
p10
a.