(lp0
S'Starcon International > News & Awards - STARCON ...'
p1
aS"Investor groups balk at oil companies' support of Prop. 23 ..."
p2
aS'Couple accused of luring teen into prostitution - San Antonio ...'
p3
aS'Family races from place to place - San Antonio Express-News'
p4
aS'Ethanol Producer Magazine  The Latest News and Data ...'
p5
aS'University of Texas at San Antonio - College of Business ...'
p6
aS'Our Clients  Universal Plant Services'
p7
aS'Partnership for Corporate Aviation Training: PCAT'
p8
aS'Russians Take Another Look at Global Warming - VOA'
p9
aS'A Busy Race to Replace Quan | East Bay Express'
p10
a.