(lp0
S'Collision Causes Crude Oil Spill in Port Arthur, Texas - WSJ'
p1
aS'Texas waterway remains closed after oil spill | Reuters'
p2
aS'Balcones Heights Welcomes Wonderland of the Americas Mall'
p3
aS'South Texan may be the next drug king - San Antonio ...'
p4
aS"Aamir Khan to become Etisalat's brand ambassador ..."
p5
aS'Sachin Tendulkar Gets Notice From Navi Mumbai Cess ...'
p6
aS'Bridal event offers latest trends for weddings - Standard-Times'
p7
aS'Low Voltage Systems Technician Job at POWER DESIGN in ...'
p8
aS'A Superwoman for Kenya, but America is still waiting for ...'
p9
aS"China has 'open mind' about cause of climate change ..."
p10
a.