(lp0
S'Valero crude oil in hijacked tanker - Houston Chronicle'
p1
aS'Valero Introduces Store Brand Sports Drink - Store Brands ...'
p2
aS'U Force Sport - Search Results - Store Brands'
p3
aS'South Korea warship catches up to seized tanker - SFGate'
p4
aS"Supertanker 'hijacked by pirates' - Telegraph"
p5
aS"The Board's Role in Risk Oversight: A Survey of Recent ..."
p6
aS'BBC News - South Korean navy pursues hijacked oil tanker'
p7
aS'Zachry: Natural gas only power option left - San Antonio ...'
p8
aS'Tools to operate your virtual office - San Antonio Express ...'
p9
aS'South Korean navy pursuing hijacked tanker off Somalia ...'
p10
a.