(lp0
S'Man gets 12 years for manslaughter - San Antonio Express ...'
p1
aS'Longtime carpenter rebuilds mission doors - San Antonio ...'
p2
aS'Off-duty deputy shoots teen - San Antonio Express-News'
p3
aS'River cleanup could last weeks - San Antonio Express-News'
p4
aS"Stroke care in S.A. now Texas' best - San Antonio Express ..."
p5
aS'Robertson was a New York philanthropist - San Antonio ...'
p6
aS'Tips for kids and theme parks | www.statesman.com'
p7
aS'Memories of Pioneering Pilot Bill Bridgeman, Once the ...'
p8
aS'Wild Weekly Wrap Up: All Our Bullish Ducks in a Row ...'
p9
aS'[PDF]\nVolume: 25 No.: 9116 PUBLISHERS - Legal & Business News'
p10
a.