(lp0
S'VLO-N - Stock Quote - The Globe and Mail'
p1
aS'Valero Energy Enterprise Value (VLO) - YCharts'
p2
aS'Valero Energy EPS Diluted (Quarterly) (VLO) - YCharts'
p3
aS'Valero Energy Free Cash Flow (Quarterly) (VLO) - YCharts'
p4
aS'Valero Energy Dividend Yield (TTM) (VLO) - YCharts'
p5
aS'A California Campaign with Global Consequences | Center ...'
p6
aS'Flood Evacuations in La Grulla - San Antonio Express-News'
p7
aS"Uvalde says no to Californian's water pipeline - San Antonio ..."
p8
aS'CO2 is Green Launches Ad Campaign against Senate ...'
p9
aS'[PDF]\nCountering Energy East Pipeline Spin: Talking points - The ...'
p10
a.