(lp0
S'BexarMet general manager fired - San Antonio Express-News'
p1
aS'Texas A&M cutting 104 profs - San Antonio Express-News'
p2
aS'Oyster industry stalls - San Antonio Express-News'
p3
aS'Indictments allege tax-return fraud - San Antonio Express ...'
p4
aS'Keystone XL stories: Karla Land - Updates: news releases ...'
p5
aS'Los Angeles Clippers Guard Eric Gordon Rising to Stardom ...'
p6
aS'Floetic Soul Marks Comeback for The Floacist ...'
p7
aS'Lukashenko Dominates Belarus Election Day - VOA'
p8
aS'The climate bugaboo is the strangest intellectual aberration ...'
p9
aS"The best feature films of 2010 | Roger Ebert's Journal ..."
p10
a.