(lp0
S'Lobbyists Pull Out Checkbooks to Overturn CA Emission Law'
p1
aS'Building better image - San Antonio Express-News'
p2
aS"Ideas abound for city's tricentennial - San Antonio Express ..."
p3
aS'He has been around the block | Seattle Seahawks'
p4
aS'Ricardo Cedillo Named One of the 25 Greatest Texas ...'
p5
aS'Conocophillips Company Wilmington CA, 90744  Manta.com'
p6
aS'A Better Way to Search LinkedIn for Industry Experience ...'
p7
aS'Fitness experts dish on how to stay in shape while bucking ...'
p8
aS'Wardlaw House gains distinction - Standard-Times'
p9
aS'Adoption-friendly workplace employers | Dave Thomas ...'
p10
a.