(lp0
S"Making Room for the Oakland A's? | East Bay Express"
p1
aS'Journalists Refuse to Be Interviewed | East Bay Express'
p2
aS'HIGH SCHOOL SOCCER: A clean sheet - Standard-Times'
p3
aS'No headline - GALLERYslack - Standard-Times'
p4
aS'Company Overview - Energy Transfer'
p5
aS"In 'Mausam', Shahid will surprise all: Pankaj Kapoor ..."
p6
aS'Coffee Kiss - The Intersection : The Intersection'
p7
aS"GOP lawmaker Todd Smith references 'stupid' GOP women ..."
p8
aS'Be a part of the start of race weekend with the Hauler Parade'
p9
aS"methane | KQED's Climate Watch"
p10
a.