(lp0
S'Valero: Aruba Refinery Would Not Be Profitable Running ...'
p1
aS'Valero Backs Off as Oil Refining Turns Sour - WSJ'
p2
aS'NBAA Recognizes 52 Individuals for Achievement in ...'
p3
aS'New owners for Hawkeye ethanol plants? | Des Moines ...'
p4
aS'Comparing A Leak of Tritium That Causes A Flurry to Two ...'
p5
aS'Refinery Profit Squeeze Threat To Petchems | Asian ...'
p6
aS'The Oil Drum | Drumbeat: January 27, 2010'
p7
aS"'King of the Hill's' SA actor: 'I was beaten by punks'"
p8
aS"If there's a bustle in your hedgerow, yeah-yeah-yeah, don't ..."
p9
aS'Simulated volcanic eruptions to block sun - Telegraph'
p10
a.