(lp0
S'VLO Analyst Opinion | Valero Energy Corporation Commo ...'
p1
aS'Lead Economist for State Analysis Linked to Pro-Climate ...'
p2
aS'Shareholder Overview for VLO Valero Energy Corp ...'
p3
aS"Boxer's deaths leaves questions in Venezuela ..."
p4
aS'edwin-valero Topic | ABS-CBN News'
p5
aS'Boxer Edwin Valero commits suicide in jail after stabbing ...'
p6
aS'20 biggest money losers - 13. MetLife (13) - FORTUNE'
p7
aS'20 biggest money losers - 5. Symantec (5) - FORTUNE'
p8
aS'Edwin Valero Found Dead In Jail Cell On Day of ...'
p9
aS'Cabinet maker builds his business - San Antonio Express ...'
p10
a.