(lp0
S'Forecasts - Business and Financial News - CNN Money'
p1
aS'Smelling A Chance To Burn Oil Money, Tobacco Lobbyists ...'
p2
aS'MCCA | 2010 - 07 - D&B - MCCA 2010 Survey of Fortune ...'
p3
aS'Child support fraud sweep nets two more - San Antonio ...'
p4
aS'Punishment phase continues in triple beheading trial - San ...'
p5
aS'Researcher sues UTSA over funding - San Antonio Express ...'
p6
aS'Medicaid trial ends in guilty verdict - San Antonio Express ...'
p7
aS'--- The Exergoecology Portal --- - Best paper award for an ...'
p8
aS'US, South Korea Commanders Pleased as Joint Military ...'
p9
aS'Online Comment Letters - FASB'
p10
a.