(lp0
S'Valero changing organizational chart at the top - San ...'
p1
aS'S.A. could become a boomtown - San Antonio Express-News'
p2
aS'Refinery Status: Valero To Restart Idled Aruba Refinery Bp BP'
p3
aS'MADP, Missourians for Alternatives to the Death Penalty ...'
p4
aS'Oakland Invades the Desert | East Bay Express'
p5
aS'Sacramento News & Review - The Sac 100 - Feature Story ...'
p6
aS"627 - David Icke's Official Forums - The NEWS behind the NEWS."
p7
aS'Catherine Tate at 2010 Collars and Coats Gala Ball Marking ...'
p8
aS'NERD Beverage Corp. - BevForce'
p9
aS'The State of the Nation [as Arranged by Polluters, Inc ...'
p10
a.