(lp0
S'Meatloaf brings back memories - San Antonio Express-News'
p1
aS'Tragedy shines light on bike safety - San Antonio Express ...'
p2
aS'Clues to past found in secret closet - San Antonio Express ...'
p3
aS'Taking up Report of International Atomic Energy Agency ...'
p4
aS'Stock Reports - Morningstar'
p5
aS'Factory Turns Chicken Fat to Diesel - WSJ'
p6
aS'Water quality issues making a SPLASH - Standard-Times'
p7
aS'Keanu thought his two years were running out | Balder and ...'
p8
aS'Cairn India Short Term Buy Call | TopNews'
p9
aS'Owner-User Inspection Organization Listing'
p10
a.