(lp0
S"ALL Fuels Agrees to Valero's Offer of $100 Million to Sell the ..."
p1
aS'read more - Western Emulsions'
p2
aS'Ford sales up 25% in January | TopNews'
p3
aS'Dan Roche  CBS Boston'
p4
aS'About Us | Victron'
p5
aS'Lotto luck pays off in custom chopper - Standard-Times'
p6
aS'Wisconsin Energy (NYSE:WEC) Stock Trading Idea: 9 ...'
p7
aS'Terrorists: Criminals or Enemy Combatants? - VOA'
p8
aS'Prosecutor Works to Prevent Crime in Maryland - VOA'
p9
aS'US gasoline crack spreads weaken, while Europe, Asia rise ...'
p10
a.