(lp0
S'Economics make oil refining a tough industry to sell | North ...'
p1
aS'Man drowns at Medina Lake - San Antonio Express-News'
p2
aS'Deadly, ultra-pure heroin arrives in U.S. - San Antonio ...'
p3
aS'Oil spill may benefit Texas - San Antonio Express-News'
p4
aS'North Korea should be punished for ship sinking-Says US ...'
p5
aS'Serious side-effects of Statins found | TopNews'
p6
aS'Absentee-voter bloc of RVers could steer elections ...'
p7
aS"US oil, gas firms' 1Q earnings rebound from year-earlier loss ..."
p8
aS'Bunkerworld Directory - Port - Corpus Christi'
p9
aS'Wild Weekly Wrap-Up: Mad, Mad Markets | Seeking Alpha'
p10
a.