(lp0
S'Valero Energy Washington DC, 20004  Manta.com'
p1
aS'Mexican military copter over U.S. neighborhood - San ...'
p2
aS'Faux finishes starting to make a comeback - San Antonio ...'
p3
aS'References - Victor Epstein, journalism lifer'
p4
aS'Dallas Morning News sheds light on University of North ...'
p5
aS'Rough times for US oil refiners in Petroleum Forum'
p6
aS'Giacomo Boati, with IHS Cambridge Energy Research ...'
p7
aS'Students from San Angelo Independent School District gain ...'
p8
aS'No headline - NS_ConchoBelleGallery - Standard-Times'
p9
aS'HIGH SCHOOL TRACK & FIELD: Clearing a hurdle'
p10
a.