(lp0
S'19-year-old charged with shooting two men - San Antonio ...'
p1
aS'Sudden storm snuffs record high of 103 - San Antonio ...'
p2
aS'Driver gets 5 years for wreckthat paralyzed ex-girlfriend ...'
p3
aS'Ex-FBI agent sentenced to two years - San Antonio Express ...'
p4
aS'David Gross | LinkedIn'
p5
aS'EPA, Texas Fight Over Air Pollution | Government & Policy ...'
p6
aS'Data Center Management - Vision Technologies'
p7
aS'Gloom alert: Fossil fuels and climate change still suck | Grist'
p8
aS'Media boycotts Dhoni | TopNews'
p9
aS"'24' bigger than my biggest work in India: Anil Kapoor ..."
p10
a.