(lp0
S'Valero Uses Contract Workers for Easy Layoffs | Consumer ...'
p1
aS'Oil Watchdog | Archive | BP'
p2
aS'Oil Watchdog | Archive | December'
p3
aS"S.A.'s naked mole rat dies in captivity after 30 years - San ..."
p4
aS'Liquor, wine distributor GIMA spreading the word - San ...'
p5
aS'A Conversation With Cameron Davies, Boardwalk on Bulverde'
p6
aS'Oklahoma State does Alamo Bowl stroll - San Antonio ...'
p7
aS'Suspect nabbed in East Side slaying - San Antonio Express ...'
p8
aS'Sacramento News & Review - Know thy master - News ...'
p9
aS'Press Releases - 2010 | State of California - Department of ...'
p10
a.