(lp0
S'Mandarin Monday - China Tightens, While Snow Chills ...'
p1
aS'Oil Rise to $100 May Stall as Refiners Curb Tax: Energy ...'
p2
aS"Moving to 'green jobs' proves tough - San Antonio Express ..."
p3
aS'A DREAMer shows up on my doorstep - San Antonio ...'
p4
aS'Brookshire - Media - 2010'
p5
aS'From Disease to Green | East Bay Express'
p6
aS'Keeping Goats in Oakland | East Bay Express'
p7
aS'Drug Addicts Unite! | East Bay Express'
p8
aS'The Ten Best Movies of 2010 | East Bay Express'
p9
aS'Technology, Money Unlocking Vast Orinoco Reserves - Oil ...'
p10
a.