(lp0
S'Valero Energy Corporation Hammond IN, 46327  Manta.com'
p1
aS"Five Minutes With  Bill Willrodt - 'Claims' - San Antonio ..."
p2
aS'Dumb Looks Still Free: March 2010'
p3
aS'Joe Beck | Denver Landlord Representation, Tenant ...'
p4
aS'Peak demand leaves refineries idle - Reuters'
p5
aS'Market Status: US wind market grows in the gloom ...'
p6
aS'Distillation capacities hold steady, more mergers planned ...'
p7
aS'Road to state: Wall versus Shallowater - Standard-Times'
p8
aS'Clark University Gives Laura Hansen a Full Experience of ...'
p9
aS"American Singer-Songwriter Akon In 'Ra.One' | TopNews"
p10
a.