(lp0
S'Cathy and Clay Killinger - Latest Updates - Giving to UTSA'
p1
aS'Ethanol Producer Magazine  The Latest News and Data ...'
p2
aS'Felon guilty of shooting ex-girlfriend during burglary - San ...'
p3
aS'Officer cleared but wife indicted in dispute - San Antonio ...'
p4
aS'Californians Know Better | NRDC'
p5
aS'The mob should lay off. The pope is innocent | Jack Valero ...'
p6
aS'[PDF]\nBMN 04-10 - Birmingham Medical News'
p7
aS'CNBNEWS.NET: April 2010'
p8
aS"The Global Expansion of Russia's Energy Giants - JIA SIPA"
p9
aS'Who Will Vote to Tax Cannabis in 2010? | East Bay Express'
p10
a.