(lp0
S'Business and People - Ethanol Producer Magazine'
p1
aS'In Depth - Ethanol Producer Magazine  The Latest News ...'
p2
aS'In Depth: U.S., Canadian Project Roundup - Ethanol ...'
p3
aS'In Depth - Ethanol Producer Magazine  The Latest News ...'
p4
aS'Menora Mivtachim Holdings Ltd: TLV:MMHD quotes & news ...'
p5
aS'Humanitarian Award Luncheon Honored NuStar Energy ...'
p6
aS'Industrial design settles in, enhancing an eclectic look - San ...'
p7
aS'Dominguez elevated to economic department head - San ...'
p8
aS'Memo gets his kicks - San Antonio Express-News'
p9
aS'Unilever chooses Kuehne + Nagel as logistics partner in ...'
p10
a.