(lp0
S'Genesis Energy, L.P. Announces Acquisition of 50% Interest ...'
p1
aS"Bill Gates, Google's Brin Fund Fight for Carbon Law ..."
p2
aS"California's Prop 23 Morphing into Prop 26 - 8020 Vision"
p3
aS'Tag  Proposition 23  @ Global Warming Trends'
p4
aS'For-profit schools defend programs - San Antonio Express ...'
p5
aS'Texas Golf Hall of Fame to welcome 10 - San Antonio ...'
p6
aS'Carjacking case rare for federal court - San Antonio Express ...'
p7
aS'Servants of Oil Increase Funding and Misinformation in Prop ...'
p8
aS'[PDF]\nFall 10 - Williams'
p9
aS'Treehuggers International  Big Money and Big Oil Behind ...'
p10
a.