(lp0
S'Valero now selling E85 fuel - San Antonio Express-News'
p1
aS'Ethanol Producer Magazine  The Latest News and Data ...'
p2
aS"Kroger expands customers' gas rewards to Shell | Dallas ..."
p3
aS'Anti-Prop 23 campaign taps out-of-state donors | Grist'
p4
aS'Gas Pump Programmed To Say "An American Company. No ...'
p5
aS'Three Birmingham clergymen exiled before papal visit ...'
p6
aS'Oil Watchdog | Privacy Policy'
p7
aS'Oil Watchdog | About'
p8
aS'Gas Pump Programmed To Say An American Company. No ...'
p9
aS'Prediction of Extra Virgin Olive Oil Varieties through Their ...'
p10
a.