(lp0
S'Genesis Energy, L.P. Announces Acquisition of 50% Interest ...'
p1
aS"Bill Gates, Google's Brin Fund Fight for Carbon Law ..."
p2
aS"California's Prop 23 Morphing into Prop 26 - 8020 Vision"
p3
aS'Servants of Oil Increase Funding and Misinformation in Prop ...'
p4
aS'Driver killed in collision with bus - San Antonio Express-News'
p5
aS"Really, California, don't mess with Texas - The Arena"
p6
aS'Home remodeler handed 20 more years in prison - San ...'
p7
aS'[PDF]\nFall 10 - Williams'
p8
aS'Instant eyelift restores youthful look | TopNews'
p9
aS'Treehuggers International  Big Money and Big Oil Behind ...'
p10
a.