(lp0
S'Floresville man killed in motorcycle crash - San Antonio ...'
p1
aS'Suit claims lawyers cheated aging mom - San Antonio ...'
p2
aS'WellMed bought Medicare Advantage plan company - San ...'
p3
aS'One killed, one injured in head-on crash - San Antonio ...'
p4
aS'Respecting a dance hall - San Antonio Express-News'
p5
aS'Origins of Lone Star hard to trace - San Antonio Express-News'
p6
aS"Jasper Johns' prints make an impact at McNay - San ..."
p7
aS'South Side center for those with special needs dedicated ...'
p8
aS"Kat & Ranbir sizzle on Arjun's dance floor | TopNews"
p9
aS"[PDF]\nApril 2010 - Martha's Home"
p10
a.