(lp0
S'Growth, Profitability, and Financial Ratios for Valero Energy ...'
p1
aS'He has been around the block | Seattle Seahawks'
p2
aS'Splitter is a Spur at last - San Antonio Express-News'
p3
aS'The right designer for a dream home - San Antonio Express ...'
p4
aS'Misuse of drugs causing problems - San Antonio Express ...'
p5
aS'Theft charges filed in Tapatio resort ruse - San Antonio ...'
p6
aS'Paula Allen: Cure for what ailed them - San Antonio Express ...'
p7
aS'S.A. doctor blames Medicare woesfor decision to close his ...'
p8
aS"Review: 'Mr. Mendoza's Paintbrush' - San Antonio Express ..."
p9
aS'Fitness experts dish on how to stay in shape while bucking ...'
p10
a.