(lp0
S'PBF Energy of Greenwich buys Valero refinery ...'
p1
aS'Valero Energy to sell Paulsboro refinery for $360M | NJ.com'
p2
aS"UPDATE 1-PBF to buy Valero's Paulsboro plant for $360 ..."
p3
aS'Schwarzenegger defends climate law, slams Texans - SFGate'
p4
aS'DK Stock Price & News - Delek US Holdings Inc. - Wall ...'
p5
aS'Goro Pitchford - San Antonio Express-News'
p6
aS"Fit Duncan: 'I'll play until wheels fall off' - San Antonio ..."
p7
aS'Parents, grandmother of underweight girl charged - San ...'
p8
aS"A conversation with Kirk Waisner, Church's Chicken - San ..."
p9
aS'Producers, refiners post improved second-quarter 2010 ...'
p10
a.