(lp0
S'Business Briefs - Biodiesel Magazine - The Latest News and ...'
p1
aS'Steele goes from sputtering to state - San Antonio Express ...'
p2
aS'Rapper remains jailed on multiple charges - San Antonio ...'
p3
aS'Ingram Road shortcut set to close - San Antonio Express ...'
p4
aS'[PDF]\nopen interest and transaction activity for index cds and ... - ICE'
p5
aS'SWOT ANALYSIS ON Valero Energy Corporation - ManagementParadise.com'
p6
aS"Spotlight: The US Military's December 2010 Fuel Contracts"
p7
aS'San Angelo center benefits dyslexic students as legacy'
p8
aS'ASU BASKETBALL: Rambelles snap three-game losing ...'
p9
aS'MICRO FOCUS INTERNATIONAL PLC | Company Profile ...'
p10
a.