(lp0
S'Crude, products trading part of Valero reshuffle | Reuters'
p1
aS"Oil baron O'Malley eyes Valero plant for U.S. return | Reuters"
p2
aS'UPDATE 1-Valero says Aruba refinery tax dispute deal ...'
p3
aS'News | FormaShape'
p4
aS"QuikTrip on 'Best' List | CSPnet"
p5
aS'Parma Heights Mayor Mike Byrne plans changes as he ...'
p6
aS'Healthy pets mean healthy humans - William H. Craig, DVM'
p7
aS'Electronic Transition Energies: A Study of the Performance ...'
p8
aS'KBR to offer BP resid hydrocracking process - Oil & Gas ...'
p9
aS'E.M. Swift: Cohen gives U.S. figure skating the celebrity it ...'
p10
a.