(lp0
S'San Antonio Express-News History, Part 1: In the beginning ...'
p1
aS'Intox manslaughter probationer back in jail - San Antonio ...'
p2
aS'San Antonio Express-News History, Part 2: A new century ...'
p3
aS'You want to see how the UT Southwestern Medical Center ...'
p4
aS'California Proposition 23 (2010) - Wikipedia, the free ...'
p5
aS'California Christmas Gift From Voters. Victory For Solar Energy'
p6
aS'Photos of the Day: Nov. 5 - WSJ'
p7
aS'Foreign & World Bonds | Bond Investment News Made Easy'
p8
aS'Dividend Cuts and Raises Signal Future Stock Performance ...'
p9
aS'Loving Guidance Associates - Conscious Discipline'
p10
a.