(lp0
S'Business and People - Ethanol Producer Magazine'
p1
aS'In Depth - Ethanol Producer Magazine  The Latest News ...'
p2
aS'In Depth: U.S., Canadian Project Roundup - Ethanol ...'
p3
aS'In Depth - Ethanol Producer Magazine  The Latest News ...'
p4
aS'Menora Mivtachim Holdings Ltd: TLV:MMHD quotes & news ...'
p5
aS'Unilever chooses Kuehne + Nagel as logistics partner in ...'
p6
aS'On Poker: Two seconds turn riches to rags for Ungar - San ...'
p7
aS'Memo gets his kicks - San Antonio Express-News'
p8
aS'Aggie attempting to hurdle record - San Antonio Express ...'
p9
aS'Rainwater Collective | East Bay Express'
p10
a.