(lp0
S"Report: Driving on S.A.'s streets costly - San Antonio ..."
p1
aS'Change of Command Ceremony - San Antonio Express-News'
p2
aS'Segura inherited her passion for education from her father ...'
p3
aS'Well still is spewing - San Antonio Express-News'
p4
aS'Richmond Park Wins $2 Million in Funding | East Bay Express'
p5
aS'Jean the Giant-Killer | East Bay Express'
p6
aS'USC - Viterbi School of Engineering - CONACyT ...'
p7
aS"America's Dirtiest Cities - do you live in one? - In Flex We Trust"
p8
aS'Blog - Stanford Law School'
p9
aS'12 Ways to Learn Vocabulary With The New York Times ...'
p10
a.