(lp0
S'Arnold Schwarzenegger flexes muscles to defend climate ...'
p1
aS'Greens Vs. Big Oil and Prop. 23 | L.A. Weekly'
p2
aS'Officer who embezzled gets prison time - San Antonio ...'
p3
aS'Union backers rally outside Hyatt hotels - San Antonio ...'
p4
aS'Oil Watchdog | Archive | October'
p5
aS"Did Halliburton push its 'cost-cutting' cement? | Consumer ..."
p6
aS'Cooper offense unstoppable in ending six-game streak to AHS'
p7
aS"This election isn't just red vs. blue, it's California vs. Texas: W..."
p8
aS'Valero Castroville, CA, 95012 - YP.com'
p9
aS'AFF 2010 Review: Shelter in Place | Slackerwood'
p10
a.