(lp0
S'DownstreamToday.com - News and Information for the ...'
p1
aS'Valero oil refinery to link to Cushing hub soon | Reuters'
p2
aS'UPDATE 4-Morgan, Statoil to trade oil for new refiner PBF ...'
p3
aS'PBF Announces Product Off-Take, Crude Supply and ...'
p4
aS'Cano Petroleum, Inc.: OTCMKTS:CANOQ quotes & news ...'
p5
aS'Say (H-E-B) Cheese! - San Antonio Express-News'
p6
aS'Woman, 81, jailed in vote-fraud case - San Antonio Express ...'
p7
aS'Alamo collection includes oddities - San Antonio Express ...'
p8
aS'Defendant testifies in death penalty trial - San Antonio ...'
p9
aS"No on Prop 23 campaign takes in $5 million to oil industry's ..."
p10
a.