(lp0
S'Renewable Refining | 2010 No. 4 | BenchMark | Insights ...'
p1
aS"Victim's mom tells of murder-suicide - San Antonio Express ..."
p2
aS"Armstrong's work, sacrifice helped build SAS shoes - San ..."
p3
aS'Villegas, 110, became a small business owner during the ...'
p4
aS'Top 5 Greentech Media Articles of 2010: Bloom Energy, 50 ...'
p5
aS'North Korean Defectors Ask to Help Fight Their Former ...'
p6
aS'Valero Covington, VA, 24426 - YP.com'
p7
aS'Latest Eagle Ford News Updated Daily - Eagle Ford Oil ...'
p8
aS'Dellcrest Funeral Home San Antonio, Texas - Send flowers'
p9
aS'[PDF]\nImpact Issue 3, 2010 - Shell'
p10
a.