(lp0
S'Refining Margins on a Streak | Seeking Alpha'
p1
aS'Biodiesel Magazine - The Latest News and Data About ...'
p2
aS'Former Hill Country judge admits theft - San Antonio ...'
p3
aS'Bad choices in an unforgiving land - San Antonio Express ...'
p4
aS'News Center - Store Brands Decisions'
p5
aS'English (United States) CustomerSupport - Valero'
p6
aS'4 - Meetings.VisitSanAntonio.com | San Antonio Meetings ...'
p7
aS"Pope receives apology from UK Foreign Office for 'condom ..."
p8
aS'Mumbai tops in cyber crime | TopNews'
p9
aS'Former Steeler charged with domestic abuse - UPI.com'
p10
a.