(lp0
S'California Braces for Showdown on Emissions - The New ...'
p1
aS'Oil Watchdog | Archive | Valero'
p2
aS'oil and gas projects and news contracts for contractors and ...'
p3
aS'Clark Refining Ohio | Mesothelioma and Asbestos Jobsites'
p4
aS'Texas olive growers juiced up - San Antonio Express-News'
p5
aS'Developer at eye of scandal files for Chapter 11 - San ...'
p6
aS'U.S. sees its worst poverty in 5 decades - San Antonio ...'
p7
aS'Pension Plan Lump Sum Payments: Why You Should Avoid ...'
p8
aS'UForce Energy drink decent for being private label ...'
p9
aS'French nationals among seven workers kidnapped in Niger ...'
p10
a.