(lp0
S'Industry:Oil & Gas Pipelines - Wikinvest'
p1
aS'Your West Valley News: Sun City Grand'
p2
aS'Why Cutting Off XLA Fiber is a Tough but Necessary ...'
p3
aS'Pig Liquors - San Antonio Express-News'
p4
aS'Tiny fighter beats the odds - San Antonio Express-News'
p5
aS'Teacher in race flap has defenders - San Antonio Express ...'
p6
aS"Ex-chief's son describes pal's fatal shooting - San Antonio ..."
p7
aS'Cooks & Cocinas: Jim Peyton - San Antonio Express-News'
p8
aS'AB32 driving higher energy costs | CalWatchdog.com'
p9
aS'Springfield police arrest 27-year-old man, suspected in ...'
p10
a.