(lp0
S'Valero Energy Price to Book Value (VLO) - YCharts'
p1
aS'Valero Energy Current Ratio (Quarterly) (VLO) - YCharts'
p2
aS'Valero Energy PE Ratio (TTM) (VLO) - YCharts'
p3
aS'Valero Energy Profit Margin (Quarterly) (VLO) - YCharts'
p4
aS'Lobbyists Pull Out Checkbooks to Overturn CA Emission Law'
p5
aS'Building better image - San Antonio Express-News'
p6
aS"Ideas abound for city's tricentennial - San Antonio Express ..."
p7
aS"Bexar sued for inmate's suicide - San Antonio Express-News"
p8
aS'Ricardo Cedillo Named One of the 25 Greatest Texas ...'
p9
aS"Ending Piedmont's Water Habit | East Bay Express"
p10
a.