(lp0
S'Valero cuts GOHT rates at Texas City refinery | Reuters'
p1
aS'Solar hot water systems catching on - San Antonio Express ...'
p2
aS'Viva Vogue Italia? Oil-inspired spread stirs muck - San ...'
p3
aS'Former camp counselor accused of molesting boy - San ...'
p4
aS'China Coal Energy Co  H - News brands'
p5
aS'Trying to shed light on a shadowy figure in Proposition 23 ...'
p6
aS"Hub City Convenience Stores Selects FuelQuest's Fuel ..."
p7
aS'ZeaChem, Pursuing the Dream of Ethanol from Wood Chips ...'
p8
aS'Making a journey of faith - Standard-Times'
p9
aS'Berryman & Assoc Homewood IL, 60430  Manta.com'
p10
a.