(lp0
S'Why Cutting Off XLA Fiber is a Tough but Necessary ...'
p1
aS'Your West Valley News: Sun City Grand'
p2
aS'Tiny fighter beats the odds - San Antonio Express-News'
p3
aS'Mexican Mafia killings detailed - San Antonio Express-News'
p4
aS"Ex-chief's son describes pal's fatal shooting - San Antonio ..."
p5
aS'Bexar County fugitive arrested in New York - San Antonio ...'
p6
aS'Teacher in race flap has defenders - San Antonio Express ...'
p7
aS'Candlebox still burns - San Antonio Express-News'
p8
aS'Springfield police arrest 27-year-old man, suspected in ...'
p9
aS'Valero Benicia Refinery Site Specific OSHA Safety Training ...'
p10
a.