(lp0
S'Valero is expanding the availability of E85, a blend of 85 ...'
p1
aS'Valero is expanding availability of E85 fuel - Houston ...'
p2
aS'Business Wire Opens Austin Office to Serve Central and ...'
p3
aS'San Antonio traffic map - San Antonio Express-News'
p4
aS'NewEnergyNews: QUICK NEWS, 9-6: DIRTY ENERGY ...'
p5
aS'Transportation chief lives dream - Standard-Times'
p6
aS'CPS Energy discloses top salaries, promises openness ...'
p7
aS'US Fighter Jet Powered by Plant Fuel - VOA'
p8
aS'5 local mayors join growing statewide opposition to prop 23'
p9
aS'The Drumbeat Continues for Jim Brown and AMER-I-CAN ...'
p10
a.