(lp0
S'Energy Value Plays  VLO, XOM, CVX, XOM, BP ...'
p1
aS'Making signs of success - San Antonio Express-News'
p2
aS'East Side homicides down, talk of progress up - San Antonio ...'
p3
aS'Remedial education is logjam on path to a degree - San ...'
p4
aS'ETF Stock Exposure Tool | ETF Database'
p5
aS'Express Scripts | UMSL Daily - UMSL Blogs'
p6
aS'The End of the Wilderness Exchange | East Bay Express'
p7
aS'The Battle of Berkeley Progressives | East Bay Express'
p8
aS'Lamar University College of Engineering - Wikipedia, the ...'
p9
aS'Texas lawmakers welcome vagueness - Standard-Times'
p10
a.