(lp0
S'Industry:Oil & Gas Pipelines - Wikinvest'
p1
aS'SAPD crisis team helps vulnerable population - San Antonio ...'
p2
aS'Pig Liquors - San Antonio Express-News'
p3
aS"Valero Invests in Algenol: What's Going On? | Greentech ..."
p4
aS'Service and Scholarship Legacy of Achievement ... - news'
p5
aS'AB32 driving higher energy costs | CalWatchdog.com'
p6
aS'Putting Tar Sands in Your Tank - Oil Change International'
p7
aS'Texas Is Prepared for Oil Spills, Land Office Says | The ...'
p8
aS'CHS band earns high marks in recent competitions'
p9
aS'Golfers fight to keep Rainbow Springs open as lease nears ...'
p10
a.