(lp0
S'Qteros, Inc. | LinkedIn'
p1
aS"O'Neal To Construct Biorefinery Project : O'Neal Inc."
p2
aS'Dellums to Finally Use Power | Politics & Government ...'
p3
aS"A Father's Quest | East Bay Express"
p4
aS'Women with Fuller and Firmer Lips Look Younger, Study ...'
p5
aS'HIGH SCHOOL BASKETBALL: Irion County in control'
p6
aS'Government Affairs Jobs, Employment in San Antonio, TX ...'
p7
aS'The Angel Karly Foundation!'
p8
aS'The best story never told - Milwaukee Journal Sentinel'
p9
aS"Why Farouk Shami can't win - The Arena - mySanAntonio.com"
p10
a.