(lp0
S'Valero St. Charles Diesel Processing Facility  CB&I'
p1
aS'Leon Creek fish warning extended - San Antonio Express ...'
p2
aS'Coalition targets Latina teen pregnancy - San Antonio ...'
p3
aS'Free tours educate people about bats - San Antonio Express ...'
p4
aS'Aventura of a lifetime - San Antonio Express-News'
p5
aS'Cooks & Cocinas: Ellen Riojas Clark - San Antonio Express ...'
p6
aS"Oakland's New Sewer Fees Penalize Water Conservation ..."
p7
aS'Another week of GW News, June 27, 2010  A Few Things ...'
p8
aS'Hurricane Alex is gone, killing at least 24 people - FluTrackers ...'
p9
aS"Big Green's opaque funding | CalWatchdog.com"
p10
a.