(lp0
S'Keystone Pipeline - DownstreamToday.com - News and ...'
p1
aS'Proposition 23: Would it worsen gas-price shocks? - LA Now'
p2
aS'From Eastern Europe to South Texas - San Antonio Express ...'
p3
aS'Exploring anti-aging claims - San Antonio Express-News'
p4
aS"Ghost hunter says dad's secret could be Nazi gold - San ..."
p5
aS'Bexar County stops funding BEAT AIDS - San Antonio ...'
p6
aS'Euphoric Energy | Phoenix New Times'
p7
aS'Roma deportations by France a disgrace, says EU | World ...'
p8
aS'History - Pape-Dawson Engineers, Inc.'
p9
aS'Oil Watchdog | Archive | Natural Gas'
p10
a.