(lp0
S"California's Prop 23 is bad news for Latino families | Grist"
p1
aS'Projects Cancelled in Uncertain Climate | 2010-09-08 | ENR'
p2
aS'Prop. 23: Terrorism vs. gas price hikes? | Greenspace | Los ...'
p3
aS"Redding is Jefferson's new head football coach - San ..."
p4
aS'Delicious Tamales at 30 - San Antonio Express-News'
p5
aS"Wednesday's downpour sets new daily record - San Antonio ..."
p6
aS'2 S.A. artists nominated for Latin Grammys - San Antonio ...'
p7
aS'Poteet football coach hit with DWI charge - San Antonio ...'
p8
aS'United Way campaign under way | Amarillo Globe-News'
p9
aS'mySouTex.com - Valero Three Rivers Refinery gives'
p10
a.