(lp0
S"Short finishing productive run as Northside's AD - San ..."
p1
aS'Pioneer spirit - San Antonio Express-News'
p2
aS'Energy Companies - NASDAQ.com'
p3
aS'Companies by Name: V - NASDAQ.com'
p4
aS'HIGH SCHOOL TRACK & FIELD: Small numbers, big results'
p5
aS'Part 1: Introduction To the Independent Refiners - Chain ...'
p6
aS'I Love CO2'
p7
aS'Raghu Pillai to quit Reliance retail | TopNews'
p8
aS'Oil spills throughout history - Washington Post'
p9
aS'Seahawks.com Blog | 2010 | April'
p10
a.