(lp0
S'Windcrest evidence seized - San Antonio Express-News'
p1
aS'Cooking on a budget: Calabacita - San Antonio Express-News'
p2
aS'Suit claims lawyers cheated aging mom - San Antonio ...'
p3
aS'WellMed bought Medicare Advantage plan company - San ...'
p4
aS'Alon USA Energy Krotz Springs LA, 70750  Manta.com'
p5
aS'My Town: Ian Poulter - Golf Digest'
p6
aS'[PDF]\nInitial Disclosure Document and Unaudited Consolidated ...'
p7
aS'Defense-Technology News: April 13, 2010'
p8
aS'What is the Best Score Ever Posted by a Professional Golfer ...'
p9
aS"Kat & Ranbir sizzle on Arjun's dance floor | TopNews"
p10
a.