(lp0
S'Principal inspires as he strives for improvements - San ...'
p1
aS'Cooks & Cocinas: Jorge Vela - San Antonio Express-News'
p2
aS'Farmers markets react to consumer demand - San Antonio ...'
p3
aS'[PDF]\nIssue 13'
p4
aS'Several area gas stations cover up "BP" on signs - News ...'
p5
aS'Five Challenges of Next-Generation Biofuels - Energy ...'
p6
aS'Powhatan man Tasered, jailed after struggle with deputies ...'
p7
aS"Captain's Blog  06/07/2010  Velo Valero - PowWeb"
p8
aS'Eagle Asphalt Products Corpus Christi TX, 78409  Manta ...'
p9
aS'A Focus on Human Needs at New York Design Show - VOA'
p10
a.