(lp0
S'China stakes claim to S. Texas oil, gas - San Antonio ...'
p1
aS'Shooter gets 18-year prison term - San Antonio Express-News'
p2
aS'Teachers: We got fired over sex toy spat - San Antonio ...'
p3
aS"Spurs' Splitter will not play on road trip - San Antonio ..."
p4
aS'Study finds California is a global cleantech leader, more ...'
p5
aS'Big Oil money pouring back into California to boost Prop 23 ...'
p6
aS'Lamar Elementary fifth graders bank on the future'
p7
aS'Efrain Valero Carpeting | Phoenix, AZ 85042 - HomeAdvisor'
p8
aS'Michigan Magician Amazing Clark'
p9
aS"Despite Army's Prevention Efforts, Suicides Continue - The ..."
p10
a.