(lp0
S'UPDATE 4-Morgan, Statoil to trade oil for new refiner PBF ...'
p1
aS'PBF Announces Product Off-Take, Crude Supply and ...'
p2
aS'Cano Petroleum, Inc.: OTCMKTS:CANOQ quotes & news ...'
p3
aS'Say (H-E-B) Cheese! - San Antonio Express-News'
p4
aS'Alamo collection includes oddities - San Antonio Express ...'
p5
aS'Defendant testifies in death penalty trial - San Antonio ...'
p6
aS'Convict with history of stabbings gets 40 years - San Antonio ...'
p7
aS'USCG: Houston Ship Channel crash could cause $1B loss'
p8
aS'Executive Profiles - CEO Biographies - Senior Management ...'
p9
aS'Claudia Schiffer looking fantastic in a summer dress, after ...'
p10
a.