(lp0
S'Valero Uses Contract Workers for Easy Layoffs | Consumer ...'
p1
aS'Oil Watchdog | Archive | BP'
p2
aS'Brookshire - Media - 2010'
p3
aS"Universal City couple recount daughter's passions - San ..."
p4
aS'A DREAMer shows up on my doorstep - San Antonio ...'
p5
aS'Accused shooter surrenders - San Antonio Express-News'
p6
aS'A Conversation With Cameron Davies, Boardwalk on Bulverde'
p7
aS'Liquor, wine distributor GIMA spreading the word - San ...'
p8
aS'From Disease to Green | East Bay Express'
p9
aS'Grieving Widow Sends Political Message Through Art - VOA'
p10
a.