(lp0
S'Valero plans bridge to move refinery parts | NOLA.com'
p1
aS'Boycott Valero and Tesoro Gas Stations. Tell Everyone You Know ...'
p2
aS'Google rallies opposition to Calif. energy measure - CNET'
p3
aS'NewEnergyNews: QUICK NEWS, 8-11: NEW ENERGY VS ...'
p4
aS"Cute Garcia leaves L.A. to return to S.A. TV news - Jakle's ..."
p5
aS"Instructor's game shows his passion for putting - San ..."
p6
aS'Traffic stalled on Loop 410 near W.W. White - San Antonio ...'
p7
aS'Reality-based pain relief - San Antonio Express-News'
p8
aS'Great Expectations | East Bay Express'
p9
aS'#603 University of Texas, San Antonio - Forbes.com'
p10
a.