(lp0
S"Gas From Trash: Waste Management's Big Biofuel Play ..."
p1
aS'Ethanol Producer Magazine  The Latest News and Data ...'
p2
aS'Savings and Optimization: Case Studies (Energy Engineering)'
p3
aS'European Oil Refineries Sold And Up For Sale - CHEManager'
p4
aS'[PDF]\nSecondQuarter 2010 - Solar Times'
p5
aS'Ex-Hirschfeld head buys Wendland plant - Standard-Times'
p6
aS'Oakland Meter Maids to Snap Photos | East Bay Express'
p7
aS'Area golf calendar - Dallas Morning News'
p8
aS'Old, Smelly Lipsticks Can Harm Your Lips! | TopNews'
p9
aS'Youtube video and AP photo: Manu Ginobili blocks Kevin ...'
p10
a.