(lp0
S'Importing Solar Power with Biomass - Renewable Energy ...'
p1
aS'Orissa man wakes up after being declared dead | TopNews'
p2
aS'Lubricant Storage And Handling - Resources And Advice'
p3
aS'HIGH SCHOOL BASKETBALL: Bearcats sink shots, Maidens'
p4
aS"SAN ANGELO'S 42ND MAYOR: New takes city's reins"
p5
aS'Attention, Danica Patrick fans! Meet foxy racing phenom at ...'
p6
aS'New Home Construction Framing Inspections - Home ...'
p7
aS'Claudia del Castillo | LinkedIn'
p8
aS'Title V Permits - State of West Virginia'
p9
aS'[PDF]\nto download full article - CSPnet'
p10
a.