(lp0
S'This Chipotle News Proves Calorie Counts are Bull - Attn'
p1
aS'Chipotle Strategy Gives Customers What They Want ...'
p2
aS'The Arrowhead : Chipotle: Addictive Friend or Unhealthy Foe?'
p3
aS'How Chipotle is forcing sit-down chains like Olive Garden to ...'
p4
aS"Arlington Restaurant Inspections: Chipotle, Ben's Chili Bowl..."
p5
aS'The Insider: Teeth-Mex | TheLedger.com'
p6
aS'From Chipotle to Wal-Mart, Health Care Law Proving Not to ...'
p7
aS"Giuliana Rancic in trouble for saying Zendaya 'smells like ..."
p8
aS'Letter to the editor: Chipotle lines represent inequality in ...'
p9
aS'Chipotle Mexican Grill hosts free festival in Scottsdale'
p10
a.