(lp0
S'Chipotle to hire 4,000 employees in one-day hiring event'
p1
aS'Dozens of Customers Report Feeling Sick After Eating at ...'
p2
aS'Chipotle looking to hire 4,000 new workers in one day - Aug ...'
p3
aS'Chipotle to Hire Thousands of Employees in One Day ...'
p4
aS'Chipotle Mexican Grill Inc - News Release'
p5
aS'Chipotle Plans One-Day Hiring Blitz to Hire 4,000 New ...'
p6
aS'Chipotle to hire 4,000 employees in one-day hiring spree ...'
p7
aS'Chipotle seeking to hire 4,000 new employees  all in 1 ...'
p8
aS'Chipotle to hire 4,000 in one day - 7NEWS Denver ...'
p9
aS'Chipotle aims to hire 4,000 people in one day - USA Today'
p10
a.