(lp0
S'Chipotle Stock May Still Be Undervalued -- The Motley Fool'
p1
aS'[Exclusive - Breaking News] Apple and Chipotle Team Up for Apple ...'
p2
aS'Chipotle Mexican Grill opens in Macon | News | Macon News'
p3
aS'Chipotle to Stop Selling Burritos - Thrillist'
p4
aS'New Edgewater Chipotle Accused Of Questionable ...'
p5
aS'11 Facts About Chipotle That Defy All Odds | TIME'
p6
aS"Chipotle Can't Escape EEOC's Disability Bias Claim - Law360"
p7
aS'Newport News: Chipotle #1248 - Patrick Henry Mall (757 ...'
p8
aS"The 'Chipotle of pizza' chains coming to Mohawk Commons ..."
p9
aS'Chain Gang Roundup: Chipotle Opens at Liberty Place ...'
p10
a.