(lp0
S'Calvert Village brings Chipotle to Prince Frederick ...'
p1
aS'Why Chipotle Mexican Grill Inc. Stock Soared 23% in July ...'
p2
aS"What's coming to Delco: Cracker Barrel, Chipotle, Painting ..."
p3
aS'Play new Chipotle game and get a buy one, get one free ...'
p4
aS'Play This Ingredient-Guessing Game and Chipotle Will ...'
p5
aS'Restaurateur makes his own waves - Las Vegas Sun News'
p6
aS'Shake Shack just reported Chipotle-level sales. Investors ...'
p7
aS'Phantom Gourmet: Chipotle Salsa Taste Test  CBS Boston'
p8
aS'An Open Letter to Chipotle  March Against Myths'
p9
aS'How subglacial discharge is kind of like blowing all of your ...'
p10
a.