(lp0
S"Chipotle's Bad Tomatoes Came From Nation's Largest Field ..."
p1
aS'Chipotle in Riverhead expected to open by spring 2016 ...'
p2
aS'Blaze Pizza, Chipotle to share building in Normal | Local ...'
p3
aS'Chipotle Mexican Grill, Inc. (CMG): This Could Be Huge for ...'
p4
aS'Chipotle Mexican Grill coming to Canton - Hometownlife.com'
p5
aS'Southwest Florida Online - Sunday Morning News ...'
p6
aS'Chipotle in Willow Grove robbed - Montgomery News'
p7
aS'Villa Italian Kitchen Gets Spicy with Chicken Chipotle ...'
p8
aS'Chipotle Mexican Grill, Fairfield Inn planned in Holyoke ...'
p9
aS"Chipotle's Ells makes list of 100 best-performing CEOs in ..."
p10
a.