(lp0
S'Chipotle is Not Your Favorite Casual Mexican Chain Anymore'
p1
aS"Rubio's Edges Out Chipotle As America's Favorite Mexican ..."
p2
aS'Chipotle Mexican Grill, Inc. Should Have a Great 2015 ...'
p3
aS'Forget Chipotle Mexican Grill: Here Are Better Restaurant ...'
p4
aS"Chipotle's Health Troubles Turn Criminal - The Daily Beast"
p5
aS"Rubio's Wins Consumer Reports Survey - Business Insider"
p6
aS'Surprise! The Best Mexican Fast Food Chain is Not Chipotle ...'
p7
aS'Warm Chipotle Maple Roasted Sweet Potato Salad with ...'
p8
aS'Forgot Password - Loyalty360 - Daily News'
p9
aS'KFC to serve beer at new premium Sydney restaurant - NY ...'
p10
a.