(lp0
S'3 Reasons to LOVE Chipotle From an RD - Health News ...'
p1
aS"Study shows that millennials want McDonald's to ... - Fox News"
p2
aS"Chipotle's biggest competitor isn't McDonald's - Yahoo ..."
p3
aS'A pizza chain that emulates Chipotle and counts LeBron ...'
p4
aS'Chipotle Surpasses Subway As Healthy Choice For Fast Food'
p5
aS'Chipotle - 12300 Jefferson Ave. in Newport News, Virginia ...'
p6
aS'Big Sean Walks Into Chipotle, Treats Everyone to Burritos ...'
p7
aS'These are the American cities with the highest ... - Fusion'
p8
aS"McDonald's trying to drum up business by acting like Chipotle"
p9
aS'Chipotle Mexican Grill - Anderson - Facebook'
p10
a.