(lp0
S"Why Shake Shack won't be the next Chipotle - Yahoo Finance"
p1
aS'Build-A-Pizza: How the successful Chipotle business model ...'
p2
aS'Two incredibly easy ways to get free Chipotle | WJLA'
p3
aS"What's coming to Delco: Cracker Barrel, Chipotle, Painting ..."
p4
aS"Chipotle's Cultivate Minneapolis offers food-focused fest"
p5
aS'RWW News: Huckabee Jokes About Clinton Murder Claims ...'
p6
aS'Critical Alerts For Exelixis, Opko Health, Chipotle Mexican ...'
p7
aS'DC Free Chipotle - BrightestYoungThings - DC'
p8
aS'How WWE Wrestlers Stay Fit on The Road | GQ'
p9
aS'WWE Superstars Reveal Their Fast Food Restaurant Of ...'
p10
a.