(lp0
S"How a Mexican-food chain you've probably never heard of ..."
p1
aS'Chipotle Mexican Grill (CMG) Stock Rated New "Outperform ...'
p2
aS'3 Stocks Growing Faster Than Chipotle -- The Motley Fool'
p3
aS"First Look: Chapati Indian Grill, the Latest 'Chipotle Version ..."
p4
aS"Chipotle Challenger Qdoba Taps Pereira & O'Dell as Lead ..."
p5
aS'Three Scenarios That Might Impact Chipotle Mexican Grill ...'
p6
aS'Fort Bragg Report: Chipotle to Fort Bragg? | Blog: Fort Bragg ...'
p7
aS'(ZOES), Chipotle Mexican Grill, Inc. (NYSE:CMG ... - Benzinga'
p8
aS'From Ancient Sumeria To Chipotle Tacos, Cumin Has ...'
p9
aS'The 12 Best Twitter Reactions to Chipotle Near Fordham ...'
p10
a.