(lp0
S'Chipotle Should Eventually Recover From E. Coli Scare ...'
p1
aS'Does Costco Have a Chipotle Mexican Grill Problem? -- The ...'
p2
aS'Chipotle Mexican Grill, Inc. - ETF Daily News'
p3
aS'Why Store Expansion Is One Of The Key Growth Drivers For ...'
p4
aS'Which Chipotle Restaurants are Part of the E. coli Outbreak?'
p5
aS'Chipotle to open its first Sidney restaurant in the spring ...'
p6
aS'E. Coli Pain Could Linger for Chipotle Shareholders'
p7
aS'Chipotle Debunks Report That Stores Will Close Over Dog ...'
p8
aS'Chipotle Investor Relations - RSS Content'
p9
aS'E. Coli Outbreak Plagues Chipotle - SFCToday.com'
p10
a.