(lp0
S'CDC reports more recent outbreak of E. coli ... - Fox News'
p1
aS'CDC investigating different E. coli strain at Chipotle - CNBC ...'
p2
aS"Chipotle Illnesses Have Food Safety Experts 'Scratching ..."
p3
aS'CDC Investigating Another Chipotle E.Coli Outbreak - ABC ...'
p4
aS'ANALYSIS: Chipotle is a victim of corporate sabotage ...'
p5
aS'Chipotle Outbreak Illness Count Hits 514 as CMG Stock ...'
p6
aS'Chipotle stock plunges again on new E. coli fears - Dec. 22 ...'
p7
aS"Chipotle's (CMG) E.Coli Woes Continue With News of ..."
p8
aS'Chipotle drops 5% as second E. coli outbreak eyed'
p9
aS'Chipotle E. Coli Cases Rise, With 5 More Ill in Midwest - The ...'
p10
a.