(lp0
S'WSU helps Chipotle restaurant develop healthier tortilla ...'
p1
aS'Chipotle Opens in Westport - Westport, CT Patch'
p2
aS'How to Find Healthy Fast Food Items on Your Summer Road ...'
p3
aS"Chipotle 'Homo ests?' promotions - Business Insider"
p4
aS"McDonald's Corporation (NYSE:MCD), Chipotle Mexican ..."
p5
aS'The best and worst fast-food guacamole | New York Post'
p6
aS"Papa John's spending $100 million a year to eliminate ..."
p7
aS'Pospisil And Sock Dine At Chipotle - ATP World Tour'
p8
aS'RDCT - Chipotle - Vibes'
p9
aS'Bibibop looks poised to hit it big | WOSU Public Media'
p10
a.