(lp0
S'Mom, baby stranded after SUV stolen from Chipotle parking lot'
p1
aS"You're Not Going Crazy: 7 Ingredients Chipotle Employees ..."
p2
aS'Why do Chipotle employees give you less of certain ... - Fox8'
p3
aS'Can LYFE Kitchen outdo Chipotle in the fast casual market ...'
p4
aS'News - | The Kansas City Star'
p5
aS"How to Eat Healthy at Chipotle - Men's Journal"
p6
aS"How to order from Chipotle's secret menu | Fox17"
p7
aS'Chipotle exec says companies need vision | Local Education'
p8
aS'If You Want to Be Healthy, Should You Eat at Chipotle ...'
p9
aS"Is Chipotle the McDonald's of the future  or the future of ..."
p10
a.