(lp0
S'How Hillary Clinton Made a Chipotle Manager the Most ...'
p1
aS"Fox News Host Wonders If Clinton's Chipotle Stop Was ..."
p2
aS'Hillary Clinton Went to Chipotle and It Was Apparently ...'
p3
aS'Chipotle, Gay Marriage, and the Partisan Divide in Cable ...'
p4
aS'Hillary Clinton skips tip jar during Ohio Chipotle visit - NY ...'
p5
aS"Chipotle Manager: Hillary Clinton Didn't Leave Anything in ..."
p6
aS"Chipotle manager says Hillary didn't tip | TheHill"
p7
aS"Reince Priebus slams Hillary's Chipotle trip - Business Insider"
p8
aS'This is what four days of inane Clinton-Chipotle coverage ...'
p9
aS"Hillary's Chipotle campaign: How the press is ... - Fox News"
p10
a.