(lp0
S'Chipotle to Offer Part-Time Workers Paid Vacation, Sick Pay ...'
p1
aS'Chipotle Joins Other Fast Food Restaurants in Expanding ...'
p2
aS"Walpole HS valedictorian says she plagiarized 'Chipotle ..."
p3
aS'Chipotle to offer part-time workers tuition reimbursement ...'
p4
aS"Walpole High valedictorian plagiarized 'Chipotle' graduation ..."
p5
aS'Chipotle Is Latest Company to Add Tuition Benefits'
p6
aS'Working at Chipotle - Part-Time Chipotle Employees Get ...'
p7
aS"Your Chipotle Burrito Just Got Better, and It's Not About the ..."
p8
aS'Chipotle to offer tuition reimbursement to hourly workers'
p9
aS'Why Chipotle Wants to Give Its Workers More Than a McJob ...'
p10
a.