(lp0
S"Why Shake Shack won't be the next Chipotle - Yahoo Finance"
p1
aS'Build-A-Pizza: How the successful Chipotle business model ...'
p2
aS"Chipotle's Cultivate Minneapolis offers food-focused fest"
p3
aS"'Mad Money' Lightning Round: Forget El Pollo Loco (LOCO ..."
p4
aS"What's coming to Delco: Cracker Barrel, Chipotle, Painting ..."
p5
aS"Four Tasty Food and Beverage Plays (That Aren't Chipotle ..."
p6
aS"'GMO-Free' Is A Boon For Companies Chasing 'Health Halo ..."
p7
aS"MNfusion: 'Cultivate Festival' Returns To Loring Park ..."
p8
aS'U of M posts love letter to Chipotle worker on Instagram | Blogs'
p9
aS"Chipotle didn't exist until a year ago : MandelaEffect - Reddit"
p10
a.