(lp0
S'Short seller on Chipotle: Great company, dangerous stock ...'
p1
aS'Starbucks, Chipotle to open locations in Green Twp.'
p2
aS'GOP Reps: Chipotle Gets To Pick Its Meat, So We Get To ...'
p3
aS"Chipotle's pork choiceand religious freedomcommentary"
p4
aS'Chipotle Mexican Grill set to open in Edinburg - The Monitor ...'
p5
aS'Pipe Dream - Binghamton University News, Sports and ...'
p6
aS'Chipotle Mexican Grill coming to Miller Road | March 19 ...'
p7
aS'Chipotle Mexican Grill coming to the West Seattle Junction ...'
p8
aS'Looks Like Park Slope Is Getting Its First Chipotle - Thrillist'
p9
aS'Panera Bread looking to locate on US 6 | Porter County News'
p10
a.