(lp0
S"Why Chipotle's (CMG) Stock Isn't Going to Plummet 20 ..."
p1
aS'Chipotle is losing its luster - Business Insider'
p2
aS'Chipotle unveils "Homo ests?" campaign after gay ...'
p3
aS'Signs Indicate Chipotle Mania Might Finally Be Dying Down ...'
p4
aS'Chipotle shares could plunge unless growth revives ...'
p5
aS'It Looks Like the World Is Finally Falling Out of Love With ...'
p6
aS'Nampa Chipotle to open this month | Idaho Press-Tribune ...'
p7
aS"Chipotle: No more Wall Street darling? | Reporter's Notebook"
p8
aS"Chipotle Mexican Grill, Inc. (NYSE:CMG) - What's Next For ..."
p9
aS'The Chipotle Craze Could Be Losing Its Heat - Chipotle Is ...'
p10
a.