(lp0
S"Meet the Guy Who's Eaten Chipotle for the Last 103 Days ..."
p1
aS'Carnitas to return to Chipotle restaurants | KRQE News 13'
p2
aS'Chipotle to open in Orem by the end of summer | Local ...'
p3
aS'Chipotle architect talks design simplification at AIA KC ...'
p4
aS'Chipotle caught in pork hypocrisy | Pork Network'
p5
aS'Chipotle Friend or Faux  Chipotle News  ALL YOU | Deals ...'
p6
aS"Chipotle Continues Effort to Educate Consumers on What's ..."
p7
aS'Chipotle Giving Away Free Food | NACS Online  Media ...'
p8
aS'Critcs Slam Chipotle For Using UK Pork Supplier for Carnitas'
p9
aS"UK's Karro Food agrees deal with US chain Chipotle"
p10
a.