(lp0
S'Feeling poetic? Chipotle giving free food for best haiku'
p1
aS'The Chipotle Effect: How Chefs Are Reinventing Fast Food ...'
p2
aS'A Mini-Chipotle May Be Coming to a Town Near You - Eater'
p3
aS"Is a 'mini Chipotle' coming to your town? (+video ..."
p4
aS'5 questions with Chipotle CMO Mark Crumpacker | News ...'
p5
aS"McDonald's investment a springboard for Chipotle - Nation's ..."
p6
aS'The wait is over, Chipotle open for business'
p7
aS'Chipotle Mexican Grill: Did Investors Overreact? - Stocks to ...'
p8
aS'Restaurant Inspections: Chipotle, Spices and Beyond... | Patch'
p9
aS'Gerard Craft to open Porano Pasta & Gelato downtown | Off ...'
p10
a.