(lp0
S"Bend's Chipotle Mexican Grill ready to open | News - Home"
p1
aS'5 Stunning stats about Chipotle - Video - Business News'
p2
aS"Conquering the Office Lunch, Using Chipotle's Playbook ..."
p3
aS"This Is Why Taco Bell Can't Compete with Chipotle Mexican ..."
p4
aS'Chick-fil-A has one advantage over Chipotle - Yahoo Finance'
p5
aS'Carnitas Coming Back to Restaurants: Does This Really ...'
p6
aS'Bruce Turkel on Fox Business News: Twitter, Chipotle and ...'
p7
aS'Carnitas comeback: Chipotle taps U.K. supplier to address ...'
p8
aS'Short Interest update Of Chipotle Mexican Grill, Inc. (CMG ...'
p9
aS'Chipotle Mexican Grill, Inc. (CMG) FY15 Earnings Estimates ...'
p10
a.