(lp0
S'How to double the size of your next Chipotle ... - Fox News'
p1
aS'Chipotle Is Raising Beef Prices, A Report Says - Fortune'
p2
aS'3 Restaurants Growing Faster Than Chipotle - The Motley Fool'
p3
aS'Man discovers tips to maximize your Chipotle burrito | fox8 ...'
p4
aS'This Genius Chipotle Trick Will Get You A Massive 2-Pound ...'
p5
aS"Chipotle, OSHA violations and Cabela's in Wednesday's AL ..."
p6
aS'How to double the size of your burrito at Chipotle - Yahoo ...'
p7
aS'Life hack: How to get Chipotle to nearly double your burrito ...'
p8
aS'Burrito bonanza: Postmates offers $3 burritos while Chipotle ...'
p9
aS'Chipotle is raising prices on steak and barbacoa - Business ...'
p10
a.