(lp0
S'Your Chipotle Could Be Getting Carnitas Back Soon'
p1
aS'Chipotle restaurant coming to Lufkin - KPLC 7 News, Lake ...'
p2
aS"How Chipotle is eating McDonald's lunch | America's Markets"
p3
aS'Chipotle Pulls Pork off Menus - The Pig Site'
p4
aS'Capital One Fraud Researchers May Also Have Done Some ...'
p5
aS'Apple Pay Gains Ground: Save Mart Added, Chipotle ...'
p6
aS'Chipotle Offering Free Burrito, Bowl, Salad or Tacos on Jan....'
p7
aS'Chipotle restaurant coming to Lufkin - KTRE.com | Lufkin ...'
p8
aS'U.S. regulators sue former Capital One employees for ...'
p9
aS"These McDonald's items are on the chopping block"
p10
a.