(lp0
S'Chipotle Closing : snopes.com'
p1
aS'Customizable pizza is a piping hot trend | Fox News'
p2
aS'Top 4 tips to get more in your Chipotle burrito for FREE ...'
p3
aS'Two incredibly easy ways to get free Chipotle | WJLA'
p4
aS"What's coming to Delco: Cracker Barrel, Chipotle, Painting ..."
p5
aS'RWW News: Huckabee Jokes About Clinton Murder Claims ...'
p6
aS'The Chipotle Effect: Food Sustainability and the Future of ...'
p7
aS'Critical Alerts For Exelixis, Opko Health, Chipotle Mexican ...'
p8
aS'DC Free Chipotle - BrightestYoungThings - DC'
p9
aS'snopes.com - No, Chipotle Mexican Grill is not closing ...'
p10
a.