(lp0
S"Hold the carnitas: Chipotle's pork shortage hits Orange County"
p1
aS"16 questions we bet Chipotle won't answer | BEEF Daily"
p2
aS'Inside the bag at Chipotle; - Bend Bulletin'
p3
aS'Detroit entrepreneur striving to launch Chipotle of ...'
p4
aS"Why Chipotle Mexican Grill, Inc. Will Eat McDonald's ..."
p5
aS'Second national chain wants to open near planned Dairy ...'
p6
aS'The university is closed, but what about Chipotle? - The ...'
p7
aS'Chipotle Goes Pork-Free, For You AnonHQ'
p8
aS'Openings: Summerville prepares to Graze, Spero opens ...'
p9
aS"2 Ways McDonald's 'Quick Fix' Antibiotics Move Falls Short"
p10
a.