(lp0
S'Chipotle Is Being Sued for Allegedly Shady Hiring Practices ...'
p1
aS'Michigan Avenue Chipotle Shut Down by Health Department'
p2
aS'Michigan Ave. Temporarily Chipotle Closed Over Fruit Fly ...'
p3
aS'Department Of Public Health Temporarily Closes Downtown ...'
p4
aS'Iconic Chubbuck restaurant to be demolished | News - Home'
p5
aS'Today: Win a Kindle or year of burritos from Chipotle ...'
p6
aS'Michigan Ave. Chipotle closed over fruit flies | abc7chicago ...'
p7
aS"Chipotle vs. Moe's review - Business Insider"
p8
aS'Chipotle sued again for statewide salmonella outbreak in ...'
p9
aS'Chipotle faces ad attack in response to its anti-GMO ...'
p10
a.