(lp0
S'Your Next Chipotle Burrito Will Be Smaller Thanks to This ...'
p1
aS'Chipotle is the target of another brutal attack ad - Business ...'
p2
aS"Looter News: Superman's New Name, Chipotle's New ..."
p3
aS'Chipotle plus 3 more eateries slated for Brighton'
p4
aS'Food News: New Whopper Turns Your Poop Green ...'
p5
aS'Chipotle, Facebook And Growth Stocks May Be The Best ...'
p6
aS"Chipotle's Boorito fundraiser is back - WUSA9.com"
p7
aS'Salmonella Outbreak Sparks Another Lawsuit Against ...'
p8
aS'Chipotle treats Kirk Cousins and his wife like royalty - The ...'
p9
aS'Chipotle to open second Erie location Oct. 18 - GoErie.com ...'
p10
a.