(lp0
S'Average Chipotle customer eats over 1000 ... - Fox News'
p1
aS"Chipotle Doesn't Really Care That Burritos Make You Fat ..."
p2
aS'Sorry guys, but we have some bummer Chipotle news'
p3
aS'11 People So Over All this Talk About Chipotle and Calories!'
p4
aS'Chipotle Is Actually Unhealthy; Calories, Fat in Chipotle ...'
p5
aS"Tribeca Citizen | In the News: Chipotle's Salt Problem"
p6
aS'Taco Bell Has Less Calories, Fat Than Chipotle  But ...'
p7
aS'Chipotle, Mattress Firm and other businesses may be ...'
p8
aS'Chipotle Mexican Grill Stock: Overhyped or Just Getting ...'
p9
aS"Chipotle, Applebee's part of proposed redevelopment of old ..."
p10
a.