(lp0
S"2016's Chipotle Primary - ABC News"
p1
aS'How Hillary Clinton Made a Chipotle Manager the Most ...'
p2
aS"Jeb Bush Takes Jab at Hillary Clinton: 'I Don' - ABC News"
p3
aS'Hillary Clinton skips tip jar during Ohio Chipotle visit - NY ...'
p4
aS'Chipotle, Gay Marriage, and the Partisan Divide in Cable ...'
p5
aS'This is what four days of inane Clinton-Chipotle coverage ...'
p6
aS"Who Reported on Hillary Clinton's Historic Chipotle Visit ..."
p7
aS"Hillary's Chipotle campaign: How the press is ... - Fox News"
p8
aS"Fox News Asks: Was Hillary Clinton's Chipotle Run ..."
p9
aS'There Are So Many More Questions About Chipotle -- NYMag'
p10
a.