(lp0
S'CDC reports more recent outbreak of E. coli ... - Fox News'
p1
aS'CDC Investigating Another Chipotle E.Coli Outbreak - ABC ...'
p2
aS'Chipotle E. Coli Cases Rise, With 5 More Ill in Midwest - The ...'
p3
aS'CDC Update: 58 Sick in E. Coli O26 Outbreak(s) Linked to ...'
p4
aS'The CDC is investigating another E. coli outbreak that could ...'
p5
aS'Chipotle Probed for New Outbreak of Different E. Coli Strain ...'
p6
aS'Chipotle eyed in outbreak of different E. coli strain - CBS News'
p7
aS'CDC Reveals More E. Coli Cases Linked to Chipotle - NBC ...'
p8
aS"Chipotle's (CMG) E.Coli Woes Continue With News of ..."
p9
aS'CDC Probes New Chipotle-Linked E. Coli Cases - WSJ'
p10
a.