(lp0
S"A Timeline of Chipotle's Five Outbreaks | Food Safety News"
p1
aS'Chipotle Installing New Food Safety Protocols From the ...'
p2
aS"Chipotle's Truly Terrible 2015 -- Grub Street"
p3
aS'Everything You Need to Know About the Latest Foodborne ...'
p4
aS'Chipotle Mexican Grill Nightmare Continues: Norovirus ...'
p5
aS'Chipotle: The Long Defeat Of Doing Nothing Well - Forbes'
p6
aS'Can Chipotle Mexican Grill Recover From The E.Coli ...'
p7
aS'Chipotle Pulls Back on Local Ingredients - WSJ'
p8
aS'Chipotle aims as close to perfect food safety as ... - News'
p9
aS"Chipotle is stuck in a 'fiasco vortex'commentary - CNBC.com"
p10
a.