(lp0
S'Chipotle Closing : snopes.com'
p1
aS'Customizable pizza is a piping hot trend | Fox News'
p2
aS'Top 4 tips to get more in your Chipotle burrito for FREE ...'
p3
aS'Yikes! Eating at Chipotle Just Got More Expensive | Cambio'
p4
aS'The Chipotle Effect: Food Sustainability and the Future of ...'
p5
aS'snopes.com - No, Chipotle Mexican Grill is not closing ...'
p6
aS'News Releases - City of Bridgeport, CT - BridgeportCT.gov'
p7
aS'Harry Styles Loves His Mexican Food! - J-14'
p8
aS'Chipotle is Raising the Prices of Food with Beef, Caused by ...'
p9
aS'St. Cloud Chipotle to close after human flesh found in beef'
p10
a.