(lp0
S"Why Chipotle's (CMG) Stock Isn't Going to Plummet 20 ..."
p1
aS'Chipotle unveils "Homo ests?" campaign after gay ...'
p2
aS'Signs Indicate Chipotle Mania Might Finally Be Dying Down ...'
p3
aS'It Looks Like the World Is Finally Falling Out of Love With ...'
p4
aS'Pork tacos, almost like Chipotle | Dallas Morning News'
p5
aS"Investors' obsession with Chipotle might finally be dwindling"
p6
aS'Chipotle is almost here!!!!!! | KEPR'
p7
aS'Can Shake Shack Be The Next Chipotle? Here Are The 14 ...'
p8
aS'Chipotle opening new Columbia location - WTOC-TV ...'
p9
aS'Why Does Chipotle Keep Tumbling in 2015? - Yahoo Finance'
p10
a.