(lp0
S'Chipotle Grill coming to Bend: reaction mixed | News - Home'
p1
aS'Bendites react to Chipotle coming to Bend | News - Home'
p2
aS'Chipotle to add two more restaurants in Charleston area ...'
p3
aS"Yale University's rare-books library is now collecting ..."
p4
aS"Don't Forget Chipotle Amidst the Restaurant IPO Boom, 3 ..."
p5
aS'Chipotle requests permit to open in Ukiah'
p6
aS'Divas of Dish: Creamy chipotle corn off the grill | www ...'
p7
aS"When does fast food belong in the Yale Library? When it's ..."
p8
aS"Chipotle's sofritas taste like a lump of coal"
p9
aS'Del Taco Is Throwing Bacon And Chipotle Salsa On Their ...'
p10
a.