(lp0
S'Chipotle to hire 4,000 employees in one-day hiring event'
p1
aS'Chipotle looking to hire 4,000 new workers in one day - Aug ...'
p2
aS'Chipotle to Hire Thousands of Employees in One Day ...'
p3
aS'Chipotle Plans One-Day, 4,000-Worker Hiring Binge - WSJ'
p4
aS'Chipotle Mexican Grill Inc - News Release'
p5
aS'Chipotle seeking to hire 4,000 new employees  all in 1 ...'
p6
aS'Chipotle to hire 4,000 employees in one-day hiring spree ...'
p7
aS'Chipotle to hire 4,000 in one day - 7NEWS Denver ...'
p8
aS'Chipotle aims to hire 4,000 people in one day - USA Today'
p9
aS'Chipotle looks to hire 4,000 people in one day | FOX31 ...'
p10
a.