(lp0
S'Will Chipotle ever serve seafood? | Fox News'
p1
aS'Chipotle Mexican Grill coming to Flint Township | MLive.com'
p2
aS"Chipotle, Yelp Slam Indiana's New 'Religious Freedom' Law ..."
p3
aS"Customers reveal why they stopped going to McDonald's ..."
p4
aS'Why people stop going to chain restaurants - Business Insider'
p5
aS'Chipotle and Starbucks could be coming to Aiken'
p6
aS"Date set for opening of Chipotle's new Macon restaurant ..."
p7
aS'Someburros rebrands to take on Chipotle, other competitors ...'
p8
aS'Celeb Chef Wants Chipotle Suit Over Ramen Concept ...'
p9
aS'Drive-thru Starbucks, Chipotle set sights on Southside of Aiken'
p10
a.