(lp0
S'Chipotle workers are trained to give you smaller portions of ...'
p1
aS'News - | The Kansas City Star'
p2
aS'Chipotle restaurant coming to West Erie Plaza - GoErie.com ...'
p3
aS"How to Eat Healthy at Chipotle - Men's Journal"
p4
aS"Is Chipotle the McDonald's of the future  or the future of ..."
p5
aS'Chipotle Outlets Support Urban Roots: Eat burritos Thursday ...'
p6
aS'Why Chipotle is Making You Fat | Pulsefeedz'
p7
aS'Metro Deaf School - News'
p8
aS'Chipotle Nutrition Calories-Healthy Swaps Substitutes'
p9
aS"Chipotle's burritos may be a stoner's best friend, but their PR ..."
p10
a.