(lp0
S'Salmonella outbreak in MN linked to Chipotle - KMSP'
p1
aS'News release: Health officials investigating Salmonella ...'
p2
aS'MN Health Officials Investigating 45 Salmonella Infections ...'
p3
aS'Salmonella Outbreak Linked To Chipotle Restaurants'
p4
aS'Minn. salmonella cases linked to Chipotle restaurants'
p5
aS'Chipotle plans to hire 4,000 people today with job interviews ...'
p6
aS'Chipotle to hire thousands of people today - CNBC.com'
p7
aS'Chipotle Will Interview 60,000 Job Seekers Todayand It ...'
p8
aS'Chipotle Hiring 4,000 New Workers Today - Fortune'
p9
aS'Chipotle to hire 4,000 workers at hiring event Wednesday ...'
p10
a.