(lp0
S'Chipotle Must Hand In Report But Not Emails In OT Suit ...'
p1
aS'Shout Out: Becky Wolf, cyclist, volunteer, Chipotle fan ...'
p2
aS'This Guy Went on a Massive Hilarious Twitter Rant About ...'
p3
aS'2 Restaurant Stocks to Buy, 1 to Avoid -- The Motley Fool'
p4
aS'Aiken getting Panera Bread, Starbucks and maybe Chipotle ...'
p5
aS'Chipotle in Edgewater Opens in Former Piser Funeral Home ...'
p6
aS'We Grilled Carnage on His One True Love: Chipotle | Thump'
p7
aS'Chipotle Mexican Grill opens in Macon - 13WMAZ.com'
p8
aS'Potato Skins - Chipotle Chicken - Story | WeAreGreenBay'
p9
aS'Feed Your Appetite For Chipotle Stock with Options ...'
p10
a.