(lp0
S'Chipotle still reeling from multiple outbreaks - Dec. 29, 2015'
p1
aS'Chipotle tweaks recipes, ingredient preparation ... - Fox News'
p2
aS'Boston Health Inspector Eats at Chipotle After Norovirus ...'
p3
aS'Chipotle Sabotaged by GMO Activists? : snopes.com'
p4
aS'Brighton Chipotle restaurant linked to Boston norovirus ...'
p5
aS"It's impossible to value Chipotle shares right now - CNBC.com"
p6
aS"Chipotle Means 'Natural' - WSJ"
p7
aS'Raving Conspiracy Theorist Claims Chipotle Is the Victim of ...'
p8
aS'Chief Health Inspector Dines At Reopened Boston Chipotle ...'
p9
aS'Chipotle Mexican Grill, Inc (CMG) E.Coli Outbreak Drags ...'
p10
a.