(lp0
S'4 Truths After the Chipotle E. Coli Outbreak | US News'
p1
aS'Chipotle outbreak highlights sourcing concerns for growing ...'
p2
aS"Chipotle's reputation continues to suffer after E. coli outbreak"
p3
aS'Mother sues Chipotle on behalf of sick 16-year ... - Fox News'
p4
aS'Chipotle metric drops to lowest level ever - CNBC.com'
p5
aS'After E. Coli Outbreak, Chipotle Is Making Big Promises On ...'
p6
aS'Lawsuit filed against Chipotle after norovirus outbreak ...'
p7
aS'Mom sues Chipotle after 16-year-old son contracts norovirus ...'
p8
aS"There's a more disturbing aspect to Chipotle's E. coli outbreak"
p9
aS'4 Truths After the Chipotle E. Coli Outbreak - News - Yahoo'
p10
a.