(lp0
S"Beware the Chipotle 'burrito pattern': Technician - CNBC.com"
p1
aS'Chipotle: Next Stop, $850? -- The Motley Fool'
p2
aS'Chipotle Offers a Halloween Special; Fast Food Drive-Thrus ...'
p3
aS'Chipotle, Facebook And Growth Stocks May Be The Best ...'
p4
aS'FOOD NEWS: Taco Bamba to Expand, Another Chipotle to FC'
p5
aS'Chipotle $3 burritos are coming | am New York'
p6
aS'Chipotle is the target of another brutal attack ad - Business ...'
p7
aS'Facebook, Chipotle Are Buys; Nike, Medtronic Upgraded ...'
p8
aS'Chipotle plus 3 more eateries slated for Brighton'
p9
aS"Looter News: Superman's New Name, Chipotle's New ..."
p10
a.