(lp0
S'Chipotle Twitter hackers tweet obscenities - NY Daily News'
p1
aS'Chipotle apologizes after hacked Twitter ... - Fox News'
p2
aS"Chipotle's Twitter Account Hacked - ABC News"
p3
aS'Chipotle Twitter gets hacked, sends flurry of racist tweets'
p4
aS'Uh oh: Bad News for Chipotle - Young Conservatives'
p5
aS'Chipotle apologizes for abusive tweets in hack - USA Today'
p6
aS'Chipotle Twitter Hacked, Obscenities Posted | NBC New York'
p7
aS'Chipotle Twitter hackers send out volley of racist and ...'
p8
aS"Dear Chipotle: Please Don't Buy Back Shares -- The Motley ..."
p9
aS'Chipotle Wants To Open Thousands Of Takeout-Only ...'
p10
a.