(lp0
S'At Least 99 People Are Sick After Eating at a Chipotle ...'
p1
aS'Like (making) burritos? Chipotle plans to hire 4,000 on its ...'
p2
aS'This Chipotle Location Made 100 People Sick In A Single Day'
p3
aS'Chipotle Health Code Violations in Simi Valley - Food ...'
p4
aS'Do you have what it takes to work at Chipotle? | SILive.com'
p5
aS'Cause of illness outbreak at Chipotle unknown | August 28 ...'
p6
aS'Finally, Chipotle - The Daily Athenaeum: News'
p7
aS'Chipotle Raises Worker Wages - Chipotle Changes - Delish ...'
p8
aS'Gallagher v. Chipotle Mexican Grill, Inc. :: Justia Dockets ...'
p9
aS'A Trick for Getting a Bigger Chipotle Burrito Without Paying ...'
p10
a.