(lp0
S'Bendites react to Chipotle coming to Bend | News - Home'
p1
aS'Wordy Chipotle Packaging Is Now Part of an Ivy League ...'
p2
aS'Eat, drink and save lives with the Chipotle (RED) campaign ...'
p3
aS"Don't Forget Chipotle Amidst the Restaurant IPO Boom, 3 ..."
p4
aS'Chipotle requests permit to open in Ukiah'
p5
aS'Divas of Dish: Creamy chipotle corn off the grill | www ...'
p6
aS'Two new restaurants coming to busy I-81 corridor in ...'
p7
aS'Your Chipotle Order Is Getting Healthier | Eat This Not That'
p8
aS'Chipotle Offering Tuition Reimbursement, Paid Leave to ...'
p9
aS"Millennials are eschewing McDonald's for places like Chipotle"
p10
a.