(lp0
S'Stop Everything! Chipotle Just Started Offering Delivery | E ...'
p1
aS"Carnitas Are Coming Back to Chipotle...but There's a Catch ..."
p2
aS'Chipotle begins offering delivery via Postmates'
p3
aS'Chipotle shares sink as pork shortage cuts into sales ...'
p4
aS'Chipotle launching delivery | Food Business News'
p5
aS'Chipotle begins delivery service in some cities - NY Daily ...'
p6
aS'Chipotle Is Now Delivering, so You Literally Never Need to ...'
p7
aS'Chipotle Announces Delivery in 67 Cities, Including Chicago'
p8
aS'Chipotle offers delivery through Postmates app - UPI.com'
p9
aS'This Is Not A Drill: Chipotle Now Offers Delivery - MTV'
p10
a.