(lp0
S'Can Chipotle be a career? - Dayton Daily News'
p1
aS'Chicago cop praised for buying homeless man Chipotle ...'
p2
aS'Some People Are Literally Sick of Chipotle -- The Motley Fool'
p3
aS'Chipotle hiring 4,000 workers during National Career Day ...'
p4
aS'Chipotle in Hot Water Over Non-GMO Claims - Christine ...'
p5
aS'News Norovirus suspected for sickening Chipotle customers ...'
p6
aS'Cop Goes Viral After He Buys Chipotle for Homeless Man ...'
p7
aS'Piling on Chipotle: The Mexican Fast-Casual Suffers Heated ...'
p8
aS'Chipotle to Hire 4,000 During National Career Day ... - Kolo'
p9
aS'Chipotle expands delivery service to college campuses, MSU'
p10
a.