(lp0
S'Chipotle testing chorizo sausage at select ... - Fox News'
p1
aS"Katie Quinn Davies' Chipotle, Lime and Jalapeo Ribs | Fox ..."
p2
aS"Thumbs up for Chipotle's chorizo on taste, but watch - | The ..."
p3
aS'Chipotle testing Chorizo only in Kansas City - + KSHB.com'
p4
aS'Chipotle Testing New Menu Item: Chorizo | NBC Chicago'
p5
aS'Chipotle Mexican Grill (CMG) Stock Price, Financials and ...'
p6
aS'Chipotle - Press & News'
p7
aS'Chipotle testing chorizo in Kansas City - YouTube'
p8
aS"Subway Goes All-Natural as Industry Follows Chipotle's Lead"
p9
aS'West Side Rag  ANOTHER LOCAL CHIPOTLE GETS ...'
p10
a.