(lp0
S'Chipotle sued for its GMO-free ads - Sep. 1, 2015'
p1
aS'Chipotle sued over false GMO-free claims | Fox News'
p2
aS'Chipotle used GMOs despite claiming to be GMO-free ...'
p3
aS'Chipotle Mexican Grill Sued Over GMO-Free Menu Claims ...'
p4
aS'Chipotle Sued for Using GMOs After Declaring Its Food ...'
p5
aS'Chipotle lied about GMO-free ingredients: lawsuit - NY Daily ...'
p6
aS'Chipotle Will Deliver to These 40 College Campuses This Fall'
p7
aS'Chipotle sued over GMO-free menu claims - Yahoo Finance'
p8
aS'Chipotle Fires Back Against Non-GMO Lawsuit | CMO ...'
p9
aS'Chipotle being sued over alleged use of GMO - ABC7 News'
p10
a.