(lp0
S'El Vez Burrito boasts Chipotle-like Tex-Mex - NY Daily News'
p1
aS'Why Your Chipotle Burrito Might Soon Cost More ...'
p2
aS'Ordering Everything at Chipotle - We Put Everything on ...'
p3
aS"Chipotle's ShopHouse Coming to Chicago: Report | NBC ..."
p4
aS'all propaganda extensions of Monsanto - Natural News'
p5
aS"Chipotle's ShopHouse opening in Chicago Loop - Crain's ..."
p6
aS'Jack in the Box Ramps Up in 2Q15; Chipotle Slows Down ...'
p7
aS'Chipotle Steak Rice Bowls (05.19.15) | fox13now.com'
p8
aS"'Natural' and other food labels that sound ... - CNN.com"
p9
aS"Are Monsanto's Worst Fears Coming True? - Counterpunch"
p10
a.