(lp0
S'Chipotle Mexican Grill Inc. Stock Falls After Earnings: Time ...'
p1
aS"'Put People Over Pigs' Protest At Chipotle Meeting  CBS ..."
p2
aS"Lakeville mayor: Where's OUR Chipotle? - Minneapolis / St ..."
p3
aS'27-year-old mayor demands Chipotle in Lakeville, Minn ...'
p4
aS'Heartburn over Chipotle CEO pay was inevitable - The ...'
p5
aS"Chipotle CEOs' under fire for pay - Business Insider"
p6
aS"Makers of Chipotle's burrito bowls tell fast food chain to 'put ..."
p7
aS'Police: Wallet Stolen From Huntington Chipotle | Patch'
p8
aS"Chipotle Shares Recipe for Its 'Perfect Guacamole' | Patch"
p9
aS"Working Families Ask Chipotle to Apply 'Food With Integrity ..."
p10
a.