(lp0
S'Nutrition News: Chipotle Unseats Subway, FDA Added ...'
p1
aS'Chipotle Opens in Kennewick to Delight of Fresh Burrito Fans'
p2
aS'Chipotle (CMG), LinkedIn (LNKD) Illustrate How to Trade ...'
p3
aS'Chipotle opens in Kennewick | Tri-City Herald'
p4
aS'David Lee says goodbye to Warriors, buys staff Chipotle'
p5
aS'David Lee buys Chipotle to thank Golden State Warriors ...'
p6
aS'Chipotle Makes Education a Sales Tactic | Inverse'
p7
aS'news/business/3807694-chipotle-arbys-development-gets ...'
p8
aS'Good guy David Lee said goodbye to Warriors employees ...'
p9
aS'Restaurants coming to Charlotte include Chipotle at ...'
p10
a.