(lp0
S'Chipotle Mexican Grill Inc. names Curt Garner chief ...'
p1
aS'Chipotle Mexican Grill Inc - News Release'
p2
aS'Chipotle has taken a major step toward becoming more like ...'
p3
aS'Chipotle puts focus on mobile, taps first CIO - USA Today'
p4
aS'Starbucks Exec Quits For Chipotle Chief Information Officer ...'
p5
aS'Chipotle poaches Starbucks tech exec to combat long lines ...'
p6
aS"Chipotle names Starbucks' Curt Garner CIO | Restaurant ..."
p7
aS'Chipotle Creates CIO Position, Hires Curt Garner from ... - U.S.'
p8
aS'To Take On Chipotle, Qdoba Enlists A Sexy, Badass, And ...'
p9
aS'Chipotle Halloween Promotion | Trendy News'
p10
a.