(lp0
S'Chipotle Mexican Grill Inc - News Release'
p1
aS'How to Score a $3 Chipotle Burrito on Halloween | TIME'
p2
aS'Chipotle Boorito 2015 - Chipotle Discount on Halloween If ...'
p3
aS"Chipotle Mexican Grill Inc.'s Coming Carnitas Bounce -- The ..."
p4
aS'Chipotle Boorito Day for $3 Burritos  Chipotle News ...'
p5
aS'Chipotle in Menomonee Falls to open next month ...'
p6
aS'Chipotle Hopes to Spook Additive Lovers With Latest Video ...'
p7
aS"Chipotle's Boorito Fundraiser Means Discounted Eats for ..."
p8
aS"Chipotle Offering $3 Halloween BurritosHere's How to Get ..."
p9
aS'24 Days Till Sixers: I Want To Go To Chipotle With Nik ...'
p10
a.