(lp0
S"Beware the Chipotle 'burrito pattern': Technician - CNBC.com"
p1
aS'Chipotle: Next Stop, $850? -- The Motley Fool'
p2
aS'Chipotle Offers a Halloween Special; Fast Food Drive-Thrus ...'
p3
aS'5 Hot Stocks Join Chipotle, Starbucks Near Buy Point | Stock ...'
p4
aS'Facebook, Chipotle Are Buys; Nike, Medtronic Upgraded ...'
p5
aS'Chipotle $3 burritos are coming | am New York'
p6
aS"Chipotle's $3 Halloween Boorito Is Back, But There's A Catch"
p7
aS'FOOD NEWS: Taco Bamba to Expand, Another Chipotle to FC'
p8
aS"Your kids will love Pati Jinich's chipotle chicken pasta ..."
p9
aS'Chipotle Halloween: You Can Get A $3 Burrito - Just Dress ...'
p10
a.