(lp0
S'Living the Chipotlife - NBC News'
p1
aS'Los Angeles Man Eats Chipotle for 153 Days, Details How ...'
p2
aS'6 Reasons Chipotle Bounced Back To A New All-Time High ...'
p3
aS"The truth about the guy who's eaten Chipotle for 153 days in ..."
p4
aS'Man gets ripped eating every day Chipotle for ... - Fox News'
p5
aS'Living the Chipotlife: Man eats Chipotle for 154 days straight'
p6
aS'This guy eats Chipotle every day and still has a 6-pack'
p7
aS'Learn about Chipotle food and get free food - ABC15 Arizona'
p8
aS'Meet Andrew Hawryluk, the man who has eaten Chipotle ...'
p9
aS'Man eats Chipotle for 107 days straight - CNN Video'
p10
a.