(lp0
S'Short seller on Chipotle: Great company, dangerous stock ...'
p1
aS'Chipotle and Starbucks coming to Plaza 15 near Lewisburg ...'
p2
aS'Chipotle Mexican Grill set to open in Edinburg - The Monitor ...'
p3
aS'Looks Like Park Slope Is Getting Its First Chipotle - Thrillist'
p4
aS'Panera Bread looking to locate on US 6 | Porter County News'
p5
aS'Chipotle to Open Park Slope Location - DNAinfo.com'
p6
aS'GOP lawmakers: Christian businesses should have more ...'
p7
aS'7th Avenue Is Getting A Chipotle - Park Slope Stoop'
p8
aS'Top Stocks for Millennials Today -- The Motley Fool'
p9
aS'Souplantation shares spicy pasta salad recipe ...'
p10
a.