(lp0
S'Detroit entrepreneur striving to launch Chipotle of ...'
p1
aS'Inside the bag at Chipotle; - Bend Bulletin'
p2
aS"16 questions we bet Chipotle won't answer | BEEF Daily"
p3
aS'Chipotle Mexican Grill, Inc.: CMG Stock Is Running Out of ...'
p4
aS'The university is closed, but what about Chipotle? - The ...'
p5
aS"McDonald's Plan of New CEO to Compete with Chipotle ..."
p6
aS"Going Deep Inside the Amazing World of Chipotle's Music ..."
p7
aS'Openings: Summerville prepares to Graze, Spero opens ...'
p8
aS'Chipotle Goes Pork-Free, For You AnonHQ'
p9
aS'6 stocks to buy and hold for the next decade - Mar. 6, 2015'
p10
a.