(lp0
S'Chipotle is Not Your Favorite Casual Mexican Chain Anymore'
p1
aS"Rubio's Edges Out Chipotle As America's Favorite Mexican ..."
p2
aS"Rubio's Wins Consumer Reports Survey - Business Insider"
p3
aS'New restaurants coming to Macomb Mall this spring'
p4
aS'Surprise! The Best Mexican Fast Food Chain is Not Chipotle ...'
p5
aS"Rubio's Fresh Mexican Grill Beats Out Chipotle As America's ..."
p6
aS'Forgot Password - Loyalty360 - Daily News'
p7
aS'Chipotle | Terry Barnes - Academia.edu'
p8
aS'E. coli (Escherichia coli) Outbreak News Latest Real-Time ...'
p9
aS"Ship's Log : Mexican Food Chains are Becoming More ..."
p10
a.