(lp0
S'Chipotle is replacing harmful preservatives with traditional ...'
p1
aS'Chipotle opens new restaurant at Compo Acres - Westport ...'
p2
aS'Chipotle Honors Gay Pride with "Homo Ests? Burritos'
p3
aS"Chipotle Shock: Honors Gays with 'HOMO ESTS ..."
p4
aS'Chipotle No. 2 in consumer satisfaction, says new report ...'
p5
aS"Chipotle is Being Criticized for Its Provocative 'Homo Ests ..."
p6
aS'Investors See Big Opportunity In Salad Restaurant Chain ...'
p7
aS'Better Restaurant Stock Buy: Chipotle Mexican Grill Inc. or ...'
p8
aS"America's favorite fast food chain is not in Hawaii | KHON2"
p9
aS'Chipotle Stabbing in Bowie Town Center - DMVFollowers'
p10
a.