(lp0
S"Fox News Host Wonders If Clinton's Chipotle Stop Was ..."
p1
aS"Fox Host: Hillary Clinton Ate At Chipotle For 'Hispanic ..."
p2
aS'Hillary Clinton Went to Chipotle and It Was Apparently ...'
p3
aS"Chipotle Manager: Hillary Clinton Didn't Leave Anything in ..."
p4
aS"Chipotle manager says Hillary didn't tip | TheHill"
p5
aS"Reince Priebus slams Hillary's Chipotle trip - Business Insider"
p6
aS'Fox News: Hungover Hillary Ate At Chipotle To Woo The ...'
p7
aS'Hillary Clinton goes unnoticed at Chipotle in botched retail ...'
p8
aS'Hillary Clinton goes unnoticed in Ohio Chipotle - USA Today'
p9
aS'Hillary Clinton Stops at Chipotle On Trip To Iowa | NBC ...'
p10
a.