(lp0
S'Chipotle tweaks recipes, ingredient preparation ... - Fox News'
p1
aS'Chipotle Sabotaged by GMO Activists? : snopes.com'
p2
aS"Sorry, But Chipotle Mexican Grill's (CMG) Tough Times Are ..."
p3
aS'Chipotle E. coli conspiracy theory - Business Insider'
p4
aS'Chipotle: E. Coli Problem Has Gone from Bad to Worse ...'
p5
aS'The Year That Investors Lost Their Appetite for Chipotle: Chart'
p6
aS'Chipotle, low oil prices drag down Colorado stocks in 2015 ...'
p7
aS'Chipotle Changes Cooking Methods, Recipes after E. coli ...'
p8
aS'Forget Chipotle: Taste These 5 Restaurant Stocks Instead ...'
p9
aS'Chobani to Release New Flavors Sriracha Mango and ...'
p10
a.