(lp0
S'Chipotle\'s "G-M-Over It" campaign slammed in new ads'
p1
aS"Chipotle's GMO-free campaign slammed by non-profit group ..."
p2
aS'Why Is Rick Berman Attacking Chipotle? | PR Watch'
p3
aS"Chipotle (Still) Shouldn't Worry About Taco Bell -- The ..."
p4
aS'Chipotle Mexican Chain Starts GMO-Free Food Campaign ...'
p5
aS'ICYMI: In Case You Missed It | Food Safety News'
p6
aS'Never Forget... Chipotle : snopes.com'
p7
aS"'Freakonomics' Author Stephen J. Dubner Talks About His ..."
p8
aS'Some Mexican Cilantro banned in U.S. After Feces, Toilet ...'
p9
aS'7 Ways to Cut Major Calories from Those Delicious Chain ...'
p10
a.