(lp0
S'Chipotle: GMOs gone from our food - USA Today'
p1
aS'Chipotle becomes first major chain to go entirely ... - Fox News'
p2
aS'Chipotle now free of GMO-ingredients - TODAY.com'
p3
aS'Chipotle Might Actually Be Healthy NowFind Out Why! | E ...'
p4
aS'Chipotle Mexican Grill Inc - News Release'
p5
aS'Chipotle Completes Plan to Remove GMOs From Its Menu ...'
p6
aS'Chipotle cuts GMO food from menu in US first - NY Daily News'
p7
aS'Chipotle CEO: We have the power to raise prices - Video ...'
p8
aS"Monsanto Won't Take GMO Free Chipotle News Sitting Down"
p9
aS'Chipotle goes non-GMO, but it may take time for supply ...'
p10
a.