(lp0
S"Chipotle celebrates five years of the $3 'boo-rrito ... - Fox News"
p1
aS"Here's How to Snag Your $3 Chipotle Boorito This Halloween"
p2
aS'Chipotle brings back $3 burritos on Halloween | Local News ...'
p3
aS"Chipotle offering $3 'booritos' on Halloween, but there's a ..."
p4
aS"Chipotle's GMO Catch-22 - Pork - News | Agweb.com"
p5
aS"Chipotle celebrates five years of the $3 'boo-rrito' with a twist ..."
p6
aS'Get a $3 #Boorito at Chipotle on Halloween | NECN'
p7
aS"Chipotle's ShopHouse comes to Chicago - Business Insider"
p8
aS"Plans announced for Downriver's first Chipotle Mexican Grill ..."
p9
aS'Burrito Indigestion: Chipotle (CMG) Stock Could Fall 7 ...'
p10
a.