(lp0
S'Chipotle Mexican Grill Inc. to expand benefits to hourly ...'
p1
aS'Chipotle testing chorizo sausage at select ... - Fox News'
p2
aS'Chipotle Will Give All of Its Employees Tuition ... - Eater'
p3
aS'Chipotle coming to new retail center | News | hpenews.com'
p4
aS'ALL CHIPOTLE EMPLOYEES Will Now Get Tuition And ...'
p5
aS"Is Chipotle killing America's productivity? - Fortune"
p6
aS"Subway Goes All-Natural as Industry Follows Chipotle's Lead"
p7
aS'Burritos with benefits: Chipotle donates to Georgia Organics ...'
p8
aS"Subway Goes All-Natural as Industry Follows Chipotle's Lead"
p9
aS'Joey Gallo on first road trip - Dallas Morning News'
p10
a.