(lp0
S"Clinton, Rubio, Paul Court Young 'Chipotle Voters'"
p1
aS"Hillary's Chipotle campaign; ESPN and 'mean ... - Fox News"
p2
aS"What is the country's most liberal fast food ... - Fox News"
p3
aS'Chipotle Mexican Grill Can Still Sizzle After Gains and a ...'
p4
aS'Northeast Valley News : Chipotle Cultivate Festival delivers ...'
p5
aS"Imagining Strategy Session for Hillary's Chipotle Order"
p6
aS'Sorry, No Carnitas: Chipotle Not Serving Pork at Some ...'
p7
aS"Chipotle Overload: The Media's Pathetic Presidential ..."
p8
aS'Council Agenda: Possible site for Chipotle, Panera - Golden ...'
p9
aS'Chipotle Cuts Carnitas from Menu amid Pork Shortage | Patch'
p10
a.