(lp0
S'Chipotle Uses Dog and Cat Meat, Will Close All Restaurants ...'
p1
aS'Another lawsuit filed against Chipotle in E. coli outbreak'
p2
aS'E. coli case in Whatcom County not linked to Chipotle ...'
p3
aS"It's Open! See Inside the New Covington Chipotle | The ..."
p4
aS'Chipotle Stock Is Dead Money in 2016 - Sell CMG Now ...'
p5
aS'Number Of Cases In Chipotle E. Coli Outbreak Drops To 37'
p6
aS"Chipotle's Management Discusses Its Growth Crossroads ..."
p7
aS'Students Eat Chipotle After E.coli Outbreak - The Arkansas ...'
p8
aS'Why I Can Never Order From Chipotle Again - Huffington Post'
p9
aS'Should You Buy Chipotle Right Now? - Chipotle Mexican ...'
p10
a.