(lp0
S'Rejoice! Chipotle finally has a new carnitas supplier - Jul. 10 ...'
p1
aS'Why did Chipotle stop serving carnitas?'
p2
aS'Chipotle Hiked Its Prices to Help Pay for Minimum-Wage ...'
p3
aS"Sweetgreen  The Restaurant Being Called the 'Next ..."
p4
aS'Chipotle Adds British Pork Supplier to Ease Carnitas Shortage'
p5
aS'Rejoice! Chipotle finally has a new carnitas supplier | fox8.com'
p6
aS'Chipotle Raises SF Prices to Correspond With Wage Hike ...'
p7
aS'Chipotle guacamole recipe: How to make their addictive ...'
p8
aS'Del Taco Debuts Bacon Chipotle Cheddar Fries ...'
p9
aS'Signe Wilkinson: A view of Cuba, before Starbucks and ...'
p10
a.