(lp0
S'Chipotle, CoGo unite to give away burritos | The Columbus ...'
p1
aS'San Francisco Chipotle Fans Paying $1 More for Burrito Bowls'
p2
aS"London's Financial District Finally Has a Chipotle - Bloomberg"
p3
aS'WDTV.COM 5 News: Chipotle, Starbucks, Other Business ...'
p4
aS'Chipotle raises prices in San Francisco in part to offset ...'
p5
aS'Connect Bridgeport News: Highly Popular Chipotle National ...'
p6
aS'Chipotle guacamole recipe: How to make their addictive ...'
p7
aS'Free burritos and swag from Chipotle Mexican Grill | Atlanta ...'
p8
aS"Jim Cramer's Top Takeaways: ViaSat (VSAT), Chipotle ..."
p9
aS'Chipotle Mexican Restaurant to Open New Location in Brick ...'
p10
a.