(lp0
S'Norovirus Caused Chipotle Outbreak in Boston, Officials Say'
p1
aS'80 sickened after eating at Chipotle, Boston ... - Fox News'
p2
aS'80 Boston College Students Sickened by Norovirus After ...'
p3
aS'Chipotle Mexican Grill sets goal of being leader in food safety'
p4
aS'Chipotle Closes Boston Restaurant After College Students ...'
p5
aS'Boston Chipotle shuts down after students get sick - CBS ...'
p6
aS'Boston College basketball players among 28 sick after ...'
p7
aS'Chipotle Plunges After Scrapping Forecast Amid E. Coli Scare'
p8
aS'Chipotle says Boston College illnesses not E. coli - BBC News'
p9
aS'Boston College: Students sick after eating at Chipotle - CNN ...'
p10
a.