(lp0
S"Class-Action Suit Alleges Chipotle's GMO-Free Campaign Is ..."
p1
aS'Chipotle used GMOs despite claiming to be GMO-free ...'
p2
aS'Chipotle sued for its GMO-free ads - Sep. 1, 2015'
p3
aS'Chipotle sued over false GMO-free claims | Fox News'
p4
aS'Chipotle lied about GMO-free ingredients: lawsuit - NY Daily ...'
p5
aS'Chipotle Fires Back Against Non-GMO Lawsuit | CMO ...'
p6
aS'Chipotle Will Deliver to These 40 College Campuses This Fall'
p7
aS'Chipotle sued over GMO-free menu claims - CNBC.com'
p8
aS"Lawsuit challenges Chipotle's G.M.O. claims | Food ..."
p9
aS'New Lawsuit Accuses Chipotle of Lying About GMO Removal'
p10
a.