(lp0
S'Costco shares shrug off E.coli news to trade higher; Chipotle ...'
p1
aS'Chipotle E. Coli Outbreak Spreads | Patch'
p2
aS"Chipotle's E. coli source tough to trace | The Columbus ..."
p3
aS'Unwanted Guests: E. Coli Strikes Chipotle And Costco ...'
p4
aS'CMG Stock: Is It Time to Bail on Chipotle Mexican Grill, Inc.?'
p5
aS'Chipotle Outbreak: E. Coli Scare Continues, CDC Reveals ...'
p6
aS'As E. Coli Outbreaks Move From Chipotle To Costco ...'
p7
aS'E. coli tied to Costco more dangerous than Chipotle ... - Fox 2'
p8
aS'CDC: Costco Chicken Salad Tied To E Coli Spread; More ...'
p9
aS'Here is What Hedge Funds Think About Chipotle Mexican ...'
p10
a.