(lp0
S'Chipotle\'s "G-M-Over It" campaign slammed in new ads'
p1
aS"Chipotle's GMO-free campaign slammed by non-profit group ..."
p2
aS'Why Is Rick Berman Attacking Chipotle? | PR Watch'
p3
aS'Michigan Ave. Temporarily Chipotle Closed Over Fruit Fly ...'
p4
aS'Michigan Avenue Chipotle Shut Down by Health Department'
p5
aS'Department Of Public Health Temporarily Closes Downtown ...'
p6
aS'Iconic Chubbuck restaurant to be demolished | News - Home'
p7
aS'Chipotle Mexican Chain Starts GMO-Free Food Campaign ...'
p8
aS'Never Forget... Chipotle : snopes.com'
p9
aS'Michigan Ave. Chipotle closed over fruit flies | abc7chicago ...'
p10
a.