(lp0
S'Non-GMO News Briefs on Chipotle, Dr. Oz, Glyphosate ...'
p1
aS"The ridiculous reason McDonald's sold Chipotle and missed ..."
p2
aS"A Look Back at Chipotle's Sales and the US Economy ..."
p3
aS"As Chipotle Goes GMO-free, Monsanto's Worst Fear Is ..."
p4
aS'Brinker EAT Is Hot, but Chipotle Mexican Grill CMG Lacks ...'
p5
aS"The ridiculous reason McDonald's sold Chipotle and missed ..."
p6
aS"Order Up! Find Out What Jake Miller's Chipotle Go-To Is ..."
p7
aS'New Chipotle coming to Fredericksburg - Fredericksburg.com'
p8
aS'Cramer Remix: Shutting down the haters - CNBC.com'
p9
aS'Chipotle Serves Up The American Dream | Mad Money ...'
p10
a.