(lp0
S'Cincinnati uses close proximity to Chipotle as recruiting pitch'
p1
aS'27-year-old mayor demands Chipotle in Lakeville, Minn ...'
p2
aS'Heartburn over Chipotle CEO pay was inevitable - The ...'
p3
aS'Chipotle draws shareholder activism | Restaurant Business'
p4
aS'CMG Chipotle Mexican Grill Inc Class A ETF CMG Quote ...'
p5
aS'Cincinnati Bearcats football uses Chipotle to recruit players ...'
p6
aS'What Bill Clinton said when he saw Hillary in Chipotle'
p7
aS"Chipotle's Cultivate Events Get Intelligence Boost With EIG ..."
p8
aS'Does Chipotle Even Care About Mexicans? | Video - Latina'
p9
aS"10 of America's fastest growing restaurants - CNBC.com"
p10
a.