(lp0
S'Colorado workers sue Chipotle, following national trend of ...'
p1
aS'Colorado workers sue Chipotle, following national trend of ...'
p2
aS'Amazon (AMZN), Apple (AAPL) and Chipotle (CMG) Too ...'
p3
aS'Chipotle plans to open new restaurant in Greenacres | www ...'
p4
aS'Eating Out: Fresno lands a new Chipotle, ramen restaurant'
p5
aS'New Chipotle planned for Greenacres shopping center ...'
p6
aS'Winds of change blow through ingredient fundamentals ...'
p7
aS'Restaurant chain accused of undermining public trust in ...'
p8
aS"Will Chipotle's Story Have a Silver Lining in 2015? - Yahoo ..."
p9
aS'Taco Bell and Pizza Hut Are Jumping on the Real-Food ...'
p10
a.