(lp0
S"A Timeline of Chipotle's Five Outbreaks | Food Safety News"
p1
aS'Chipotle Mexican Grill Nightmare Continues: Norovirus ...'
p2
aS'Chipotle: The Long Defeat Of Doing Nothing Well - Forbes'
p3
aS'Can Chipotle Mexican Grill Recover From The E.Coli ...'
p4
aS'Chipotle E. Coli Outbreak 2015 News Updates, Causes ...'
p5
aS"Chipotle is stuck in a 'fiasco vortex'commentary - CNBC.com"
p6
aS"RICK BERMAN: Chipotle's fall from grace - Washington Times"
p7
aS"The Latest E. Coli Outbreak Threatens Chipotle's Upcoming ..."
p8
aS"E.Coli  The invisible menace that's putting Chipotle lovers ..."
p9
aS"The Limits of 'the Chipotle of ____' | TakePart"
p10
a.