(lp0
S"Class-Action Suit Alleges Chipotle's GMO-Free Campaign Is ..."
p1
aS"Lawsuit challenges Chipotle's G.M.O. claims | Food ..."
p2
aS"Chipotle critic turns up heat with 'Chubby Chipotle' ad ..."
p3
aS"Chipotle (CMG) Co-CEO: I'm 'Happier Than Hell' When I ..."
p4
aS'Food chain Chipotle sued over its GMO free claims | Ars ...'
p5
aS'Is Chipotle evil? This ad campaign says absolutely - The ...'
p6
aS"A New Lawsuit Against Chipotle Claims It's Deceiving Its ..."
p7
aS'Chipotle to hire 4,000, many for Arizona - AZCentral.com'
p8
aS'Chipotle Sued Over GMO-Free Menu Claims - Law Street (TM)'
p9
aS'Chipotle delivery coming to College of the Holy Cross and ...'
p10
a.