(lp0
S'The Age Old Question: Chipotle or Moes | Glue Stick News'
p1
aS'Chipotle Mexican Grill Sizzled 28% Higher in 2014 -- Will ...'
p2
aS'Water main break in Olathe affects Panera, Chipotle near ...'
p3
aS'Dresher Commons mixed-use development underway ...'
p4
aS'Will 2015 Be Another Tasty Year For Restaurants? | Stock ...'
p5
aS"What's ahead for 2015 in Middle Georgia? | The Telegraph"
p6
aS'11 CEOs under fire in 2015 - CBS News'
p7
aS"My New Year's Resolution: I won't boycott Chipotle, Jet Blue ..."
p8
aS'Fast-food resolution: Transform junk food image | Fox News'
p9
aS'Has anyone tried this new Chipotle clone in Kailua yet ...'
p10
a.