(lp0
S'Massachusetts'
p1
aS'Zacks Investment Research'
p2
aS'The Republican'
p3
aS'ExxonMobil'
p4
aS'Common Dreams'
p5
aS'South Florida Business Journal'
p6
aS'The Dallas Morning News'
p7
aS"Moody's Investors Service"
p8
aS'Bloomberg L.P.'
p9
a.