(lp0
S'Law360'
p1
aS'Bloomberg L.P.'
p2
aS'Bloomberg L.P.'
p3
aS'American Chemical Society'
p4
aS'Michigan Live'
p5
aS"Crain's Chicago Business"
p6
aS'Minority Business Development Agency'
p7
aS'Reuters'
p8
a.