(lp0
S'ExxonMobil'
p1
aS'Business Insider'
p2
aS'The New York Times'
p3
aS'Bloomberg L.P.'
p4
aS'American Institute of Chemical Engineers'
p5
aS'Google'
p6
aS'Oil & Gas Journal'
p7
aS'Oil & Gas Journal'
p8
aS'Air Products & Chemicals'
p9
a.