(lp0
S'Bloomberg L.P.'
p1
aS'Bloomberg L.P.'
p2
aS'Google'
p3
aS'Oil & Gas Journal'
p4
aS'Worcester Polytechnic Institute'
p5
aS'CNNMoney'
p6
aS'The Dallas Morning News'
p7
aS'The Dallas Morning News'
p8
aS'Here and Now'
p9
aS'Wikinvest'
p10
a.