(lp0
S'ExxonMobil'
p1
aS'University of Texas at Austin'
p2
aS'CNNMoney'
p3
aS'Institute of International Education'
p4
aS'American Institute of Chemical Engineers'
p5
aS'The Economist'
p6
aS'The Wall Street Journal'
p7
aS'Forbes'
p8
a.