(lp0
S'ExxonMobil'
p1
aS'Bloomberg L.P.'
p2
aS'Foundation for Defense of Democracies'
p3
aS'Google'
p4
aS'Oil & Gas Journal'
p5
aS'ADVFN'
p6
aS'Environment & Energy Publishing'
p7
aS'The Dallas Morning News'
p8
aS'CNNMoney'
p9
aS'CNNMoney'
p10
a.