(lp0
S'ExxonMobil'
p1
aS'ExxonMobil'
p2
aS'ExxonMobil'
p3
aS'Bloomberg L.P.'
p4
aS'Bloomberg L.P.'
p5
aS'PolitiFact.com'
p6
aS'The Wall Street Journal'
p7
aS'Reuters'
p8
aS'Alaska Dispatch News'
p9
a.