(lp0
S'The Washington Times'
p1
aS'Bloomberg L.P.'
p2
aS'GuruFocus'
p3
aS'NBCNews.com'
p4
aS'Reuters'
p5
aS'Financial Times'
p6
aS'CNNMoney'
p7
aS'U.S. News & World Report'
p8
aS'The Wall Street Journal'
p9
a.