(lp0
S'Global Partners'
p1
aS'West Virginia Coal Association'
p2
aS'ExxonMobil'
p3
aS'Bloomberg L.P.'
p4
aS'Oklahoma State UniversityStillwater'
p5
aS'GreenBiz.com'
p6
aS'Parker Drilling Co.'
p7
aS'The Vanguard Group'
p8
aS'CNNMoney'
p9
a.