(lp0
S'Massachusetts'
p1
aS'Zacks Investment Research'
p2
aS'The Republican'
p3
aS'Common Dreams'
p4
aS'Bloomberg L.P.'
p5
aS'Bloomberg L.P.'
p6
aS"Moody's Investors Service"
p7
aS'The Dallas Morning News'
p8
a.