(lp0
S'Getty Images'
p1
aS'Brennan Center for Justice'
p2
aS'Bloomberg L.P.'
p3
aS'The Wall Street Journal'
p4
aS'The Wall Street Journal'
p5
aS'Rolling Stone'
p6
aS'The Dallas Morning News'
p7
aS'CNNMoney'
p8
a.