(lp0
(I1
I4
I2016
tp1
a(I1
I5
I2016
tp2
a(I1
I6
I2016
tp3
a(I1
I7
I2016
tp4
a(I1
I8
I2016
tp5
a(I1
I11
I2016
tp6
a(I1
I12
I2016
tp7
a(I1
I13
I2016
tp8
a(I1
I14
I2016
tp9
a(I1
I15
I2016
tp10
a(I1
I19
I2016
tp11
a(I1
I20
I2016
tp12
a(I1
I21
I2016
tp13
a(I1
I22
I2016
tp14
a(I1
I25
I2016
tp15
a(I1
I26
I2016
tp16
a(I1
I27
I2016
tp17
a(I1
I28
I2016
tp18
a(I1
I29
I2016
tp19
a(I2
I1
I2016
tp20
a(I2
I2
I2016
tp21
a(I2
I3
I2016
tp22
a(I2
I4
I2016
tp23
a(I2
I5
I2016
tp24
a(I2
I8
I2016
tp25
a(I2
I9
I2016
tp26
a(I2
I10
I2016
tp27
a(I2
I11
I2016
tp28
a(I2
I12
I2016
tp29
a(I2
I16
I2016
tp30
a(I2
I17
I2016
tp31
a(I2
I18
I2016
tp32
a(I2
I19
I2016
tp33
a(I2
I22
I2016
tp34
a(I2
I23
I2016
tp35
a(I2
I24
I2016
tp36
a(I2
I25
I2016
tp37
a(I2
I26
I2016
tp38
a(I2
I29
I2016
tp39
a(I3
I1
I2016
tp40
a(I3
I2
I2016
tp41
a(I3
I3
I2016
tp42
a(I3
I4
I2016
tp43
a(I3
I7
I2016
tp44
a(I3
I8
I2016
tp45
a(I3
I9
I2016
tp46
a(I3
I10
I2016
tp47
a(I3
I11
I2016
tp48
a(I3
I14
I2016
tp49
a(I3
I15
I2016
tp50
a(I3
I16
I2016
tp51
a(I3
I17
I2016
tp52
a(I3
I18
I2016
tp53
a(I3
I21
I2016
tp54
a(I3
I22
I2016
tp55
a(I3
I23
I2016
tp56
a(I3
I24
I2016
tp57
a(I3
I28
I2016
tp58
a(I3
I29
I2016
tp59
a(I3
I30
I2016
tp60
a(I3
I31
I2016
tp61
a(I4
I1
I2016
tp62
a(I4
I4
I2016
tp63
a(I4
I5
I2016
tp64
a(I4
I6
I2016
tp65
a(I4
I7
I2016
tp66
a(I4
I8
I2016
tp67
a.