(lp0
(I1
I4
I2010
tp1
a(I1
I5
I2010
tp2
a(I1
I6
I2010
tp3
a(I1
I7
I2010
tp4
a(I1
I8
I2010
tp5
a(I1
I11
I2010
tp6
a(I1
I12
I2010
tp7
a(I1
I13
I2010
tp8
a(I1
I14
I2010
tp9
a(I1
I15
I2010
tp10
a(I1
I19
I2010
tp11
a(I1
I20
I2010
tp12
a(I1
I21
I2010
tp13
a(I1
I22
I2010
tp14
a(I1
I25
I2010
tp15
a(I1
I26
I2010
tp16
a(I1
I27
I2010
tp17
a(I1
I28
I2010
tp18
a(I1
I29
I2010
tp19
a(I2
I1
I2010
tp20
a(I2
I2
I2010
tp21
a(I2
I3
I2010
tp22
a(I2
I4
I2010
tp23
a(I2
I5
I2010
tp24
a(I2
I8
I2010
tp25
a(I2
I9
I2010
tp26
a(I2
I10
I2010
tp27
a(I2
I11
I2010
tp28
a(I2
I12
I2010
tp29
a(I2
I16
I2010
tp30
a(I2
I17
I2010
tp31
a(I2
I18
I2010
tp32
a(I2
I19
I2010
tp33
a(I2
I22
I2010
tp34
a(I2
I23
I2010
tp35
a(I2
I24
I2010
tp36
a(I2
I25
I2010
tp37
a(I2
I26
I2010
tp38
a(I3
I1
I2010
tp39
a(I3
I2
I2010
tp40
a(I3
I3
I2010
tp41
a(I3
I4
I2010
tp42
a(I3
I5
I2010
tp43
a(I3
I8
I2010
tp44
a(I3
I9
I2010
tp45
a(I3
I10
I2010
tp46
a(I3
I11
I2010
tp47
a(I3
I12
I2010
tp48
a(I3
I15
I2010
tp49
a(I3
I16
I2010
tp50
a(I3
I17
I2010
tp51
a(I3
I18
I2010
tp52
a(I3
I19
I2010
tp53
a(I3
I22
I2010
tp54
a(I3
I23
I2010
tp55
a(I3
I24
I2010
tp56
a(I3
I25
I2010
tp57
a(I3
I26
I2010
tp58
a(I3
I29
I2010
tp59
a(I3
I30
I2010
tp60
a(I3
I31
I2010
tp61
a(I4
I1
I2010
tp62
a(I4
I5
I2010
tp63
a(I4
I6
I2010
tp64
a(I4
I7
I2010
tp65
a(I4
I8
I2010
tp66
a(I4
I9
I2010
tp67
a(I4
I12
I2010
tp68
a(I4
I13
I2010
tp69
a(I4
I14
I2010
tp70
a(I4
I15
I2010
tp71
a(I4
I16
I2010
tp72
a(I4
I19
I2010
tp73
a(I4
I20
I2010
tp74
a(I4
I21
I2010
tp75
a(I4
I22
I2010
tp76
a(I4
I23
I2010
tp77
a(I4
I26
I2010
tp78
a(I4
I27
I2010
tp79
a(I4
I28
I2010
tp80
a(I4
I29
I2010
tp81
a(I4
I30
I2010
tp82
a(I5
I3
I2010
tp83
a(I5
I4
I2010
tp84
a(I5
I5
I2010
tp85
a(I5
I6
I2010
tp86
a(I5
I7
I2010
tp87
a(I5
I10
I2010
tp88
a(I5
I11
I2010
tp89
a(I5
I12
I2010
tp90
a(I5
I13
I2010
tp91
a(I5
I14
I2010
tp92
a(I5
I17
I2010
tp93
a(I5
I18
I2010
tp94
a(I5
I19
I2010
tp95
a(I5
I20
I2010
tp96
a(I5
I21
I2010
tp97
a(I5
I24
I2010
tp98
a(I5
I25
I2010
tp99
a(I5
I26
I2010
tp100
a(I5
I27
I2010
tp101
a(I5
I28
I2010
tp102
a(I6
I1
I2010
tp103
a(I6
I2
I2010
tp104
a(I6
I3
I2010
tp105
a(I6
I4
I2010
tp106
a(I6
I7
I2010
tp107
a(I6
I8
I2010
tp108
a(I6
I9
I2010
tp109
a(I6
I10
I2010
tp110
a(I6
I11
I2010
tp111
a(I6
I14
I2010
tp112
a(I6
I15
I2010
tp113
a(I6
I16
I2010
tp114
a(I6
I17
I2010
tp115
a(I6
I18
I2010
tp116
a(I6
I21
I2010
tp117
a(I6
I22
I2010
tp118
a(I6
I23
I2010
tp119
a(I6
I24
I2010
tp120
a(I6
I25
I2010
tp121
a(I6
I28
I2010
tp122
a(I6
I29
I2010
tp123
a(I6
I30
I2010
tp124
a(I7
I1
I2010
tp125
a(I7
I2
I2010
tp126
a(I7
I6
I2010
tp127
a(I7
I7
I2010
tp128
a(I7
I8
I2010
tp129
a(I7
I9
I2010
tp130
a(I7
I12
I2010
tp131
a(I7
I13
I2010
tp132
a(I7
I14
I2010
tp133
a(I7
I15
I2010
tp134
a(I7
I16
I2010
tp135
a(I7
I19
I2010
tp136
a(I7
I20
I2010
tp137
a(I7
I21
I2010
tp138
a(I7
I22
I2010
tp139
a(I7
I23
I2010
tp140
a(I7
I26
I2010
tp141
a(I7
I27
I2010
tp142
a(I7
I28
I2010
tp143
a(I7
I29
I2010
tp144
a(I7
I30
I2010
tp145
a(I8
I2
I2010
tp146
a(I8
I3
I2010
tp147
a(I8
I4
I2010
tp148
a(I8
I5
I2010
tp149
a(I8
I6
I2010
tp150
a(I8
I9
I2010
tp151
a(I8
I10
I2010
tp152
a(I8
I11
I2010
tp153
a(I8
I12
I2010
tp154
a(I8
I13
I2010
tp155
a(I8
I16
I2010
tp156
a(I8
I17
I2010
tp157
a(I8
I18
I2010
tp158
a(I8
I19
I2010
tp159
a(I8
I20
I2010
tp160
a(I8
I23
I2010
tp161
a(I8
I24
I2010
tp162
a(I8
I25
I2010
tp163
a(I8
I26
I2010
tp164
a(I8
I27
I2010
tp165
a(I8
I30
I2010
tp166
a(I8
I31
I2010
tp167
a(I9
I1
I2010
tp168
a(I9
I2
I2010
tp169
a(I9
I3
I2010
tp170
a(I9
I7
I2010
tp171
a(I9
I8
I2010
tp172
a(I9
I9
I2010
tp173
a(I9
I10
I2010
tp174
a(I9
I13
I2010
tp175
a(I9
I14
I2010
tp176
a(I9
I15
I2010
tp177
a(I9
I16
I2010
tp178
a(I9
I17
I2010
tp179
a(I9
I20
I2010
tp180
a(I9
I21
I2010
tp181
a(I9
I22
I2010
tp182
a(I9
I23
I2010
tp183
a(I9
I24
I2010
tp184
a(I9
I27
I2010
tp185
a(I9
I28
I2010
tp186
a(I9
I29
I2010
tp187
a(I9
I30
I2010
tp188
a(I10
I1
I2010
tp189
a(I10
I4
I2010
tp190
a(I10
I5
I2010
tp191
a(I10
I6
I2010
tp192
a(I10
I7
I2010
tp193
a(I10
I8
I2010
tp194
a(I10
I11
I2010
tp195
a(I10
I12
I2010
tp196
a(I10
I13
I2010
tp197
a(I10
I14
I2010
tp198
a(I10
I15
I2010
tp199
a(I10
I18
I2010
tp200
a(I10
I19
I2010
tp201
a(I10
I20
I2010
tp202
a(I10
I21
I2010
tp203
a(I10
I22
I2010
tp204
a(I10
I25
I2010
tp205
a(I10
I26
I2010
tp206
a(I10
I27
I2010
tp207
a(I10
I28
I2010
tp208
a(I10
I29
I2010
tp209
a(I11
I1
I2010
tp210
a(I11
I2
I2010
tp211
a(I11
I3
I2010
tp212
a(I11
I4
I2010
tp213
a(I11
I5
I2010
tp214
a(I11
I8
I2010
tp215
a(I11
I9
I2010
tp216
a(I11
I10
I2010
tp217
a(I11
I11
I2010
tp218
a(I11
I12
I2010
tp219
a(I11
I15
I2010
tp220
a(I11
I16
I2010
tp221
a(I11
I17
I2010
tp222
a(I11
I18
I2010
tp223
a(I11
I19
I2010
tp224
a(I11
I22
I2010
tp225
a(I11
I23
I2010
tp226
a(I11
I24
I2010
tp227
a(I11
I26
I2010
tp228
a(I11
I29
I2010
tp229
a(I11
I30
I2010
tp230
a(I12
I1
I2010
tp231
a(I12
I2
I2010
tp232
a(I12
I3
I2010
tp233
a(I12
I6
I2010
tp234
a(I12
I7
I2010
tp235
a(I12
I8
I2010
tp236
a(I12
I9
I2010
tp237
a(I12
I10
I2010
tp238
a(I12
I13
I2010
tp239
a(I12
I14
I2010
tp240
a(I12
I15
I2010
tp241
a(I12
I16
I2010
tp242
a(I12
I17
I2010
tp243
a(I12
I20
I2010
tp244
a(I12
I21
I2010
tp245
a(I12
I22
I2010
tp246
a(I12
I23
I2010
tp247
a(I12
I27
I2010
tp248
a(I12
I28
I2010
tp249
a(I12
I29
I2010
tp250
a(I12
I30
I2010
tp251
a(I12
I31
I2010
tp252
a.