(lp0
S'Bon Apptit'
p1
aS'Forbes'
p2
aS"Nation's Restaurant News"
p3
aS'CNNMoney'
p4
aS'MarketWatch'
p5
aS'The Christian Science Monitor'
p6
aS'Zacks Investment Research'
p7
aS'Zacks Investment Research'
p8
a.