(lp0
S'Zacks Investment Research'
p1
aS'CNBC'
p2
aS'The Motley Fool'
p3
aS'Yahoo! Finance'
p4
aS'The Santa Clarita Valley Signal'
p5
aS"Nation's Restaurant News"
p6
aS'MarketWatch'
p7
aS'Yellowpages.com'
p8
a.