(lp0
S'Zacks Investment Research'
p1
aS'Seeking Alpha'
p2
aS'San Antonio ExpressNews'
p3
aS"Nation's Restaurant News"
p4
aS"Nation's Restaurant News"
p5
aS'KSATTV'
p6
aS'KSRW'
p7
aS'Yellowpages.com'
p8
a.