(lp0
S'Seeking Alpha'
p1
aS'TheStreet, Inc.'
p2
aS'Fox Business Network'
p3
aS'Houston Community Newspapers Online'
p4
aS'South Florida Business Journal'
p5
aS'SilverSeek.com'
p6
aS'Yellowpages.com'
p7
aS'Bloomberg L.P.'
p8
aS"Nation's Restaurant News"
p9
a.