(lp0
S'The Dallas Morning News'
p1
aS'The Dallas Morning News'
p2
aS'Seeking Alpha'
p3
aS'Houston Chronicle'
p4
aS'Houston Community Newspapers Online'
p5
aS'MarketWatch'
p6
aS"Nation's Restaurant News"
p7
a.