(lp0
S'Oil & Gas Journal'
p1
aS'University of Manchester'
p2
aS'Magellan Petroleum Corporation'
p3
aS'The Economist'
p4
aS'Surrey Comet'
p5
aS'Bloomberg L.P.'
p6
aS'The Scotsman'
p7
aS'Resilience.org'
p8
a.