(lp0
S'Oil & Gas Journal'
p1
aS'BP'
p2
aS'University of Manchester'
p3
aS'Minyanville'
p4
aS'Magellan Petroleum Corporation'
p5
aS'The Wall Street Journal'
p6
aS'The Boston Globe'
p7
aS'Business Insider'
p8
aS'The Economist'
p9
a.