(lp0
S'Gulf News'
p1
aS'Rig Zone'
p2
aS'CNBC'
p3
aS'Financial News'
p4
aS'The Daily Telegraph'
p5
aS'The Economist'
p6
aS'Sutton Guardian'
p7
aS'The Telegram'
p8
aS'New York Academy of Sciences'
p9
a.