(lp0
S'OilPrice'
p1
aS'OilPrice'
p2
aS'The Wall Street Journal'
p3
aS'Daily Mail'
p4
aS'The Daily Telegraph'
p5
aS'Research Council of Norway'
p6
aS'Resilience.org'
p7
aS'Center for Strategic and International Studies'
p8
aS'Oil & Gas Journal'
p9
a.