(lp0
S'Health and Safety Executive'
p1
aS'The Daily Telegraph'
p2
aS'Resilience.org'
p3
aS'Resilience.org'
p4
aS'Government Accountability Office'
p5
aS'The Washington Times'
p6
aS'Imperial College London'
p7
aS'The Guardian'
p8
a.