(lp0
S'CBS News'
p1
aS'Reuters'
p2
aS'The Guardian'
p3
aS'Newser'
p4
aS'The TimesPicayune'
p5
aS'Smithsonian'
p6
aS'The Christian Science Monitor'
p7
aS'United States National Library of Medicine'
p8
a.