(lp0
S'The Independent'
p1
aS'The Huffington Post'
p2
aS'Tonka Bay Equity Partners'
p3
aS'Daily Mail'
p4
aS'WMAQTV'
p5
aS'Oil & Gas Journal'
p6
aS'Venezuelanalysis.com'
p7
aS'The Daily Telegraph'
p8
aS'The Wall Street Journal'
p9
a.