(lp0
S'Center for Media and Democracy'
p1
aS'CBS News'
p2
aS'CBS News'
p3
aS'The New York Times'
p4
aS'USA Today'
p5
aS'The Daily Telegraph'
p6
aS'Mother Jones'
p7
aS'The Washington Post'
p8
aS'Keith Kohl'
p9
a.