(lp0
S'The Daily Telegraph'
p1
aS'The Guardian'
p2
aS'CBS News'
p3
aS'LiveLeak'
p4
aS'Democracy Now!'
p5
aS'NBCNews.com'
p6
aS'Independent Institute'
p7
aS'The Express Tribune'
p8
aS'Gizmodo'
p9
aS'PC World'
p10
a.