(lp0
S'United States Department of Justice'
p1
aS'CNN'
p2
aS'World Socialist Web Site'
p3
aS'Public Relations Society of America'
p4
aS'Scholastic Corporation'
p5
aS'Center for Biological Diversity'
p6
a.