(lp0
S'Schulte Roth & Zabel'
p1
aS'NBCNews.com'
p2
aS'Pearson Education'
p3
aS'National Center for Biotechnology Information'
p4
aS'The Guardian'
p5
aS'Bloomberg L.P.'
p6
aS'Scientific American'
p7
a.