(lp0
S'Oct 1, 2010 - ... Completes Acquisition of Retail Gasoline Stations from Exxon Mobil Corporation ... Some of the information contained in this news release may contain ...'
p1
aS'Oct 1, 2010 - Careers  Investors  News; Select countryGlobal_selector_abbreviation ..... Careers  Contact us  Investors  News and updates  Perspectives blog.'
p2
aS'Oct 1, 2010 - ExxonMobil is a global oil and gas company working with Indonesia to produce more energy. By sharing our technology and experience, we help to grow ...'
p3
aS'Oct 1, 2010 - Dallas Morning News Home. ePaper Subscribe  Up to 50% Off Newsstand .... Energy Transfer Partners, ETP, 21.64. Exxon Mobil, XOM, 78.06. Fluor Corp.'
p4
aS'Oct 1, 2010 - Highly regarded by senior news media professionals in print and electronic outlets, such as ... global news media relations activities of Exxon Mobil Corporation.'
p5
aS'Oct 1, 2010 - By any measure, Bernard Harris is an authentic American hero, said Rex Tillerson, chairman and CEO of Exxon Mobil Corporation, who contributed the ...'
p6
aS"Oct 1, 2010 - Talks between U.S. oil giant Exxon Mobil Corp. (XOM) and Russia's state-controlled natural gas firm OAO Gazprom (GAZP.RS) have deadlocked over who ..."
p7
aS"Sep 30, 2010 - Vladimir Putin, Russia's prime minister, pauses during a news conference following ... Head of Corporate Affairs Dimitar Abadjiev told reporters in Bucharest today. That's ... Oil companies including Exxon Mobil Corp and China Petroleum and ..."
p8
aS'Oct 1, 2010 - Dor Energy Corporation sought a clean-up of its property and a remediation ... On November 10, 2006, after two weeks of trial, a jury rendered verdict in favor of Dor Energy Corporation and against ExxonMobil Oil Corporation ... Firm News.'
p9
aS'Oct 1, 2010 - ... Anadarko Petroleum and MOEX Offshore 2007, a unit of Mitsui Oil Corp., has pledged ... The murky subtext beneath the whole Macondo universe, despite the good news, ... Exxon Mobil Corp. has started oil production at the Julia field in the ...'
p10
a.