(lp0
S'Oct 14, 2010 - IRVING, Texas--(BUSINESS WIRE)--Exxon Mobil Corporation announced today the licensing of its award-winning Multi-Zone Stimulation Technology ...'
p1
aS'Oct 14, 2010 - ExxonMobil Corporation announced recently that it has contributed $2 million in departmental grants to 81 colleges and universities throughout the country to ...'
p2
aS"Oct 13, 2010 - In fact, Apple's market cap is now trails only Exxon Mobil Corp. as a U.S. publicly traded company. Exxon's market cap hovers around $330 billion. Big-name ..."
p3
aS'Oct 14, 2010 - While the stake in the company, to be known as Howard Hughes Corp., may .... plan to toughen offshore drilling rules that Exxon Mobil Corp. said will cost as ...'
p4
aS"Oct 14, 2010 - Ray Irani, chief executive officer of Occidental Petroleum Corp. ... in 2009, the most of any oil or power executive in a Bloomberg News survey of compensation. ... Exxon Mobil Corp., the world's largest oil company, paid its CEO, Rex Tillerson, ..."
p5
aS'Oct 14, 2010 - Exxon and Sinopec join traders in selling crude overseas ... Oil companies including Exxon Mobil Corp and China Petroleum and Chemical Corp have joined ...'
p6
aS"Oct 13, 2010 - Tony Stewart and his Mobil 1 branded #14 carIt must be great to be in Tony ... gas corporation will be present on Stewart's car through its Mobil 1 brand starting ... ExxonMobil are no strangers from NASCAR action, as they used to sponsor ... cars; moto; news; reviews; editorial; coverstory; auto how-to; glossary; car finder; rss."
p7
aS"Oct 13, 2010 - ... relating to its $41 billion tie-up with Exxon Mobil Corp., which he had claimed did not adequately compensate XTO shareholders for the company's assets."
p8
aS'Oct 15, 2010 - By Ryan Dezember Of DOW JONES NEWSWIRES HOUSTON -(Dow Jones)- Transocean Ltd. (RIG) said Thursday it will charge Exxon Mobil Corp.'
p9
aS'Oct 13, 2010 - Arthapusaka Mitra Sakti is the sole authorized distributor of ExxonMobil Lubricants in Kalimantan since 1995. PT. ... With over than 125 years of experiences, ExxonMobil Corporation has become the leader in Petroleum, ... Latest News Feed ...'
p10
a.