(lp0
S'Oct 18, 2010 - Exxon Mobil Corp. News XOM Exxon:France Port Jerome Refinery Shutting Down Due New York Stock Exchange Announcements, Company Reports & Press ...'
p1
aS'Oct 17, 2010 - Houston, TX News - View Daily Local Business News, Resources & more in Houston, ... Good Samaritan Award and Association of Corporate Counsel Houston ... Peggy Montgomery actively participated in pro bono at Exxon Mobil since 1984, ...'
p2
aS'Oct 18, 2010 - She is also the author of the book University, Inc.: The Corporate Corruption of Higher Education. ... This is viewer supported news. Donate. Over the past five years, ExxonMobil, Chevron, BP, Royal Dutch Shell and ConocoPhillips have given ...'
p3
aS"Oct 17, 2010 - Exxon Mobil Corp (XOM.N) beganrestarting ... Breaking News : Justice Department's deal ... Exxon restarts gofiner at Baytown refinery-filing. HOUSTON Oct 17 ..."
p4
aS"Oct 18, 2010 - Chevron Corp launched a new advertising campaign on Monday to address ... from companies such as Dow Chemical Co, Exxon Mobil Corp and Halliburton Co. ... Thomson Reuters is the world's largest international multimedia news agency ..."
p5
aS'Oct 18, 2010 - Exxon and Sinopec join traders in selling crude overseas ... Oil companies including Exxon Mobil Corp and China Petroleum and Chemical Corp have joined ...'
p6
aS"Oct 18, 2010 - ... as the largest shareholder in Mazda Motor Corp., according to the bank's chairman. ... declined to comment further when contacted by Bloomberg News today. ... plan to toughen offshore drilling rules that Exxon Mobil Corp. said will cost as ..."
p7
aS'Oct 17, 2010 - Gibson, 20, was invited by Exxon Mobil Corp. to give a speech at the summit detailing her experiences. Achievements: Students earn Eagle Scout rank with map ...'
p8
aS"Oct 18, 2010 - Chevron has been hit by pranksters hijacking its corporate-PR efforts. ... What Do Marketers Do When Faced With Fake Ads, Fake Press Releases, Fake News Stories? ... they've already posed as Halliburton, Dow Chemical and ExxonMobil."
p9
aS'Oct 18, 2010 - 03/03/16, World Fuel Services Corporation Declares Regular Quarterly Cash ... 02/11/16, World Fuel Services Corporation to Acquire ExxonMobil Fueling ...'
p10
a.