(lp0
S'Oct 12, 2010 - ExxonMobil signed a multi-year sponsorship agreement with two-time NASCAR Sprint Cup Series ... Mobil and Mobil 1 are registered trademarks of Exxon Mobil Corporation or one of its subsidiaries. ... English; EON: Enhanced Online News ...'
p1
aS"Oct 13, 2010 - Tony Stewart and his Mobil 1 branded #14 carIt must be great to be in Tony ... gas corporation will be present on Stewart's car through its Mobil 1 brand starting ... ExxonMobil are no strangers from NASCAR action, as they used to sponsor ... cars; moto; news; reviews; editorial; coverstory; auto how-to; glossary; car finder; rss."
p2
aS"Oct 13, 2010 - In fact, Apple's market cap is now trails only Exxon Mobil Corp. as a U.S. publicly traded company. Exxon's market cap hovers around $330 billion. Big-name ..."
p3
aS'Oct 12, 2010 - In 2008, the Corporation for Public Broadcasting reported $2.85 billion in ... For example, why would Exxon Mobil sponsor a nine-part series on street signs?'
p4
aS"Oct 12, 2010 - Part of ExxonMobil's ongoing offshore facilities upgrade program in Nigeria, the ... Subscribe to an email newsletter today at no cost and receive the latest news ..."
p5
aS"Oct 12, 2010 - WorleyParsons' Nigerian joint venture company, DeltaAfrik Engineering Limited, has received notification of a contract extension from ExxonMobil subsidiary ..."
p6
aS"Oct 13, 2010 - ... relating to its $41 billion tie-up with Exxon Mobil Corp., which he had claimed did not adequately compensate XTO shareholders for the company's assets."
p7
aS'Oct 12, 2010 - ExxonMobil extends Nigeria Satellites contract. 10/12/2010. Offshore staff ... Get All the Offshore Magazine News Delivered to Your Inbox for free. Subscribe to ...'
p8
aS'Oct 12, 2010 - 2 2 Barclays Plc 1 3 Bank of America Corp. ... Oil companies including Exxon Mobil Corp and China Petroleum and Chemical Corp have joined independent ...'
p9
aS'Oct 13, 2010 - ExxonMobil operates the highly lucrative Qua Iboe oil fields in Akwa Ibom, one of ... in the guise of corporate investment in social responsibility community projects. ... the family was shattered by news that Mrs. Tombush has been kidnapped.'
p10
a.