(lp0
S'Oct 14, 2010 - IRVING, Texas--(BUSINESS WIRE)--Exxon Mobil Corporation announced today the licensing of its award-winning Multi-Zone Stimulation Technology ...'
p1
aS'Oct 15, 2010 - Careers  Investors  News; Select countryGlobal_selector_abbreviation ..... Careers  Contact us  Investors  News and updates  Perspectives blog.'
p2
aS'Oct 14, 2010 - ExxonMobil Corporation announced recently that it has contributed $2 million in departmental grants to 81 colleges and universities throughout the country to ...'
p3
aS"Oct 15, 2010 - Search ExxonMobil Lubricants & Petrol Spec company's catalogues and technical brochures. ... Petrol Spec. Products; Catalogues; News; Exhibitions ..."
p4
aS'Oct 15, 2010 - Glenn Beck Brings ExxonMobil-Linked Religious Front Group To Tell ... the Cornwall Alliance  a corporate front designed to deceive evangelicals into doubting ... Today, Fox News hate-talker Glenn Beck brought on a representative from the ...'
p5
aS'Oct 14, 2010 - While the stake in the company, to be known as Howard Hughes Corp., may .... plan to toughen offshore drilling rules that Exxon Mobil Corp. said will cost as ...'
p6
aS"Oct 14, 2010 - Ray Irani, chief executive officer of Occidental Petroleum Corp. ... in 2009, the most of any oil or power executive in a Bloomberg News survey of compensation. ... Exxon Mobil Corp., the world's largest oil company, paid its CEO, Rex Tillerson, ..."
p7
aS'Oct 14, 2010 - Exxon and Sinopec join traders in selling crude overseas ... Oil companies including Exxon Mobil Corp and China Petroleum and Chemical Corp have joined ...'
p8
aS"Oct 15, 2010 - ExxonMobil's Perspectives blog offers views on issues, policies, technologies ... Click here to subscribe to the blog's RSS news feed. ... Exxon Mobil Corporation."
p9
aS'Oct 15, 2010 - CSPnet.com - Convenience Store News ... N.Y. Officials Reach Oil Spill Settlement With ExxonMobil .... That said, Waddell thinks the transition to Houston-based Marathon Oil Corp. was successful. .... I had a gentleman from western Pennsylvania whose father had never gotten over Mobil pulling out of his area, she says.'
p10
a.