(lp0
S'Oct 18, 2010 - Exxon Mobil Corp. News XOM Exxon:France Port Jerome Refinery Shutting Down Due New York Stock Exchange Announcements, Company Reports & Press ...'
p1
aS'Oct 18, 2010 - She is also the author of the book University, Inc.: The Corporate Corruption of Higher Education. ... This is viewer supported news. Donate. Over the past five years, ExxonMobil, Chevron, BP, Royal Dutch Shell and ConocoPhillips have given ...'
p2
aS"Oct 18, 2010 - Chevron Corp launched a new advertising campaign on Monday to address ... from companies such as Dow Chemical Co, Exxon Mobil Corp and Halliburton Co. ... Thomson Reuters is the world's largest international multimedia news agency ..."
p3
aS'Oct 18, 2010 - Exxon and Sinopec join traders in selling crude overseas ... Oil companies including Exxon Mobil Corp and China Petroleum and Chemical Corp have joined ...'
p4
aS"Oct 18, 2010 - ... as the largest shareholder in Mazda Motor Corp., according to the bank's chairman. ... declined to comment further when contacted by Bloomberg News today. ... plan to toughen offshore drilling rules that Exxon Mobil Corp. said will cost as ..."
p5
aS'Oct 19, 2010 - Pacific Rubiales Energy Corp has executed a Farm-in Agreement with ... Of this group, only Exxon Mobil recorded a gain on earnings from the previous year.'
p6
aS"Oct 19, 2010 - ... five of the world's top 10 oil companiesExxonMobil Corp., Chevron Corp., BP PLC, Royal Dutch Shell Group, ... and public-interest functions when negotiating research contracts with large corporate funders. ... POLLUTERWATCH News ..."
p7
aS"Oct 18, 2010 - Chevron has been hit by pranksters hijacking its corporate-PR efforts. ... What Do Marketers Do When Faced With Fake Ads, Fake Press Releases, Fake News Stories? ... they've already posed as Halliburton, Dow Chemical and ExxonMobil."
p8
aS'Oct 19, 2010 - By ELIZABETH SOUDER / The Dallas Morning News esouder@dallasnews.com. Published: 19 October ..... Exxon Mobil, XOM, 78.06. Fluor Corp. FLR, 41.35.'
p9
aS'Oct 19, 2010 - FOR IMMEDIATE NEWS RELEASE. NEWS RELEASE #070 ... VERONICA MARIN BREAUX v. EXXON MOBIL CORPORATION, FORMERLY KNOWN. AS AND ...'
p10
a.