(lp0
S'Oct 25, 2010 - PolyOne Corporation announced that PolyOne GLS Thermoplastic Elastomers has been chosen by ExxonMobil Chemical Company to be its primary marketing ...'
p1
aS"Oct 25, 2010 - HOUSTON (Oct. 25, 2010)ExxonMobil Chemical Co. has selected PolyOne Corp. as its main marketing specialist for medical products using ExxonMobil's ..."
p2
aS'Oct 25, 2010 - ExxonMobil Chemical Company announced today that it has selected PolyOne to be its primary ... Under a separate agreement, ExxonMobil Chemical has appointed PolyOne Distribution to be an ... More news from this section. 18. ... Chemtura Corporation announced the expansion of the Low Free (LF) MDI polyurethane ...'
p3
aS"Oct 24, 2010 - ExxonMobil's workforce in Indonesia is a key competitive advantage for our organization. Our track record for ... corporate links. employment policies and ..."
p4
aS'Oct 24, 2010 - ExxonMobil in Indonesia takes pride in our history and significant ... corporate links ... View and download the latest ExxonMobil Indonesia company profile.'
p5
aS'Oct 25, 2010 - Exxon Mobil Corp. said today that its Fos refinery is managing to produce at minimal rates. France has not notified the International Energy Agency of any ...'
p6
aS"Oct 25, 2010 - (James Pressley writes for Muse, the arts and leisure section of Bloomberg News. ... Exxon Says `$25 Billion Rule' Will Sink Deepwater Oil Drilling ... a U.S. plan to toughen offshore drilling rules that Exxon Mobil Corp. said will cost as much as ..."
p7
aS'Oct 25, 2010 - The late Bloomberg News reporter Mark Pittman asked the U.S. Treasury in ... U.S. plan to toughen offshore drilling rules that Exxon Mobil Corp. said will cost as ...'
p8
aS"Oct 25, 2010 - Exxon Says `$25 Billion Rule' Will Sink Deepwater Oil Drilling ... to toughen offshore drilling rules that Exxon Mobil Corp. said will cost $25 billion over 10 years ..."
p9
aS'Oct 25, 2010 - Liberia, flags of convenience and corporate capitalism .... Standard Oil - whose current descendent is Exxon-Mobil - got its way, through formulating the modern ...'
p10
a.