(lp0
S'Oct 28, 2010 - Join over 100,000 investors who get the latest news from Dividend.com ..... Exxon Mobil Corporation {XOM) is a manufacturer and marketer of commodity ...'
p1
aS'Oct 29, 2010 - ExxonMobil Foundation and Dr. Rod Paige Receive A+ Awards for Excellence in ... In 2009, together with its employees and retirees, Exxon Mobil Corporation, ...'
p2
aS'Oct 28, 2010 - Planning Design Research Corporation (PDR) has completed a consolidation of two ExxonMobil data centers and an expansion of a third while establishing ...'
p3
aS'Oct 29, 2010 - Focus News  Focus Locations  Focus Community ... Ventures LLC in early 2008, Mr. Kohlenberger retired from ExxonMobil Corporation, after serving nearly 34 ...'
p4
aS'Oct 29, 2010 - Members of the inaugural ExxonMobil Scholars Program met with Mike Dolan, Senior Vice President of ExxonMobil Corporation and WPI Trustee, at a Trustee/mentee luncheon aimed at providing current students with ... News, Notes & Events.'
p5
aS'Oct 29, 2010 - Exxon Mobil said Thursday that it completed the acquisition of ... Colorado Breaking News, Sports, Weather, Traffic. Ellora Energy acquired by Exxon Mobil.'
p6
aS'Oct 28, 2010 - An analysis of fund-raising documents, lobbying records and corporate reports shows that ... NPR News Investigations ... and associations, such as the tobacco company Reynolds American Inc., ExxonMobil and the National Rifle Association.'
p7
aS'Oct 29, 2010 - Related: Stocks, Regulatory News, Markets, Energy ... new estimate again includes the Hibernia Southern Extension, which the Exxon Mobil Corp-led (XOM.'
p8
aS'Oct 29, 2010 - ... Bank of America Corp. and Citigroup Inc. over the buyout, claiming the banks ... Chesapeake, second only to Exxon Mobil Corp. in gas production from U.S. ...'
p9
aS'Oct 28, 2010 - Live Business News .... Chevron Corporation  Executives Biographies  Exxon Mobil Corporation  Miscellanoeous  News  The Western Union Company ...'
p10
a.