(lp0
S'Oct 21, 2010 - Careers  Investors  News  Global .... ExxonMobil Yugen Kaisha is a 100 percent indirect subsidiary of Exxon Mobil Corporation of the United States. ... or all of the companies affiliated with Exxon Mobil Corporation (NYSE:XOM), and/or itself, ...'
p1
aS'Oct 21, 2010 - Careers  Investors  News  Global  ExxonMobil. Menu .... Copyright 2003-2016 Exxon Mobil Corporation. All Rights Reserved. Business Wire NewsHQ'
p2
aS'Oct 21, 2010 - Account Options. Sign in  Help  Google Finance. Company; Summary  News  Option chain. Related companies. Historical prices  Financials  Markets  News.'
p3
aS'Oct 22, 2010 - News ... Capital: \\3,168 million (Exxon Mobil Corporation 50%: JSR Corporation 50%) About ExxonMobil Yugen Kaisha: - Location: 1-8-15 Kounan, Minato-ku, ...'
p4
aS'Oct 22, 2010 - DOW JONES, A NEWS CORP COMPANY .... Imperial Oil, a Canadian company working with Exxon Mobil Corp. on the project, says it has spent years ...'
p5
aS'Oct 22, 2010 - DOW JONES, A NEWS CORP COMPANY. News Corp is a .... The $2 billion terminal, a joint venture of Qatar Petroleum, Exxon Mobil Corp. XOM -0.54 % and ...'
p6
aS'Oct 22, 2010 - The offer tops an earlier, failed bid of about $4 billion from Exxon Mobil Corp. for the Kosmos assets, which include a 23.49 percent stake in Jubilee. The field ...'
p7
aS'Oct 21, 2010 - Orix Corp., a Japanese financial services company, aims to double assets managed by ... Oil companies including Exxon Mobil Corp and China Petroleum and ...'
p8
aS'Oct 22, 2010 - Similarly, Fox News parent company News Corporation gave an additional $1 ... corporate tax loopholes open (Chamber members CitiGroup, ExxonMobil and ...'
p9
aS'Oct 21, 2010 - On the homeland, the CIA, NSA, FBI, DHS with their corporate partners are now ... the modern-day fossil fuel industry is still ultra-consolidated with Exxon-Mobil, ... General Electric, CBS/Viacom, Time Warner, News Corp, and Walt Disney, who ...'
p10
a.