(lp0
S'Oct 25, 2010 - PolyOne Corporation announced that PolyOne GLS Thermoplastic Elastomers has been chosen by ExxonMobil Chemical Company to be its primary marketing ...'
p1
aS"Oct 25, 2010 - HOUSTON (Oct. 25, 2010)ExxonMobil Chemical Co. has selected PolyOne Corp. as its main marketing specialist for medical products using ExxonMobil's ..."
p2
aS'Oct 25, 2010 - ExxonMobil Chemical Company announced today that it has selected PolyOne to be its primary ... Under a separate agreement, ExxonMobil Chemical has appointed PolyOne Distribution to be an ... More news from this section. 18. ... Chemtura Corporation announced the expansion of the Low Free (LF) MDI polyurethane ...'
p3
aS'Oct 25, 2010 - The late Bloomberg News reporter Mark Pittman asked the U.S. Treasury in ... U.S. plan to toughen offshore drilling rules that Exxon Mobil Corp. said will cost as ...'
p4
aS"Oct 25, 2010 - Exxon Says `$25 Billion Rule' Will Sink Deepwater Oil Drilling ... to toughen offshore drilling rules that Exxon Mobil Corp. said will cost $25 billion over 10 years ..."
p5
aS"Oct 25, 2010 - (James Pressley writes for Muse, the arts and leisure section of Bloomberg News. ... Exxon Says `$25 Billion Rule' Will Sink Deepwater Oil Drilling ... a U.S. plan to toughen offshore drilling rules that Exxon Mobil Corp. said will cost as much as ..."
p6
aS'Oct 26, 2010 - ExxonMobil Chemical selected PolyOne Corporation to be its primary marketing specialist for thermoplastic vulcanizate (TPV) medical products made using ...'
p7
aS'Oct 27, 2010 - ... where Chevron\'s logo has sat atop the news as PBS\' top corporate sponsor. ... Conoco-Phillips, ExxonMobil and Chevron that, "BP did not act to industry ...'
p8
aS'Oct 25, 2010 - Liberia, flags of convenience and corporate capitalism .... Standard Oil - whose current descendent is Exxon-Mobil - got its way, through formulating the modern ...'
p9
aS"Oct 26, 2010 - Click here to subscribe to the blog's RSS news feed. .... And the good news it is renewable, so it can extend the life of oil year after .... Exxon Mobil Corporation."
p10
a.