(lp0
S'Oct 21, 2010 - Careers  Investors  News  Global .... ExxonMobil Yugen Kaisha is a 100 percent indirect subsidiary of Exxon Mobil Corporation of the United States. ... or all of the companies affiliated with Exxon Mobil Corporation (NYSE:XOM), and/or itself, ...'
p1
aS'Oct 21, 2010 - Careers  Investors  News  Global  ExxonMobil. Menu .... Copyright 2003-2016 Exxon Mobil Corporation. All Rights Reserved. Business Wire NewsHQ'
p2
aS'Oct 21, 2010 - Account Options. Sign in  Help  Google Finance. Company; Summary  News  Option chain. Related companies. Historical prices  Financials  Markets  News.'
p3
aS'Oct 21, 2010 - On the homeland, the CIA, NSA, FBI, DHS with their corporate partners are now ... the modern-day fossil fuel industry is still ultra-consolidated with Exxon-Mobil, ... General Electric, CBS/Viacom, Time Warner, News Corp, and Walt Disney, who ...'
p4
aS'Oct 21, 2010 - Orix Corp., a Japanese financial services company, aims to double assets managed by ... Oil companies including Exxon Mobil Corp and China Petroleum and ...'
p5
aS'Oct 20, 2010 - Oil companies including Exxon Mobil Corp and China Petroleum and Chemical Corp ... Exxon in early March became the first major U.S. oil company to ship ...'
p6
aS"Oct 21, 2010 - Bank of America Corp., the world's fifth-biggest adviser on mergers and ... from Jeffrey Kaplan, the global head of M&A, that was obtained by Bloomberg News. ... offshore drilling rules that Exxon Mobil Corp. said will cost $25 billion over 10 ..."
p7
aS"Oct 21, 2010 - Wal-Mart  Exxon Mobil  Chevron  GE  Bank of America ... his life's work, argues in his book that corporate decline can be detected, avoided, and reversed."
p8
aS'Oct 20, 2010 - Beneath the Brooklyn neighborhood of Greenpoint, New York, is a giant oil spill that BP, ExxonMobil and Chevron are slowly cleaning up.'
p9
aS'Oct 21, 2010 - Exxon Mobil Corporation ... RT @exxonmobil: As a founding sponsor of NMSI, we have committed $180M+ to improving student performance in math & science ...'
p10
a.