(lp0
S'Oct 20, 2010 - Beneath the Brooklyn neighborhood of Greenpoint, New York, is a giant oil spill that BP, ExxonMobil and Chevron are slowly cleaning up.'
p1
aS'Oct 20, 2010 - Meanwhile, Exxon Mobil has had just one. In this sense, BP reminds me of Enron, which was another firm heralded for its CSR and ethics best practice:.'
p2
aS'Oct 19, 2010 - Pacific Rubiales Energy Corp has executed a Farm-in Agreement with ... Of this group, only Exxon Mobil recorded a gain on earnings from the previous year.'
p3
aS'Oct 20, 2010 - Oil companies including Exxon Mobil Corp and China Petroleum and Chemical Corp ... Exxon in early March became the first major U.S. oil company to ship ...'
p4
aS"Oct 19, 2010 - Shares of Apple -- the second-largest corporation on the Standard & Poor's 500 index, after Exxon Mobil -- slid 6 percent in after-hours trading, which would be ..."
p5
aS'Oct 20, 2010 - ExxonMobil - Joliet, IL Marathon - St. Paul Park, MN ... STARCON International Inc. at Tulsa Refinery of Holly Frontier Corporation: - STARCON International ...'
p6
aS'Oct 20, 2010 - 2. Exxon Mobil Corporation. Exxon Mobil, in partnership with SECME schools, awards scholarships annually to minority students who are entering math and ...'
p7
aS'Oct 19, 2010 - World Fuel Services Corporation (NYSE: INT) and ExxonMobil Aviation have ... World Fuel is in a unique position to support ExxonMobil Aviation and the ... and available social following information is listed in the top-right of all news releases.'
p8
aS'Oct 19, 2010 - FOR IMMEDIATE NEWS RELEASE. NEWS RELEASE #070 ... VERONICA MARIN BREAUX v. EXXON MOBIL CORPORATION, FORMERLY KNOWN. AS AND ...'
p9
aS'Oct 21, 2010 - Exxon Mobil Corporation ... RT @exxonmobil: As a founding sponsor of NMSI, we have committed $180M+ to improving student performance in math & science ...'
p10
a.