(lp0
S'Oct 3, 2010 - Careers  Investors  News; Select countryGlobal_selector_abbreviation ..... Careers  Contact us  Investors  News and updates  Perspectives blog.'
p1
aS'Oct 4, 2010 - Outsources 221 locations acquired from ExxonMobil, dealers to Alliance Energy. ... CSPnet.com - Convenience Store News .... purchase of 42 Mobil-branded stations directly operated by Irving, Texas-based Exxon [image-nocss] Mobil Corp.'
p2
aS"Oct 4, 2010 - Reports that most businesses operating in the state don't pay the corporate net ... the tax situation of a corporate giant like ExxonMobil, which Rendell referred to, ..."
p3
aS'Oct 3, 2010 - DOW JONES, A NEWS CORP COMPANY ... companies in the worlds of diversified media, news, education, and information services. ..... Exxon Mobil Corp.'
p4
aS"Oct 4, 2010 - Exxon Says `$25 Billion Rule' Will Sink Deepwater Oil Drilling ... U.S. plan to toughen offshore drilling rules that Exxon Mobil Corp. said will cost as much as $25 ..."
p5
aS"Oct 4, 2010 - ... the U.S. The world's five biggest oil majors -- Exxon Mobil Corp., Royal Dutch Shell Plc, Chevron Corp., Total SA and BP -- all reported lower profits last year, ..."
p6
aS'Oct 4, 2010 - "ExxonMobil Canada is proud to play a role in the development and ... heritage trail with the assistance of government, corporate and individual donations, and ...'
p7
aS'Oct 3, 2010 - By SHERYL JEAN / The Dallas Morning News sjean@dallasnews.com. Published: 03 October 2010 10:23 .... Exxon Mobil, XOM, 78.06. Fluor Corp. FLR, 41.35.'
p8
aS'Oct 4, 2010 - Before forming Chemical Technomics, he worked with Mobil Corp., CE Lummus, ... Get All the Oil and Gas Journal News Delivered to Your Inbox ..... exxon mobil'
p9
aS'Oct 3, 2010 - Houston, TX News - View Daily Local Business News, Resources & more in ... Clients included Exxon Mobil Corp. and the City of Houston before the office ...'
p10
a.