(lp0
S'Oct 5, 2010 - By JON NIELSEN / The Dallas Morning News jnielsen@dallasnews.com ... That was two months ago when Tillerson, the chief executive of Exxon Mobil, asked fellow Dallas oilman Rees-Jones to make a $25 million donation to .... Fluor Corp.'
p1
aS"Oct 4, 2010 - Reports that most businesses operating in the state don't pay the corporate net ... the tax situation of a corporate giant like ExxonMobil, which Rendell referred to, ..."
p2
aS'Oct 4, 2010 - "ExxonMobil Canada is proud to play a role in the development and ... heritage trail with the assistance of government, corporate and individual donations, and ...'
p3
aS"Oct 4, 2010 - Exxon Says `$25 Billion Rule' Will Sink Deepwater Oil Drilling ... U.S. plan to toughen offshore drilling rules that Exxon Mobil Corp. said will cost as much as $25 ..."
p4
aS"Oct 4, 2010 - Tillerson, Chairman and CEO of Exxon Mobil Corporation, also serves as BSA's National President. Last year, Circle ... The news you need, when you need it."
p5
aS'Oct 5, 2010 - Exxon Mobil Corp. is leading a coalition of oil companies building a ... Information, including the latest news, photos, area plans, and volunteer information.'
p6
aS'Oct 5, 2010 - However, the final criterion of the HRC Corporate Equality Index allows points ... Exxon Mobil Corp., Wal-Mart Stores Inc. and Verizon Communications Inc. have ...'
p7
aS'Oct 4, 2010 - Before forming Chemical Technomics, he worked with Mobil Corp., CE Lummus, ... Get All the Oil and Gas Journal News Delivered to Your Inbox ..... exxon mobil'
p8
aS'Oct 4, 2010 - Last December, Exxon Mobil Corp. agreed to buy XTO Energy Inc. for $31 .... In the near term, investors should watch for any news out of China or India that they ...'
p9
aS'Oct 5, 2010 - Cracker Barrel, which has long ranked right up there with ExxonMobil Corp. on the ... Cracker Barrel Old Country Store Inc., once in the news for delivering pink ...'
p10
a.