(lp0
S'Oct 7, 2010 - (BUSINESS WIRE)--ExxonMobil Lubricants and Petroleum Specialties, a division of Exxon Mobil Corporation, has been selected as the preferred supplier of oil ...'
p1
aS'Oct 7, 2010 - Censored Gulf news: ExxonMobil worker dead. .... This Corporate Fascist takeover of the bodies, minds and souls of men, women and children by constant ...'
p2
aS'Oct 7, 2010 - ... owned by Exxon Mobil Corp, the company and local authorities said on Thursday. ... Allexon also said Exxon was "actively mitigating" odors related to the leak, "which ... Thomson Reuters is the world\'s largest international multimedia news ...'
p3
aS'Oct 7, 2010 - Henry leased a field to Exxon Mobil Corp. in 1985, which drilled wells that have ... These days Vermilion Energy Inc., Toreador Resources Corp. and partner Hess .... During a five-hour conversation with Bloomberg News last week, Prince ...'
p4
aS"Oct 8, 2010 - News. ... an independent consultant in corporate strategy and acquisitions, working with ... Rulmyr's classmate Steve Segien '75 (left) is President of ExxonMobil ..."
p5
aS"Oct 7, 2010 - DOW JONES, A NEWS CORP COMPANY. News Corp is a network of leading .... Alan Hirshberg, age 49, who led Exxon Mobil Corp.'s XOM -0.54 % global ..."
p6
aS"Oct 7, 2010 - In key instances, the Kaiser Family Foundation's global health news coverage ... found, it has invested $423 million in Eni, Royal Dutch Shell, Exxon Mobil Corp., ..."
p7
aS'Oct 7, 2010 - We wanted to see how this compares to other oil giants and we took a look at BP plc (NYSE: BP), Exxon Mobil Corporation (NYSE: XOM), Chevron Corporation ...'
p8
aS'Oct 7, 2010 - Get All the Offshore Magazine News Delivered to Your Inbox for free ... Lockheed Martin has selected SeaRobotics Corp. as the original equipment .... as part of the Baytown Complex Laboratory of ExxonMobil Refining Supply Company, will ...'
p9
aS'Oct 7, 2010 - ExxonMobil Corporation made a $1 million commitment at the Clinton Global Initiative (CGI) to invest in the expansion of high impact, sustainable technologies ...'
p10
a.