(lp0
S'Nov 16, 2010 - By Oil & Gas Financial Journal staff Eight crew members were kidnapped from an ExxonMobil Corp. facility in Nigeria late Sunday, Nov. 14, according to news ...'
p1
aS"Nov 15, 2010 - Genie Energy Corporation (Genie Energy), a division of IDT Corporation (NYSE: IDT, ... Covering and distributing news has been my life's work, said Mr. Murdoch. ... Eugene A. Renna  Former Executive Vice President of Exxon Mobil and a ..."
p2
aS'Nov 17, 2010 - ... und Unternehmensmeldungen fr Exxon Mobil Corporation Common (XOM) bei Yahoo! ... Juni); Brse Frankfurt-News: Gefragte lkonzerne (Auslandsaktien) ...'
p3
aS"Nov 15, 2010 - Exxon Mobil Corp.'s Nigerian unit said armed attackers boarded one of its offshore platforms on the country's southeast coast yesterday amid increasing ..."
p4
aS'Nov 16, 2010 - News releases concerning Tulane Law School, its faculty, staff, students, and programs ... Dan Schuessler, a high-ranking venture executive for ExxonMobil in ... about corporate environmental responsibility in the context of climate change.'
p5
aS'Nov 16, 2010 - ExxonMobil Corp. ... Mobil Producing Nigeriaconfirms that unknown armed persons boarded the Oso ... International news for oil and gas professionals ...'
p6
aS"Nov 15, 2010 - News Corporation's holdings include Fox Entertainment, The Wall Street Journal, ... Eugene A. Renna  Former Executive Vice President of Exxon Mobil and a ..."
p7
aS'Nov 16, 2010 - ... Tuesday it kidnapped seven local workers from an Exxon Mobil Corp. offshore rig. ... In this file photo, local residents stand around an Exxon Mobil oil manifold in the oil-rich Niger Delta region of Nigeria. ... Stay Connected with CBC News.'
p8
aS'Nov 15, 2010 - Valero Energy Corporation and ExxonMobil  two of the largest U.S. oil refiners  have publicly said that they neither need nor want VEETC. Irrespective of the ...'
p9
aS'Nov 15, 2010 - Many Texas-based companies, such as Exxon Mobil, ConocoPhillips, National ... Companies that have the creative power and corporate will to lead the world ...'
p10
a.