(lp0
S'Nov 10, 2010 - Exxon remains committed to its long-term strategy of bulking up on U.S. ... DOW JONES, A NEWS CORP COMPANY .... Nearly a year ago, Exxon Mobil Corp.'
p1
aS'Nov 11, 2010 - Exxon Mobil Corp. appears to have the prospect of improving earnings. .... The good news about the current marketplace is - we are presented frequent and ...'
p2
aS'Nov 10, 2010 - Range Resources Corp., EQT Corp. and Ultra Petroleum Corp. are among ... Exxon Mobil Corp. and Royal Dutch Shell Plc have also bought companies with ...'
p3
aS'Nov 11, 2010 - SEC Overrides ExxonMobil Efforts to Stifle Shareholder Activism on Climate ... Chipotle, shareholders resolution, corporate governance, sustainability reporting, ...'
p4
aS"Nov 11, 2010 - Penguin Group (USA) company news and press releases. ... author Steve Coll's penetrating, news-breaking investigative portrait of the ExxonMobil Corporation."
p5
aS'Nov 11, 2010 - ExxonMobil (NYSE:XOM) introduced today the Exxon Mobil Fuel Finder iPhone and iPod touch application, which provides ... Exxon Mobil Corporation(XOM)'
p6
aS"Nov 11, 2010 - The grants were made possible by funding from the ExxonMobil Corporation. Troy's Mobil is located at 2507 Albany Ave, West Hartford. St. Timothy Middle ..."
p7
aS'Nov 11, 2010 - Distributor Fouzia Hussain of the Mobil Travel Plaza in Wilmington, Illinois ... The grants were made possible by funding from the Exxon Mobil Corporation.'
p8
aS'Nov 10, 2010 - Advertise in the Snow Plow News dealer directory by purchasing your zipcode ... safety office wrote Exxon Mobil Corp on Thursday saying it has fined... more.'
p9
aS"Nov 10, 2010 - Esso and Mobil later formed part of Exxon Mobil Corp (XOM.N). ... In 1982, Petrochemical Corporation of Singapore (PCS) - a joint-venture between .... Thomson Reuters is the world's largest international multimedia news agency, providing ..."
p10
a.