(lp0
S'Nov 10, 2010 - Exxon remains committed to its long-term strategy of bulking up on U.S. ... DOW JONES, A NEWS CORP COMPANY .... Nearly a year ago, Exxon Mobil Corp.'
p1
aS'Nov 9, 2010 - News and updates  Speeches. Speech. Nov. 9, 2010 ..... Get news updates, newly published reports and articles  storm clouds. News and updates ...'
p2
aS'Nov 10, 2010 - Suzanne McCarron is the President of the ExxonMobil Foundation and General Manager of Public and Government Affairs for Exxon Mobil Corporation.'
p3
aS'Nov 10, 2010 - Range Resources Corp., EQT Corp. and Ultra Petroleum Corp. are among ... Exxon Mobil Corp. and Royal Dutch Shell Plc have also bought companies with ...'
p4
aS'Nov 11, 2010 - SEC Overrides ExxonMobil Efforts to Stifle Shareholder Activism on Climate ... Chipotle, shareholders resolution, corporate governance, sustainability reporting, ...'
p5
aS"Nov 9, 2010 - He talked about how the Valdez incident caused ExxonMobil's management to completely ... there are several critical elements necessary to creating a corporate culture that values safety. ... Click here to subscribe to the blog's RSS news feed."
p6
aS'Nov 9, 2010 - That brings us to ExxonMobil (NYSE: XOM ) , whose recent revenue and earnings are plotted below. ... wrongdoing, or that everything that comes up questionable in my graph is automatically bad news. .... ExxonMobil Corp, CAPS Rating: **** ...'
p7
aS'Nov 11, 2010 - Distributor Fouzia Hussain of the Mobil Travel Plaza in Wilmington, Illinois ... The grants were made possible by funding from the Exxon Mobil Corporation.'
p8
aS'Nov 10, 2010 - Advertise in the Snow Plow News dealer directory by purchasing your zipcode ... safety office wrote Exxon Mobil Corp on Thursday saying it has fined... more.'
p9
aS'Nov 10, 2010 - ... of 40 percent of its Brazilian assets to China Petrochemical Corp. for US$7.1 ... ExxonMobil (Esso in Brazil): Located in Irving, Texas, ExxonMobil is the ... Pingback: Van of Foreign Oil Workers Robbed in Rio | The Rio Times I Brazil News.'
p10
a.