(lp0
S'Nov 2, 2010 - The European Commission has authorised two acquisitions whereby Exxon Mobil Corporation ("Exxonmobile") (USA) and BP Amoco plc ("BPA") (UK) each ...'
p1
aS'Nov 1, 2010 - When I discussed the second quarter results for Exxon Mobil Corporation (NYSE:XOM), I was bullish on ExxonMobil. My summary comments were as ...'
p2
aS'Nov 1, 2010 - Vanguard News ... A liquefied natural gas carrier arrives at an Exxon Mobil terminal off Porto Levante. Mobil, which is in joint venture with the Nigerian National Petroleum Corporation, NNPC, also said the discovery was made in its Oil Mining ...'
p3
aS'Oct 31, 2010 - based Koch Industries and Tesoro Corp., which is based in San Antonio, as is Valero ... Shortly after California approved its low-carbon standard, Exxon Mobil Corp. ... all the political consultants and news conferences, all the tens of millions of ...'
p4
aS"Nov 1, 2010 - ExxonMobil announced the discovery of rich gas condensate off the West African country's coast. MPN, a local joint venture, ... Upstream oil and gas news for exploration and production professionals ... Current Corporate Activity articles: 2567 ..."
p5
aS'Nov 1, 2010 - The top five companies in total revenues  ExxonMobil, Chevron, ... Top 20 in total revenues  Dominion Energy; Questar Corp, which merged with and into QEP ... Get All the Oil & Gas Financial Journal News Delivered to Your Inbox for free.'
p6
aS'Nov 1, 2010 - Oil giant Chevron Corp. has given the green-light on the initial $7.5 billion ... 2 behind ExxonMobil in net income, spending, total revenue and assets in the .... Get All the Oil & Gas Financial Journal News Delivered to Your Inbox for free.'
p7
aS'Nov 1, 2010 - Get All the Offshore Magazine News Delivered to Your Inbox for free ... the installation of subsea mooring connectors for Anadarko Petroleum Corp. .... as part of the Baytown Complex Laboratory of ExxonMobil Refining Supply Company, will ...'
p8
aS'Nov 1, 2010 - International News for oil and gas professionals. ... ExxonMobil Corp. has completed commissioning of new units to produce ultralow-sulfur diesel at its Baytown, ...'
p9
aS"Oct 31, 2010 - Type: Office and Residential Building; Location: Lekki Express Way, Victoria Island, Lagos; Client: Exxon Mobil; Main Contractor: Cappa & D'alberto PLC"
p10
a.