(lp0
S'Nov 21, 2010 - Industry News & Trends.  Corporate & Store Operations. ExxonMobil Sells 72 N.Y. Stores to Capital Petroleum Group. Deal financed through Petroleum Capital ...'
p1
aS'Nov 22, 2010 - Alexanders Portraits, via Bloomberg News John D. Schiller Jr., chairman and chief ... Exxon Mobil announced in October that it intended to sell a small slice of its ...'
p2
aS'Nov 21, 2010 - Africa regional director of ExxonMobil Chemical Company located in Brussels, ... Michael J. Dolan, senior vice president of Exxon Mobil Corporation, delivers the ...'
p3
aS'Nov 21, 2010 - Energy XXI to Acquire Gulf of Mexico Shelf Properties From ExxonMobil ... to finance the purchase, Energy XXI has obtained committed financing to increase its corporate revolver from $350 million currently .... News Provided by Acquire Media.'
p4
aS'Nov 22, 2010 - The News Corp. baron and the former veep are forming a conspiracy Voltron with a shale oil ... Former Exxon Mobil executive vice president Eugene A. Renna.'
p5
aS'Nov 22, 2010 - O) said it was buying nine oil and gas fields in the shallow-water Gulf of Mexico from Exxon Mobil Corp (XOM.N) for just over $1 billion. (Reporting by Braden ...'
p6
aS'Nov 22, 2010 - Chesapeake, second only to Exxon Mobil Corp. in gas production from U.S. fields, ... Drillers from Bill Barrett Corp. to EV Energy Partners LP have disclosed ...'
p7
aS'Nov 22, 2010 - Over the last three years, Exxon Mobil has paid an average of $27 billion annually in taxes ... Corporate tax rates should be set at a reasonable level fixed and not be .... Source: http://finance.yahoo.com/news/Nearly-half-of-US-households-apf- ...'
p8
aS'Nov 22, 2010 - increased corporate average fuel economy (CAFE) could influence .... 7 Jeff Montgomery, Valero refinery in Delaware City to close permanently, The News Journal, ..... Phillips, ExxonMobil, BP, Shell, Marathon, Chevron, Flint Hills, Citgo, and ...'
p9
aS'Nov 22, 2010 - According to news reports, the Federal Bureau of Investigation executed search ... (PXP), 3.4 million shares worth $90.6 million, 1.9% of portfolio; PPL Corp. ... 1.3 million shares worth $50.1 million, 1.2% of portfolio; Exxon Mobil (XOM - Get ...'
p10
a.