(lp0
S'Nov 23, 2010 - Daily news for the downstream oil and gas industry providing coverage of events in ... Dec 11, 2007 - Exxon Mobil Corp. on Tuesday announced plans to seek ...'
p1
aS'Nov 23, 2010 - news. Skip to Main Content. news releases  media contacts ... Exxon Mobil Corporation  Global Websites  Contact Us  Copyright  Terms & Conditions  Privacy ...'
p2
aS'Nov 23, 2010 - FIRM NEWS ... Exxon Mobil Corp. says Prysmian Power Cables and Systems USA LLC sold the oil giant defective submarine power ... Exxon Mobil said that it chose Pirelli to build the C1 and D1 underwater cables, which were intended to ...'
p3
aS'Nov 24, 2010 - ... officials from the American Chemistry Council, chemical companies ISP Chemco Inc. and BASF Corp., manufacturer PPG Industries Inc. and Exxon Mobil Corp ...'
p4
aS"Nov 24, 2010 - Exxon Mobil Corp. said that it has suspended plans to build a floating liquefied ... Gas Corp' technical department said that he expects Vietnam's domestic gas ..."
p5
aS'Nov 24, 2010 - More News From Greenwire .... Council, chemical companies ISP Chemco Inc. and BASF Corp., manufacturer PPG Industries Inc. and Exxon Mobil Corp.'
p6
aS"Nov 23, 2010 - ... compared to Exxon Mobil Corporation (XOM), Conoco Philips (COP) and Occidental ... Access to Jim Cramer's daily blog; Intraday commentary and news ..."
p7
aS"Nov 24, 2010 - Harrah's changed its name to Caesars Entertainment Corp. yesterday. .... Oil companies including Exxon Mobil Corp and China Petroleum and Chemical Corp ..."
p8
aS"Nov 23, 2010 - ExxonMobil's corporate policy advisor on diversity and community outreach. The group's line name or class was dubbed the Divine Nine. After the ceremony ..."
p9
aS'Nov 24, 2010 - Carter Oil is now part of what is known as the ExxonMobil Corp. The original owner ... Are Conservative Voters Turning Off ALL Cable News? By: apkyletexas 17.'
p10
a.