(lp0
S'Nov 2, 2010 - The European Commission has authorised two acquisitions whereby Exxon Mobil Corporation ("Exxonmobile") (USA) and BP Amoco plc ("BPA") (UK) each ...'
p1
aS'Nov 2, 2010 - The stake is owned by Dallas-based Kosmos Energy LLC, which previously held talks with Exxon Mobil Corp. about the oil-field stake. Kosmos Energy, majority ...'
p2
aS'Nov 1, 2010 - When I discussed the second quarter results for Exxon Mobil Corporation (NYSE:XOM), I was bullish on ExxonMobil. My summary comments were as ...'
p3
aS'Nov 1, 2010 - Vanguard News ... A liquefied natural gas carrier arrives at an Exxon Mobil terminal off Porto Levante. Mobil, which is in joint venture with the Nigerian National Petroleum Corporation, NNPC, also said the discovery was made in its Oil Mining ...'
p4
aS'Nov 2, 2010 - TravelCenters of America (TA) and Petro truckstops have selected Mobil Delvac Extended Life ... Firfax, Va., a division of Irving, Texas-based Exxon Mobil Corp.'
p5
aS"Nov 2, 2010 - Exxon Mobil Corp., the world's largest company, posted its largest profit increase in six years ... BP said it has billed Anadarko Petroleum Corp. and Mitsui & Co. ... In interviews with Bloomberg News, the prince cautioned that if other producers ..."
p6
aS"Nov 1, 2010 - ExxonMobil announced the discovery of rich gas condensate off the West African country's coast. MPN, a local joint venture, ... Upstream oil and gas news for exploration and production professionals ... Current Corporate Activity articles: 2567 ..."
p7
aS'Nov 1, 2010 - The top five companies in total revenues  ExxonMobil, Chevron, ... Top 20 in total revenues  Dominion Energy; Questar Corp, which merged with and into QEP ... Get All the Oil & Gas Financial Journal News Delivered to Your Inbox for free.'
p8
aS'Nov 2, 2010 - ... BP announced the sale of interests in the United States, Canada and Egypt to Apache Corp. ... Exxon Mobil profit surges 55% .... 2016 Cable News Network.'
p9
aS'Nov 2, 2010 - As Ackman sees it, the low cost of money is bound to push corporate America ... Corporate profitability is near an all-time peak. .... I came to work for The Dallas Morning News in May 1972 as a summer intern in the ... Exxon Mobil, XOM, 78.06.'
p10
a.