(lp0
S'Nov 29, 2010 - The ExxonMobil purchase includes 16,300 boe per day of natural gas production, ... 4,395. Midstream. 170. 215. 80. Downstream. 465. 5502. 335. Corporate. 35.'
p1
aS'Nov 29, 2010 - Dallas Morning News Home ... Four other investors will put money into the Hunt trusts: Marubeni Corp., John Hancock Life .... Exxon Mobil, XOM, 78.06.'
p2
aS'Nov 28, 2010 - XOM, Exxon Mobil Corp. 87.40, 0.61, 0.70%, 87.24 ... Track the stock market today with the latest news and information on all things investing! Watch your stocks ...'
p3
aS'Nov 28, 2010 - based Citrus Energy Corp. leased about 10,000 acres in Columbia County and ... and Fort Worth, Texas-based XTO Energy Inc., a subsidiary of Exxon Mobil.'
p4
aS'Nov 29, 2010 - Company outlines growth plans, pays $860-million for Exxon properties. ... Asian offshore gas assets, and spending $860-million to buy oil and gas production from Exxon Mobil Canada. .... News. Trump confuses 9/11 with convenience store chain ... Corporate financial data and content licensing for your organization.'
p5
aS"Nov 29, 2010 - 0inShare. Carlos Bulgheroni, CEO of the successful Argentine family oil corporation ... Rivals Exxon Mobil criticized BP's handling of the situation. The deal also ..."
p6
aS'Nov 28, 2010 - The news comes as the market is already braced for more supply from Iran after ..... in southern Iraq, if the government decides to terminate Exxon Mobil Corp.'
p7
aS"Nov 29, 2010 - ExxonMobil and its partners raised their production plateau target from Iraq's West Qurna oil field to 2.825 million barrels per ... Upstream oil and gas news for exploration and production professionals ... Current Corporate Activity articles: 2567 ..."
p8
aS"Nov 28, 2010 - ExxonMobil Qatar Inc. is pleased to announce the appointment of Dr. ... the country's General Electricity & Water Corporation for seven years after a long career ..."
p9
aS'Nov 29, 2010 - Mobil has installed added compression at the Bacton gas terminal for its Lancelot .... Get All the Offshore Magazine News Delivered to Your Inbox for free ... Lockheed Martin has selected SeaRobotics Corp. as the original equipment .... as part of the Baytown Complex Laboratory of ExxonMobil Refining Supply Company, ...'
p10
a.