(lp0
S'Nov 23, 2010 - Daily news for the downstream oil and gas industry providing coverage of events in ... Dec 11, 2007 - Exxon Mobil Corp. on Tuesday announced plans to seek ...'
p1
aS'Nov 23, 2010 - news. Skip to Main Content. news releases  media contacts ... Exxon Mobil Corporation  Global Websites  Contact Us  Copyright  Terms & Conditions  Privacy ...'
p2
aS'Nov 23, 2010 - FIRM NEWS ... Exxon Mobil Corp. says Prysmian Power Cables and Systems USA LLC sold the oil giant defective submarine power ... Exxon Mobil said that it chose Pirelli to build the C1 and D1 underwater cables, which were intended to ...'
p3
aS'Nov 22, 2010 - Alexanders Portraits, via Bloomberg News John D. Schiller Jr., chairman and chief ... Exxon Mobil announced in October that it intended to sell a small slice of its ...'
p4
aS'Nov 22, 2010 - O) said it was buying nine oil and gas fields in the shallow-water Gulf of Mexico from Exxon Mobil Corp (XOM.N) for just over $1 billion. (Reporting by Braden ...'
p5
aS'Nov 22, 2010 - The News Corp. baron and the former veep are forming a conspiracy Voltron with a shale oil ... Former Exxon Mobil executive vice president Eugene A. Renna.'
p6
aS"Nov 23, 2010 - ... compared to Exxon Mobil Corporation (XOM), Conoco Philips (COP) and Occidental ... Access to Jim Cramer's daily blog; Intraday commentary and news ..."
p7
aS'Nov 22, 2010 - Chesapeake, second only to Exxon Mobil Corp. in gas production from U.S. fields, ... Drillers from Bill Barrett Corp. to EV Energy Partners LP have disclosed ...'
p8
aS"Nov 23, 2010 - ExxonMobil's corporate policy advisor on diversity and community outreach. The group's line name or class was dubbed the Divine Nine. After the ceremony ..."
p9
aS'Nov 22, 2010 - Over the last three years, Exxon Mobil has paid an average of $27 billion annually in taxes ... Corporate tax rates should be set at a reasonable level fixed and not be .... Source: http://finance.yahoo.com/news/Nearly-half-of-US-households-apf- ...'
p10
a.