(lp0
S'Nov 2, 2010 - The stake is owned by Dallas-based Kosmos Energy LLC, which previously held talks with Exxon Mobil Corp. about the oil-field stake. Kosmos Energy, majority ...'
p1
aS'Nov 2, 2010 - TravelCenters of America (TA) and Petro truckstops have selected Mobil Delvac Extended Life ... Firfax, Va., a division of Irving, Texas-based Exxon Mobil Corp.'
p2
aS"Nov 3, 2010 - ExxonMobil Corporation  ExxonMobil Asia Pacific Pte Ltd ... Vincent Chong, ExxonMobil's global director of marine fuels, speaking to Bunkerworld at ... reduction in sulphur limits, according to the global head of marine fuels at ExxonMobil."
p3
aS"Nov 2, 2010 - Exxon Mobil Corp., the world's largest company, posted its largest profit increase in six years ... BP said it has billed Anadarko Petroleum Corp. and Mitsui & Co. ... In interviews with Bloomberg News, the prince cautioned that if other producers ..."
p4
aS'Nov 4, 2010 - ... Strait, Indonesia. ExxonMobil is offering half of its 80% working interest in the block, where drilling is planned for Q4 2011. ... Upstream oil and gas news for exploration and production professionals ... Current Corporate Activity articles: 2567 ...'
p5
aS'Nov 2, 2010 - ... BP announced the sale of interests in the United States, Canada and Egypt to Apache Corp. ... Exxon Mobil profit surges 55% .... 2016 Cable News Network.'
p6
aS"Nov 3, 2010 - SINGAPORE: India's Oil and Natural Gas Corporation (ONGC) has beaten Chinese rival ... The global list headed by ExxonMobil Corp of the US, had billionaire ..."
p7
aS'Nov 3, 2010 - ... to a drug, the chief executive of Six Flags Entertainment Corp. said Wednesday the company will ... Dallas Morning News Home .... Exxon Mobil, XOM, 78.06.'
p8
aS'Nov 2, 2010 - As Ackman sees it, the low cost of money is bound to push corporate America ... Corporate profitability is near an all-time peak. .... I came to work for The Dallas Morning News in May 1972 as a summer intern in the ... Exxon Mobil, XOM, 78.06.'
p9
aS"Nov 2, 2010 - In a state known for the big oil companies like Exxon Mobil Corp. which call it home, .... Thomson Reuters is the world's largest international multimedia news ..."
p10
a.