(lp0
S'Nov 4, 2010 - Exxon Mobil Corp. is facing a $12 million wrongful death suit from the widow of a worker who died while fixing a hydrogen sulfide leak at a Louisiana refinery ...'
p1
aS'Nov 5, 2010 - Daewoo International Corp. may build a deep-water port at Banana in the ... offshore drilling rules that Exxon Mobil Corp. said will cost $25 billion over 10 years ...'
p2
aS'Nov 4, 2010 - Exxon and Sinopec join traders in selling crude overseas ... Oil companies including Exxon Mobil Corp and China Petroleum and Chemical Corp have joined ...'
p3
aS"Nov 4, 2010 - Visit Crain's Chicago Business for complete business news and analysis including ... as Dow Chemical Co., Huntsman International LLC and Exxon Mobil Corp."
p4
aS'Nov 4, 2010 - Jean Baderschneider, Vice President, Procurement, Exxon Mobil ... Mark Hoplamazian, President and CEO, Global Hyatt Corporation ... Top News Stories.'
p5
aS'Nov 6, 2010 - Web: www.exxonmobil.cz. Main type of business: Petroleum Industry. Type of membership: Corporate. Contact Person: N/A. Year of Establishment in CR: 2004.'
p6
aS'Nov 4, 2010 - Chemical & Engineering News Archive .... THE address of the Western Precipitation Corp. for 25 years has been 1016 West Ninth St., Los Angeles, Calif., though the concern ... American Geophysical Union to keep ExxonMobil sponsorship.'
p7
aS'Nov 5, 2010 - Nearly a dozen area schools are receiving $750 grants from ExxonMobil Corp., thanks to the work of a local company.'
p8
aS"Nov 4, 2010 - And major oil companies like BP, Exxon Mobil and Royal Dutch Shell will likely ... and accusations from Macondo well partner Anadarko Petroleum Corp. of gross ... Thomson Reuters is the world's largest international multimedia news agency ..."
p9
aS"Nov 6, 2010 - Recipients of fellowships sponsored by corporate partners are chosen for their character and high level of ... ExxonMobil Women's Leadership Fellow"
p10
a.