(lp0
S"Nov 8, 2010 - ExxonMobil Asia Pacific Pte Ltd  ExxonMobil Corporation. RELATED ... Vincent Chong, global director of ExxonMobil's marine fuels division. The use of mass ..."
p1
aS'Nov 9, 2010 - She is now Counsel for Exxon Mobil Corporation, where she has practiced for ... Christian News Network and on various radio talk shows around the country.'
p2
aS'Nov 9, 2010 - BCNN1 - black news, christian news ... She is now Counsel for Exxon Mobil Corporation, where she has practiced for over 16 years. In addition to a successful ...'
p3
aS'Nov 7, 2010 - We are a privately held company in Baytown, TX. ... 2800 Decker Drive. ... Refined Petroleum Pipelines in Baytown, TX.'
p4
aS"Nov 8, 2010 - Exxon Says `$25 Billion Rule' Will Sink Deepwater Oil Drilling ... U.S. plan to toughen offshore drilling rules that Exxon Mobil Corp. said will cost as much as $25 ..."
p5
aS'Nov 8, 2010 - ... platinum forecaster in the first quarter among 11 surveyed by Bloomberg News. ... Chesapeake, second only to Exxon Mobil Corp. in gas production from U.S. ...'
p6
aS'Nov 7, 2010 - By RANDY LEE LOFTIS / The Dallas Morning News rloftis@dallasnews.com ... federal Securities Investor Protection Corp. to recover as much as possible of the $20 billion or so that Bernard Madoff lost or stole. ..... Exxon Mobil, XOM, 78.06.'
p7
aS'Nov 8, 2010 - Oil giant Exxon Mobil says it earned $7.4 billion during the third quarter, up 55 percent from the same period last year, thanks in large part to higher crude oil ...'
p8
aS"Nov 8, 2010 - Home > News > Press Releases > A Guide To The Current Rules for Federal Elections ... However, the federal ban on direct corporate and union contributions to .... fund) (e.g., Exxon Mobil PAC, Int'l Brotherhood of Electrical Workers PAC)."
p9
aS'Nov 8, 2010 - Photo: Lisa Krantz :, San Antonio Express-News ... They include places like The Woodlands-based Evolution Solar Corp., which supplies solar panels and other ...'
p10
a.