(lp0
S'Nov 9, 2010 - News and updates  Speeches. Speech. Nov. 9, 2010 ..... Get news updates, newly published reports and articles  storm clouds. News and updates ...'
p1
aS'Nov 10, 2010 - Suzanne McCarron is the President of the ExxonMobil Foundation and General Manager of Public and Government Affairs for Exxon Mobil Corporation.'
p2
aS'Nov 10, 2010 - Mr. Stephen M. Greenlee, also known as Steve, has been the President of ExxonMobil Exploration Company and Vice President at Exxon Mobil Corp. since ...'
p3
aS"Nov 9, 2010 - He talked about how the Valdez incident caused ExxonMobil's management to completely ... there are several critical elements necessary to creating a corporate culture that values safety. ... Click here to subscribe to the blog's RSS news feed."
p4
aS"Nov 8, 2010 - ExxonMobil Asia Pacific Pte Ltd  ExxonMobil Corporation. RELATED ... Vincent Chong, global director of ExxonMobil's marine fuels division. The use of mass ..."
p5
aS'Nov 9, 2010 - That brings us to ExxonMobil (NYSE: XOM ) , whose recent revenue and earnings are plotted below. ... wrongdoing, or that everything that comes up questionable in my graph is automatically bad news. .... ExxonMobil Corp, CAPS Rating: **** ...'
p6
aS'Nov 9, 2010 - She is now Counsel for Exxon Mobil Corporation, where she has practiced for ... Christian News Network and on various radio talk shows around the country.'
p7
aS'Nov 9, 2010 - BCNN1 - black news, christian news ... She is now Counsel for Exxon Mobil Corporation, where she has practiced for over 16 years. In addition to a successful ...'
p8
aS'Nov 10, 2010 - ... JHVIT 500 Index Trust Ser I (MUTF:JEINX) including real-time quotes, historical charts & related news, all for free! ... Exxon Mobil Corporation (XOM), 3.08%.'
p9
aS'Nov 9, 2010 - ExxonMobil Corp. says two pilot wells have demonstrated feasibility of plans to expand ... Get All the Oil and Gas Journal News Delivered to Your Inbox.'
p10
a.