(lp0
S'Dec 13, 2010 - Submit Release. QUICK LINKS : Goldman Sachs Conviction Buy List  Carl Icahn News  Warren Buffett News  Ackman News ... Exxon Mobil Corp. (XOM) ...'
p1
aS'Dec 13, 2010 - ExxonMobil is the largest of the six multinational oil supermajors and one of the biggest energy companies ... warming and the oil industry in a favorable way and offering corporate-built lesson plans and textbooks. ... POLLUTERWATCH News ...'
p2
aS'Dec 13, 2010 - ExxonMobil Corp. completed its $86 million expansion of the carbon dioxide capture plant near ... Get All the Oil and Gas Journal News Delivered to Your Inbox.'
p3
aS'Dec 12, 2010 - WASHINGTON, D.C. -- Bucks Inc. purchased 89 ExxonMobil locations in the Chicago metropolitan area, according to John C. Flippen, Jr., managing director of ...'
p4
aS'Dec 13, 2010 - Also in attendance were Rex W. Tillerson, chairman and chief executive officer of Exxon Mobil Corporation (NYSE:XOM), ministers, senior government officials ...'
p5
aS'Dec 13, 2010 - Defendant ExxonMobil Corporation (ExxonMobil) is a multinational oil and gas ... Defendant ExxonMobil Chemical Company (Exxon Mobil Chemical) is a ...'
p6
aS"Dec 12, 2010 - Enter your email address below to get the latest news and analysts' ratings for your ... Reiterates 139.00 Price Target for Bayer AG (BAYN)  Exxon Mobil Co."
p7
aS'Dec 13, 2010 - Company News ... Exxon Mobil, ConocoPhillips seek investments in Qatar ... like Exxon Mobil Corp and ConocoPhillips seek investment opportunities there.'
p8
aS'Dec 12, 2010 - The average trading volume in high-yield corporate bonds is 9.7 percent higher ... plan to toughen offshore drilling rules that Exxon Mobil Corp. said will cost as ...'
p9
aS"Dec 13, 2010 - Wellstream expands GE's operations in Brazil, where Exxon Mobil Corp., BG Group Plc and state-controlled Petroleo Brasileiro SA may need to spend more on ..."
p10
a.