(lp0
S'Dec 10, 2010 - Careers  Investors  News  Global  ExxonMobil. Menu .... Privacy policy  Terms & conditions.  Copyright 2003- Exxon Mobil Corporation. All Rights Reserved.'
p1
aS'Dec 9, 2010 - Exxon Mobil Corp. News XOM Refinery Status: Valero To Restart Idled Aruba Refinery New York Stock Exchange Announcements, Company Reports & Press ...'
p2
aS'Dec 10, 2010 - MIAMI -- Coming just one day after 7-Eleven Inc. announced that it is acquiring 183 Exxon Mobil Corp. sites in Florida, Victory Petroleum Inc. has announced that ...'
p3
aS'Dec 10, 2010 - "These people want to cut back on the powers of the EPA and the Department of Energy so that ExxonMobil can remain the most profitable corporation in world ...'
p4
aS'Dec 9, 2010 - Breaking News : ... Chevron Corporation gasoline tank trucks deliver gas to a Chevron service station in Redondo ... Massive rival Exxon Mobil Corp (XOM.'
p5
aS'Dec 9, 2010 - ... buy 183 properties from Exxon Mobil Corp. in Florida, the companies announced ... December 9, 2010|By Alex Sherman and Chris Burritt, Bloomberg News.'
p6
aS'Dec 10, 2010 - Occidental Petroleum Corp., the largest onshore crude producer in the ... quickly and accurately delivers business and financial information, news and insight .... by Exxon Mobil Corp. and Chevron Corp., the largest U.S. energy companies.'
p7
aS'Dec 10, 2010 - News Release: Apache Nitrogen Products, Inc agrees to $5 million .... News Release: Two Exxon Mobil Corp. subsidiaries in Guam and CNMI agree to $2.4 ...'
p8
aS'Dec 9, 2010 - The Railroad Commission issued a news release late Tuesday saying it was still checking but had not concluded that .... Exxon Mobil, XOM, 78.06. Fluor Corp.'
p9
aS"Dec 9, 2010 - Canadian Oil Sands: Will Imperial Oil (I.e. Exxon) Emerge As The White Knight? ... Why do you recommend this news source? .... the Kearl project (shared with another subsidiary of Exxon Mobil the company's largest shareholder), 40 miles from Fort McMurray, Alberta ... Cdn mil, upstream, downstream, chemical, corporate."
p10
a.