(lp0
S'Dec 17, 2010 - ExxonMobil, as the corporation is now named, "is continuing to review the Supreme Court opinions ... to determine the full import," it said in a statement released ...'
p1
aS'Dec 16, 2010 - The owner of The Mercator Corp. merchant bank and former adviser to the president of ... Exxon purchased Mobil in 1999, forming Exxon Mobil Corp. Giffen was ...'
p2
aS'Dec 17, 2010 - Upstream oil and gas news for exploration and production professionals ... Exxon Mobil holds a 40% operating stake and Hess Corp. holds 40%. While the ANP ...'
p3
aS'Dec 16, 2010 - (Related: National Geographic Gulf Oil Spill News and Pictures) ... its stake in Jubilee to ExxonMobil Corporation for $4 billion; Kosmos then refused to sell to a ...'
p4
aS'Dec 16, 2010 - The largest bill will go to the Exxon Mobil Corporation, which sent an estimated 1,694,298 gallons to the site. The Portsmouth Naval Shipyard was determined to ...'
p5
aS"Dec 16, 2010 - However, other firms became interested and by the early 1960's ExxonMobil ... Offshore Oil Corporation (CNOOC), possibly in partnership with state-owned ..."
p6
aS'Dec 17, 2010 - DOW JONES, A NEWS CORP COMPANY .... HOUSTON Chevron Corp. ... second-largest U.S. oil-and-gas company by market value after Exxon Mobil Corp.'
p7
aS'Dec 17, 2010 - Get All the Oil and Gas Journal News Delivered to Your Inbox ... Chevron Corp. has started LNG and condensate production at the Gorgon project on .... as part of the Baytown Complex Laboratory of ExxonMobil Refining & Supply Company, ...'
p8
aS'Dec 16, 2010 - Home  News  Communities ... By ERIC TORBENSON / The Dallas Morning News etorbenson@dallasnews.com .... Exxon Mobil, XOM, 78.06. Fluor Corp.'
p9
aS'Dec 18, 2010 - Party Litigation  News & Events  Press Releases ... State of California v. General Motors Corporation, et al. ... Exxon Mobil Corporation. Copyright  U.S. ...'
p10
a.