(lp0
S"Dec 22, 2010 - BOULDER  Exxon Mobil Corp. paid $695 million in cash for Ellora Energy Inc., ... This acquisition of Ellora increased Exxon's position in the area by 46,000 acres and added production and pipeline capacity. Ellora Energy ... Breaking News"
p1
aS"Dec 21, 2010 - Qatar Petroleum signed an initial agreement with Exxon Mobil Corp. in January ... Al-Attiyah declined to say if Shell's project would replace Exxon's venture, and ..."
p2
aS'Dec 21, 2010 - The grant was made possible by funding from the ExxonMobil Corporation. ... The ExxonMobil Educational Alliance program is designed to provide Exxon and ...'
p3
aS'Dec 21, 2010 - ... US Equity Fund Class A (MUTF:EPUSX) including real-time quotes, historical charts & related news, all for free! ... Exxon Mobil Corporation (XOM), 3.23%.'
p4
aS'Dec 21, 2010 - News & Perspectives .... Overview; Price & Performance; Portfolio & Management; Fees & Minimums; Distributions; News & Reviews .... 4, Exxon Mobil Corp.'
p5
aS'Dec 21, 2010 - Get All the Offshore Magazine News Delivered to Your Inbox for free .... as part of the Baytown Complex Laboratory of ExxonMobil Refining & Supply Company, ...'
p6
aS'Dec 22, 2010 - Phillips and Marathon operate two of these while Mobil leads the third, .... Get All the Offshore Magazine News Delivered to Your Inbox for free .... exxon mobil'
p7
aS'Dec 22, 2010 - Vistamaxx propylene-based elastomers from ExxonMobil Chemical provide manufacturers of biaxially oriented polypropylene (BOPP) film with the opportunity ...'
p8
aS'Dec 22, 2010 - ... company news, charts, and company-specific research tools for SPDR S&P 500 Value ... More SPYV News & Commentary ... XOM, Exxon Mobil Corp, 3.99% ...'
p9
aS'Dec 22, 2010 - An example of a corporate partner is ExxonMobil. ExxonMobil funds this $10,000 scholarship for students who have a GPA of 3.0 or higher and are studying in ...'
p10
a.