(lp0
S'Dec 26, 2010 - Exxon Mobil Corporation (NYSE:XOM) was incorporated in the State of New Jersey in 1882. Divisions and affiliated companies of Exxon Mobil operate or market ...'
p1
aS'Dec 26, 2010 - About: Exxon Mobil Corporation (XOM) ... Analysis of Exxon Mobil (NYSE:XOM) ... that this would be a good time to see how Exxon Mobil stacks up to our analysis. .... Weighing The Week Ahead: Time To Sell The News? by Jeff Miller; Biotech ...'
p2
aS"Dec 26, 2010 - Prediction news and technical articles from Oil & Gas Financial Journal. Search ... Exxon Mobil. 86.79. -0.01% ... It's fair to say it (the price) is about right, but still I think that it needs to improve a little bit more, said Libya's National Oil Corp."
p3
aS"Dec 26, 2010 - Dallas Morning News Home ... For Tom Roberts, who heads the firm's corporate law practice, the move to New York from Dallas .... Exxon Mobil, XOM, 78.06."
p4
aS'Dec 27, 2010 - Dallas Morning News Home ... Genesco CEO John Tatum says his corporate clients will host and entertain about 3,000 people for .... Exxon Mobil, XOM, 78.06.'
p5
aS'Dec 26, 2010 - Investors have supposedly priced in all the good news that might occur to this company. One teensy-weensy ... Exxon Mobil, XOM, 78.06. Fluor Corp. FLR, 41.35.'
p6
aS'Dec 27, 2010 - CSPnet.com - Convenience Store News  April 2016 CSP .... Oh, really? the rep asks, and flips through his mental Rolodex for the name of Quick Chek Corp.'
p7
aS'Dec 27, 2010 - News and information on Royal Dutch Shell Plc. ... start of my employment in PILIPINAS SHELL PETROLEUM CORPORATION, ..... REUTERS ARTICLE: Exxon-Shell gas venture may have to adjust Groningen output after court ruling: 15 April 2015 .... ExxonMobil Website  Fifo Mining Jobs  fuelfix.com  Google Shell News ...'
p8
aS"Dec 27, 2010 - But God help you if you're still long on stocks when the nightly news begins to ..... 5/20/2014, CYGAM Announces Updated Corporate Presentation and Presents . ... 4/19/2016, Why Exxon Mobil Investors Should Expect A Dividend Increase ."
p9
aS'Dec 27, 2010 - Petrohawk Energy Corp. has sold its natural gas assets in the Fayetteville Shale ... The Fayetteville acquisition gives ExxonMobil about 537,000 net acres in the ... is a leading provider of natural gas, shale news and market information for the ...'
p10
a.