(lp0
S"Dec 29, 2010 - This year's golf charity to benefit Angel Airlift, held at Newport News (Virginia) Golf ... ExxonMobil Employees' Favorite Charities Campaign and Exxon Mobil ..."
p1
aS'Dec 28, 2010 - Natural-gas processing facility operated by ExxonMobil Corporation. Located about 6.7 miles south-southwest of Fontenelle, Wyoming. For U.S. EPA report on ...'
p2
aS"Dec 29, 2010 - ... outperform peers in Europe and the U.S. The world's five biggest oil majors -- Exxon Mobil Corp., Royal Dutch Shell Plc, Chevron Corp., Total SA and BP -- all ..."
p3
aS"Dec 29, 2010 - His last ten years were with ExxonMobil's Global Real Estate and Facilities ... Services Executive at the company's corporate headquarters in Irving, Texas."
p4
aS'Dec 28, 2010 - By Environment & Energy News | December 28, 2010 ... But as pressure grew, companies such as Exxon Mobil Corp. insisted that they actually were disclosing ...'
p5
aS'Dec 29, 2010 - Imperial, an Exxon Mobil Corp. subsidiary, is seeking permission to move its equipment through both Idaho and Montana, moving overhead wires and building ...'
p6
aS'Dec 28, 2010 - By JASON ROBERSON / The Dallas Morning News jroberson@dallasnews.com. Published: 28 December .... Exxon Mobil, XOM, 78.06. Fluor Corp. FLR, 41.35.'
p7
aS'Dec 29, 2010 - Dallas Morning News Home .... then he went to Harvard Law School, where he concentrated on corporate, securities and tax law. .... Exxon Mobil, XOM, 78.06.'
p8
aS"Dec 28, 2010 - Subsidiaries of Exxon Corp., Royal Dutch Shell, Standard Oil Co. of California, and others ... Mobil and Pdvsa's portion of the upgraded crude will be refined at their joint venture ... Get All the Oil and Gas Journal News Delivered to Your Inbox."
p9
aS'Dec 28, 2010 - Australian Resource News, Business News, Finance News, Bougainville, Gold ... but for PNG the spotlight has shifted to the $16.5bn ExxonMobil-led venture ...'
p10
a.