(lp0
S"Dec 29, 2010 - This year's golf charity to benefit Angel Airlift, held at Newport News (Virginia) Golf ... ExxonMobil Employees' Favorite Charities Campaign and Exxon Mobil ..."
p1
aS'Dec 30, 2010 - Carrier Corporation in the US produces a 500-ton chiller incorporating a 6-in biphase ... Get All the Offshore Magazine News Delivered to Your Inbox for free ... Exxon Mobil Corp. has started oil production at the Julia field in the deepwater Gulf ...'
p2
aS'Dec 30, 2010 - 3519, Exxon Mobil Corporation, Baton Rouge, East Baton Rouge Parish, Louisiana, Settlement No. SA-AE-10-0042, State settlement agreement regarding air ...'
p3
aS'Dec 30, 2010 - E-mail: rl.skip.hobbs@exxonmobil.com. Georgia Gulf Corporation Mr. Charlie Freeburgh, Operations Mgr. Chemical & Polymers P.O. Box 629. Plaquemine, LA ...'
p4
aS'Dec 30, 2010 - Celanese; Exxon Refinery; Humble Oil Refining Corporation; King Ranch ... Dynegy Midstream Services Lp; Exxon Chemical Company; Exxon Mobil Oil Corp ...'
p5
aS"Dec 29, 2010 - ... outperform peers in Europe and the U.S. The world's five biggest oil majors -- Exxon Mobil Corp., Royal Dutch Shell Plc, Chevron Corp., Total SA and BP -- all ..."
p6
aS"Dec 29, 2010 - His last ten years were with ExxonMobil's Global Real Estate and Facilities ... Services Executive at the company's corporate headquarters in Irving, Texas."
p7
aS'Dec 29, 2010 - Imperial, an Exxon Mobil Corp. subsidiary, is seeking permission to move its equipment through both Idaho and Montana, moving overhead wires and building ...'
p8
aS'Dec 30, 2010 - ... Prospect, The National, The Atlantic Monthly, The Los Angeles Daily News, ... the Exxon-Mobil Corporation, the Ford Foundation, the Foundation for Child ...'
p9
aS'Dec 30, 2010 - Also, Exxon, Mobil, Occidental, and Amerada Hess exhibited average assured operational .... International news for oil and gas professionals ... ExxonMobil Corp. in October published an updated crude oil assay for Zafiro Blend, which is ...'
p10
a.