(lp0
S'Dec 3, 2010 - News & Learning ... ExxonMobil Corporation, Civil Action No. ... ExxonMobil would pay $19,500,000 to fund Environmental Benefit Projects to benefit the ...'
p1
aS'Dec 2, 2010 - Blanca De La Rosa, ExxonMobil Engineering and Mathematics Scholarship Sponsor and Olivia Plana. ... Exxon Mobil Corporation and the Hispanic Heritage Foundation awarded the 2010 Hispanic Heritage Youth ... News Postings by Date ...'
p2
aS"Dec 3, 2010 - This is a legitimate question, and one that those of us at ExxonMobil hear frequently; so, I'd like to address it. .... See anything in the national news about how the oil industry is fueling North Dakota 's economy? ..... Exxon Mobil Corporation."
p3
aS'Dec 2, 2010 - DOW JONES, A NEWS CORP COMPANY ... is a network of leading companies in the worlds of diversified media, news, education, and information services.'
p4
aS'Dec 3, 2010 - Exxon exec says in leaked cable Falkland oil insufficient ... Falkland Islands, a British territory claimed by Argentina, are insufficient to be profitable, an ExxonMobil Corp (XOM. ... "ExxonMobil International Chairman Brad Corson told us he does not believe there is enough oil on the ... Our top news photography last month.'
p5
aS"Dec 3, 2010 - ... Bill Gross and Mohamed El-Erian, a copy of which was obtained by Bloomberg News. ... Exxon Says `$25 Billion Rule' Will Sink Deepwater Oil Drilling ... toughen offshore drilling rules that Exxon Mobil Corp. said will cost $25 billion over 10 ..."
p6
aS"Dec 3, 2010 - ExxonMobil Goes After FXX For Its Use of Interlocking 'XX' in New Logo. ExxonMobil Corp. is none-too-pleased about FX Networks LLC's latest branch of ..."
p7
aS'Dec 3, 2010 - The list, released Thursday by market research and news firm Energy ... Irving-based ExxonMobil Corp. ... 4 and the Chinese National Petroleum Corp. at No. 5.'
p8
aS"Dec 2, 2010 - ... has wooed impressive talent to Genie's advisory boardincluding News Corp. ... prudently be worth half as much as ExxonMobil , or roughly $150 billion."
p9
aS'Dec 2, 2010 - Exxon Mobil Starts Damar Gas Production Off Malaysia ... Exxon Mobil Corporation announced the start of natural gas production at the Damar field off the east ...'
p10
a.