(lp0
S'Dec 6, 2010 - State oil company PT Pertamina eventually chose ExxonMobil of the United ... ANTARA News ... In 1980, 50-50 venture in Natuna D-Alpha area, East Natuna, between Pertamina and Exxon Mobil Corp of the US, didn`t result in production.'
p1
aS'Dec 6, 2010 - Esso Highlands Limited, a subsidiary of Exxon Mobil Corporation and operator of the PNG LNG Project, recently officially opened its Port Moresby Construction ...'
p2
aS'Dec 5, 2010 - Pertamina and ExxonMobil have signed a preliminary agreement to co-develop the offshore East Natuna Block, paving the ... Upstream oil and gas news for exploration and production professionals ... Current Corporate Activity articles: 2553 ...'
p3
aS'Dec 6, 2010 - DOW JONES, A NEWS CORP COMPANY ..... leaders, including Rex Tillerson, the chief executive of Exxon Mobil Corp., say they want competent regulators.'
p4
aS"Dec 6, 2010 - SL Green Realty Corp., Manhattan's largest office landlord, agreed to buy ... the former home of the New York Daily News, as well as 100 Church St. and 711 3rd ... Chesapeake, second only to Exxon Mobil Corp. in gas production from U.S. ..."
p5
aS'Dec 6, 2010 - I came to work for The Dallas Morning News in May 1972 as a summer intern in the business news department and ... Exxon Mobil, XOM, 78.06. Fluor Corp.'
p6
aS'Dec 7, 2010 - Home. Foundation. Events  Donations  Contact Us  Board of Trustees  News  Arroyo Trails ... Loss Prevention Group Leader, Exxon Mobil Corporation ...'
p7
aS'Dec 6, 2010 - International News for Oil and Gas professionals. ... Husky to buy ExxonMobil Canada properties. Husky Energy Inc. agreed to buy oil and natural gas properties ...'
p8
aS'Dec 6, 2010 - In LNG news, China National Offshore Oil Corp. began building its fourth LNG ..... Job Summary: ExxonMobil Research and Engineering Company has an ...'
p9
aS'Dec 6, 2010 - More News From Greenwire. Military Contractors ... Exxon Mobil Corp., is in the 9th U.S. Circuit Court of Appeals and is yet to be argued. The other, Comer v.'
p10
a.