(lp0
S'Dec 7, 2010 - ExxonMobil Corporation is engaged in the petrochemical business. ... In 2010 Exxon Mobil Corporation was ranked number 2 on the Fortune 500 list, making it the 2nd largest company in the United States ... USPages Latest Business News.'
p1
aS'Dec 8, 2010 - We specialize in framed Exxon stock certificates | Buy single shares in 2 ... Exxon Mobil Corporation operates as a petroleum and petrochemicals company.'
p2
aS'Dec 8, 2010 - ... for DWS S&P 500 Plus A (MUTF:OUTDX) including real-time quotes, historical charts & related news, all for free! ... Exxon Mobil Corporation (XOM), 3.08%.'
p3
aS'Dec 6, 2010 - DOW JONES, A NEWS CORP COMPANY ..... leaders, including Rex Tillerson, the chief executive of Exxon Mobil Corp., say they want competent regulators.'
p4
aS"Dec 7, 2010 - 1, before news of the company's potential sale was first reported. .... Chesapeake, second only to Exxon Mobil Corp. in gas production from U.S. fields, bucked ..."
p5
aS'Dec 7, 2010 - ... percent for corporate issues, the New York-based company said in February. .... Chesapeake, second only to Exxon Mobil Corp. in gas production from U.S. ...'
p6
aS'Dec 7, 2010 - Dallas Morning News Home ... "Corporate heads moving from New York City or California will know exactly who we are and what to .... Exxon Mobil, XOM, 78.06.'
p7
aS'Dec 6, 2010 - I came to work for The Dallas Morning News in May 1972 as a summer intern in the business news department and ... Exxon Mobil, XOM, 78.06. Fluor Corp.'
p8
aS'Dec 6, 2010 - In LNG news, China National Offshore Oil Corp. began building its fourth LNG ..... Job Summary: ExxonMobil Research and Engineering Company has an ...'
p9
aS'Dec 6, 2010 - More News From Greenwire. Military Contractors ... Exxon Mobil Corp., is in the 9th U.S. Circuit Court of Appeals and is yet to be argued. The other, Comer v.'
p10
a.