(lp0
S'Dec 8, 2010 - December 8, 2010, 07:00 pm By Melissa Kress, Convenience Store News ... This is the second ExxonMobil deal in Florida to make headlines this week.'
p1
aS"Dec 8, 2010 - 7-Eleven Inc., the world's largest convenience-store chain, will buy 183 Florida properties from Exxon Mobil Corp. as it accelerates North American acquisitions."
p2
aS'Dec 8, 2010 - 8, 2010 /PRNewswire/ -- 7-Eleven Signs Agreement with ExxonMobil to ... #3 in Store Growth by Convenience Store News, #2 in Franchise Times Top 200 ... In addition, Hispanic Magazine named 7-Eleven in its Hispanic Corporate Top 100 ...'
p3
aS'Dec 7, 2010 - ExxonMobil Corporation is engaged in the petrochemical business. ... In 2010 Exxon Mobil Corporation was ranked number 2 on the Fortune 500 list, making it the 2nd largest company in the United States ... USPages Latest Business News.'
p4
aS'Dec 8, 2010 - We specialize in framed Exxon stock certificates | Buy single shares in 2 ... Exxon Mobil Corporation operates as a petroleum and petrochemicals company.'
p5
aS"Dec 8, 2010 - Exxon Mobil Corp. v. U.S. Dep't of the Interior, No. 09-6732, 2010 WL 4668452 (E.D. La. Nov. 4, 2010) (Wilkinson, Mag.) Re: Request to depose the declarant for ..."
p6
aS'Dec 8, 2010 - In September, Exxon Mobil Corp challenged a verdict awarding $104 million to New ... This story first appeared on the Westlaw News & Insight website, here) ...'
p7
aS'Dec 8, 2010 - ... including real-time stock quotes, historical charts & financial news, all for free! ... included such companies as Exxon Mobil Corporation, Microsoft Corporation, ...'
p8
aS'Dec 8, 2010 - ... for DWS S&P 500 Plus A (MUTF:OUTDX) including real-time quotes, historical charts & related news, all for free! ... Exxon Mobil Corporation (XOM), 3.08%.'
p9
aS'Dec 7, 2010 - Dallas Morning News Home ... "Corporate heads moving from New York City or California will know exactly who we are and what to .... Exxon Mobil, XOM, 78.06.'
p10
a.