(lp0
S'Dec 9, 2010 - Exxon Mobil Corp. News XOM Refinery Status: Valero To Restart Idled Aruba Refinery New York Stock Exchange Announcements, Company Reports & Press ...'
p1
aS'Dec 10, 2010 - MIAMI -- Coming just one day after 7-Eleven Inc. announced that it is acquiring 183 Exxon Mobil Corp. sites in Florida, Victory Petroleum Inc. has announced that ...'
p2
aS'Dec 8, 2010 - December 8, 2010, 07:00 pm By Melissa Kress, Convenience Store News ... This is the second ExxonMobil deal in Florida to make headlines this week.'
p3
aS"Dec 8, 2010 - 7-Eleven Inc., the world's largest convenience-store chain, will buy 183 Florida properties from Exxon Mobil Corp. as it accelerates North American acquisitions."
p4
aS'Dec 8, 2010 - 8, 2010 /PRNewswire/ -- 7-Eleven Signs Agreement with ExxonMobil to ... #3 in Store Growth by Convenience Store News, #2 in Franchise Times Top 200 ... In addition, Hispanic Magazine named 7-Eleven in its Hispanic Corporate Top 100 ...'
p5
aS'Dec 9, 2010 - ... buy 183 properties from Exxon Mobil Corp. in Florida, the companies announced ... December 9, 2010|By Alex Sherman and Chris Burritt, Bloomberg News.'
p6
aS'Dec 8, 2010 - In September, Exxon Mobil Corp challenged a verdict awarding $104 million to New ... This story first appeared on the Westlaw News & Insight website, here) ...'
p7
aS'Dec 9, 2010 - Breaking News : ... Chevron Corporation gasoline tank trucks deliver gas to a Chevron service station in Redondo ... Massive rival Exxon Mobil Corp (XOM.'
p8
aS"Dec 8, 2010 - Exxon Mobil Corp. v. U.S. Dep't of the Interior, No. 09-6732, 2010 WL 4668452 (E.D. La. Nov. 4, 2010) (Wilkinson, Mag.) Re: Request to depose the declarant for ..."
p9
aS'Dec 8, 2010 - ... including real-time stock quotes, historical charts & financial news, all for free! ... included such companies as Exxon Mobil Corporation, Microsoft Corporation, ...'
p10
a.