(lp0
S'Jan 10, 2010 - ExxonMobil Chemical brands T to Z, TransPlus (heavy aromatics transalkylations), Vistalon EPDM rubber, Vistamaxx propylene-based elastomers, XyMax ...'
p1
aS'Jan 10, 2010 - ExxonMobil Chemical brands F to L, ExxonMobilHDPE resins, Isopar isoparaffinic fluids, ExxonMobilisopropyl alcohol, Jayflex plasticizers, ...'
p2
aS'Jan 10, 2010 - ExxonMobil Chemical brands O to P, Olgone: high-performance aromatics treatment, OPPalyte films, Oppera polpropylene film modifiers, Optema EMA ...'
p3
aS'Jan 11, 2010 - Daily Caller News Foundation | Juliegrace Brufke. Paul Ryan ... File photo of the logo of Exxon Mobil Corporation on a monitor above the floor of. Activists want ...'
p4
aS"Jan 10, 2010 - When Frank Gutowski drove by an ExxonMobil gas station in Rockaway recently, ... are not determined by ExxonMobil's corporate executives, said Kevin Allexon, ... From local news to politics to entertainment and sports, the twice daily Right ..."
p5
aS'Jan 11, 2010 - By SHERYL JEAN / The Dallas Morning News. Published: 11 January 2010 ... Demand has also come from the corporate world. .... Exxon Mobil, XOM, 78.06.'
p6
aS'Jan 11, 2010 - ... Fund news, Fund asset allocation, Fund top holdings on Vanguard Balanced Index Adm Fund (VBIAX) ... Exxon Mobil Corporation Common, 0.93%, -0.54%.'
p7
aS'Jan 10, 2010 - ... than voters a central role in our electoral process by treating corporate. ... the chamber and corporations such as Exxon-Mobil and Nike have drilled in the ...'
p8
aS'Jan 12, 2010 - As reported in CSP Daily News in October, Kwik Pik LLC, an affiliate of Lehigh Gas Corp., purchased 144 of the stores, and the remaining 60 sites were divided ...'
p9
aS"Jan 11, 2010 - ... more than 70 accounting Portfolios and the latest news and developments. .... Corporate Sustainability Reporting (CSR)-a.k.a. Triple Bottom Line (TBL). a. ... Worksheet 11 Excerpt From ExxonMobil's 2005 Corporate Citizenship Report (p."
p10
a.