(lp0
S'Jan 12, 2010 - Careers  Investors  News  Global  ExxonMobil. Menu .... Copyright 2003-2016 Exxon Mobil Corporation. All Rights Reserved. Business Wire NewsHQ'
p1
aS'Jan 12, 2010 - Exxon Mobil Corporation (NYSE:XOM)(Exxon) has signed an agreement to earn a 25% interest in several exploration licences currently held by Petrobras and ...'
p2
aS"Jan 12, 2010 - Exxon Says `$25 Billion Rule' Will Sink Deepwater Oil Drilling ... offshore drilling rules that Exxon Mobil Corp. said will cost $25 billion over 10 years and render ..."
p3
aS'Jan 12, 2010 - Exxon Mobil Corp and Petrobras announced today that an ExxonMobil affiliate ... Upstream oil and gas news for exploration and production professionals.'
p4
aS"Jan 12, 2010 - ExxonMobil Corporation's Mobil North Sea Limited was the operator of the field. In January 2012, Apache Corporation acquired all the assets of Mobil North Sea ..."
p5
aS'Jan 11, 2010 - By SHERYL JEAN / The Dallas Morning News. Published: 11 January 2010 ... Demand has also come from the corporate world. .... Exxon Mobil, XOM, 78.06.'
p6
aS'Jan 12, 2010 - ... more than 70 accounting Portfolios and the latest news and developments. .... Oil Company Supplemental Disclosures Illustration-ExxonMobil Corporation ...'
p7
aS'Jan 11, 2010 - International news for oil and gas professionals .... as part of the Baytown Complex Laboratory of ExxonMobil Refining & Supply Company, will be responsible ...'
p8
aS'Jan 12, 2010 - As reported in CSP Daily News in October, Kwik Pik LLC, an affiliate of Lehigh Gas Corp., purchased 144 of the stores, and the remaining 60 sites were divided ...'
p9
aS'Jan 11, 2010 - With the resources of the Arctic up for grabs, Exxon Mobil Corp is looking to sign a contract for a Transocean Ltd rig capable of drilling in the far northern waters.'
p10
a.