(lp0
S'Jan 12, 2010 - Careers  Investors  News  Global  ExxonMobil. Menu .... Copyright 2003-2016 Exxon Mobil Corporation. All Rights Reserved. Business Wire NewsHQ'
p1
aS'Jan 13, 2010 - Exxon Mobil Corp. plans to spend $340 million to boost production of one of ... By ELIZABETH SOUDER / The Dallas Morning News esouder@dallasnews.com ... Exxon has been producing oil at the field near Tyler for 70 years, since the ...'
p2
aS'Jan 14, 2010 - Exxon Mobil Corp. Stock Price (XOM) Stock Quote and real time streaming Exxon Mobil - Stock Charts, - Company Information, News, Level 2 Data, Message ...'
p3
aS'Jan 12, 2010 - Exxon Mobil Corporation (NYSE:XOM)(Exxon) has signed an agreement to earn a 25% interest in several exploration licences currently held by Petrobras and ...'
p4
aS"Jan 12, 2010 - ExxonMobil Corporation's Mobil North Sea Limited was the operator of the field. In January 2012, Apache Corporation acquired all the assets of Mobil North Sea ..."
p5
aS"Jan 12, 2010 - Exxon Says `$25 Billion Rule' Will Sink Deepwater Oil Drilling ... offshore drilling rules that Exxon Mobil Corp. said will cost $25 billion over 10 years and render ..."
p6
aS'Jan 12, 2010 - Exxon Mobil Corp and Petrobras announced today that an ExxonMobil affiliate ... Upstream oil and gas news for exploration and production professionals.'
p7
aS'Jan 13, 2010 - Once the deal is complete, ExxonMobil plans to create a new upstream ... said Rex Tillerson, chairman and chief executive officer of ExxonMobil Corporation. ... Sea, which is good news for our customers and shareholders," said Sam Laidlaw ...'
p8
aS'Jan 12, 2010 - ... more than 70 accounting Portfolios and the latest news and developments. .... Oil Company Supplemental Disclosures Illustration-ExxonMobil Corporation ...'
p9
aS'Jan 13, 2010 - BP, Inc. (NYSE:BP) and the China National Petroleum Corp. were awarded the development ... A month later, Exxon Mobil (NYSE:XOM) and Royal Dutch Shell (NYSE:RDS. .... Subscribe to News To Use for the latest insights and analysis ...'
p10
a.