(lp0
S"Jan 15, 2010 - LATEST NEWS: Iraq aims to produce 5.5-6.0 million bpd by 2020; LATEST NEWS: World ... ExxonMobil is the world's largest publicly traded international oil and gas ... ExxonMobil Iraq Limited, an affiliate of ExxonMobil Corporation, signed an ..."
p1
aS'Jan 15, 2010 - home  news  investors  careers  contact us  products & services  technology leadership  doing business with us  sustainability  about us. sustainability.'
p2
aS'Jan 15, 2010 - Construction of the ExxonMobil Houston campus began in 2011. ..... elsewhere are obviously great news for Houston (and I still think the corporate HQ will end ...'
p3
aS'Jan 15, 2010 - Philanthropy has been hurt by the economic downturn, but many of the most generous corporate foundations found ways to keep giving.'
p4
aS'Jan 16, 2010 - Available in high and low viscosity grades, Synesstic AN (Alkylated Naphthalene) Blendstocks are great base fluids and blendstocks for lubricants in a variety of ...'
p5
aS'Jan 16, 2010 - ExxonMobil Chemical supports product formulators and manufacturers whose products protect crops in greenhouses and on the largest farms. For example ...'
p6
aS'Jan 15, 2010 - U.S. News asked S&P to look at the major spending categories and provide its top-rated stocks ... GNTX, Gentex Corp, Automotive ... XOM, Exxon Mobil, Energy.'
p7
aS'Jan 15, 2010 - Our operations in Iraq. In January 2010, ExxonMobil Iraq Limited (EMIL), an affiliate of Exxon Mobil Corporation, signed an agreement with the South Oil ...'
p8
aS"Jan 15, 2010 - In addition to Shell's work in Sweden, ExxonMobil is exploring Lower Saxony, while OMV is ... Get All the Oil and Gas Journal News Delivered to Your Inbox ... ExxonMobil Corp. in October published an updated crude oil assay for Zafiro Blend, ..."
p9
aS'Jan 15, 2010 - Nonviolent Conflict News  Nonviolent Conflict Summaries ..... March of 2001 when the US-based Exxon-Mobil corporation shut down operations at several local ...'
p10
a.