(lp0
S"Jan 18, 2010 - Buy, sell and hold ratings for Exxon Mobil Corporation (XOM) stock -- includes ... morning receive an in-depth analysis of a stock that's making the news."
p1
aS'Jan 20, 2010 - Isopar isoparaffinic fluids. Solvesso aromatic fluids. ... Consider these fluids to replace aromatic-containing solvents such as toluene, white spirit and kerosene.'
p2
aS'Jan 19, 2010 - Exxon Mobil Corp., the largest U.S. energy company, hid the risk that workers cleaning used oil-drilling pipe ... The claims are among thousands pending against Exxon and other oil companies over allegations that they put ... Bloomberg News ...'
p3
aS'Jan 19, 2010 - ExxonMobil Corporation Chairman and CEO Rex Tillerson testifies during a hearing before the Energy and Environment Subcommittee of the House Energy ...'
p4
aS'Jan 19, 2010 - ExxonMobil Corporation Chairman and CEO Rex Tillerson (L), and XTO Energy Inc., Chairman of the Board and founder Bob Simpson (R), testify during a ...'
p5
aS'Jan 19, 2010 - ExxonMobil Corporation Chairman and CEO Rex Tillerson (L), and XTO Energy Inc., Chairman of the Board and founder Bob Simpson (R), testify during a ...'
p6
aS'Jan 19, 2010 - home  news  careers  contact us ... ExxonMobil Qatar Inc. (EMQI) is a subsidiary of Exxon Mobil Corporation and is the interface point within Qatar for all ...'
p7
aS'Jan 19, 2010 - ... agreements with retail stations in the immediate vicinity, or a large, corporate-owned facility working for ExxonMobil shipping fuel all over, Biodiesel Magazine ...'
p8
aS"Jan 19, 2010 - Exxon Mobil and Shell, two of Houston's largest office tenants have the commercial real ... The typically secretive Exxon Mobil Corporation has made no public ..."
p9
aS"Jan 18, 2010 - Dallas Morning News Home ... Among the nation's nine largest carriers, only JetBlue Airways Corp. flew more capacity in 2009 than .... Exxon Mobil, XOM, 78.06."
p10
a.