(lp0
S'Jan 20, 2010 - ExxonMobil announced today the successful completion of the first two extended-reach wells at the Odoptu ... More News RSS feed for Exxon Mobil Corporation.'
p1
aS'Jan 20, 2010 - Get premium, high resolution news photos at Getty Images. ... Rex Tillerson, chairman and chief executive officer of ExxonMobil Corp., laughs during a.'
p2
aS'Jan 19, 2010 - Exxon Mobil Corp., the largest U.S. energy company, hid the risk that workers cleaning used oil-drilling pipe ... The claims are among thousands pending against Exxon and other oil companies over allegations that they put ... Bloomberg News ...'
p3
aS'Jan 19, 2010 - ExxonMobil Corporation Chairman and CEO Rex Tillerson testifies during a hearing before the Energy and Environment Subcommittee of the House Energy ...'
p4
aS"Jan 20, 2010 - Moncrief bought a piece of Davy Jones after being impressed by McMoRan's success with a former Exxon Mobil Corp. well known as Blackbeard at a ..."
p5
aS'Jan 20, 2010 - ExxonMobil Chemical offers a wide selection of hydrocarbon fluids and is a world leader in Isopropyl Alcohol and Methyl Ethyl Ketone production  two ...'
p6
aS'Jan 21, 2010 - home  news  careers  contact us. English | . Global  ExxonMobil Chemical  products & services. polymers. polyethylene  polypropylene.'
p7
aS'Jan 21, 2010 - provides you with the latest news, links, and resources about Signum. ..... Mobil, the Pegasus design and Signum are trademarks of Exxon Mobil Corporation.'
p8
aS'Jan 19, 2010 - home  news  careers  contact us ... ExxonMobil Qatar Inc. (EMQI) is a subsidiary of Exxon Mobil Corporation and is the interface point within Qatar for all ...'
p9
aS'Jan 19, 2010 - ... agreements with retail stations in the immediate vicinity, or a large, corporate-owned facility working for ExxonMobil shipping fuel all over, Biodiesel Magazine ...'
p10
a.