(lp0
S'Jan 22, 2010 - Scammed Exxon Mobil retirees applaud sentencing of ex-Securities America rep ... victims  mostly elderly residents who had worked at an Exxon Mobil Corp. .... Breaking news and in-depth coverage of essential topics delivered straight to ...'
p1
aS'Jan 23, 2010 - Exxon Mobil Corporation ... More Details for Exxon Mobil Chemical CO ... With the latest News & Advice from Manta, you can stay ahead of the trends and ...'
p2
aS'Jan 21, 2010 - DOW JONES, A NEWS CORP COMPANY .... Exxon Mobil Corp. placed itself squarely in the middle of the wrangling when it agreed last month to acquire gas ...'
p3
aS'Jan 21, 2010 - Press Releases and Press Notes  News  Focus on  Eni in the Press  Corporate Announcements  From the media  Speeches and Interviews  Corporate Magazines ... Eni purchases ExxonMobil downstream activities in Austria ... Through the transaction, Eni will acquire ExxonMobil oil downstream activities in Austria.'
p4
aS'Jan 22, 2010 - This is viewer supported news. Donate ... And I looked at just one corporation, Exxon Mobil, which is the biggest corporation in America. In 2008, they posted ...'
p5
aS'Jan 21, 2010 - dit le 21/01/2010 - Plus de news de "ENI" - Voir la fiche entreprise de "ENI" ... Through the transaction, Eni will acquire ExxonMobil oil downstream activities in ...'
p6
aS'Jan 22, 2010 - Exxon Mobil Corp. (NYSE: XOM), the largest US energy company,, is scheduled to release its fourth quarter 2009 earnings before the market open on Monday, ...'
p7
aS'Jan 21, 2010 - The dissenters said opening the floodgates to corporate money will corrupt democracy. How will this decision .... Bad News for Judicial Elections. Richard Hasen.'
p8
aS"Jan 23, 2010 - ExxonMobil's broad portfolio of hydrocarbon and oxygenated fluids allows ... For decorative paints and coatings, ExxonMobil Chemical's dearomatized Exxsol ..."
p9
aS"Jan 22, 2010 - EXXON MOBIL, the largest US energy company, is offering stakes in two natural gas fields off the Irish ... Exxon Mobil is trimming its shares in the Dunquin fields for a second time in less than a year. ... Campaign News ... Says - 6 weeks ago; Prisoners draw corporate evil-doers who should be in jail but aren't - 8 weeks ago."
p10
a.