(lp0
S"Jan 27, 2010 - ExxonMobil, Ashoka's Changemakers and International Center for Research on ... Exxon Mobil Corporation (NYSE:XOM) and ExxonMobil Foundation, the ..."
p1
aS'Jan 27, 2010 - Noria news wires 2016-04-15 ... 2015-12-15; ExxonMobil Introduces New Compressor Lubricant ...... 2012-02-16; SKF to Acquire General Bearing Corporation'
p2
aS'Jan 27, 2010 - ExxonMobil methyl ethyl ketone (MEK) ExxonMobil methyl ethyl ketone (MEK) oxygenated fluids offer strong solvency and fast evaporative properties. ... ExxonMobil MEK is a key fluid in formulating polychloroprene adhesives, especially as a replacement for toluene, and is a ...'
p3
aS'Jan 27, 2010 - home  news  careers  contact us. English | . Global  ExxonMobil Chemical  products & services. polymers. polyethylene  polypropylene.'
p4
aS"Jan 26, 2010 - The three companies that were hit  ExxonMobil, ConocoPhillips and Marathon Oil  didn't confirm the hacks to the Monitor. ... that appeared to be a reply to a message she had sent a corporate colleague overseas. ... Skip to: Latest News."
p5
aS'Jan 26, 2010 - Flooded Village Files Suit, Citing Corporate Link to Climate Change ... Northwest Arctic Borough, via The Anchorage Daily News/Associated Press ... The village wants the companies, including ExxonMobil, Shell Oil, and many others, to pay ...'
p6
aS'Jan 27, 2010 - ExxonMobil (NYSE: XOM), ConocoPhillips (NYSE: COP) and Marathon Oil ... Security experts familiar with the attacks said this new form of corporate and, quite ... "This news highlights an attack on oil companies, but attacks are occurring ...'
p7
aS'Jan 26, 2010 - About 462,000 gallons of oil spilled when an 800-foot tanker headed for an Exxon Mobil Corp. refinery in Beaumont collided Saturday with a vessel pushing two ...'
p8
aS"Jan 27, 2010 - National Security News Service  Natural Resources News Service  Trento's Take ... on Energy and Commerce hearing on the impact of an Exxon Mobil Corp."
p9
aS'Jan 27, 2010 - ... back a few years victimizing Marathon Oil, ExxonMobil, and ConocoPhillips. ... separating state-sponsored (or endorsed) actions from corporate espionage can be ... malware agent used in the APT attacks that have made the news recently.'
p10
a.