(lp0
S'Jan 29, 2010 - Careers  Investors  News; Select countryGlobal_selector_abbreviation ..... Careers  Contact us  Investors  News and updates  Perspectives blog.'
p1
aS'Jan 28, 2010 - ExxonMobil will release its fourth quarter 2009 earnings on Monday, February 1, 2010. ... More News RSS feed for Exxon Mobil Corporation. March 15, 2016.'
p2
aS'Jan 29, 2010 - A unit of ExxonMobil Corp. has signed a memorandum of understanding to supply natural gas ... Get All the Oil and Gas Journal News Delivered to Your Inbox.'
p3
aS'Jan 29, 2010 - ... and Exxon Mobil Corporation (NYSE:XOM) to develop a natural gas pipeline ... This news release may contain certain information that is forward looking and ...'
p4
aS'Jan 28, 2010 - ExxonMobil will provide the basic design engineering for the 22,600b/d unit. ... The revamped refinery is due to come online in 2015, state news agency Andina ...'
p5
aS'Jan 28, 2010 - News & Publications ... Packer of SkyRiver Management; Erik Perkins of Exxon Mobil Corporation*; Cindy Polfliet of The Schwan Food Company; Trish Poulos of ...'
p6
aS'Jan 29, 2010 - Posts Tagged: exxonmobil ... mergers and acquisitions, corporate business negotiations, or defense industrial base acquisition opportunities [emphasis added].'
p7
aS'Jan 29, 2010 - Exxon considering office consolidations ... Exxon Mobil Corp. ... our long-term office requirements in the United States, [Exxon spokesman Alan] Jeffers said.'
p8
aS'Jan 28, 2010 - RIGZONE News - leading source for the latest news and information for the oil ... is home to a plethora of major industry players, including Exxon Mobil Corp, the ...'
p9
aS'Jan 28, 2010 - RIGZONE News - leading source for the latest news and information for the oil ... is home to a plethora of major industry players, including Exxon Mobil Corp, the ...'
p10
a.