(lp0
S"Jan 3, 2010 - As part of Exxon Mobil Corporation, the Chemical Company is integrated with the Corporation's other programs, giving us an unparalleled ability to serve our ..."
p1
aS"Jan 4, 2010 - DOW JONES, A NEWS CORP COMPANY. News Corp is ..... That is a reference to Exxon Mobil Corp.'s XOM ... s $41 billion purchase of Schering-Plough Corp."
p2
aS'Jan 4, 2010 - ... as opposed to larger corporate deals," Morgan Stanley said in a research note. ... largest oil and gas company, Exxon Mobil, agreed to buy shale gas producer XTO .... Thomson Reuters is the world\'s largest international multimedia news ...'
p3
aS'Jan 3, 2010 - news, companies must often overcome a reluctance to ..... For example, Exxon Mobil and its Indonesian subsidiary ... Exxon Mobil Corp., et al, 573 F.Supp.'
p4
aS'Jan 4, 2010 - CHEVRON CVX 1.511879049676026% Chevron Corp. ... of total reserves, and at industry leader ExxonMobil xom 0.9532776273979051% Exxon Mobil Corp.'
p5
aS'Jan 5, 2010 - GreenShift Corporation (OTCBB: GERS) stock opened higher on Monday as the ... and only gets some more noticeable bullish action upon news releases. ... this COES technology is the recent acquisition of XTO Energy by Exxon Mobil.'
p6
aS'Jan 3, 2010 - Dallas Morning News Home ... Not surprisingly, he was reviled by corporate executives through most of the late 1990s bull run and .... Exxon Mobil, XOM, 78.06.'
p7
aS'Jan 4, 2010 - Sponsors  News ... Over the last 18 years, he has worked in a variety of Financial Reporting and Analysis jobs for Exxon Mobil Corporation, before accepting his ...'
p8
aS'Jan 3, 2010 - Noria news wires, Noria Corporation 2009-10-27; ExxonMobil Offers NSF H1 Lubricants for Food Machinery  Noria news wires, Noria Corporation 2009-10-22 ...'
p9
aS'Jan 4, 2010 - Chesapeake Energy Corp. announced a $2.25 billion joint venture agreement with ... Get All the Oil and Gas Journal News Delivered to Your Inbox .... as part of the Baytown Complex Laboratory of ExxonMobil Refining & Supply Company, will ...'
p10
a.