(lp0
S'Jan 5, 2010 - Albemarle Announces Custom Manufacturing Agreement With ExxonMobil ... 2010 /PRNewswire-FirstCall via COMTEX/ -- Albemarle Corporation (NYSE: ALB), ...'
p1
aS'Jan 5, 2010 - Noria news wires 2016-02-04 ... 2015-11-10; ExxonMobil to Open New Lubricant Plant in Singapore  Noria news ... Wes Cash, Noria Corporation 2015-06-11 ...'
p2
aS'Jan 5, 2010 - ... it\'s worth turning the spotlight on corporate directors: For them, what is "high ... Fortune 500), a Fort Worth oil and gas exploration company that Exxon Mobil ...'
p3
aS"Jan 4, 2010 - DOW JONES, A NEWS CORP COMPANY. News Corp is ..... That is a reference to Exxon Mobil Corp.'s XOM ... s $41 billion purchase of Schering-Plough Corp."
p4
aS'Jan 5, 2010 - Top Seeded Tennis Superstars Visit Exxonmobil Stand At Qatar ExxonMobil ... ExxonMobil Qatar Inc. (EMQI) is a subsidiary of Exxon Mobil Corporation and is ...'
p5
aS'Jan 5, 2010 - Dallas Morning News Home ... Peter Marketos, an attorney for Subway Real Estate Corp., confirmed that "the parties have settled ... Exxon Mobil, XOM, 78.06.'
p6
aS'Jan 4, 2010 - CHEVRON CVX 1.511879049676026% Chevron Corp. ... of total reserves, and at industry leader ExxonMobil xom 0.9532776273979051% Exxon Mobil Corp.'
p7
aS'Jan 4, 2010 - ... as opposed to larger corporate deals," Morgan Stanley said in a research note. ... largest oil and gas company, Exxon Mobil, agreed to buy shale gas producer XTO .... Thomson Reuters is the world\'s largest international multimedia news ...'
p8
aS'Jan 6, 2010 - home  news  careers  contact us. English | . Global  ExxonMobil Chemical  products & services. polymers. polyethylene  polypropylene.'
p9
aS'Jan 5, 2010 - News Highlights ... with Exxon Neftegas Limited (ENL), an affiliate of Exxon Mobil Corporation, as operator for, and on behalf of, the Sakhalin-1 Consortium.'
p10
a.