(lp0
S'Jan 5, 2010 - Albemarle Announces Custom Manufacturing Agreement With ExxonMobil ... 2010 /PRNewswire-FirstCall via COMTEX/ -- Albemarle Corporation (NYSE: ALB), ...'
p1
aS"Jan 6, 2010 - BP's withdrawal may pave the way for Exxon Mobil Corp.'s planned purchase of Kosmos's Jubilee stake for at least $4 billion. With potential resources of 1.8 ..."
p2
aS'Jan 6, 2010 - Qatar Petroleum and ExxonMobil Chemical Qatar Limited, a subsidiary of Exxon Mobil Corporation, have announced they have signed an agreement to progress the ... Upstream oil and gas news for exploration and production professionals.'
p3
aS'Jan 5, 2010 - Top Seeded Tennis Superstars Visit Exxonmobil Stand At Qatar ExxonMobil ... ExxonMobil Qatar Inc. (EMQI) is a subsidiary of Exxon Mobil Corporation and is ...'
p4
aS'Jan 6, 2010 - For Southern and Peabody, as well as for oil giants like ExxonMobil, the Waxman-Markey bill meant war: If they could kill it, they ..... Featured News ... How many more reasons do we need to have an amendment to end corporate personhood?'
p5
aS'Jan 5, 2010 - Noria news wires 2016-02-04 ... 2015-11-10; ExxonMobil to Open New Lubricant Plant in Singapore  Noria news ... Wes Cash, Noria Corporation 2015-06-11 ...'
p6
aS'Jan 5, 2010 - ... it\'s worth turning the spotlight on corporate directors: For them, what is "high ... Fortune 500), a Fort Worth oil and gas exploration company that Exxon Mobil ...'
p7
aS'Jan 5, 2010 - Dallas Morning News Home ... Peter Marketos, an attorney for Subway Real Estate Corp., confirmed that "the parties have settled ... Exxon Mobil, XOM, 78.06.'
p8
aS'Jan 6, 2010 - ... through illegal insider trading when Perot Systems Corp. announced its sale to Dell Inc. last year. ... Dallas Morning News Home .... Exxon Mobil, XOM, 78.06.'
p9
aS'Jan 6, 2010 - home  news  careers  contact us. English | . Global  ExxonMobil Chemical  products & services. polymers. polyethylene  polypropylene.'
p10
a.