(lp0
S'Jan 7, 2010 - Exxon Mobil Corp. News XOM Exxon Mobil: Rotterdam Refinery Units Shut For Maintenance New York Stock Exchange Announcements, Company Reports ...'
p1
aS'Jan 8, 2010 - Exxon Mobil Corp is looking to sign a contract for a Transocean rig capable of drilling ... Upstream oil and gas news for exploration and production professionals.'
p2
aS'Jan 7, 2010 - Qatar Petroleum (QP) and ExxonMobil Chemical Qatar Limited, a subsidiary of Exxon Mobil Corporation, announced they have signed an agreement to ...'
p3
aS"Jan 8, 2010 - ... will we see an Exxon Mobil Corp., Chevron Corp. or ConocoPhilips of renewables? ... The World's #1 Renewable Energy Network for News, Information, and ..."
p4
aS'Jan 7, 2010 - DOW JONES, A NEWS CORP COMPANY .... and Tullow Oil PLC, have had success offshore, particularly in Ghana, where giants like BP and Exxon Mobil Corp.'
p5
aS'Jan 7, 2010 - Kosmos Energy, Exxon Mobil, and Ghana. ... the sale of all its interests in Ghana, including the Jubilee field assets, to Exxon Mobil Corporation for $4 billion.'
p6
aS'Jan 7, 2010 - UT News  Press Releases  UTeach Expansion Recognized as President ... Education Agency, the Greater Texas Foundation, Exxon Mobil Corporation, the Bill ...'
p7
aS'Jan 7, 2010 - When oil prices cratered in the 1990s, Royal Dutch Shell (RDS/B) and ExxonMobil (XOM) shut the Schoonebeek field down. Company executives reckoned that ...'
p8
aS'Jan 7, 2010 - ... Third-Party Defendants. General Cable Industries, Inc. and Whittaker Corporation ... EXXON MOBIL ... NEWS PUBLISHING AUSTRALIA LIMITED,. NORPAK ...'
p9
aS'Jan 7, 2010 - ... 40 feet from the water. Dallas Morning News staff writer Eric Torbenson in Dallas contributed to this report. ... Exxon Mobil, XOM, 78.06. Fluor Corp. FLR, 41.35.'
p10
a.