(lp0
S'Feb 11, 2010 - On the Run opened its first test store in Holden, Mass in July 1994, in conjunction with a Mobil station. With the corporate merger of ExxonMobil, On the Run was ...'
p1
aS"Feb 11, 2010 - ExxonMobil HDPE resin grades & datasheets. ... ExxonMobil Chemical's extensive portfolio of high density polyethylene (HDPE) resins combines toughness and stiffness with resistance to environmental stress cracking at elevated temperatures and warping. Our high-molecular-weight (HMW ..."
p2
aS'Feb 10, 2010 - British Gas is a partner in a venture led by Amoco Corp. to develop a liquefied ..... of the Baytown Complex Laboratory of ExxonMobil Refining Supply Company, ...'
p3
aS"Feb 11, 2010 - 1 for Exxon Mobil Corp., the largest U.S. company, when it said in a headline about the Williams energy venture, Exxon Better Recognize. ... producers, Qatar's Energy Minister Mohammed Al Sada said at a news conference after the meeting."
p4
aS'Feb 10, 2010 - Rahkia Nance -- The Birmingham News ..... $500 -- Alabama Propane PAC; Exxon Mobil Corp., Baton Rouge, La.; GlaxoSmithKline, Hoover; Lilly USA LLC, ...'
p5
aS'Feb 10, 2010 - Ceridian Corp. on Wednesday announced the release of a new economic indicator, the ... Exxon Mobil to Pay New York $10.75 Mln for Oil Spill Cleanup.'
p6
aS'Feb 11, 2010 - ... Market Index Fund II Class (MUTF:VPBMX) including real-time quotes, historical charts & related news, all for free! ... Exxon Mobil Corporation (XOM), 1.59%.'
p7
aS'Feb 11, 2010 - Sustainable Manufacturing News: | 6. Anadarko, ConocoPhillips, Connacher, ExxonMobil .... Anadarko continues to inventory and assess its corporate-wide.'
p8
aS'Feb 11, 2010 - By SHERYL JEAN / The Dallas Morning News. Published: 11 February 2010 10:16 AM ... Exxon Mobil, XOM, 78.06. Fluor Corp. FLR, 41.35. Fossil, FOSL, 32.48.'
p9
aS'Feb 10, 2010 - Home ; News ... "It was at our corporate headquarters right across from the (Exxon Mobil) refinery, and frankly not many people knew it was here." PC Mall has ...'
p10
a.