(lp0
S'Feb 11, 2010 - On the Run opened its first test store in Holden, Mass in July 1994, in conjunction with a Mobil station. With the corporate merger of ExxonMobil, On the Run was ...'
p1
aS'Feb 12, 2010 - (Bloomberg)  Exxon Mobil Corp. and explorers including Chevron Corp. are securing land in Europe to exploit shale gas, a hard-to-extract deposit that could ...'
p2
aS"Feb 11, 2010 - ExxonMobil HDPE resin grades & datasheets. ... ExxonMobil Chemical's extensive portfolio of high density polyethylene (HDPE) resins combines toughness and stiffness with resistance to environmental stress cracking at elevated temperatures and warping. Our high-molecular-weight (HMW ..."
p3
aS'Feb 12, 2010 - Search for this case: ExxonMobil Oil Corporation v. Iraj V. Kashani. Search News, [ Google News | Marketwatch | Wall Street Journal | Financial Times | New ...'
p4
aS"Feb 11, 2010 - 1 for Exxon Mobil Corp., the largest U.S. company, when it said in a headline about the Williams energy venture, Exxon Better Recognize. ... producers, Qatar's Energy Minister Mohammed Al Sada said at a news conference after the meeting."
p5
aS'Feb 13, 2010 - Now, with ExxonMobil and its partners drilling at Point Thomson for the first time since the early 1980s, those uncertainties are moving to the forefront of the ...'
p6
aS'Feb 13, 2010 - For Petroleum News ... After several unsuccessful appeals in 2009, shipper, Anadarko Petroleum Corp., recently succeeded in getting the Commission to reconsider an ... The three major carriers, BP, ConocoPhillips and ExxonMobil, filed rate ...'
p7
aS'Feb 13, 2010 - Gustafson worked with Exxon from 1979 until the company closed its Alaska ... he told Petroleum News, When I first started doing permitting up here for Exxon in the .... I think Phillips and the other owners  BP, Chevron, ExxonMobil and ... Oil and Gas Conservation Commission, Alaska Pipeline, Alaska Railroad Corp.'
p8
aS'Feb 12, 2010 - FOR IMMEDIATE NEWS RELEASE. NEWS RELEASE #12. FROM: CLERK OF .... EXXON MOBIL CORPORATION (Parish of Orleans) KNOLL, J., would grant.'
p9
aS'Feb 12, 2010 - News & Analysis .... than runners-up ExxonMobil ($27.43 million), the Pharmaceutical Research and Manufacturers of America ($26.15 million) ... Chevron Corp.'
p10
a.