(lp0
S'Feb 16, 2010 - IRVING, Texas--(BUSINESS WIRE)--Exxon Mobil Corporation (NYSE:XOM) announced today that additions to its proved reserves in 2009 totaled 2.0 billion ...'
p1
aS"Feb 16, 2010 - Adding new reserves ensures that ExxonMobil will continue to develop new ... The annual reporting of proved reserves is the product of the corporation's ..."
p2
aS'Feb 16, 2010 - ... not expected to form new giant companies like Exxon Mobil or ConocoPhillips. ... A floorhand began drilling on a natural gas rig for Chesapeake Energy Corp.'
p3
aS'Feb 15, 2010 - Lynne Lachenmyer is Senior Vice President, ExxonMobil Chemical Company, Houston, Texas. ... Ms. Lachenmyer joined Mobil Oil Corporation in 1980.'
p4
aS'Feb 15, 2010 - News  Related companies  Markets ... The US Air Force, DOE Oak Ridge, Exxon-Mobil, and British Petroleum are among the ... Pni Sensor Corporation, Private.'
p5
aS'Feb 15, 2010 - A Mobil Exploration & Producing Australia Pty. ... Mobil group finds more gas off W. Australia ... International news for oil and gas professionals ... Chevron Corp. plans a $26.6-billion capital and exploratory investment program .... exxon mobil'
p6
aS'Feb 15, 2010 - PanEnergy Corp. and Mobil Corp. affiliates also joined forces in launching new marketing units ... International news for oil and gas professionals .... exxon mobil'
p7
aS"Feb 16, 2010 - Air Products' Nitrogen Recovery Unit Equipment Selected for ExxonMobil Texas Project."
p8
aS'Feb 15, 2010 - 18-ranked ExxonMobil xom -0.5384525342385579% Exxon Mobil Corp. .... Dividend Yield N/A Rev. per Employee 295960 More quote details and news  bsx ...'
p9
aS'Feb 17, 2010 - home  news  careers  contact us. English | . Global  ExxonMobil Chemical  products & services. polymers. polyethylene  polypropylene.'
p10
a.