(lp0
S'Feb 18, 2010 - ExxonMobil. 2019 likes  3 talking about this. ... ExxonMobil. Community Page about ExxonMobil Corporation  Timeline  About  Photos  Likes .... News Feed ...'
p1
aS'Feb 18, 2010 - ExxonMobil. 2017 likes. Local Business. ... ExxonMobil. Community Page about ExxonMobil Corporation  Timeline  About  Photos  Likes ... News Feed ...'
p2
aS'Feb 18, 2010 - Financial News  Tweet. http://images.businessweek.com/ss/09/11/ Exxon Mobil Corporation (NYSE:XOM) is the biggest company in the major integrated oil and ...'
p3
aS'Feb 17, 2010 - Warren Buffett sold EXxon Mobil because it is using undervalued stock to ... have to do with the big news that hit the wires on December 14, 2009: Exxon Mobil ...'
p4
aS'Feb 17, 2010 - But according to the Bloomberg news desk, the company appears to be a sham. .... 1 for Exxon Mobil Corp., the largest U.S. company, when it said in a headline ...'
p5
aS'Feb 18, 2010 - DOW JONES, A NEWS CORP COMPANY .... seen capricious government meddling in a deal to sell a $4 billion stake in a Ghanaian oil field to ExxonMobil Corp.'
p6
aS'Feb 17, 2010 - Dallas Morning News Home. ePaper Subscribe ... NINA is a joint venture created by NRG and Toshiba Corp. to build the reactors. .... Exxon Mobil, XOM, 78.06.'
p7
aS'Feb 17, 2010 - The ExxonMobil Community Summer Jobs Program: Frequently Asked Questions ... Corporate News Archive  Your Link to Excellence in Corporate Citizenship.'
p8
aS'Feb 17, 2010 - Through its trading subsidiaries, Petronas Trading Corp. and Malaysia International .... Get All the Oil and Gas Journal News Delivered to Your Inbox .... as part of the Baytown Complex Laboratory of ExxonMobil Refining & Supply Company, ...'
p9
aS'Feb 18, 2010 - Keynote speakers, Bruce A. Dale, senior consultant, ExxonMobil Upstream Research ... including Cordis Corporation, Halliburton, Honda R&D, Kimberly-Clark, ...'
p10
a.