(lp0
S'Feb 18, 2010 - ExxonMobil. 2019 likes  3 talking about this. ... ExxonMobil. Community Page about ExxonMobil Corporation  Timeline  About  Photos  Likes .... News Feed ...'
p1
aS'Feb 18, 2010 - ExxonMobil. 2017 likes. Local Business. ... ExxonMobil. Community Page about ExxonMobil Corporation  Timeline  About  Photos  Likes ... News Feed ...'
p2
aS'Feb 18, 2010 - Financial News  Tweet. http://images.businessweek.com/ss/09/11/ Exxon Mobil Corporation (NYSE:XOM) is the biggest company in the major integrated oil and ...'
p3
aS'Feb 19, 2010 - Exxon Mobil. Revised ... Corporate news of Freeport McMoRan Copper and Gold Inc. .... 12/14/2015, Is Great Corporate Debt Bubble About to Burst? 12/14/2015 ...'
p4
aS'Feb 18, 2010 - DOW JONES, A NEWS CORP COMPANY .... seen capricious government meddling in a deal to sell a $4 billion stake in a Ghanaian oil field to ExxonMobil Corp.'
p5
aS'Feb 19, 2010 - NO ADVERTISING, GOVERNMENT OR CORPORATE FUNDING .... for the profit of Exxon Mobil, Chevron, whatever, but it has been a geopolitical question.'
p6
aS'Feb 19, 2010 - Related News. Against the Grain  Pfizer CEO ... Celgene Corporation (NASDAQ:CELG) Builds on Success of REVLIMID ... Exxon Mobil Corporation. AT&amp ...'
p7
aS'Feb 18, 2010 - Keynote speakers, Bruce A. Dale, senior consultant, ExxonMobil Upstream Research ... including Cordis Corporation, Halliburton, Honda R&D, Kimberly-Clark, ...'
p8
aS"Feb 19, 2010 - distinguished career in the oil business and with ExxonMobil. ... Humble Oil & Refining Company, which was precursor to Exxon Mobil Corporation. ..... Sometimes, you have to give the client bad news or tough news, but there's a way to say it."
p9
aS'Feb 19, 2010 - Home  News  Communities ... By ERIC TORBENSON / The Dallas Morning News etorbenson@dallasnews.com .... Exxon Mobil, XOM, 78.06. Fluor Corp.'
p10
a.