(lp0
S"Feb 1, 2010 - NEW YORK  Exxon Mobil Corp. said Monday its fourth-quarter net income fell 23 percent as the ... Related News/Archive ... For all of 2009, Exxon Mobil's annual profit fell 56 percent to $19.42 billion, from a U.S. record $44.06 billion in 2008."
p1
aS"Feb 1, 2010 - The world's largest publicly traded oil company, ExxonMobil, saw its profits slump to ... empire smashed America's all-time record for corporate earnings in 2008. ... evidence that the recession was prompting energy efficiency was good news."
p2
aS"Feb 1, 2010 - While much of the oil industry contracted last year, Exxon Mobil expanded its oil ... In 2008, Exxon became the world's most profitable corporation with earnings ..."
p3
aS"Feb 1, 2010 - Cosan first branched out into the fuel distribution business in 2008 when it acquired U.S.-based Exxon Mobil Corp's Esso chain of service stations for nearly $1 ..."
p4
aS"Jan 31, 2010 - N) to Exxon Mobil Corp (XOM.N) for 2010, financial ... Top funds betting on MasterCard, Exxon: Barron's ... of the week. Our top news photography this week."
p5
aS'Feb 1, 2010 - Tom Kudele (BSCEM 89, MSCE 90), from ExxonMobil Research ... He is a project execution advisor for ExxonMobil Research & Engineering based in Houston, ...'
p6
aS'Feb 1, 2010 - Manufacturers, brand owners and parents can be confident about the consistent quality and safety of polypropylene designed for infant and juvenile products ...'
p7
aS'Feb 1, 2010 - Exxon Mobil Corp. 2.7%. Capital One Financial Corp. 2.1%. Loews Corp. 1.9%. Bank of America Corp. 1.7%. Johnson & ... M&T Bank Corp. 1.4%. Total of top ...'
p8
aS'Jan 31, 2010 - "We are to focus mainly on those companies that their International business and want to expand, "said Commerzbank Corporate Board Member Markus ...'
p9
aS"Feb 1, 2010 - ... data and better-than-expected earnings results from Exxon Mobil. ... News Corp. agreed to pay $500 million to settle four years of litigation over the company's ..."
p10
a.