(lp0
S'Feb 23, 2010 - IRVING, Texas--(BUSINESS WIRE)--Qatar Petroleum and Exxon Mobil Corporation (NYSE:XOM) today announced the Al Khaleej Gas-Phase 2 (AKG-2) project, ...'
p1
aS'Feb 22, 2010 - Form S-4 Exxon Mobil Corp - XOM, February 1, 2010, Registration of ...... http://finance.yahoo.com/news/Petrohawk-Energy-Corporation-prnews-422610.'
p2
aS"Feb 23, 2010 - Hot on the heels of oil giant Exxon Mobil Corp's (XOM. ... Thomson Reuters is the world's largest international multimedia news agency, providing investing news ..."
p3
aS'Feb 22, 2010 - In December, for instance, Exxon Mobil Corp. said it would buy Fort Worth natural gas firm XTO Energy for $41 billion in a move to boost its natural gas reserves.'
p4
aS"Feb 22, 2010 - Chemical and petrochemical news and contracts for contractors and ... ExxonMobil Corporation's sales and purchase agreements with liquefied natural gas ..."
p5
aS'Feb 22, 2010 - DOW JONES, A NEWS CORP COMPANY ..... Big oil companies, including ExxonMobil and BP, also have invested in algae-biofuel projects or companies.'
p6
aS'Feb 22, 2010 - DOW JONES, A NEWS CORP COMPANY ... is a network of leading companies in the worlds of diversified media, news, education, and information services.'
p7
aS'Feb 23, 2010 - Murphy Oil Corp. holds the rest. ... Units of Shell and Mobil that have been appraising those fields have until ... International news for oil and gas professionals .... as part of the Baytown Complex Laboratory of ExxonMobil Refining & Supply ...'
p8
aS'Feb 22, 2010 - Since Gates is investing in Exxon Mobil, there is a dangerous alignment of interests. .... Bavarian intervention caused by EPO affairs is now the subject of news ... Corporate Lobbying for Software Patents in the United States and Against Alice, ...'
p9
aS'Feb 22, 2010 - Investment News Briefsone response ... was rumored for months, following the similar acquisitions by Baker Hughes Inc. (NYSE: BHI) and Exxon Mobil Corp.'
p10
a.