(lp0
S'Feb 24, 2010 - EX-99.1 2 dex991.htm EXHIBIT 99.1 - NEWS RELEASE ... to Dallas as the corporate finance manager for Exxon Corporation, now Exxon Mobil Corporation.'
p1
aS'Feb 24, 2010 - Energy News ... Exxon Mobil Corp. ... Through successful joint ventures with Qatar Petroleum, ExxonMobil has an interest in 12 trains in Qatar to supply liquefied ...'
p2
aS'Feb 24, 2010 - Energy News ... DONG owns 10.34%, Exxon Mobil (XOM) has 7.23%, state-owned Norwegian company Petoro ... Company: Exxon Mobil Corporation, more info.'
p3
aS"Feb 24, 2010 - Exxon Mobil. Big merger, we get it. Now get over it and pick a name. Chevron got it right when it bought Texaco. Now you see it, now you don't. Gone. Smart."
p4
aS'Feb 24, 2010 - home  news  careers  contact us. English | . Global  ExxonMobil Chemical  products & services. polymers. polyethylene  polypropylene.'
p5
aS'Feb 25, 2010 - Black Enterprise has decided to spotlight the extraordinary achievements of a cadre of top professionalsour 100 Most Powerful Executives in Corporate ...'
p6
aS"Feb 24, 2010 - Hot on the heels of oil giant Exxon Mobil Corp's (XOM. ... Thomson Reuters is the world's largest international multimedia news agency, providing investing news ..."
p7
aS'Feb 24, 2010 - The announcement from ExxonMobil Corp. said RasGas 3 Train 7 is the fourth 7.8-million-tpy ... Get All the Oil and Gas Journal News Delivered to Your Inbox.'
p8
aS"Feb 24, 2010 - I believe three flaws in Toyota's corporate culture are behind its current predicament. ... now that attack will likely be directed at Exxon Mobil and Toyota, not GM."
p9
aS'Feb 25, 2010 - Corporate name, Chevron Corp. Tradename, Chevron ... news. Email address. Start a Free Trial. Already a subscriber? Please, login ... ExxonMobil. 14 Key ...'
p10
a.