(lp0
S'Feb 2, 2010 - Exxon Mobil Corp. may be expanding its position in natural gas in North America with its pending ... Analysts, however, have speculated that the Exxon Mobil-XTO deal stems at least in part from the oil ... Why stocks need more really bad news.'
p1
aS'Feb 2, 2010 - More News From Greenwire ... Oil companies, including Exxon Mobil Corp., report those costs in lobbying totals, but other large petroleum companies like ...'
p2
aS'Feb 2, 2010 - ExxonMobil Corp., which is buying onshore natural gas shale giant XTO ... The preceding news report may not be republished or redistributed, in whole or in ...'
p3
aS'Feb 3, 2010 - ExxonMobil Isopropanol (IPA) is a clear, colorless and volatile material with a light odor. It possesses physico-chemical and solvency properties similar to ...'
p4
aS"Feb 2, 2010 - BP's results compare with lower fourth-quarter earnings at U.S. rivals Exxon Mobil Corp (XOM. ... Nonetheless, Exxon and Chevron reported downstream losses. ... Thomson Reuters is the world's largest international multimedia news agency, ..."
p5
aS"Feb 3, 2010 - News. Competitors. Exxon Mobil Corporation (XOM) 86.87. Quick Profile ... the DayEvery morning receive an in-depth analysis of a stock that's making the news."
p6
aS'Feb 3, 2010 - After months of talk, Jasper Economic Development Corporation Executive ... A deal signed in May 2013 between Exxon Mobil Corp. and Qatar Petroleum ...'
p7
aS'Feb 2, 2010 - By BRENDAN CASE / The Dallas Morning News bcase@dallasnews.com ... has been slamming PlainsCapital, which is owned by Dallas-based PlainsCapital Corp., and warning other small businesses to beware. .... Exxon Mobil, XOM, 78.06.'
p8
aS'Feb 2, 2010 - From corporate dining, restaurants, hospitals, sports & entertainment to school cafeterias, Compass Group can provide your business with comprehensive ...'
p9
aS'Feb 3, 2010 - Prosperie names American Eagle, Exxon Mobil Corp. and Sabine Pilot Service as ... Contact. Southeast Texas Record; Email: news@setexasrecord.com; Twitter ...'
p10
a.