(lp0
S'Feb 9, 2010 - DOW JONES, A NEWS CORP COMPANY .... $4 billion sale of a stake in a huge oil field, foiling months of talks between potential buyer Exxon Mobil Corp.'
p1
aS'Feb 8, 2010 - ExxonMobil has successfully drilled and cased PTU-15, the first ... Exxon Mobil Corp. ... ExxonMobil drilled the well to a measured depth of over 16,000 feet.'
p2
aS'Feb 8, 2010 - Praxair, Inc. (PX: NYSE) has signed a contract with ExxonMobil to build, own ... Government Affairs  Corporate Governance Guidelines  Policies & Position Statements .... ExxonMobil will utilize additional nitrogen to help them recover more oil and ... Sign up to receive the latest Praxair news, SEC filings and stock alerts.'
p3
aS"Feb 9, 2010 - ... in its Jubilee oil field, foiling months of talks between potential buyer ExxonMobil Corp and the stake's owner, Kosmos Energy. ... energy-pedia general news."
p4
aS'Feb 9, 2010 - A. D. Keen Gulf Coast News Editor Exxon Co. ... Cabot Oil & Gas Corp. said it will appeal a federal court award of $4.24 million to two families .... exxon mobil'
p5
aS'Feb 8, 2010 - Find breaking news, commentary, and archival information about Torrance ... Mobil Oil Corp. was hit with nine citations and $67,005 in fines Friday by the state ...'
p6
aS'Feb 8, 2010 - The Corporate Social Responsibility Initiative at the Harvard Kennedy School of. Government is a ... Since few people like bad news, companies must often ..... For example, Exxon Mobil and its Indonesian subsidiary were sued under various.'
p7
aS"Feb 8, 2010 - You are here: Home > Investors> Financial News. Financial News ... with a master's degree from the Norwegian Institute of Technology, Kibsgaard began his career in 1992 working for ExxonMobil. ... Director of Corporate Communications"
p8
aS'Feb 9, 2010 - Get All the Offshore Magazine News Delivered to Your Inbox for free .... Job Summary: ExxonMobil Research and Engineering Company has an immediate opening for ... at its Corporate Strategic Research laboratory located in Annandale, NJ.'
p9
aS'Feb 9, 2010 - ExxonMobil Chemical offers these oxygenated solvents to complement our comprehensive hydrocarbon fluids portfolio: ExxonMobil Methyl Ethyl Ketone, ...'
p10
a.