(lp0
S'3/11/2010- Exxon Mobil (NYSE:XOM) said Thursday that it plans to spend approximately $27 billion on capital ...'
p1
aS'Mar 11, 2010 - NEW YORK (CNNMoney.com) -- Exxon Mobil outlined plans Thursday that rely heavily on oil from tough to reach places, extracting it from the depths of the ...'
p2
aS"Mar 10, 2010 - DOW JONES, A NEWS CORP COMPANY. News Corp is a network of ..... That problem doesn't face giants like Exxon Mobil Corp. XOM -0.54 % or BP whose ..."
p3
aS'Mar 10, 2010 - Stewart Yee has joined Veritas (Houston) as Director of Corporate Marketing. ... of America have entered into agreements with Exxon Company USA and BP Amoco to ... Get All the Offshore Magazine News Delivered to Your Inbox for free .... part of the Baytown Complex Laboratory of ExxonMobil Refining Supply Company, ...'
p4
aS'Mar 11, 2010 - Still, even under contract terms paying Oxy (and partners Eni ( E - news - people ) ... In five-year average return on capital Oxy, at 21%, trails only ExxonMobil.'
p5
aS"Mar 11, 2010 - In December Exxon Mobil paid $41 billion for XTO, a pure-play gas firm with a large .... T. Boone Pickens, a corporate raider turned energy speculator, has ... Subscribe to The Economist and get the week's most relevant news and analysis."
p6
aS'Mar 11, 2010 - The Most Powerful Destructive Corporate Business Club Most Americans .... with the largest oil companies like ExxonMobil, Shell, Hess and Chevron. ..... Watch: Ben Carson Wants Harriet Tubman on the $2 Bill, Befuddling Even Fox News ...'
p7
aS"Mar 11, 2010 - Exxon Mobil XOM, -0.01% : The world's largest oil company by market capitalization is active in the ... It holds stakes in the Tupi pre-salt field that's near where Exxon operates. ... More News from MarketWatch .... Anadarko Petroleum Corp."
p8
aS'Mar 11, 2010 - EXXON Mobil Corp will increase capital spending nearly 4 per cent this year to US$28 billion in part as the largest US oil company seeks to increase its share of ...'
p9
aS"Mar 10, 2010 - This development is the foundation of ExxonMobil's global workplace design ... that supports the business needs of the corporation, the group and the individual. ... with a Bachelor of Fine Arts from the University of Houston. About PDR  News"
p10
a.