(lp0
S'Mar 15, 2010 - Latest CVX News | Press Releases ... Corporate winners and losers amid the oil price crash ... ExxonMobil Commences Production at Julia Oil Field in GoM.'
p1
aS'Mar 15, 2010 - Exxon Mobil Corporations has just announced that it will start its Papua New ... Independent Public Business Corporation (PNG government, 16.6 percent), ... cars; moto; news; reviews; editorial; coverstory; auto how-to; glossary; car finder; rss.'
p2
aS'Mar 14, 2010 - Exxon Mobil Corp has announced that sales and purchase agreements with liquefied ... Upstream oil and gas news for exploration and production professionals.'
p3
aS'Mar 15, 2010 - Get All the Offshore Magazine News Delivered to Your Inbox for free ... Exxon Mobil Corp. has started oil production at the Julia field in the deepwater Gulf of ...'
p4
aS'Mar 14, 2010 - ... as companies including BP Plc, Royal Dutch Shell Plc and Exxon Mobil Corp. spend as much as $100 billion to develop fields awarded in contracts last year.'
p5
aS"Mar 15, 2010 - It is being bought out by ExxonMobil at a price not far from the current price. ... Big News of the Week: Exxon agreed to buy our holding XTO Energy (XTO) in an ... Exxon's biggest acquisition since it bought Mobil Corp. for $75 billion in 1999."
p6
aS'Mar 15, 2010 - DOW JONES, A NEWS CORP COMPANY. News Corp is a .... WSJ.com/Mideast: News, video, graphics ... Royal Dutch Shell PLC, BP PLC, ExxonMobil Corp.'
p7
aS'Mar 14, 2010 - -Rupert Murdoch, News Corporation -Glenn A. Britt ... -Steven A. Ballmer, Microsoft Corporation ... -Rex W. Tillerson, Exxon Mobil Corporation'
p8
aS'Mar 15, 2010 - Leading energy, technology, pharmaceutical, and medical device companiesincluding ExxonMobil Corporation, Johnson & Johnson, and Merck & Co.have ...'
p9
aS'Mar 15, 2010 - News & Perspectives .... Overview; Price & Performance; Portfolio & Management; Fees & Minimums; Distributions; News & Reviews ..... 1, Exxon Mobil Corp.'
p10
a.