(lp0
S'Mar 16, 2010 - Careers  Investors  News  Global  ExxonMobil. Menu .... Privacy policy  Terms & conditions.  Copyright 2003- Exxon Mobil Corporation. All Rights Reserved.'
p1
aS'Mar 16, 2010 - Careers  Investors  News; Select countryGlobal_selector_abbreviation ..... Careers  Contact us  Investors  News and updates  Perspectives blog.'
p2
aS'Mar 16, 2010 - FOR IMMEDIATE NEWS RELEASE. NEWS RELEASE #020 ... 1979, ExxonMobil constructed an ethylene pipeline extending from LA Hwy 1 in. Plaquemine .... or corporation that may prove beneficial or profitable to some portion of the public,.'
p3
aS'Mar 17, 2010 - ... Speaks About Risk. Home > News > Piper_CJ_Speaker ... In the private sector, he managed global security and risk for ExxonMobil Corp. Piper also taught as ...'
p4
aS'Mar 16, 2010 - Grand-prize package of the Mobil 1 Orange County Choppers Sweepstakes won by ... Mobil, Mobil 1 and the 1 icon are trademarks of Exxon Mobil Corporation ...'
p5
aS'Mar 16, 2010 - DOW JONES, A NEWS CORP COMPANY ..... For example, shares of Exxon Mobil Corp. and Chevron Corp. historically tend to trade in similar directions, since ...'
p6
aS'Mar 18, 2010 - home  news  careers  contact us. English | . Global  ExxonMobil Chemical  products & services. polymers. polyethylene  polypropylene.'
p7
aS'Mar 16, 2010 - ExxonMobil to Explore Black Sea with Specially Designed Transocean Drillship ... Top 5 News; Carnival Corporation Finalizes Contracts with Fincantieri to Build ...'
p8
aS'Mar 17, 2010 - By BRENDAN CASE / The Dallas Morning News bcase@dallasnews.com. Published: 17 March 2010 10:14 .... Exxon Mobil, XOM, 78.06. Fluor Corp. FLR, 41.35.'
p9
aS'Mar 17, 2010 - By SHERYL JEAN / The Dallas Morning News ... Last week, Delta Air Lines Inc. and JetBlue Airways Corp. also asked for ... Exxon Mobil, XOM, 78.06.'
p10
a.