(lp0
S"Mar 18, 2010 - ExxonMobil Chemical's Vistamaxx&#8482; propylene-based elastomers create new ... one or more of ExxonMobil Chemical Company, Exxon Mobil Corporation, or any affiliates they ... More News RSS feed for ExxonMobil Chemical Company."
p1
aS'Mar 17, 2010 - ... Speaks About Risk. Home > News > Piper_CJ_Speaker ... In the private sector, he managed global security and risk for ExxonMobil Corp. Piper also taught as ...'
p2
aS'Mar 18, 2010 - home  news  careers  contact us. English | . Global  ExxonMobil Chemical  products & services. polymers. polyethylene  polypropylene.'
p3
aS'Mar 18, 2010 - home  news  careers  contact us. English | . Global  ExxonMobil Chemical  products & services. polymers. polyethylene  polypropylene.'
p4
aS'Mar 17, 2010 - home  news  careers  contact us. English | . Global  ExxonMobil Chemical  products & services. polymers. polyethylene  polypropylene.'
p5
aS'Mar 17, 2010 - Nova Business News ... Mobil 1 Orange County Chopper Grand Prize Awarded ... Mobil, Mobil 1 and the 1 icon are trademarks of Exxon Mobil Corporation ...'
p6
aS'Mar 17, 2010 - By SHERYL JEAN / The Dallas Morning News ... Last week, Delta Air Lines Inc. and JetBlue Airways Corp. also asked for ... Exxon Mobil, XOM, 78.06.'
p7
aS'Mar 17, 2010 - By VICTOR GODINEZ / The Dallas Morning News. Published: 17 March 2010 02:43 .... Exxon Mobil, XOM, 78.06. Fluor Corp. FLR, 41.35. Fossil, FOSL, 32.48.'
p8
aS'Mar 18, 2010 - ... a blockbuster investigative report that details the intense corporate pressure to ... giants such as Exxon Mobil, Peabody Coal and other energy and agriculture ...'
p9
aS'Mar 18, 2010 - Exxon Mobil Corp., which had started Blackbeard, abandoned the project in 2006 after pouring $200 million into the well  and stopping ... 10 with the news.'
p10
a.