(lp0
S"Mar 18, 2010 - ExxonMobil Chemical's Vistamaxx&#8482; propylene-based elastomers create new ... one or more of ExxonMobil Chemical Company, Exxon Mobil Corporation, or any affiliates they ... More News RSS feed for ExxonMobil Chemical Company."
p1
aS'Mar 19, 2010 - It was here in 1937, on a patch of land that otherwise would have been planted in corn or soybeans, the Carter Oil Co., now the Exxon Mobil Corp., produced the ...'
p2
aS'Mar 19, 2010 - oil and gas news and contracts for contractors and engineers in the ... ExxonMobil Corporation today announced that its affiliate ExxonMobil Iraq Limited signed ...'
p3
aS'Mar 19, 2010 - home  news  careers  contact us. English | . Global  ExxonMobil Chemical  products & ..... Copyright 2015 Exxon Mobil Corporation. All Rights ...'
p4
aS'Mar 20, 2010 - home  news  careers  contact us. English | . Global  ExxonMobil Chemical  products & ..... Copyright 2015 Exxon Mobil Corporation. All Rights ...'
p5
aS'Mar 19, 2010 - ExxonMobil Chemical  products ..... thermoplastics such as PC, ABS, PS, PET and blends, nylon, ExxonMobil polypropylene 2 and a variety of other materials.'
p6
aS'Mar 19, 2010 - Dallas Morning News Home ... Recent leases signed by companies including Alliance Data Systems Corp., PepsiCo Inc. and .... Exxon Mobil, XOM, 78.06.'
p7
aS'Mar 18, 2010 - Exxon Mobil Corp., which had started Blackbeard, abandoned the project in 2006 after pouring $200 million into the well  and stopping ... 10 with the news.'
p8
aS'Mar 18, 2010 - ... a blockbuster investigative report that details the intense corporate pressure to ... giants such as Exxon Mobil, Peabody Coal and other energy and agriculture ...'
p9
aS'Mar 18, 2010 - By NBF News ... Managing Director, ExxonMobil Nigeria, Mr. Mark Ward says the recent ... Corporate organisations and government must work cooperatively to make it happen. we will need investments and innovations from the industry.'
p10
a.