(lp0
S'Mar 22, 2010 - News Release. Invensys and ExxonMobil Research and Engineering Company Sign ... Company is a wholly owned subsidiary of Exxon Mobil Corporation.'
p1
aS'Mar 22, 2010 - Get All the Offshore Magazine News Delivered to Your Inbox for free ... Exxon Mobil Corp. has started oil production at the Julia field in the deepwater Gulf of ...'
p2
aS'Mar 21, 2010 - The decision to proceed came on the heels of news that ExxonMobil Corp. had signed a 20-year deal worth about AU$50 billion to supply PetroChina Co. with ...'
p3
aS"Mar 22, 2010 - DOW JONES, A NEWS CORP COMPANY .... as a future contributor to the world's energy needs were put to bed in December when Exxon Mobil Corp."
p4
aS'Mar 21, 2010 - Of course, CPD delivers gas from high-quality suppliers such as ExxonMobil, ... CPD Energy Corp. headquartered in New Paltz, NY is pleased to announce, the ...'
p5
aS'Mar 22, 2010 - Nomac Drilling Corp. derrick man Justin Spruell, right, climbs down from an .... Chesapeake, second only to Exxon Mobil Corp. in gas production from U.S. fields, ...'
p6
aS'Mar 22, 2010 - Home  News ... By KAREN ROBINSON-JACOBS / The Dallas Morning News krobinson@dallasnews.com. Published: .... Exxon Mobil, XOM, 78.06. Fluor Corp.'
p7
aS'Mar 22, 2010 - One possibility is a concern that when News Corp. spends money on politics, it is ... If you own shares in Exxon Mobil, and it decides to spend $1 million to fund ...'
p8
aS'Mar 21, 2010 - home  news  careers  contact us. English | . Global  ExxonMobil Chemical  products & services. polymers. polyethylene  polypropylene.'
p9
aS'Mar 21, 2010 - For example, do you think that ExxonMobil, Inc. or General Electric qualify as ... we cue the violins to play Barbra singing People Who Need Corporate People, ...'
p10
a.