(lp0
S'Mar 22, 2010 - News Release. Invensys and ExxonMobil Research and Engineering Company Sign ... Company is a wholly owned subsidiary of Exxon Mobil Corporation.'
p1
aS'Mar 23, 2010 - with the latest news, links, and resources about Signum. Click on the Signum logo to ..... of Exxon Mobil Corporation or one of its subsidiaries. P rin te d in. U. S.'
p2
aS'Mar 22, 2010 - Get All the Offshore Magazine News Delivered to Your Inbox for free ... Exxon Mobil Corp. has started oil production at the Julia field in the deepwater Gulf of ...'
p3
aS'Mar 23, 2010 - understanding which uses are supported. Please follow the Steps 1-4 to determine whether your Use will be included as a Supported Use in our REACH ...'
p4
aS"Mar 23, 2010 - Exxon Says `$25 Billion Rule' Will Sink Deepwater Oil Drilling ... contested a U.S. plan to toughen offshore drilling rules that Exxon Mobil Corp. said will cost as ..."
p5
aS'Mar 23, 2010 - Radial tires were made possible through the use of halobutyl rubbers such Exxon bromobutyl and chlorobutyl halobutyl in innerliners. These compounds ...'
p6
aS'Mar 23, 2010 - Nexxstar resin formulations stretch hood film performance and layer structure.'
p7
aS"Mar 22, 2010 - DOW JONES, A NEWS CORP COMPANY .... as a future contributor to the world's energy needs were put to bed in December when Exxon Mobil Corp."
p8
aS"Mar 23, 2010 - Corporate Responsibility magazine's list of 100 Best Corporate Citizens is silly. ... And, just as colleges try to game the U.S. News list, companies that ... day about how the likes of Google, GE, Exxon Mobil, Microsoft and others affect our world."
p9
aS'Mar 22, 2010 - Home  News ... By KAREN ROBINSON-JACOBS / The Dallas Morning News krobinson@dallasnews.com. Published: .... Exxon Mobil, XOM, 78.06. Fluor Corp.'
p10
a.