(lp0
S'Mar 23, 2010 - with the latest news, links, and resources about Signum. Click on the Signum logo to ..... of Exxon Mobil Corporation or one of its subsidiaries. P rin te d in. U. S.'
p1
aS'Mar 24, 2010 - ConocoPhillips, the third-largest U.S. oil company after Exxon Mobil Corp. (XOM) and Chevron Corp. (CVX), is also the one that suffered the most from the ...'
p2
aS'Mar 23, 2010 - understanding which uses are supported. Please follow the Steps 1-4 to determine whether your Use will be included as a Supported Use in our REACH ...'
p3
aS'Mar 24, 2010 - A Pulitzer Prize-winning, non-profit, non-partisan news organization ... has come in the form of $500,000 from Texas-based Valero Energy Corporation. ... from the oil industry; since 1998, PRI has received $530,000 from Exxon Mobil alone.'
p4
aS"Mar 23, 2010 - Exxon Says `$25 Billion Rule' Will Sink Deepwater Oil Drilling ... contested a U.S. plan to toughen offshore drilling rules that Exxon Mobil Corp. said will cost as ..."
p5
aS"Mar 24, 2010 - The Chamber of Commerce and ExxonMobil must be thrilled. ... my head as I read the depressing news about the Supreme Court's gift to corporate America (as ..."
p6
aS'Mar 24, 2010 - Build your success with ExxonMobil Chemical specialty elastomers. Use our broad portfolio to improve your products, reduce parts and energy costs, and add ...'
p7
aS'Mar 23, 2010 - Radial tires were made possible through the use of halobutyl rubbers such Exxon bromobutyl and chlorobutyl halobutyl in innerliners. These compounds ...'
p8
aS'Mar 24, 2010 - FROM STAFF AND WIRE REPORTS / The Dallas Morning News Karen Robinson-Jacobs, The Associated Press .... Exxon Mobil, XOM, 78.06. Fluor Corp.'
p9
aS"Mar 23, 2010 - Corporate Responsibility magazine's list of 100 Best Corporate Citizens is silly. ... And, just as colleges try to game the U.S. News list, companies that ... day about how the likes of Google, GE, Exxon Mobil, Microsoft and others affect our world."
p10
a.