(lp0
S'Mar 25, 2010 - As Exxon Mobil Corp. embraces domestic natural gas production, one North ... By ELIZABETH SOUDER / The Dallas Morning News esouder@dallasnews.com.'
p1
aS'Mar 24, 2010 - ConocoPhillips, the third-largest U.S. oil company after Exxon Mobil Corp. (XOM) and Chevron Corp. (CVX), is also the one that suffered the most from the ...'
p2
aS'Mar 24, 2010 - A Pulitzer Prize-winning, non-profit, non-partisan news organization ... has come in the form of $500,000 from Texas-based Valero Energy Corporation. ... from the oil industry; since 1998, PRI has received $530,000 from Exxon Mobil alone.'
p3
aS"Mar 24, 2010 - The Chamber of Commerce and ExxonMobil must be thrilled. ... my head as I read the depressing news about the Supreme Court's gift to corporate America (as ..."
p4
aS'Mar 25, 2010 - This corporate public duty recognizes that a commercially motivated purpose is good ...... been made against Del Monte in Guatemala and ExxonMobil in Indonesia, ..... available at http://www.villagevoice. com/2003-09-30/news/strange-fruit/1.'
p5
aS'Mar 24, 2010 - Build your success with ExxonMobil Chemical specialty elastomers. Use our broad portfolio to improve your products, reduce parts and energy costs, and add ...'
p6
aS'Mar 25, 2010 - Exceed and Enable metallocene polyethylene (mPE) resins allow converters to produce outstanding, high clarity packaging films at high throughput rates.'
p7
aS'Mar 25, 2010 - ExxonMobil and many other big multinationals, on the other hand, have been much more ... And, just as colleges try to game the U.S. News list, companies that ...'
p8
aS'Mar 25, 2010 - Together with ExxonMobil application and engineering expertise, Mobil SHC ... design are trademarks of Exxon Mobil Corporation, or one of its subsidiaries.'
p9
aS'Mar 25, 2010 - The industry, including Exxon-Mobil, was touting widespread gas .... It is clear the corporate powers that be have no idea what sustainability means. ... for a ban on hydrofracking: http://www.onondaganation.org/news/2010/hetf_position.pdf.'
p10
a.