(lp0
S'Mar 25, 2010 - As Exxon Mobil Corp. embraces domestic natural gas production, one North ... By ELIZABETH SOUDER / The Dallas Morning News esouder@dallasnews.com.'
p1
aS'Mar 26, 2010 - Sign Up For Breaking News Alerts ... Some observers say Ghana is trying to stop the ExxonMobil deal so the GNPC can buy the ... A number of suitors also have shown an interest in acquiring the stake, including the Korea National Oil Corp.'
p2
aS'Mar 26, 2010 - Exxon Mobil Corporation. E-mail; Tweet; Facebook; Linkedin. Share Share icons ... 5959 Las Colinas Blvd., Irving, TX 75039. Website, www.exxonmobil.com ...'
p3
aS"Mar 26, 2010 - Corporate Responsibility Magazine (the new name of CRO Magazine) announces its ... Similarly, in U.S. News and World Report's 2010 rankings of Top Public ... Exxon Mobil: In July 2009 Exxon Mobil was accused by the Texas General Land ..."
p4
aS'Mar 25, 2010 - This corporate public duty recognizes that a commercially motivated purpose is good ...... been made against Del Monte in Guatemala and ExxonMobil in Indonesia, ..... available at http://www.villagevoice. com/2003-09-30/news/strange-fruit/1.'
p5
aS'Mar 26, 2010 - DOW JONES, A NEWS CORP COMPANY. News Corp is a ..... He previously worked for energy companies such as Chevron and Exxon Mobil. Share this:.'
p6
aS'Mar 25, 2010 - ExxonMobil and many other big multinationals, on the other hand, have been much more ... And, just as colleges try to game the U.S. News list, companies that ...'
p7
aS'Mar 27, 2010 - ExxonMobil polypropylene resins are fully compliant with U.S. FDA and European regulatory requirements to give toy manufacturers, brand owners and parents ...'
p8
aS'Mar 26, 2010 - home  news  careers  contact us. English | . Global  ExxonMobil Chemical  products & services. polymers. polyethylene  polypropylene.'
p9
aS'Mar 25, 2010 - Together with ExxonMobil application and engineering expertise, Mobil SHC ... design are trademarks of Exxon Mobil Corporation, or one of its subsidiaries.'
p10
a.