(lp0
S'Mar 29, 2010 - The loss of Goff would be the latest management change for ConocoPhillips, which is the third-largest U.S. oil company behind Exxon Mobil Corp. and Chevron ...'
p1
aS'Mar 29, 2010 - ... in the location of E&P concessions area won by a consortia of Agip, Unocal, Mobil, and YPF. ... Get All the Offshore Magazine News Delivered to Your Inbox for free .... as part of the Baytown Complex Laboratory of ExxonMobil Refining Supply Company, will be ... Copyright  2007-2015 PennWell Corporation, Tulsa, OK.'
p2
aS"Mar 30, 2010 - This small corner of Nigeria is also responsible for the major news. ... Mobil's giant Edop Field (900 MMBOE) was discovered in this corner in 1981. ..... as part of the Baytown Complex Laboratory of ExxonMobil Refining & Supply Company, will be responsible for ..... Copyright  2007-2015 PennWell Corporation, Tulsa, OK."
p3
aS"Mar 29, 2010 - ... valuable CEO is Steve Jobs of Apple, as shown by stock dips on news of his medical ... Rex Tillerson of ExxonMobil. xom 0.5012823501981813% Exxon Mobil Corp. ... Under Tillerson, Exxon has remained one of the world's best-managed big ... and seemingly successful leadership was an authoritarian corporate culture ..."
p4
aS'Mar 30, 2010 - ... and the foundations under its control spent far more than even ExxonMobil in ... Foundation, American Petroleum Institute, and Exxon-Mobil Corporation.'
p5
aS"Mar 29, 2010 - One company that seems to believe is Exxon Mobil. ... Many analysts took Exxon's entry into this space as a sign that the shale gas boom is here to stay."
p6
aS"Mar 28, 2010 - Escorene Ultra ethylene vinyl acetate (EVA) copolymer resins are one of ExxonMobil's workhorse copolymers for hot-melt packaging adhesive applications, ..."
p7
aS'Mar 29, 2010 - ExxonMobil Corp. operates the Hoover-Diana DDCV, the third and heaviest to date of such ..... Get All the Oil and Gas Journal News Delivered to Your Inbox.'
p8
aS'Mar 29, 2010 - ... under its control, more than Exxon Mobil, a claim that seems to have encompassed everything from partnership agreements to discussions with governments.'
p9
aS'Mar 29, 2010 - International Business Machines Corporation ... Original Document: http://www.pfizer.com/news/press-release/press-release-detail/ ... Exxon Mobil Corporation.'
p10
a.