(lp0
S'Mar 2, 2010 - PORT MORESBY, Papua New Guinea--(BUSINESS WIRE)--Esso Highlands Limited, a subsidiary of Exxon Mobil Corporation (NYSE:XOM) and operator of the ...'
p1
aS"Mar 2, 2010 - ExxonMobil Corp. said Tuesday it has finalized an agreement to sell gas from its liquefied natural gas project in Papua New Guinea to Taiwan's CPC Corp."
p2
aS'Mar 2, 2010 - ExxonMobil Corp. has finalised an agreement to sell gas from its liquefied natural gas ... Upstream oil and gas news for exploration and production professionals.'
p3
aS'Mar 2, 2010 - View Exxon Mobil Corporation company location, revenue, industry and description. Find related and similar companies as well as employees by title and much ...'
p4
aS'Mar 1, 2010 - This came the month after Exxon Mobil Corp. (XOM) gave shale-gas development a definitive stamp of approval by agreeing to acquire XTO in an all-share deal ...'
p5
aS"Mar 1, 2010 - News, MarketPlace, Jobs ... In December, Exxon Mobil Corp. said it would acquire Fort Worth's XTO Energy in a deal valued at $41 billion. A month later ..."
p6
aS'Mar 2, 2010 - ExxonMobil Excellence in Safety Performance Award.  National Petroleum Refiners Association Award of Merit.  National Petroleum Refiners Association ...'
p7
aS"Mar 1, 2010 - ExxonMobil Production Co. has successfully drilled and cased PTU-15, the first ... with the company's recently-closed acquisition Triad Energy Corp. assets. ... Get All the Oil & Gas Financial Journal News Delivered to Your Inbox for free."
p8
aS"Mar 1, 2010 - Follow News  Submit Your News ... ExxonMobil's corporate predecessor, Exxon Corp., was the original developer of Battlement Mesa, back in the 1980s."
p9
aS'Mar 3, 2010 - Escorez 1000 resins offer good compatibility with styrene butadiene rubbers (SBRs), butyl rubber, styrene butadiene copolymers (SBCs), polybutenes, ...'
p10
a.