(lp0
S'Mar 31, 2010 - ExxonMobil Corp. Company Website. Like this: Like Loading. ... Search for: Subscribe via eMail. Subscribe to Horn River News by Email  HRN on Twitter.'
p1
aS"Mar 31, 2010 - In January, TransCanada and Exxon Mobil Corp. (XOM), a top Alaska oil and producer that is TransCanada's engineering partner on the pipeline project, asked ..."
p2
aS'Mar 31, 2010 - Statoil has signed an agreement with an affiliate of ExxonMobil to transfer 35% of its interest in Statoil operated Block 2 in Tanzania. ... News & Media ... Republic of Tanzania and the Tanzania Petroleum Development Corporation (TPDC).'
p3
aS'Mar 31, 2010 - Koch Industries, a sprawling private corporation based in Wichita, Kan., and run ... have replaced Exxon Mobil Corp. as the leader in stirring controversy around ...'
p4
aS'Mar 31, 2010 - CSPnet.com - Convenience Store News .... change for company, which is the third-largest U.S. oil company behind Exxon Mobil Corp. and Chevron Corp.'
p5
aS'Mar 31, 2010 - Chesapeake trails only Fort Worth, Texas-based XTO Energy Inc., which agreed to be bought by Exxon Mobil Corp. for $31 billion in December, in natural-gas ...'
p6
aS'Mar 30, 2010 - Breaking news ... $25m to groups opposed to climate change, nearly three times as much as higher-profile funders that time such as oil company ExxonMobil.'
p7
aS"Mar 31, 2010 - ... trouverez les publications et communiqus de presse de la socit Esso S.A.F, des socits du groupe ExxonMobil en France et d'Exxon Mobil Corporation."
p8
aS"Mar 31, 2010 - Stay informed  Stay informed. Sign up to receive e-mail news and updates about ExxonMobil's remediation work and investment in the Greenpoint community."
p9
aS"Mar 30, 2010 - DOW JONES, A NEWS CORP COMPANY. News Corp is a network of ..... The unit's major customers are oil companies such as Chevron Corp. CVX 1.62 % and ..."
p10
a.