(lp0
S'Mar 2, 2010 - PORT MORESBY, Papua New Guinea--(BUSINESS WIRE)--Esso Highlands Limited, a subsidiary of Exxon Mobil Corporation (NYSE:XOM) and operator of the ...'
p1
aS"Mar 2, 2010 - ExxonMobil Corp. said Tuesday it has finalized an agreement to sell gas from its liquefied natural gas project in Papua New Guinea to Taiwan's CPC Corp."
p2
aS'Mar 2, 2010 - ExxonMobil Corp. has finalised an agreement to sell gas from its liquefied natural gas ... Upstream oil and gas news for exploration and production professionals.'
p3
aS'Mar 2, 2010 - View Exxon Mobil Corporation company location, revenue, industry and description. Find related and similar companies as well as employees by title and much ...'
p4
aS"Mar 2, 2010 - View Roxanne Thompson's business profile as Recruiting Assistant at Exxon Mobil Corporation and see work history, affiliations and more."
p5
aS'Mar 3, 2010 - DOW JONES, A NEWS CORP COMPANY .... earnings, which strip out nonoperating items and disposals and acquisitions, trail those of Exxon Mobil Corp.'
p6
aS'Mar 2, 2010 - ExxonMobil Excellence in Safety Performance Award.  National Petroleum Refiners Association Award of Merit.  National Petroleum Refiners Association ...'
p7
aS'Mar 3, 2010 - The vessels, which are co-owned by Itochu Corporation (30%), are due for delivery ... "MOL is also proud of its long association with ExxonMobil and their affiliates and ... Maritime Review to stay in touch with news and events in your industry.'
p8
aS"Mar 3, 2010 - Fortunately, local news outlet Reuters UK is on the. ... recent smell, of rotten eggs, has been claimed by the folks at ExxonMobil's Baytown Refinery. ... like that and especially for a super major like XOM without legal and corporate approval."
p9
aS'Mar 3, 2010 - Exxon\'s massive oil spill in Alaska\'s Prince William Sound brought a halt to that .... Oscar Leavitt, Arctic Slope Regional Corp. vice-president, said, "The caribou is ..... as part of the Baytown Complex Laboratory of ExxonMobil Refining & Supply ...'
p10
a.