(lp0
S"Mar 4, 2010 - Exxon Mobil Corp's buttoned-up, bureaucratic corporate culture could chase away XTO Energy ... (For more news on Reuters Money visit www.reutersmoney.in) ..."
p1
aS'Mar 3, 2010 - DOW JONES, A NEWS CORP COMPANY .... earnings, which strip out nonoperating items and disposals and acquisitions, trail those of Exxon Mobil Corp.'
p2
aS'Mar 5, 2010 - home  news  careers  contact us. English | . Global  ExxonMobil Chemical ..... ExxonMobil Chemical advanced synthetic base stocks: Innovative lubricants start here viewable by ... Copyright 2015 Exxon Mobil Corporation. All Rights ...'
p3
aS'Mar 5, 2010 - ExxonMobil Chemical is committed to operating throughout the world in a way that protects the environment and takes into account the economic and social ...'
p4
aS"Mar 3, 2010 - Fortunately, local news outlet Reuters UK is on the. ... recent smell, of rotten eggs, has been claimed by the folks at ExxonMobil's Baytown Refinery. ... like that and especially for a super major like XOM without legal and corporate approval."
p5
aS'Mar 4, 2010 - EXXON MOBIL Chart - ein bersichtlicher, groer Chart der EXXON MOBIL Aktie. Einstellbar sind ... Kurse + Charts + Realtime, News + Analysen, Fundamental, Unternehmen, zugeh. Wertpapiere, Aktion ... Exxon Mobil Corp. (ExxonMobil) ...'
p6
aS'Mar 3, 2010 - Exxon\'s massive oil spill in Alaska\'s Prince William Sound brought a halt to that .... Oscar Leavitt, Arctic Slope Regional Corp. vice-president, said, "The caribou is ..... as part of the Baytown Complex Laboratory of ExxonMobil Refining & Supply ...'
p7
aS'Mar 3, 2010 - The vessels, which are co-owned by Itochu Corporation (30%), are due for delivery ... "MOL is also proud of its long association with ExxonMobil and their affiliates and ... Maritime Review to stay in touch with news and events in your industry.'
p8
aS"Mar 3, 2010 - View Astrid Emkes's business profile as Procurement Associate at Exxon Mobil Corporation and see work history, affiliations and more."
p9
aS'Mar 4, 2010 - NEWS RELEASE. Investor Contact: ... Charles W. Matthews to its Board of Directors and Corporate Governance and Directors Nominating ... Mr. Matthews recently retired from Exxon Mobil Corporation where he worked since 1971. He was.'
p10
a.