(lp0
S'Mar 9, 2010 - Exxon Mobil Corp. News XOM CORRECT: WorleyParsons: Sakhneftegaz Wins US$400 Million New York Stock Exchange Announcements, Company Reports ...'
p1
aS'Mar 7, 2010 - Exxonmobil Oil Corporation. Exxon. 3225 Gallows Road Fairfax, VA 22037 - View ... With the latest News & Advice from Manta, you can stay ahead of the trends ...'
p2
aS'Mar 8, 2010 - CSR: Exxonmobil invests $280 M on community development ... Corporate organisations and government must work cooperatively to make it ... Latest News.'
p3
aS'Mar 7, 2010 - Exxon Mobil Corp XOM.N said agofiner unit at its 572500 barrel per day (bpd) Baytown,Texas, refinery was operational on Sunday after repairs to apinhole leak, ...'
p4
aS"Mar 8, 2010 - Joe Carlon retired from Exxon Mobil Corporation in December of 2004. As a senior level security executive managing the corporation's operational security ..."
p5
aS'Mar 7, 2010 - It also offers distribution advantages over rigid and other forms of packaging. ExxonMobil Chemical is a leading global supplier of a full range of films for flexible ...'
p6
aS'Mar 7, 2010 - Ridgeway Arizona Oil Corp. is another company entering the CO2 supply picture. .... contracts with Conoco Inc., Mobil Corp., ARCO Corp., and Total Petroleum, Coastal Corp., and Exxon Corp. ... International news for oil and gas professionals ...'
p7
aS'Mar 7, 2010 - News that the two had reached a definitive merger agreement followed on Apr. 1 ... merger talks before the BP-Amoco deal had been between BP and Mobil Corp. ... "The simultaneous mergers of Exxon and Mobil, and BP-Amoco and ARCO, ...'
p8
aS'Mar 7, 2010 - Company Description: Exxon Mobil Corporation (Exxon Mobil) is a ... Canadian NMR News ... (Hans Thomann / ExxonMobil Research and Engineering).'
p9
aS"Mar 9, 2010 - ExxonMobil News ... Exxon Mobil Corporation Declares First Quarter Dividend  ExxonMobil to Release Fourth Quarter 2015 Financial Results  ExxonMobil's ..."
p10
a.