(lp0
S'Mar 9, 2010 - Exxon Mobil Corp. News XOM CORRECT: WorleyParsons: Sakhneftegaz Wins US$400 Million New York Stock Exchange Announcements, Company Reports ...'
p1
aS'Mar 8, 2010 - CSR: Exxonmobil invests $280 M on community development ... Corporate organisations and government must work cooperatively to make it ... Latest News.'
p2
aS'Mar 9, 2010 - Exxon Corp. has started production from its $2 billion expanded development of Santa Ynez ... International news for oil and gas professionals .... exxon mobil'
p3
aS'Mar 9, 2010 - ... work orders to cover further engineering and early procurement for the Sakhalin-1, Arkutun-Dagi topsides, by ExxonMobil affiliate, Exxon Neftegas Limited.'
p4
aS'Mar 9, 2010 - Exxon Mobil Corp ... More Details for Exxon Mobil Refinery ... With the latest News & Advice from Manta, you can stay ahead of the trends and challenges ...'
p5
aS'Mar 9, 2010 - If you were looking for a quick, 4-paragraph introduction on the subject of Peak Oil, Bloomberg News has you covered: Exxon Mobil Corp., BP Plc and Total SA ...'
p6
aS"Mar 9, 2010 - The News Hub's Andrew Browne and John Bussey discuss why the U.S. is watching .... PetroChina, China's version of Exxon Mobil Corp., has a market value of ..."
p7
aS'Mar 8, 2010 - Exxon Mobil Corp XOM. ... "The gofiner is operational," Exxon spokeswoman Neely Nelson said in a statement. ... News and Media Division of Thomson Reuters.'
p8
aS"Mar 9, 2010 - Chevron Corp (CVX. ... The Chevron corporate logo and the current price of unleaded fuel per gallon are shown at a ... Larger rival Exxon Mobil Corp (XOM. ... Thomson Reuters is the world's largest international multimedia news agency, ..."
p9
aS'Mar 10, 2010 - The northeast Louisiana discovery was not yet in the news, so Kallenberg, .... A lot of big energy companies, like ExxonMobil, are betting that natural gas will ... merger between Exxon Mobil Corp. and a large independent gas producer.'
p10
a.