(lp0
S'Apr 13, 2010 - The Cablevision Systems Corp. headquarters stand in Bethpage, New York, .... plan to toughen offshore drilling rules that Exxon Mobil Corp. said will cost as ...'
p1
aS'Apr 14, 2010 - The gargantuan, dispiriting job cuts that seem to dominate the news have also been the ... with changes that reflect and spotlight the trends reshaping corporate America. ... 1, Exxon Mobil (XOM, Fortune 500) ($285 billion), into second place, ...'
p2
aS'Apr 14, 2010 - ... Inc., a wholly owned non-bank subsidiary of Capital One Financial Corporation. ... positions with Exxon Company USA, now ExxonMobil Corporation. Conner ...'
p3
aS"Apr 14, 2010 - It's time for Congress to reexamine its priorities when it comes to tax subsidies for oil companies like ExxonMobil, which total billions of dollars a year. By Sima J."
p4
aS"Apr 14, 2010 - NEW ORLEANS--(Business Wire)-- Capital One Financial Corporation (NYSE:COF) today ... positions with Exxon Company USA, now ExxonMobil Corporation. ... Thomson Reuters is the world's largest international multimedia news agency, ..."
p5
aS'Apr 15, 2010 - Robert Gardner, manager of the Economics and Energy Division of the Corporate Strategic Planning Department at Exxon Mobil Corporation, will present the ...'
p6
aS'Apr 13, 2010 - ... "get out there and sell" the area that  come June  will be the former home of Pilgrim\'s Pride Corp. ... Dallas Morning News Home .... Exxon Mobil, XOM, 78.06.'
p7
aS'Apr 13, 2010 - Home  News ... By KAREN ROBINSON-JACOBS / The Dallas Morning News krobinson@dallasnews.com. Published: .... Exxon Mobil, XOM, 78.06. Fluor Corp.'
p8
aS'Apr 13, 2010 - MOBIL OIL CORPORATION, a corporation; EXXONMOBIL OIL CORPORATION, a corporation; MOBIL EXPLORATION AND PRODUCING, NORTH AMERICAN, ...'
p9
aS"Apr 13, 2010 - ... and that it is the strategy that China Petroleum & Chemical Corp., known as Sinopec, ... with Western multinationals such as Imperial Oil's parent, Exxon Mobil Corp., or BP PLC ... News. Woman pleads not guilty to live-streaming friend's rape ..."
p10
a.