(lp0
S'Apr 16, 2010 - fuels and lubricants logo. search terms. home  news  investors  careers  contact us  products & services  technology leadership  doing business with us ...'
p1
aS'Apr 15, 2010 - home  news  investors  careers  contact us ... our products & brands  technology leadership  corporate sustainability  chemicals sustainability. tools.'
p2
aS'Apr 15, 2010 - home  news  investors  careers  contact us ... our products & brands  technology leadership  corporate sustainability  chemicals sustainability ... Besides protecting against wear, Mobilgear SHC XMP exceeds performance of traditional ...'
p3
aS'Apr 15, 2010 - home  news  investors  careers  contact us ... our products & brands  technology leadership  corporate sustainability  chemicals sustainability. tools.'
p4
aS'Apr 16, 2010 - Get company or corporate stock equity shareholder overview data for shares of Exxon Mobil Corp including Fund Owners Activity, Style, Equity & Debt ...'
p5
aS"Apr 15, 2010 - ... his tractor rammed an Exxon Mobil Corp. natural-gas pipe hidden in a thicket. ... They've filed a lawsuit against Exxon and Chevron Corp., which pumps oil and ..... Qatar's Energy Minister Mohammed Al Sada said at a news conference after ..."
p6
aS'Apr 14, 2010 - The gargantuan, dispiriting job cuts that seem to dominate the news have also been the ... with changes that reflect and spotlight the trends reshaping corporate America. ... 1, Exxon Mobil (XOM, Fortune 500) ($285 billion), into second place, ...'
p7
aS"Apr 15, 2010 - 1 in Rogers, Arkansas, U.S., on Thursday, April 15, 2010. Wal-Mart Stores Inc., the world's largest retailer, reclaimed the top... Get premium, high resolution news ..."
p8
aS'Apr 15, 2010 - Exxon Mobil made $35 billion in 2009, yet Exxon paid $0 in Federal Income Tax. ... Likewise many companies though benefiting from corporate welfare in the U.S., use ... Since the news broke out, Exxon has clarified that it had paid substantial ...'
p9
aS'Apr 15, 2010 - Wal-Mart, Exxon Mobil and Chevron earn top spots on the Fortune 500 list for 2010. The Fortune 500 -- the biggest companies in America -- boosted their ...'
p10
a.