(lp0
S'Apr 16, 2010 - Careers  Investors  News  Global  ExxonMobil. Menu .... Privacy policy  Terms & conditions.  Copyright 2003- Exxon Mobil Corporation. All Rights Reserved.'
p1
aS'Apr 16, 2010 - fuels and lubricants logo. search terms. home  news  investors  careers  contact us  products & services  technology leadership  doing business with us ...'
p2
aS'Apr 15, 2010 - home  news  investors  careers  contact us ... our products & brands  technology leadership  corporate sustainability  chemicals sustainability. tools.'
p3
aS'Apr 16, 2010 - Exxon paid the most taxes last year of any U.S. company, by far -- but not a cent went to the IRS for income taxes. ... Exxon doled out more than $15 billion in income tax payments to foreign countries last year. ... 2016 Cable News Network.'
p4
aS'Apr 16, 2010 - Get company or corporate stock equity shareholder overview data for shares of Exxon Mobil Corp including Fund Owners Activity, Style, Equity & Debt ...'
p5
aS'Apr 16, 2010 - Justice News ... WASHINGTONTwo subsidiaries of Exxon Mobil Corporation  Mobil Oil Guam Inc. and Mobil Oil Mariana Islands Inc.  have agreed to pay ...'
p6
aS'Apr 16, 2010 - Exxon Mobil is applying its advanced drilling technologies to produce more ... Exxon Mobil Corp. has set another record, and this time it has nothing to do with its ...'
p7
aS"Apr 15, 2010 - ... his tractor rammed an Exxon Mobil Corp. natural-gas pipe hidden in a thicket. ... They've filed a lawsuit against Exxon and Chevron Corp., which pumps oil and ..... Qatar's Energy Minister Mohammed Al Sada said at a news conference after ..."
p8
aS"Apr 17, 2010 - Information about ExxonMobil operations and our own form of operations ... Consistent with the corporation's environment policy and Protect Tomorrow. Today."
p9
aS'Apr 16, 2010 - ExxonMobil Foundation is the primary philanthropic arm of Exxon Mobil Corporation in the United States. The Foundation and the Corporation engage in a ...'
p10
a.