(lp0
S'Apr 19, 2010 - REGIONAL NEWS  Africa  Americas ... Exxon Mobil Corp. has set another record, and this time it has nothing to do with its annual profits. The Irving-based oil ...'
p1
aS'Apr 19, 2010 - ExxonMobil Chemical is supplying Exxtral performance polyolefins for exterior and ... one or more of ExxonMobil Chemical Company, Exxon Mobil Corporation, or any affiliates ... More News RSS feed for ExxonMobil Chemical Company.'
p2
aS'Apr 20, 2010 - State Street Corp. 16. State Street Corp. ... CC Media ... News Corp. Rite Aid ... feeble recovery. From Exxon Mobil to Goldman, here are the biggest winners.'
p3
aS'Apr 20, 2010 - CC Media ... News Corp. Rite Aid ... Valero En... State Street Corp. State Str.. ... feeble recovery. From Exxon Mobil to Goldman, here are the biggest winners.'
p4
aS'Apr 19, 2010 - ... and Saudi Arabian Oil Co. and Saudi Basic Industries Corp. are investing in ... Chemical Corp. and Irving, Texas-based Exxon Mobil Corp. to triple capacity at ...'
p5
aS'Apr 20, 2010 - ... U.S. Department of Energy and big oil including Exxon Mobil Corp., which plans ... Now companies including Toyota Motor Corp. and refiner Idemitsu Kosan ...'
p6
aS'Apr 20, 2010 - Shell and ExxonMobil are inviting offers in cash for their interests in the producing Guillemot A, Teal, Teal South, and Cook ... Upstream oil and gas news for exploration and production professionals ... Current Corporate Activity articles: 2567 ...'
p7
aS'Apr 21, 2010 - home  news  careers  contact us. English | . Global  ExxonMobil Chemical  products & services. polymers. polyethylene  polypropylene.'
p8
aS'Apr 20, 2010 - Where We Practice  News  Links  Contact Us ... including ExxonMobil, British Petroleum, Shell, Texaco, ConocoPhillips, and Amoco. ... CIBA-GEIGY Corp.'
p9
aS'Apr 19, 2010 - ... part in a project of Inpex Corp. to construct a floating LNG (FLNG) plant in Indonesia. ... Get All the Oil and Gas Journal News Delivered to Your Inbox ..... as part of the Baytown Complex Laboratory of ExxonMobil Refining Supply Company, ...'
p10
a.