(lp0
S"Apr 21, 2010 - Some are frustrated with Exxon's pace in moving to more renewables. ... News  U.S. News Home  News  Facebook Twitter. News, Opinion & Analysis ... Exxon is the biggest American corporation in terms of revenue. (It shot past Wal-Mart on ..."
p1
aS'Apr 20, 2010 - State Street Corp. 16. State Street Corp. ... CC Media ... News Corp. Rite Aid ... feeble recovery. From Exxon Mobil to Goldman, here are the biggest winners.'
p2
aS"Apr 20, 2010 - The news isn't all bad. The nation's life ... CC Media ... News Corp. Rite Aid ... feeble recovery. From Exxon Mobil to Goldman, here are the biggest winners."
p3
aS'Apr 21, 2010 - "Idol Gives Back" is supported by News Corp, Ford Motor Co, Exxon Mobil Corp, ... and news outlet CNN to be the first to reach 1 million followers on Twitter.'
p4
aS'Apr 20, 2010 - ... U.S. Department of Energy and big oil including Exxon Mobil Corp., which plans ... Now companies including Toyota Motor Corp. and refiner Idemitsu Kosan ...'
p5
aS'Apr 21, 2010 - BP can learn from other epic corporate mistakes that came before the spill. ... The 1989 Exxon-Valdez oil disaster was an environmental catastrophe of ... tone-deaf response generated fierce opposition to its merger with Mobil a decade later.'
p6
aS'Apr 21, 2010 - MAXUS ENERGY CORPORATION and. TIERRA SOLUTIONS ... EXXON MOBIL. F.E.R. PLATING, INC, ... NEWS PUBLISHING AUSTRALIA LIMITED,. NORPAK ...'
p7
aS'Apr 20, 2010 - Where We Practice  News  Links  Contact Us ... including ExxonMobil, British Petroleum, Shell, Texaco, ConocoPhillips, and Amoco. ... CIBA-GEIGY Corp.'
p8
aS'Apr 21, 2010 - home  news  careers  contact us. English | . Global  ExxonMobil Chemical  products & services. polymers. polyethylene  polypropylene.'
p9
aS'Apr 20, 2010 - By SHERYL JEAN / The Dallas Morning News ... BillMatrix Corp., an electronic payments provider, will close call centers in Dallas .... Exxon Mobil, XOM, 78.06.'
p10
a.