(lp0
S"Apr 23, 2010 - Corporate sponsors for this year's IDOL GIVES BACK were News Corporation, Ford Motor Company, Coca-Cola, AT&T, ExxonMobil, iTunes, FremantleMedia ..."
p1
aS'Apr 22, 2010 - Zenith National Insurance Corp. investors lost a bid to block Fairfax Financial ..... plan to toughen offshore drilling rules that Exxon Mobil Corp. said will cost as ...'
p2
aS"Apr 23, 2010 - Exxon Mobil Corp., the world's second-largest oil company, abandoned its Blackbeard ... assets from Newfield Exploration Co., one of Exxon's partners in the project. ... During a five-hour conversation with Bloomberg News last week, Prince ..."
p3
aS'Apr 23, 2010 - s move into the coveted Fortune 500 was good news for more than just the ... The announcement this month of Amerigroup Corp. ... The slower pace of energy consumption forced Exxon Mobil from the number-one spot into second place.'
p4
aS'Apr 22, 2010 - Dallas Morning News Home ... After the closings, 61 corporate-owned Fuddruckers locations will remain. There also are 13 Koo .... Exxon Mobil, XOM, 78.06.'
p5
aS'Apr 22, 2010 - Check out the direct competitors of PolyOne Corporation Common Stoc (POL) and ... News & Info ... EXXON MOBIL CORPORATION, Private - View Profile.'
p6
aS'Apr 23, 2010 - News & Info. Headlines  Message Boards ... Microsoft Corporation, MSFT, 2.39, N/A. Exxon Mobil Corporation Common, XOM, 1.96, N/A. Johnson & Johnson ...'
p7
aS"Apr 22, 2010 - The Transocean Corp. rig was 40 miles off the coast of Louisiana when it had an explosion and caught fire .... Three workers were injured at an April 14 fire at Exxon Mobil's Baton Rouge refinery, and one worker died ... Latest News Videos."
p8
aS"Apr 22, 2010 - 1996 was the then head of Telekom's good news to New York. .... Chevron Corporation  Executives Biographies  Exxon Mobil Corporation  Miscellanoeous ..."
p9
aS'Apr 23, 2010 - Black & Veatch; Cayman Islands; Occidental Petroleum; CDM; Chesapeake Energy; CH2M Hill; URS Corporation; Exxon Mobil Corporation; ConocoPhillips ...'
p10
a.