(lp0
S'Apr 26, 2010 - DOW JONES, A NEWS CORP COMPANY .... has been open for several years and involves as many as a dozen oil companies, including Exxon Mobil Corp.'
p1
aS'Apr 25, 2010 - DOW JONES, A NEWS CORP COMPANY ..... Exxon Mobil Corp. is among a small number of other companies with drilling stakes here, but it has yet to start any ...'
p2
aS'Apr 25, 2010 - Bloomberg News. Bo Vavrusa was heaping dirt into the path of a wildfire on a Texas ranch in October 2007 when his tractor rammed an Exxon Mobil Corp.'
p3
aS'Apr 26, 2010 - ConocoPhillips News COP Conoco Targets Rockies, Texas, Western Canada In ... The third-largest U.S. oil company by market value after Exxon Mobil Corp.'
p4
aS"Apr 26, 2010 - Exxon Says `$25 Billion Rule' Will Sink Deepwater Oil Drilling ... U.S. plan to toughen offshore drilling rules that Exxon Mobil Corp. said will cost as much as $25 ..."
p5
aS'Apr 26, 2010 - (Richard Vines is the chief food critic for Bloomberg News. ... Chesapeake, second only to Exxon Mobil Corp. in gas production from U.S. fields, bucked the trend ...'
p6
aS'Apr 26, 2010 - And last year, ExxonMobil announced more than $600 million for research and ... Valero Energy Corp. announced last year it plans to build a 135 MMgy ...'
p7
aS'Apr 26, 2010 - Find and compare companies related to China Petroleum & Chemical Corp (ADR) (NYSE:SNP). ... XOM  Exxon Mobil Corpo... 85.86, +0.10, 0.12%, 359.74B ...'
p8
aS'Apr 25, 2010 - By ERIC TORBENSON and DAVE MICHAELS / The Dallas Morning News. Published: 25 April 2010 02:49 ..... Exxon Mobil, XOM, 78.06. Fluor Corp. FLR, 41.35.'
p9
aS'Apr 26, 2010 - Get All the Oil and Gas Journal News Delivered to Your Inbox ... Marathon Petroleum Corp. is preparing an amended application to the Michigan .... as part of the Baytown Complex Laboratory of ExxonMobil Refining & Supply Company, will ...'
p10
a.