(lp0
S'Apr 29, 2010 - Michael Dolan, senior vice president of ExxonMobil Corp., speaks at the U.S.-Saudi Business ... Get premium, high resolution news photos at Getty Images.'
p1
aS"Apr 29, 2010 - TransCanada Corporation Home  Media  Announcements  The Alaska Pipeline ... ExxonMobil is the world's largest publicly traded international oil and gas ... This news release may contain certain information that is forward looking and is ..."
p2
aS'Apr 29, 2010 - Home  News  Archived News 2010; Addressing the needs of oil and gas ... Krishna, ExxonMobil Corporate Environmental Programs Manager); Drilling Waste, ...'
p3
aS'Apr 30, 2010 - DOW JONES, A NEWS CORP COMPANY .... It was Alaskan fishermen who initiated a lawsuit that led Exxon Mobil Corp. to pay about $1 billion in damages and ...'
p4
aS'Apr 30, 2010 - Despite disappointments along the way, ExxonMobil and partners Shell, Esso ... Petro-Canada (20%), Canada Hibernia Holding Corporation (8.5%), Murphy Oil ...'
p5
aS'Apr 29, 2010 - News & Analysis  News & Analysis ... Chevron Corp. $3,090,000 ... Exxon Mobil, $9,320,000, $4,270,000, $7,160,000, $6,680,000, $3,390,000. American ...'
p6
aS"Apr 29, 2010 - Dow component ExxonMobil Corp.'s profit rose during the ... ExxonMobil fell 93 cents to $68.26. Hewlett-Packard ... Breaking News newsletter. When the big ..."
p7
aS'Apr 30, 2010 - Exxon and Sinopec join traders in selling crude overseas ... Oil companies including Exxon Mobil Corp and China Petroleum and Chemical Corp have joined ...'
p8
aS"Apr 29, 2010 - Oil spill in Gulf of Mexico 'could be worse than Exxon Valdez disaster' ... BP, Britain's largest corporation, which saw its share price tumble 6 per cent, was trying ..."
p9
aS'Apr 29, 2010 - accommodating employees of Exxon Mobil and Shell Oil and the welcoming people of Nigeria, who opened ..... exported from Nigeria, daily (BBC News, 2009). A Profile of ... the umbrella corporation for Exxon, Esso and Mobil Oil. Both Exxon ...'
p10
a.