(lp0
S'Apr 9, 2010 - We recognize that the protection of human health and the environment is a key concern for our customers and distributors. ... Our central resource for environmental health sciences is ExxonMobil Biomedical Sciences Inc. (EMBSI), where experts provide comprehensive support in:'
p1
aS'Apr 9, 2010 - Whether a customer is building a new plant or improving an existing facility, ExxonMobil Chemical is committed to providing priority support to its licensees ...'
p2
aS'Apr 8, 2010 - Sag Harbor officials and representatives of oil corporation Exxon Mobil are trying to determine the source of oil-laden water that began bubbling up from the ...'
p3
aS"Apr 8, 2010 - Take, for instance, Exxon Mobil, the nation's largest energy company, which reported $27 million in lobbying expenses in 2009 alone. Still, the WWE's history of ..."
p4
aS'Apr 8, 2010 - Get All the Offshore Magazine News Delivered to Your Inbox for free .... as part of the Baytown Complex Laboratory of ExxonMobil Refining Supply Company, ...'
p5
aS"Apr 8, 2010 - More Subsea News. > .... Results from these earlier phases persuaded the project's participants - ENI-Agip, Mobil North Sea, and Petrobras - to ..... exxon mobil"
p6
aS'Apr 9, 2010 - Metals USA Holdings Corp. dropped on the first day of trading after its initial public ... Chesapeake, second only to Exxon Mobil Corp. in gas production from U.S. ...'
p7
aS"Apr 9, 2010 - Exxon Mobil Corp., the world's second-largest company, agreed to its biggest acquisition in a decade in December with the $29.3 billion purchase of shale-gas ..."
p8
aS"Apr 9, 2010 - DOW JONES, A NEWS CORP COMPANY .... Couche-Tard has made a number of acquisitions in the U.S. A year ago, it agreed to buy Exxon Mobil Corp.'s XOM ..."
p9
aS'Apr 8, 2010 - As a corporation, ExxonMobil is committed to safe operations, making a positive, lasting impact on the community and environmental protection. In line with ...'
p10
a.