(lp0
S'May 10, 2010 - ExxonMobil Chemical Technology Licensing LLC (EMCTL) and ExxonMobil ... ExxonMobil Chemical Company, a division of Exxon Mobil Corporation, is a ...'
p1
aS'May 11, 2010 - Exxon Mobil Corp. and Royal Dutch Shell Plc are considering a sale of natural-gas ... for Shell, declined to comment when contacted by Bloomberg News today.'
p2
aS"May 10, 2010 - The ceremony took place on 29 April during ExxonMobil's Safety, Health, Environment and Security (SHES) symposium in Keppel Bay Drive in Singapore."
p3
aS"May 10, 2010 - Houston-based Anadarko Petroleum Corp. and the U.K.'s Tullow Oil PLC reported ... Super-major Exxon Mobil Corp. spent a quarter of its capital and exploration budget in Africa last ... News. Trump confuses 9/11 with convenience store chain ..."
p4
aS'May 10, 2010 - DOW JONES, A NEWS CORP COMPANY ..... This work is done for major oil producers such as BP, Chevron Corp. and Exxon Mobil Corp. XOM 0.50 ...'
p5
aS"May 10, 2010 - He is the CEO of Monsanto, possibly America's most feared corporation. ..... The good news was that when GAT and Roundup Ready 1 were stacked, they had a ..."
p6
aS"May 10, 2010 - He is the CEO of Monsanto, possibly America's most feared corporation. Monsanto dominates the agricultural biotechnology industry, whose audacious mission ..."
p7
aS'May 10, 2010 - Free Business profile for EXXONMOBIL CHEMICAL BRPO at 12875 Scenic Hwy, Baton Rouge, LA, 70807-1007, US. ... READ ALL COMPANY NEWS IN THE COMPLETE COMPANY CREDIT REPORT ... Corporate Transit of America.'
p8
aS"May 12, 2010 - WPI's ExxonMobil Bernard Harris Summer Camp encourages youth to ... of Exxon Mobil Corporation, was instrumental in bringing the Harris Camp to WPI."
p9
aS'May 12, 2010 - News & Info. Headlines ... IBM, International Business Machines Corporation, 149.30 Apr 21, Up ... XOM, Exxon Mobil Corporation, 86.79 Apr 21, Down ...'
p10
a.