(lp0
S'May 13, 2010 - IRVING, Texas, May 13, 2010 (BUSINESS WIRE) --Exxon Mobil Corporation (NYSE:XOM) announced today that Suzanne M. McCarron, General Manager, ...'
p1
aS'May 12, 2010 - Boeing Co. and Exxon Mobil Corp. are lobbying to fend off tightened sanctions against Iran that business groups say may cost $25 billion in U.S. exports.'
p2
aS'May 13, 2010 - 14th April 2016 - Bloomberg. May 13 (Bloomberg) -- Boeing Co. and Exxon Mobil Corp. are lobbying to fend off tightened sanctions against Iran that business ...'
p3
aS'May 13, 2010 - Hellenic Shipping News Worldwide - 17 hours ago ... Exxon Mobil Co. .... Premier Energy Corp., through its wholly owned subsidiary, KARBON, is engaged in ...'
p4
aS'May 12, 2010 - NEWS Hungary pushes energy program in upstream, downstream sectors .... Exploration is under way on areas awarded in 1994 to Mobil Corp., ..... as part of the Baytown Complex Laboratory of ExxonMobil Refining Supply Company, will be ...'
p5
aS'May 13, 2010 - News CVX Chevron Laying Off 1500 As Part Of Downstream Restructuring New York Stock ... SAN FRANCISCO -(Dow Jones)- U.S. oil major Chevron Corp. ... 04/13/2016, 11:10:00, Exxon Mobil CEO Tillerson Was Paid $27.3 Million for 2015.'
p6
aS"May 13, 2010 - Critics say Nalco, which formed a joint venture company with Exxon ... that manufactures Dispersit, U.S. Polychemical Corp., said BP asked for samples of his ... which eventually bought out Exxon Mobil's interest in the joint venture in 2001."
p7
aS'May 12, 2010 - Dallas Morning News Home ... Now called Six Flags Entertainment Corp., the parent emerged from bankruptcy this month, with its .... Exxon Mobil, XOM, 78.06.'
p8
aS'May 13, 2010 - By SHERYL JEAN / The Dallas Morning News sjean@dallasnews.com. Published: 13 May 2010 08:23 AM .... Exxon Mobil, XOM, 78.06. Fluor Corp. FLR, 41.35.'
p9
aS'May 13, 2010 - In the 2008 presidential primary season a small corporation, Citizens United, .... than of opinions reported mainly on public broadcasting news programs. .... of which had revenues of $5 billion (the top of the listExxon Mobilhad $443 ...'
p10
a.