(lp0
S'May 19, 2010 - ExxonMobil celebrates 90 years of chemicals, community ... In addition to cake and a history lesson, ExxonMobil employees and other Baytown leaders got to ... Posted in News on Wednesday, May 19, 2010 12:00 am. ... AIR SERV CORP.'
p1
aS'May 20, 2010 - More Details for Exxon Mobil Corporation ... With the latest News & Advice from Manta, you can stay ahead of the trends and challenges affecting your industry ...'
p2
aS'May 19, 2010 - Terry McPhail, president and general manager of ExxonMobil Oil Indonesia Inc., speaks at the 34th ... Get premium, high resolution news photos at Getty Images. ... News Photo Asia,Business,Corporate Business,Delivering,Economy,Finance ...'
p3
aS"May 20, 2010 - News ... His backers include Exxon Mobil Corp., which is paying millions for the company's efforts to produce a new generation of biofuels. His work over the ..."
p4
aS"May 19, 2010 - 7-Eleven Australia is close to acquiring most of Exxon Mobil Corp's local filling stations, the Australian newspaper reported on its website, without saying where it ..."
p5
aS"May 20, 2010 - Exxon Says `$25 Billion Rule' Will Sink Deepwater Oil Drilling ... U.S. plan to toughen offshore drilling rules that Exxon Mobil Corp. said will cost as much as $25 ..."
p6
aS'May 20, 2010 - Xerox Corp. has agreed to a $69 million settlement in response to the last of ... By VICTOR GODINEZ / The Dallas Morning News .... Exxon Mobil, XOM, 78.06.'
p7
aS'May 19, 2010 - Unlike traditional clay treating processes, the Olgone process uses a proprietary catalyst to achieve cycle lengths 4 to 6 times that of clay.'
p8
aS"May 20, 2010 - But with Marathon Oil Corp.'s plansas reported in a Morgan Keegan/CSP Daily News Flash yesterdayto sell a sizeable piece of its upper Midwest downstream ..."
p9
aS'May 20, 2010 - Home  News  Blogs  Making Waves; Deep Green: Cars, Corporations and Society ... Firestone Tires and Standard Oil (Exxon-Mobil), formed a holding company, ... It was a corporate scheme for monopoly, power and profit, preying on human ...'
p10
a.