(lp0
S'May 20, 2010 - More Details for Exxon Mobil Corporation ... With the latest News & Advice from Manta, you can stay ahead of the trends and challenges affecting your industry ...'
p1
aS'May 21, 2010 - The company has a $600 million contract with Exxon Mobil Corp. to design ... J. Craig Venter, chief executive officer of Synthetic Genomics Inc. Bloomberg News ...'
p2
aS'May 21, 2010 - Exxon Mobil Corp. and its predecessor eventually spent $2 billion to clean up the ... 1989 spill by the Exxon Valdez oil tanker, and $2.3 billion more for damaging ..... in Malaysia, he said in an interview carried by a government news agency.'
p3
aS"May 20, 2010 - News ... His backers include Exxon Mobil Corp., which is paying millions for the company's efforts to produce a new generation of biofuels. His work over the ..."
p4
aS'May 21, 2010 - CapRock supports a wide range of customers in the energy, maritime and government industries, including Chevron, Diamond Offshore, ExxonMobil, ...'
p5
aS'May 20, 2010 - Xerox Corp. has agreed to a $69 million settlement in response to the last of ... By VICTOR GODINEZ / The Dallas Morning News .... Exxon Mobil, XOM, 78.06.'
p6
aS'May 21, 2010 - Microsoft Corp. has sued Tyler-based RedOrbit Inc., accusing it of online ... RedOrbit.com offers science, tech and health news. .... Exxon Mobil, XOM, 78.06.'
p7
aS'May 21, 2010 - By KAREN ROBINSON-JACOBS / The Dallas Morning News krobinson@dallasnews. Published: 21 May .... Exxon Mobil, XOM, 78.06. Fluor Corp. FLR, 41.35.'
p8
aS'May 20, 2010 - Home  News  Blogs  Making Waves; Deep Green: Cars, Corporations and Society ... Firestone Tires and Standard Oil (Exxon-Mobil), formed a holding company, ... It was a corporate scheme for monopoly, power and profit, preying on human ...'
p9
aS"May 20, 2010 - But with Marathon Oil Corp.'s plansas reported in a Morgan Keegan/CSP Daily News Flash yesterdayto sell a sizeable piece of its upper Midwest downstream ..."
p10
a.