(lp0
S"May 24, 2010 - See Exxon Mobil Corp's current and forward price ratios like price to earnings, price to book, price to sales, and price to cashflow along with their industry ..."
p1
aS'May 24, 2010 - For big companies, bounding back from corporate scandal, financial ... Exxon, now Exxon Mobil, has long been criticized for reacting too slowly to the disaster it ...'
p2
aS'May 23, 2010 - Find us at any of the below events and see how ExxonMobil can help improve your productivity. Events by location: Americas 1 | Europe, Africa, and Middle East ...'
p3
aS"May 24, 2010 - Giving News ... ExxonMobil has given $1,002,329 to the University as a three-to-one match of gifts made by the company's ... This extraordinary gift is doubly meaningful to us, says Mark Blount, the University's director of corporate relations."
p4
aS'May 24, 2010 - 53, Chevron Corporation, 3, 2.30%. 54, Diageo, N.A., 2.27%. 55, Exxon Mobil Corporation, 2, 2.25%. 56, Anheuser-Busch ... 2016 Cable News Network. A Time ...'
p5
aS'May 24, 2010 - Environmental and LGBT groups will gather Wednesday morning outside the Meyerson Symphony Center in Dallas, during Irving-based ExxonMobil Corp.'
p6
aS'May 24, 2010 - Home  News  Shareholder Proposals at ExxonMobil, 2010 ... Shareholders of ExxonMobil Corp. will vote on eight resolutions concerning the environment, ...'
p7
aS'May 24, 2010 - In December, Exxon Mobil Corp. agreed to pay $41 billion in stock and .... is the founder and majority owner of Bloomberg LP, the parent of Bloomberg News.'
p8
aS"May 24, 2010 - ExxonMobil Corp. posted a 39% jump in earnings to $6.3 billion in the recent quarter. ... Frontier Oil Corp. reported a $40.3 million loss for this year's first quarter, as weak ... Get All the Oil and Gas Journal News Delivered to Your Inbox."
p9
aS'May 24, 2010 - ABC-TV World News on May 23 aired a story about how some leading climate .... ExxonMobil and Climate Change: A Story of Denial, Delay, and Delusion, Told ...'
p10
a.