(lp0
S'May 25, 2010 - IRVING, Texas--(BUSINESS WIRE)--Exxon Mobil Corporation (NYSE:XOM) today issued its 2009 Corporate Citizenship Report detailing actions to improve ...'
p1
aS"May 25, 2010 - Biesterfeld Plastic extends distribution agreement for ExxonMobil chemical ... have, therefore, been part of the company's continuous corporate growth for many"
p2
aS'May 25, 2010 - In its 2009 Corporate Citizenship Report released Tuesday, ExxonMobil announced it has reduced its greenhouse gas emissions by more than 2 percent last ...'
p3
aS"May 25, 2010 - Yet the leader of botched containment efforts in the critical hours after the tanker ran aground wasn't Exxon Mobil Corp. It was BP PLC, the same firm now ..."
p4
aS'May 24, 2010 - For big companies, bounding back from corporate scandal, financial ... Exxon, now Exxon Mobil, has long been criticized for reacting too slowly to the disaster it ...'
p5
aS'May 25, 2010 - Exxon Mobil Corporation (NYSE:XOM) emiti hoy su informe de ciudadana corporativa 2009 que detalla las medidas para mejorar el desempe&.'
p6
aS"May 24, 2010 - Giving News ... ExxonMobil has given $1,002,329 to the University as a three-to-one match of gifts made by the company's ... This extraordinary gift is doubly meaningful to us, says Mark Blount, the University's director of corporate relations."
p7
aS'May 24, 2010 - 53, Chevron Corporation, 3, 2.30%. 54, Diageo, N.A., 2.27%. 55, Exxon Mobil Corporation, 2, 2.25%. 56, Anheuser-Busch ... 2016 Cable News Network. A Time ...'
p8
aS'May 24, 2010 - Environmental and LGBT groups will gather Wednesday morning outside the Meyerson Symphony Center in Dallas, during Irving-based ExxonMobil Corp.'
p9
aS'May 24, 2010 - In December, Exxon Mobil Corp. agreed to pay $41 billion in stock and .... is the founder and majority owner of Bloomberg LP, the parent of Bloomberg News.'
p10
a.