(lp0
S'May 3, 2010 - The Exxon Valdez spill in 1989 ended up costing ExxonMobil more than $4.3 billion, and has become firmly embedded in popular culture as a metaphor for ...'
p1
aS"May 3, 2010 - There is no effect on production at Exxon Mobil Corp. facilities in the Gulf of Mexico, said ... At that rate, the volume of the spill would exceed Alaska's 1989 Exxon ..."
p2
aS'May 2, 2010 - Nomac Drilling Corp. derrick man Justin Spruell, right, climbs down from an .... Chesapeake, second only to Exxon Mobil Corp. in gas production from U.S. fields, ...'
p3
aS"May 3, 2010 - ... join the ranks of all-time corporate villains, a list that includes fellow oil giant Exxon Mobil, ... BP's brand won't fall because corporate marketers never should have ... Brand News: Coke Zero Rebrand, PepsiCo Shift, Delivery Wars and More ..."
p4
aS'May 3, 2010 - Spill may exceed Exxon Valdez within days  not weeks ... It will be the biggest energy and environmental news story for the foreseeable future. ... such as BP, ExxonMobil Corp. and Royal Dutch Shell PLC on tracking and measuring oil spills ...'
p5
aS"May 2, 2010 - ... could seek to reclaim any damages from Cameron International Corp, the supplier of the ... Exxon Mobil was hit with $5 billion in punitive damages after the its tanker Valdez ... The award was based on the fact Exxon had not taken due care when it ... Thomson Reuters is the world's largest international multimedia news ..."
p6
aS'May 3, 2010 - By MARIA HALKIAS / The Dallas Morning News mhalkias@dallasnews.com. Published: 03 May 2010 10:57 .... Exxon Mobil, XOM, 78.06. Fluor Corp. FLR, 41.35.'
p7
aS'May 3, 2010 - After the Exxon Valdez spill, an Alaska jury demanded $5 billion in punitive damages from Exxon ... J.P. Morgan, to protect itself in turn from an eventual default by Exxon, came up with a novel ... More News from MarketWatch ... Chinese investors dump U.S. stocks, but corporate buybacks offset losses ... Exxon Mobil Corp.'
p8
aS"May 3, 2010 - It was drilled to 30,067 ft and abandoned in 2006 by ExxonMobil. ... represents a market value for the news of $602 million for MMR's 32.7% working interest. ..... Pason Systems Corp. knows a thing or two about information and intelligence."
p9
aS'May 4, 2010 - As revealed by Brad Friedman and Desi Doyen in their Green News Report, ..... ExxonMobil made $45B in profit last year) then actual scientists running on ...'
p10
a.