(lp0
S"May 4, 2010 - Co-op News ... A recent ExxonMobil advertorial on its oil products features a North Carolina co-op's truck fleet. (Photo By: ExxonMobil). Related Content. The truck fleet of Union Power Cooperative was picture-perfect for ExxonMobil Corp., ..."
p1
aS'May 5, 2010 - home  news  careers  contact us ... As part of its commitment to corporate citizenship and its continued support of Qatarization, ExxonMobil ... ExxonMobil Qatar Inc. (EMQI) is a subsidiary of Exxon Mobil Corporation and is the interface point ...'
p2
aS'May 5, 2010 - Oil companies including Exxon Mobil Corp and China Petroleum and Chemical Corp ... Exxon in early March became the first major U.S. oil company to ship ...'
p3
aS'May 5, 2010 - Cairn Energy Plc is betting $400 million this year on striking oil off Greenland, a campaign that will be closely watched by producers such as Exxon Mobil Corp.'
p4
aS'May 5, 2010 - Trader Take: Comparing BP Gulf Oil Spill to Exxon Valdez (BP, XOM) ... and the share price move to the share and market price move of Exxon Mobil Corp. ... For starters, we have many more active traders than we used to chasing news faster.'
p5
aS'May 4, 2010 - ExxonMobil Libya Limited and Noble North Africa Limited; Arbitration in Houston, Texas ... Davis Petroleum Corporation; Arbitration before the American Arbitration ... News. February 24 2016. Hicks Thomas Sues on Behalf of Cowboy Seeking ...'
p6
aS"May 5, 2010 - NEWS CLASSIFIEDS JOBS LEGALS CALENDAR ... The journey of plastic production, from Mobil Oil to Berry Plastics ... It's precisely that ubiquity that brought Covington one of its first large non-textile industries: the Mobil Oil Corporation. ... according to the website of ExxonMobil, today's latest version of the oil giant."
p7
aS'May 4, 2010 - Energy Future Holdings Corp. had a first-quarter profit of $355 million, down from a gain of $442 ... Dallas Morning News Home .... Exxon Mobil, XOM, 78.06.'
p8
aS'May 5, 2010 - ... deadbut what makes the catastrophe even more revolting is the news now ... 2001] shows that officials from Exxon Mobil Corp., Conoco (before its merger ...'
p9
aS"May 4, 2010 - ... forecasts and Exxon Mobil (XOM, Fortune 500) has a price-to-earnings ratio of 11. ... And it's much harder to quantify what a series of negative news stories and .... The company said the layoffs will primarily affect corporate and regional ..."
p10
a.