(lp0
S'May 5, 2010 - home  news  careers  contact us ... As part of its commitment to corporate citizenship and its continued support of Qatarization, ExxonMobil ... ExxonMobil Qatar Inc. (EMQI) is a subsidiary of Exxon Mobil Corporation and is the interface point ...'
p1
aS'May 5, 2010 - Oil companies including Exxon Mobil Corp and China Petroleum and Chemical Corp ... Exxon in early March became the first major U.S. oil company to ship ...'
p2
aS'May 5, 2010 - Cairn Energy Plc is betting $400 million this year on striking oil off Greenland, a campaign that will be closely watched by producers such as Exxon Mobil Corp.'
p3
aS'May 6, 2010 - ... oil spill in the Gulf of Mexico has made BP (BP) the corporate villain du jour. ... BP seems to have learned a lesson from Exxon, now Exxon Mobil (XOM), ...'
p4
aS'May 5, 2010 - Trader Take: Comparing BP Gulf Oil Spill to Exxon Valdez (BP, XOM) ... and the share price move to the share and market price move of Exxon Mobil Corp. ... For starters, we have many more active traders than we used to chasing news faster.'
p5
aS"May 6, 2010 - Top news galleries ... Did Palin distort her role in the Exxon Valdez lawsuit? ... the private litigants' civil case against Exxon and its successor, Exxon Mobil Corp."
p6
aS'May 6, 2010 - More Gulf Coast news reports about ocean oil spill, environment issues, cleanup ... Exxon, now known as Exxon Mobil Corp., ultimately paid $3.8 billion in ...'
p7
aS"May 5, 2010 - NEWS CLASSIFIEDS JOBS LEGALS CALENDAR ... The journey of plastic production, from Mobil Oil to Berry Plastics ... It's precisely that ubiquity that brought Covington one of its first large non-textile industries: the Mobil Oil Corporation. ... according to the website of ExxonMobil, today's latest version of the oil giant."
p8
aS'May 6, 2010 - The only news organization in the US to be labeled a threat by the ... For years, the oil industry, and especially its largest company, Exxon Mobil, has been ... Indeed, arguably, they may see it as in their corporate interest to hasten the pace of ...'
p9
aS'May 5, 2010 - ... deadbut what makes the catastrophe even more revolting is the news now ... 2001] shows that officials from Exxon Mobil Corp., Conoco (before its merger ...'
p10
a.