(lp0
S"Jun 10, 2010 - Exxon, now Exxon Mobil Corp., declined to comment on how it approached the ... BP's spill occurred in the world of 24/7 news, blogs, tweets, status updates and ..."
p1
aS"Jun 10, 2010 - ExxonMobil Corp. said its enhanced oil recovery project at Malaysia's Tapis field will start in ... Get All the Oil and Gas Journal News Delivered to Your Inbox."
p2
aS"Jun 9, 2010 - Exxon Mobil Corp (XOM. ... Exxon, Petronas to lift Tapis oil output in 2013 ... In 2008, subsidiary ExxonMobil Exploration and Production Malaysia Inc signed a ... Thomson Reuters is the world's largest international multimedia news agency, ..."
p3
aS'Jun 9, 2010 - mobil-mystik-mcp. Menu. Home  About .... Mobil News. Exxon Mobil Corporation Declares Fourth Quarter Dividend. Wed, Oct 28, 2015. ExxonMobil says ...'
p4
aS'Jun 10, 2010 - ... it is not some bloodless corporation," said one of Britain\'s top fund managers. .... The world\'s largest privately owned petroleum company Exxon Mobil, ... It just that the market was willing to ignore it until this SPILL showed up on the 24 news ...'
p5
aS'Jun 10, 2010 - The nonprofit and its corporate partner, now a division of Honeywell International ... House Majority Whip Steve Scalise listens during a news conference at the U.S. ... Exxon Mobil Corp., Chevron, Anadarko Petroleum Corp. and other oil ...'
p6
aS"Jun 10, 2010 - ... investors in the corporation responsible for it have stepped up their exodus. ... Brinker said it's unlikely another western oil company, such as Exxon Mobil or ..."
p7
aS'Jun 11, 2010 - CSPnet.com - Convenience Store News .... based Florida Sunshine Investmentsa corporation owned by billionaire Jeff GreeneSunshine [image-nocss] Energy ...'
p8
aS'Jun 10, 2010 - Home  News  Communities ... By ERIC TORBENSON / The Dallas Morning News etorbenson@dallasnews.com .... Exxon Mobil, XOM, 78.06. Fluor Corp.'
p9
aS'Corporate Social Responsibility News: Canada Holds CSR Meetings for Mining, Oil, and Gas Companies ...'
p10
a.