(lp0
S"Jun 10, 2010 - Exxon, now Exxon Mobil Corp., declined to comment on how it approached the ... BP's spill occurred in the world of 24/7 news, blogs, tweets, status updates and ..."
p1
aS"Jun 10, 2010 - ExxonMobil Corp. said its enhanced oil recovery project at Malaysia's Tapis field will start in ... Get All the Oil and Gas Journal News Delivered to Your Inbox."
p2
aS'Jun 10, 2010 - ... it is not some bloodless corporation," said one of Britain\'s top fund managers. .... The world\'s largest privately owned petroleum company Exxon Mobil, ... It just that the market was willing to ignore it until this SPILL showed up on the 24 news ...'
p3
aS'Jun 11, 2010 - DOW JONES, A NEWS CORP COMPANY .... Now it\'s become the center of our community," says Glendon Breedy, a former Exxon Mobil Corp. executive who ...'
p4
aS'Jun 11, 2010 - This report has been compiled using company-related news and data from the RepRisk tool, which captured ... RepRisk Index): Transocean, BP, ExxonMobil, Shell, and Chevron. ... chain managers, and corporate responsibility experts.'
p5
aS'Jun 10, 2010 - The nonprofit and its corporate partner, now a division of Honeywell International ... House Majority Whip Steve Scalise listens during a news conference at the U.S. ... Exxon Mobil Corp., Chevron, Anadarko Petroleum Corp. and other oil ...'
p6
aS"Jun 10, 2010 - ... investors in the corporation responsible for it have stepped up their exodus. ... Brinker said it's unlikely another western oil company, such as Exxon Mobil or ..."
p7
aS'Jun 12, 2010 - home  news  careers  contact us. English | . Global  ExxonMobil Chemical  products & ..... Copyright 2015 Exxon Mobil Corporation. All Rights ...'
p8
aS'Jun 11, 2010 - CSPnet.com - Convenience Store News .... based Florida Sunshine Investmentsa corporation owned by billionaire Jeff GreeneSunshine [image-nocss] Energy ...'
p9
aS'Corporate Social Responsibility News: Canada Holds CSR Meetings for Mining, Oil, and Gas Companies ...'
p10
a.