(lp0
S"Jun 14, 2010 - For nearly 30 years, we've had the honor of investing in high school students and their work in communities across the country, said Robert Lanyon, corporate ..."
p1
aS'Jun 15, 2010 - Wrong habitat: ExxonMobil comes under fire for including walruses in their oil spill contingency plans Photo: Wrong habitat: ExxonMobil comes under fire for ...'
p2
aS'Jun 15, 2010 - But ExxonMobil and ConocoPhillips rejected the terms and Venezuela then ... On Thursday, the ICSID Tribunal concluded it had no jurisdiction over the claims of Mobil Corporation. ... Donate  Donate and support independent news & analysis ...'
p3
aS'Jun 15, 2010 - Get premium, high resolution news photos at Getty Images. ... Exxon Mobil Corp., ConocoPhillips, Chevron Corp. and Royal Dutch Shell Plc are as ill-prepared ...'
p4
aS'Jun 15, 2010 - ... by Exxon Mobil Corp. He said Exxon Mobil, Chevron Corp. .... MANCHESTER EVENING NEWS ARTICLE: Fears for Shell: 30 Dec 2007  FINANCIAL TIMES ...'
p5
aS'Jun 15, 2010 - The Rockefeller Group purchased the 268-acre Exxon-Mobil property in 2000 ... due to incompetent business decisions made at the corporate level) , freezes the ... From local news to politics to entertainment and sports, the twice daily Right ...'
p6
aS"Jun 15, 2010 - Several E&P companies, including Canada's Encana Corp. are moving ... Exxon Mobil Corp. has completed its $41 billion acquisition of XTO Energy ... and CEO of ExxonMobil, said this conclusion of the agreement is good news for the US."
p7
aS'Jun 15, 2010 - By Dan Farber CBS News June 15, 2010, 5:46 PM ... The worldwide hunger for oil and corporate profits (profits in the five oil companies increased ... It would appear that BP, ExxonMobil, Chevron, ConocoPhillips and Shell Oil are cutting some ...'
p8
aS'Jun 15, 2010 - Nightly News | June 15, 2010 ... Mr. REX TILLERSON (ExxonMobil Corporation Chairman and CEO): I refer... Representative EDWARD MARKEY (Democrat, ...'
p9
aS'Jun 15, 2010 - The oil disaster in the Gulf of Mexico is a corporate crime whose magnitude almost ... Exxon Mobil, Union Carbide and a myriad of other corporate criminals.'
p10
a.