(lp0
S'Jun 16, 2010 - WASHINGTONTop executives from Exxon Mobil Corp., Chevron Corp. ... The finger-pointing came hours before news that the oil spill was even worse than ...'
p1
aS'Jun 16, 2010 - Exxonmobil Oil Corporation ... More Details for Exxon Mobil ... With the latest News & Advice from Manta, you can stay ahead of the trends and challenges ...'
p2
aS"Jun 17, 2010 - That's the equivalent of one Exxon Valdez spill every year for 40 years, according ... The government has threatened Exxon Mobil with sanctions if the corporation fails to manage spills properly, ... AFP via Google hosted news, June 15, 2010."
p3
aS"Jun 17, 2010 - BP's corporate complacency is astonishing. ... When a Gulf well known as Blackbeard threatened to blow out in 2006, Exxon Mobil Corp. ... Bloomberg News."
p4
aS'Jun 16, 2010 - ... John S. Watson of Chevron, and Rex W. Tillerson of Exxon Mobil. ... the leaders of Exxon Mobil, Chevron, Shell and ConocoPhillips insisted at a .... NEWS ANALYSIS ... Email Newsletters  Alerts  Gift Subscriptions  Corporate Subscriptions ...'
p5
aS'Jun 17, 2010 - ... Corporation (HMDC), composed of Mobil, Chevron, PetroCanada, Murphy Atlantic .... Get All the Offshore Magazine News Delivered to Your Inbox for free ... Exxon Mobil Corp. has started oil production at the Julia field in the deepwater Gulf ...'
p6
aS'Jun 17, 2010 - Get All the Offshore Magazine News Delivered to Your Inbox for free ... Exxon Mobil Corp. has started oil production at the Julia field in the deepwater Gulf of ...'
p7
aS'Jun 16, 2010 - "While Exxon Mobil has 40 pages on its media response strategy, its plan for ... about global warning and the Exxon Valdez spill to corporate headquarters.'
p8
aS'Jun 16, 2010 - "We do not proceed with operations if we cannot do so safely," ExxonMobil boss Rex ... The BBC News website will provide live coverage of Barack Obama\'s ...'
p9
aS'Jun 17, 2010 - All the news that matters and nothing more - in our free daily iPhone app ... One of the more recent spills occurred on May 1 when an ExxonMobil pipeline in ... of ExxonMobil, told the US Congress on Tuesday that his corporation would have ...'
p10
a.