(lp0
S'Jun 19, 2010 - Careers  Investors  News; Select countryGlobal_selector_abbreviation ..... Careers  Contact us  Investors  News and updates  Perspectives blog.'
p1
aS'Jun 18, 2010 - Laura Keller, Exxon Mobil Corp. Robert Nolan, Exxon Mobil Corp. Dianne Poster, CEQ. Elissa Sterry, Exxon Mobil Corp. Worh Jennings, Exxon Mobil Corp.'
p2
aS"Jun 17, 2010 - That's the equivalent of one Exxon Valdez spill every year for 40 years, according ... The government has threatened Exxon Mobil with sanctions if the corporation fails to manage spills properly, ... AFP via Google hosted news, June 15, 2010."
p3
aS"Jun 18, 2010 - After Exxon merged with Mobil Corporation, Halsey became Exxon Mobil Corporation's manager for the capital markets division of the Treasurer's Department."
p4
aS"Jun 17, 2010 - BP's corporate complacency is astonishing. ... When a Gulf well known as Blackbeard threatened to blow out in 2006, Exxon Mobil Corp. ... Bloomberg News."
p5
aS'Jun 18, 2010 - "Recently, series underwriters Chevron and ExxonMobil have chosen to ... And PBS does seem to have its share of corporate underwriters who have been in the public spotlight. ... These companies are infamous for shutting down real news.'
p6
aS'Jun 18, 2010 - DOW JONES, A NEWS CORP COMPANY ..... The total cost to Exxon was $3.8 [billion], including compensatory payments, cleanup payments, settlements and ...'
p7
aS'Jun 17, 2010 - Get All the Offshore Magazine News Delivered to Your Inbox for free ... Exxon Mobil Corp. has started oil production at the Julia field in the deepwater Gulf of ...'
p8
aS'Jun 19, 2010 - home  news  careers  contact us. English | . Global  ExxonMobil Chemical  products & ..... Copyright 2015 Exxon Mobil Corporation. All Rights ...'
p9
aS'Jun 18, 2010 - Title: Forced Transparency: Corporate Image on Wikipedia and What it Means for ... articles for Wal-Mart, Exxon Mobil, General Motors, Ford, General Electric, Chevron, ... provided to reporters through the subsidy of corporate news releases.'
p10
a.