(lp0
S'Jun 1, 2010 - ExxonMobil Foundation is the primary philanthropic arm of Exxon Mobil Corporation in the United States. The Foundation and the Corporation engage in a ...'
p1
aS'Jun 1, 2010 - Natural Resources News Service | Leave a Comment! ... donations from the energy sector  including donors like Exxon Mobil Corp., Chesapeake Energy Corp., ...'
p2
aS'Jun 1, 2010 - "ExxonMobil has had a long-term commitment to science and mathematics ... Foundation is the primary philanthropic arm of Exxon Mobil Corp. in the US. ... Get All the Oil & Gas Financial Journal News Delivered to Your Inbox for free.'
p3
aS'Jun 1, 2010 - The study was funded primarily by a grant from the Exxon Mobil Corp. ... To automatically receive news releases from UT Southwestern via e-mail, subscribe at'
p4
aS'Jun 1, 2010 - There are now between 500 and 600 people, including staff from Exxon, Shell, .... Reuters asked him how he was coping with the blanket news coverage and ... to a takeover bid by Shell or Exxon Mobil Corp, a move that industry executives ...'
p5
aS'Jun 1, 2010 - Adobe Corporation: 1971, 1972, 1973, 1974, 1975, 1977 (2), 1978, 1980, 1983, 1985, 1989.  Amerada Hess: ... Shareholder News: June 1975 ... Exxon  Exxon/Mobil: 1973, 1974, 1975, 1976, 1977, 1978 (2), 1979, 1980, 1981 (2), 1982.'
p6
aS'Jun 1, 2010 - There is a long and awkward history of corporate leaders saying the wrong thing when ... ExxonMobil, in contrast, has had just one.) ... But Hayward is not alone in his manful struggle to spin the news in the face of daunting factual evidence.'
p7
aS'May 31, 2010 - ... in the energy sector as an Independent Consultant and with firms such as Wolverine Exploration and Mobil Corp. ... Latest News ... Exxon Mobil Corporation.'
p8
aS"Jun 1, 2010 - Challenging corporate EEO policies or executive compensation by proxy isn't new, but ... Take ExxonMobil's recent shareholder resolution to add sexual orientation and .... News from an inclusive perspective; Top 50 company best practices ..."
p9
aS"Jun 1, 2010 - For the Dallas-Fort Worth area, the news wasn't great. ... As the Great Recession put the kibosh on a good deal of corporate and .... Exxon Mobil, XOM, 78.06."
p10
a.