(lp0
S"Jun 22, 2010 - Exxon Mobil Corp. had spent $180 million by 2006 trying to drill the world's ... As Exxon's corporate safety program manager, Glenn Murray oversees the oil ... By ELIZABETH SOUDER / The Dallas Morning News esouder@dallasnews.com."
p1
aS"Jun 22, 2010 - That is the section on corporate responsibility -- and, specifically, senior executives ... oil CEOS started with a cadre of heavyweights from Exxon Mobil (XOM - Get Report), ... Access to Jim Cramer's daily blog; Intraday commentary and news ..."
p2
aS'Jun 23, 2010 - Get All the Offshore Magazine News Delivered to Your Inbox for free ... the installation of subsea mooring connectors for Anadarko Petroleum Corp. .... as part of the Baytown Complex Laboratory of ExxonMobil Refining Supply Company, will ...'
p3
aS"Jun 21, 2010 - Perzel resigned from the corporation's board In November 2009, following an indictment ... the Koch Foundation, Exxon Mobil, Blue Cross and Blue Shield, Boeing, Wal-Mart and Rupert Murdoch's News Corporation, to name just a few."
p4
aS'Jun 21, 2010 - More News From Greenwire .... Exxon Mobil Corp. cited the MSDS documents in fending off a stockholder proposal demanding more information about ...'
p5
aS'Jun 22, 2010 - S&P 100 & 500 constituent Exxon Mobil Inc. (NYSE: XOM) is acquiring XTO Energy in a deal expected to be completed on or about that date, pending final ...'
p6
aS"Jun 22, 2010 - When I read updates on blogs or the news about the BP oil spill, my ... well the way they did, said Rex W. Tillerson, chief executive of Exxon Mobil. .... It's too easy to make this accident out to be a huge mistake made by greedy corporate white ..."
p7
aS'Jun 22, 2010 - Daily news for the downstream oil and gas industry providing coverage of events in the ... a subsidiary of China North Industries Group Corporation (CNGC), has been given ... Exxon Mobil Exports First Cargo of Offshore Gulf of Mexico Crude.'
p8
aS"Jun 22, 2010 - OEC News 1 .... Homer is aided by Tournament Directors Louis Jones, Hess, Corp., .... The model of ExxonMobil's Kizomba B floating production, storage and ..."
p9
aS'Jun 22, 2010 - ... engineer and safety officer for the Humble Oil Company, now known as ExxonMobil Corporation. ... Published in Pensacola News Journal on June 22, 2010.'
p10
a.