(lp0
S'Jun 25, 2010 - ... officer of ExxonMobil, said this conclusion of the agreement is good news for the United States as it will help ... Copyright 2003-2016 Exxon Mobil Corporation.'
p1
aS'Jun 25, 2010 - Exxon Mobil Corp. completed its purchase of XTO Energy Inc. on Friday and ... By ELIZABETH SOUDER / The Dallas Morning News esouder@dallasnews.com.'
p2
aS"Jun 24, 2010 - ... (Uppy's) and 170 convenience stores/fuel stations from the Exxon Mobil Corporation (NYSE: XOM). ... As a result of the transaction, MACS will be the largest ExxonMobil fuel marketer in ... Uppy's features such brands as ExxonMobil, Dairy Queen, Subway and Noble Roman Pizza. ... The news you need, when you need it."
p3
aS'Jun 24, 2010 - XTO Energy Senior Debt And CP Rtgs Raised, CCR Withdrawn On Acquistion By ExxonMobil --U.S.-based integrated energy company ExxonMobil Corp.'
p4
aS'Jun 24, 2010 - Ambani agreed in April to pay Atlas Energy Inc. $1.7 billion for shale assets in Pennsylvania, joining Royal Dutch Shell Plc, BP Plc and Exxon Mobil Corp. in ...'
p5
aS'Jun 26, 2010 - Overview of the products and services offered by ExxonMobil Chemical Licensing.'
p6
aS'Jun 24, 2010 - DOW JONES, A NEWS CORP COMPANY. News Corp is a network of ..... House lawmakers accused BP, Exxon Mobil Corp. XOM 1.24 % , Chevron Corp.'
p7
aS"Jun 24, 2010 - More News From Greenwire ... At the time of the spill, BP was a finalist for the agency's SAFE award, along with Eni US Operating Co. and Exxon Mobil Corp."
p8
aS'Jun 24, 2010 - ExxonMobil is the largest non-pharmaceutical corporate donor to malaria research and development efforts, and since 2000 has committed $193 million to ...'
p9
aS'Jun 26, 2010 - Crane Energy Flow Solutions Department of Homeland Security Energy Alloys Excelerate Energy Exxon Mobil Huntsman Corp. Lexicon Pharmaceuticals, Inc'
p10
a.