(lp0
S"Jun 28, 2010 - BOSTON - ExxonMobil Corporation and two affiliates will pay a $2.9 million civil penalty to resolve allegations that the company violated the state's air pollution ..."
p1
aS'Jun 28, 2010 - The U.S. oil giant ExxonMobil Corp. ... Moreover, the merger undoubtedly brings good news for Americans as it is a step forward in the production of more clean ...'
p2
aS'Jun 28, 2010 - The judgment, filed Monday in Suffolk Superior Court, requires ExxonMobil to reduce gasoline vapor ... BOSTON (AP)  The Massachusetts attorney general says ExxonMobil Corp. and two affiliates have agreed ... Breaking News newsletter.'
p3
aS'Jun 28, 2010 - Careers  Investors  News; Select countryGlobal_selector_abbreviation ..... Careers  Contact us  Investors  News and updates  Perspectives blog.'
p4
aS'Jun 27, 2010 - The oil giant has nothing on United Fruit, Union Carbide, and other corporate .... to become little firms called Mobil, Exxon, Chevron, and Amoco, among others.'
p5
aS'Jun 28, 2010 - The 1989 Exxon Valdez oil spill gave rise to the corporate social responsibility movement. The BP oil disaster may mark its collapse.'
p6
aS'Jun 27, 2010 - Dallas, TX News - View Daily Local Business News, Resources & more in ... Irving-based Exxon Mobil Corp. announced in December a deal to buy XTO for $31 ...'
p7
aS'Jun 27, 2010 - The awesome news is our sales [of speaker placements] are up 49 percent ... Qualcomm, Monsanto, Gilead Sciences, Exxon Mobil, Cisco and Macerich. ... Corporate buyers beefed up their acquisition teams to deploy their mountains of cash.'
p8
aS"Jun 28, 2010 - News & Events ... The upgrade reflects ExxonMobil's full and unconditional guarantee of XTO's ... Exxon Mobil Corporation is headquartered in Irving, Texas."
p9
aS"Jun 28, 2010 - 94 in the nation in a U.S. News & World Report 2010 survey. .... outperform peers in Europe and the U.S. The world's five biggest oil majors -- Exxon Mobil Corp., ..."
p10
a.