(lp0
S"Jun 28, 2010 - BOSTON - ExxonMobil Corporation and two affiliates will pay a $2.9 million civil penalty to resolve allegations that the company violated the state's air pollution ..."
p1
aS'Jun 28, 2010 - The U.S. oil giant ExxonMobil Corp. ... Moreover, the merger undoubtedly brings good news for Americans as it is a step forward in the production of more clean ...'
p2
aS'Jun 28, 2010 - The judgment, filed Monday in Suffolk Superior Court, requires ExxonMobil to reduce gasoline vapor ... BOSTON (AP)  The Massachusetts attorney general says ExxonMobil Corp. and two affiliates have agreed ... Breaking News newsletter.'
p3
aS"Jun 29, 2010 - Photo: Exxon Mobil Corp Chairman and CEO Rex W. Tillerson speaks at a news conference in Dallas last year, where he sought to defend the company's record ..."
p4
aS'Jun 28, 2010 - The 1989 Exxon Valdez oil spill gave rise to the corporate social responsibility movement. The BP oil disaster may mark its collapse.'
p5
aS'Jun 29, 2010 - Exxon Mobil Corp. and Royal Dutch Shell Plc may consider bidding for BP Plc after the London-based oil company lost more than half of its market value in the ...'
p6
aS"Jun 28, 2010 - 94 in the nation in a U.S. News & World Report 2010 survey. .... outperform peers in Europe and the U.S. The world's five biggest oil majors -- Exxon Mobil Corp., ..."
p7
aS"Jun 28, 2010 - News & Events ... The upgrade reflects ExxonMobil's full and unconditional guarantee of XTO's ... Exxon Mobil Corporation is headquartered in Irving, Texas."
p8
aS'Jun 28, 2010 - Dallas-based Capital Senior Living Corp. said Monday it will acquire all of Signature Assisted Living ... Dallas Morning News Home .... Exxon Mobil, XOM, 78.06.'
p9
aS'Jun 28, 2010 - Eaton Corporation featured company in Wall Street Transcript. June 28, 2010 ... Related News. CytoSorbents ... Exxon Mobil Corporation. AT&amp;T Inc.'
p10
a.