(lp0
S'Jun 2, 2010 - Microsoft Corp. co-founder Bill Gates and Venrock Associates, the ... Exxon Mobil Corp. threw its weight behind algae in July 2009. The oil .... Bloomberg News.'
p1
aS'Jun 1, 2010 - ExxonMobil Foundation is the primary philanthropic arm of Exxon Mobil Corporation in the United States. The Foundation and the Corporation engage in a ...'
p2
aS"Jun 2, 2010 - How the share prices of BP and Exxon have fared after big oil spills. ... that is also implicated in the Gulf of Mexico spill, fell sharply on the news. This contrasts with the price of ExxonMobil's stock in the weeks following the Exxon Valdez spill ... The Economist Intelligence Unit Store  The Economist Corporate Network  Ideas ..."
p3
aS'Jun 2, 2010 - Get detailed financial information on President Chain Store Corporation (TPE:2912) including real-time stock quotes, historical charts & financial news, all for free! ... Lowry: The outrageous campaign against Exxon Mobil. Salt Lake Tribune ...'
p4
aS'Jun 2, 2010 - QUOTE AND NEWS ... A unit of Philippine-based Petron Corp has further extended the acceptance of its takeover ... Malaysia: No application from ExxonMobil.'
p5
aS'Jun 1, 2010 - "ExxonMobil has had a long-term commitment to science and mathematics ... Foundation is the primary philanthropic arm of Exxon Mobil Corp. in the US. ... Get All the Oil & Gas Financial Journal News Delivered to Your Inbox for free.'
p6
aS'Jun 1, 2010 - Natural Resources News Service ... sector  including donors like Exxon Mobil Corp., Chesapeake Energy Corp., and the Independent Oil and Gas Association ...'
p7
aS'Jun 1, 2010 - The study was funded primarily by a grant from the Exxon Mobil Corp. ... To automatically receive news releases from UT Southwestern via e-mail, subscribe at'
p8
aS'Jun 1, 2010 - There are now between 500 and 600 people, including staff from Exxon, Shell, .... Reuters asked him how he was coping with the blanket news coverage and ... to a takeover bid by Shell or Exxon Mobil Corp, a move that industry executives ...'
p9
aS'Jun 2, 2010 - Reliance is restoring a project originally slated to start in 2011 as refiners, including Exxon Mobil Corp., Royal Dutch Shell Plc and Saudi Basic Industries Corp., ...'
p10
a.