(lp0
S'Jul 1, 2010 - Motor oils. Explore our full range of advanced motor oils from Mobil 1, Mobil Super and Mobil Delvac. Careers  Contact us  Investors  News and updates ...'
p1
aS'Jul 1, 2010 - Careers  Investors  News; Select countryGlobal_selector_abbreviation ..... Careers  Contact us  Investors  News and updates  Perspectives blog.'
p2
aS'Jul 1, 2010 - Careers  Investors  News; Select countryGlobal_selector_abbreviation ..... Careers  Contact us  Investors  News and updates  Perspectives blog.'
p3
aS"Jun 29, 2010 - Photo: Exxon Mobil Corp Chairman and CEO Rex W. Tillerson speaks at a news conference in Dallas last year, where he sought to defend the company's record ..."
p4
aS'Jun 30, 2010 - ExxonMobil and two affiliates have agreed to pay the state of Massachusetts a $2.9 ... States Investigate Exxon, Launch Corporate Climate Fraud Crackdown ... Join 100,000+ subscribers who gain a competitive advantage with our news and ...'
p5
aS'Jun 29, 2010 - Exxon Mobil Corp. and Royal Dutch Shell Plc may consider bidding for BP Plc after the London-based oil company lost more than half of its market value in the ...'
p6
aS'Jun 30, 2010 - Novick, who had worked with Fink at New York-based First Boston Corp., came ... plan to toughen offshore drilling rules that Exxon Mobil Corp. said will cost as ...'
p7
aS"Jun 30, 2010 - After all, many BP filling stations are actually owned by local people, not the corporation itself. Besides, when you're filling up at a Shell or ExxonMobil station, ..."
p8
aS'Jul 1, 2010 - Use our Station Locator or our handy Fuel Finder App for iOS or Android to locate your nearest Exxon or Mobil gas station anywhere in the country.'
p9
aS'Jul 1, 2010 - mobil-mystik-mcp. Menu. Home  About ... Mobil News. Exxon Mobil Corporation Declares Fourth Quarter Dividend. Wed, Oct 28, 2015. ExxonMobil says Climate ...'
p10
a.