(lp0
S"Jun 3, 2010 - Exxon Mobil's website is interesting for a number of reasons. The first is that it has one of the most comprehensive corporate News sections on the web."
p1
aS'Jun 3, 2010 - Sierra Club\'s ties to BP also escaped the notice of CBS "Morning News" on April 29, ... lead to better corporate environmental policies and less damage to the planet." ... According to MSNBC.com, ExxonMobil stopped funding CEI in 2006.'
p2
aS'Jun 3, 2010 - Compared, for example, to how Exxon handled itself with the Valdez spill, BP\'s ... "The more you posture yourself as a good corporate citizen, the more people expect ... Exxon also has the safety net of keeping the Mobil brand attached to it.'
p3
aS'Jun 3, 2010 - Walter Oil & Gas Corp. executives were within 9000 feet of finding out if they would ... More News From Greenwire .... It\'s smaller companies like his, he said, not the "super-majors" like Exxon Mobil Corp. or Shell, that take those kinds of risks.'
p4
aS'Jun 4, 2010 - Exxon Mobil Corp. is among companies bringing platforms online in the U.S. Gulf ... Exxon has started production from its Julia deepwater project, the company ...'
p5
aS'Jun 4, 2010 - Prior to Energy Partners, she was a senior reservoir engineer with Exxon Production Co. and ExxonMobil Co.Jonathan S. Gross has been named senior vice ...'
p6
aS'Jun 3, 2010 - News | Thu Jun 3, 2010 6:16am EDT ... giants Chevron Corp, Total SA, Exxon Mobil Corp, among others, are all involved in oil exploration activities in Cabinda.'
p7
aS"Jun 4, 2010 - Gee, didn't Greenpeace build an entire ExxonSecrets website to expose the allegedly diabolical fact that, over a 9-year-period (1998-2006) ExxonMobil donated ..."
p8
aS'Jun 4, 2010 - By VICTOR GODINEZ / The Dallas Morning News ... buy the new HTC EVO 4G phone being released today by Sprint Nextel Corp. .... Exxon Mobil, XOM, 78.06.'
p9
aS'Jun 4, 2010 - Great Lakes Dredge & Dock Corporation Deploys More Vessels for Work on ..... ExxonMobil has invested more than $4 billion in research and development ...'
p10
a.