(lp0
S"Jun 8, 2010 - Exxon Mobil Corporation Key Recent Developments: Mar 04, 2016: Golar GenPower ... Thomson Reuters is the world's largest international multimedia news ..."
p1
aS'Jun 7, 2010 - Andrew Swiger, senior vice president of Exxon Mobil Corp., attends at the 15th Asia Oil & Gas ... Get premium, high resolution news photos at Getty Images.'
p2
aS"Jun 8, 2010 - After news of the Citizens United ruling sent shockwaves through political, legal, ... During the same 2008 election cycle, Exxon-Mobil's corporate profits totaled ..."
p3
aS'Jun 7, 2010 - Dallas Morning News Home ... The six - AMR Corp., UAL Corp., Delta Air Lines Inc., Continental Airlines Inc., US Airways Group Inc. .... Exxon Mobil, XOM, 78.06.'
p4
aS"Jun 8, 2010 - ... year reopened a former Exxon Mobil Corp. operation on Carlinville's outskirts. ... St. Louis-based Peabody Energy Corp., the nation's largest coal producer, ..."
p5
aS'Jun 8, 2010 - DOW JONES, A NEWS CORP COMPANY ..... And two decades after the Exxon Valdez disaster, Exxon Mobil is the biggest company in the world by market ...'
p6
aS'Jun 7, 2010 - DOW JONES, A NEWS CORP COMPANY ..... BP had an 89% positive buzz score, the second-best score of all oil-and-gas brands, after Exxon Mobil Corp.'
p7
aS'Jun 8, 2010 - ... parties or trips to corporate ski chalets, they were having sex with oil-company officials. .... Exxon, quickly recognizing what still seems to elude the Obama ... is less an oil company than a bank that finances oil exploration; unlike ExxonMobil, .... That evening, administration officials received news that  to judge from their ...'
p8
aS"Jun 7, 2010 - The total can feed as much as 35 percent of Exxon Mobil Corp.'s refinery in Baytown, Texas, the largest in the U.S.. BP estimates its production may be reduced ..."
p9
aS"Jun 7, 2010 - Nor will the British stand by if a US company like ExxonMobil tries to sweep in and buy up BP's best assets on the cheap. Once BP stops this gusher, Obama will ..."
p10
a.