(lp0
S'Jul 12, 2010 - DOW JONES, A NEWS CORP COMPANY. News Corp .... As much as an Exxon-Mobil-BP merger would make bankers salivate, it seems highly unlikely. twitter.'
p1
aS"Jul 11, 2010 - A merger between ExxonMobil, already the world's largest non-government owned oil ... Today Apache Corporation, the US's largest independent oil group, was named as ... 2016 Guardian News and Media Limited or its affiliated companies."
p2
aS'Jul 12, 2010 - ExxonMobil at the International Oil and Gas Conference and Exhibition ... Mark Albers, senior vice president of Exxon Mobil Corporation, will speak at the opening executive plenary session June 8 at 10:15 a.m. in Convention ... Latest News ...'
p3
aS'Jul 12, 2010 - ... as much crude as Exxon Mobil, Chevron and ConocoPhillips combined. ... the company has its roots in the Anglo-Persian Oil Corporation, formed after the ...'
p4
aS'Jul 12, 2010 - ... now in charge of the gulf spill response, denied that the accident reflected a corporate disregard for safety. ... After Exxon Valdez, Caution Takes Root at Exxon JULY 12, 2010 .... Altogether, the blunders cost BP and its minority partner, Exxon Mobil, hundreds of millions of .... News Analysis: Can Clinton Feel the Bern?'
p5
aS"Jul 12, 2010 - Speculation grows that ExxonMobil sought White House clearance to bid for rival oil giant. ... Bay  expected to go to US rival Apache Corporation; BP's 60pc stake in Argentinian Pan American Energy .... Catch up on all the latest football news."
p6
aS'Jul 12, 2010 - Standard Oil of New Jersey (SONJ) - or Esso (S.O.)  renamed Exxon, now part of ExxonMobil. Standard Trust companies Carter Oil, Imperial Oil (Canada), and ...'
p7
aS'Jul 11, 2010 - ExxonMobil Corp (NYSE: XOM), for example, acquired XTO Energy in a deal worth $41 billion, providing the energy giant with expertise in producing natural gas ...'
p8
aS'Jul 13, 2010 - Exxon Mobil made billions in profits, and yet paid not one dime in federal income ... 2. GE, Exxon Paid No U.S. Income Taxes in 2009, ABC News, April 6, 2010.'
p9
aS'Jul 11, 2010 - Dallas Morning News Home ... You can buy risky junk munis just as you can buy junk corporate bonds, but that means risk of default .... Exxon Mobil, XOM, 78.06.'
p10
a.