(lp0
S'Jul 12, 2010 - DOW JONES, A NEWS CORP COMPANY. News Corp .... As much as an Exxon-Mobil-BP merger would make bankers salivate, it seems highly unlikely. twitter.'
p1
aS'Jul 12, 2010 - ExxonMobil at the International Oil and Gas Conference and Exhibition ... Mark Albers, senior vice president of Exxon Mobil Corporation, will speak at the opening executive plenary session June 8 at 10:15 a.m. in Convention ... Latest News ...'
p2
aS'Jul 13, 2010 - Exxon Mobil Oil Corp., White Oak Petroleum LLC and Getty MD Leasing Inc. have won their bid to toss a suit brought by 65 Exxon franchisees in Maryland over ...'
p3
aS'Jul 13, 2010 - Even if rumors that ExxonMobil and Chevron have their sights set on BP turn ... in 2006  to Houston company Apache Corp., which specializes in buying old, ...'
p4
aS'Jul 12, 2010 - ... as much crude as Exxon Mobil, Chevron and ConocoPhillips combined. ... the company has its roots in the Anglo-Persian Oil Corporation, formed after the ...'
p5
aS'Jul 12, 2010 - Sure, Exxon Mobil may be best equipped to deal with BP given that it was able to move on from the ... Doug Ober, CEO of Petroleum & Resources Corporation (PEO), a closed-end fund based in Baltimore that .... 2016 Cable News Network.'
p6
aS'Jul 12, 2010 - ... now in charge of the gulf spill response, denied that the accident reflected a corporate disregard for safety. ... After Exxon Valdez, Caution Takes Root at Exxon JULY 12, 2010 .... Altogether, the blunders cost BP and its minority partner, Exxon Mobil, hundreds of millions of .... News Analysis: Can Clinton Feel the Bern?'
p7
aS"Jul 13, 2010 - Retired vice president of ExxonMobil adds expertise to university's mission ... his B.S. degree in finance from New York University, joined Mobil Corp. in 1965."
p8
aS'Jul 12, 2010 - Standard Oil of New Jersey (SONJ) - or Esso (S.O.)  renamed Exxon, now part of ExxonMobil. Standard Trust companies Carter Oil, Imperial Oil (Canada), and ...'
p9
aS"Jul 12, 2010 - Speculation grows that ExxonMobil sought White House clearance to bid for rival oil giant. ... Bay  expected to go to US rival Apache Corporation; BP's 60pc stake in Argentinian Pan American Energy .... Catch up on all the latest football news."
p10
a.