(lp0
S'Jul 15, 2010 - Exxon Mobil has a Dividend Yield (TTM) of 3.34%. Exxon Mobil Dividend Yield (TTM) (XOM) charts, historical data, comparisons and more. ... XOM News. Exxon ...'
p1
aS'Jul 16, 2010 - myUTPA myUTPA; News & Events; A-Z Index; Directory; Quick Links ... ExxonMobil Corp. donated $80,000 to UTPA for the Bernard Harris ExxonMobil Summer ...'
p2
aS'Jul 15, 2010 - As ExxonMobil Ups Lobbying By J. Ato Kobbie, Managing Editor With the battle lines drawn, following a decision of Ghana National Petroleum Corporation ...'
p3
aS'Jul 17, 2010 - Haynesville shale oil production and exploration news, resources and oil company stocks covering oil shale. ... Exxon Mobil. 86.80 .... Chesapeake Energy Corp. has finalized new gas gathering agreements with the Williams Companies in its ...'
p4
aS"Jul 16, 2010 - Mobil, now part of Irving, Texas-based Exxon Mobil Corp., isn't accused of ... deals, including Mobil's purchase of a stake in Kazakhstan's Tengiz field, one of the ..."
p5
aS'Jul 15, 2010 - (BUSINESS WIRE)-- Exxon Mobil Corporation (NYSE:XOM) and Synthetic Genomics Inc. (SGI) announced the opening of a greenhouse facility today enabling ...'
p6
aS'Jul 15, 2010 - A roundup of recent asbestos-related news and information that you should be ... Corporation; Elliott Turbo Machinery Company; Exxon Mobil Oil Corporation; ...'
p7
aS'Jul 15, 2010 - The transaction was announced one day after rival Exxon Mobil Corp (XOM.N) opened a greenhouse facility for its $600 million programme to develop biofuel ...'
p8
aS'Jul 15, 2010 - ExxonMobil and Synthetic Genomics Inc. announced the opening of a greenhouse facility today enabling the next level of research and testing in their a.'
p9
aS'Jul 15, 2010 - ... In The News. Newsroom. News Releases ... pediatrics and internal medicine. The study was funded by the National Institutes of Health and Exxon Mobil Corp.'
p10
a.