(lp0
S'Jul 1, 2010 - Motor oils. Explore our full range of advanced motor oils from Mobil 1, Mobil Super and Mobil Delvac. Careers  Contact us  Investors  News and updates ...'
p1
aS'Jul 1, 2010 - Careers  Investors  News; Select countryGlobal_selector_abbreviation ..... Careers  Contact us  Investors  News and updates  Perspectives blog.'
p2
aS'Jul 1, 2010 - Careers  Investors  News; Select countryGlobal_selector_abbreviation ..... Careers  Contact us  Investors  News and updates  Perspectives blog.'
p3
aS"Jul 1, 2010 - See Exxon Mobil Corp's earnings estimates and analyst ratings based on Wall Street analysts's analysis."
p4
aS'Jun 30, 2010 - ExxonMobil and two affiliates have agreed to pay the state of Massachusetts a $2.9 ... States Investigate Exxon, Launch Corporate Climate Fraud Crackdown ... Join 100,000+ subscribers who gain a competitive advantage with our news and ...'
p5
aS'Jul 2, 2010 - CSPnet.com - Convenience Store News .... Corporate News ... Alliance distributes a variety of gasoline brands, which include Exxon, Mobil, Sunoco, Shell, ...'
p6
aS'Jul 1, 2010 - "In theory, either Exxon Mobil or RD Shell could consider a bid for BP," wrote Lucas in a note to investors. "We focus on these two names because they have ...'
p7
aS"Jun 30, 2010 - After all, many BP filling stations are actually owned by local people, not the corporation itself. Besides, when you're filling up at a Shell or ExxonMobil station, ..."
p8
aS'Jul 1, 2010 - The company also is a designated disabled veteran corporation and ... like Exxon Mobil Corporation, Chevron Corporation and ConocoPhillips, who ... Statements in this news release that are not historical facts are forward-looking statements ...'
p9
aS'Jul 1, 2010 - Use our Station Locator or our handy Fuel Finder App for iOS or Android to locate your nearest Exxon or Mobil gas station anywhere in the country.'
p10
a.