(lp0
S'Jul 20, 2010 - It is anticipated that the board of directors of Exxon Mobil Corporation will appoint S. M. (Steve) Greenlee as president of ExxonMobil Exploration Company and ...'
p1
aS'Jul 19, 2010 - About Exxon Mobil Corporation. ExxonMobil, the largest publicly traded international oil and gas company, uses technology and innovation to help meet the ...'
p2
aS'Jul 19, 2010 - Three years after Venezuela nationalized Exxon Mobil Corp. ... The decision could signal good news for hundreds of other similar pending cases with tens of ...'
p3
aS'Jul 21, 2010 - Ms. Sara N. Ortwein has been President of ExxonMobil Upstream Research Company at Exxon Mobil Corp. since September 1, 2010. Ms. Ortwein served Vice ...'
p4
aS"Jul 20, 2010 - Exxon Mobil Corp., the world's largest oil company, restarted halted units at its ... Investors shrugged off the news as shares of all the banks whose living wills ..."
p5
aS'Jul 20, 2010 - ExxonMobil gave $1.5 million to climate deniers and industry front groups known for ... In its 2007 Corporate Citizenship Report, [Exxon] stated: In 2008 we will ... http://www.theaustralian.com.au/news/world/exxon-still-aids-climate-sceptics/ ...'
p6
aS'Jul 20, 2010 - Tight Gas news, resources and oil company stocks covering tight gas. ... Yesterday, oil giant Exxon Mobil Corp. announced an oil discovery on the 6.6 ...'
p7
aS'Jul 19, 2010 - Subsidiaries of ExxonMobil Corp. made an oil discovery this month on the Cepu block on Java. ... News. Oilfields development. Exploration Oilfield services ...'
p8
aS'Jul 19, 2010 - With regard to crude oil production, ExxonMobil affiliates put their half year crude ... ExxonMobil in its 2009 Corporate Citizenship Report made available to .... Breaking news: EFCC disowns Ekweremadu as anti-corruption ambassador92 ...'
p9
aS'Jul 19, 2010 - Exxon Mobil Corp. ... On Twitter, users grouse that Toyota Motor Corp. is the "BP of the car ... "The bad news is that they\'re capturing it with ducks," he added.'
p10
a.