(lp0
S'Jul 20, 2010 - It is anticipated that the board of directors of Exxon Mobil Corporation will appoint S. M. (Steve) Greenlee as president of ExxonMobil Exploration Company and ...'
p1
aS'Jul 22, 2010 - Careers  Investors  News; Select countryGlobal_selector_abbreviation ..... Careers  Contact us  Investors  News and updates  Perspectives blog.'
p2
aS'Jul 22, 2010 - Exxon Mobil Corp. News XOM Refinery Status: Murphy Oil Puts Its Refineries Up New York Stock Exchange Announcements, Company Reports & Press ...'
p3
aS'Jul 21, 2010 - Ms. Sara N. Ortwein has been President of ExxonMobil Upstream Research Company at Exxon Mobil Corp. since September 1, 2010. Ms. Ortwein served Vice ...'
p4
aS"Jul 20, 2010 - Exxon Mobil Corp., the world's largest oil company, restarted halted units at its ... Investors shrugged off the news as shares of all the banks whose living wills ..."
p5
aS'Jul 21, 2010 - Daily news for the downstream oil and gas industry providing coverage of events in the ... review of which began and ended in 2007, while Exxon Mobil Corp.'
p6
aS'Jul 21, 2010 - The sponsor companies will proceed immediately with the engineering, procurement and construction of equipment and vessels for the system. ExxonMobil will ...'
p7
aS'Jul 21, 2010 - And the news clearly troubled Chinese authorities, who quickly questioned the ... Companies like Portfolio recommendation ExxonMobil Corp (NYSE: XOM) are ...'
p8
aS'Jul 20, 2010 - Tight Gas news, resources and oil company stocks covering tight gas. ... Yesterday, oil giant Exxon Mobil Corp. announced an oil discovery on the 6.6 ...'
p9
aS'Jul 21, 2010 - Newmont Mining Corp ... Rachel Maddow Video, Newport Mining Stock, S&P Winners, Denver News ... Read More: Walmart, Deepwater, Bp, Unethical Companies, Exxon Mobil, Halliburton, Blackstone, Newmont Mining Corp, Stocks, Exxon ...'
p10
a.