(lp0
S'Jul 22, 2010 - Exxon Mobil Corp. News XOM Refinery Status: Murphy Oil Puts Its Refineries Up New York Stock Exchange Announcements, Company Reports & Press ...'
p1
aS'Jul 22, 2010 - Exxon Mobil, Chevron, Royal Dutch Shell and ConocoPhillips are creating a strike force to stanch oil spills in the ... DOW JONES, A NEWS CORP COMPANY.'
p2
aS'Jul 22, 2010 - Careers  Investors  News; Select countryGlobal_selector_abbreviation ..... Careers  Contact us  Investors  News and updates  Perspectives blog.'
p3
aS'Jul 21, 2010 - The sponsor companies will proceed immediately with the engineering, procurement and construction of equipment and vessels for the system. ExxonMobil will ...'
p4
aS"Jul 22, 2010 - They also don't point out that ExxonMobil has undertaken climate change ... Click here to subscribe to the blog's RSS news feed. ... Exxon Mobil Corporation."
p5
aS'Jul 21, 2010 - Daily news for the downstream oil and gas industry providing coverage of events in the ... review of which began and ended in 2007, while Exxon Mobil Corp.'
p6
aS'Jul 21, 2010 - And the news clearly troubled Chinese authorities, who quickly questioned the ... Companies like Portfolio recommendation ExxonMobil Corp (NYSE: XOM) are ...'
p7
aS'Jul 22, 2010 - The oil tanker Seaqueen is docked at the Valero Energy Corp. refinery at the ... continued stream of bad, disappointing news, said Walter J. Zimmerman Jr., ... companies such as Exxon Mobil Corp. and Valero Energy Corp. to increase output.'
p8
aS"Jul 22, 2010 - ExxonMobil Corp. and BP have many things in common: They're both among the world's largest oil companies, both operate refineries and offshore platforms, ..."
p9
aS'Jul 21, 2010 - Newmont Mining Corp ... Rachel Maddow Video, Newport Mining Stock, S&P Winners, Denver News ... Read More: Walmart, Deepwater, Bp, Unethical Companies, Exxon Mobil, Halliburton, Blackstone, Newmont Mining Corp, Stocks, Exxon ...'
p10
a.