(lp0
S'Jul 26, 2010 - Tiger Management grows to 37 stores with Nashville ExxonMobil purchase. ... CSPnet.com - Convenience Store News  April 2016 CSP .... Corporate News.'
p1
aS"Jul 26, 2010 - Marcellus shale oil production and exploration news, resources and oil company stocks covering oil shale. ... Exxon Mobil .... The New York Stock Exchange has notified Eclipse Resources Corp. that the company has fallen below the NYSE's ..."
p2
aS'Jul 26, 2010 - DOW JONES, A NEWS CORP COMPANY ..... effectively removing it from the ranks of the super majors like Exxon Mobil Corp. and Royal Dutch Shell PLC.'
p3
aS'Jul 25, 2010 - That was more than the 1.3 percent median forecast in a Bloomberg News survey of .... Oil companies including Exxon Mobil Corp and China Petroleum and ...'
p4
aS'Jul 25, 2010 - ... he was a senator, he and his political associates formed the Win or Lose Corp. ... the Louisiana Chemical Association - whose members include Exxon Mobil, ...'
p5
aS'Jul 25, 2010 - He owns a fleet of 20 antique cars, a $12 million corporate jet, a $7. ... $1 million in capital gains last year each from Chevron Corp, Apache Corp, Exxon Mobil, ...'
p6
aS'Jul 27, 2010 - Six companies in that sector fell out of the Fortune 500, and Exxon Mobil was ... This is good news for the women who run the legal offices at companies like ... last year, a welcome sign that as the economy and corporate profits recover, ...'
p7
aS'Jul 25, 2010 - ... the boss of New York-based News Corp. and a hard-headed arbiter of global ... Exxon-Mobil, Wal-Mart and about fifty of the remaining largest US companies, ...'
p8
aS'Jul 26, 2010 - BP PLC said it has entered into several agreements to sell Apache Corp. some ... Get All the Oil and Gas Journal News Delivered to Your Inbox .... exxon mobil'
p9
aS'Jul 26, 2010 - The Xinhua News Agency said the complex could supply 5.87 million tpy of oil ... In the US last year, Flint Hills Corp. shut down the 360,000-tpy ethylene plant at ... ExxonMobil moved ahead of both Dow Chemical, which had been in first ...'
p10
a.