(lp0
S'Jul 26, 2010 - Tiger Management grows to 37 stores with Nashville ExxonMobil purchase. ... CSPnet.com - Convenience Store News  April 2016 CSP .... Corporate News.'
p1
aS"Jul 27, 2010 - Of course I'm talking about Exxon (NYSE: XOM) - and odds are if you've ... About: Exxon Mobil Corporation (XOM) .... Enjoy The Gold Bull While You Can by Doug Eberhardt; Weighing The Week Ahead: Time To Sell The News? by Jeff Miller ..."
p2
aS"Jul 26, 2010 - Marcellus shale oil production and exploration news, resources and oil company stocks covering oil shale. ... Exxon Mobil .... The New York Stock Exchange has notified Eclipse Resources Corp. that the company has fallen below the NYSE's ..."
p3
aS'Jul 27, 2010 - ... the company overtake Exxon Mobil Corp. in terms of output for the same time. ... The New York Daily News said Hayward was the most hated -- and clueless ...'
p4
aS'Jul 26, 2010 - DOW JONES, A NEWS CORP COMPANY ..... effectively removing it from the ranks of the super majors like Exxon Mobil Corp. and Royal Dutch Shell PLC.'
p5
aS'Jul 27, 2010 - Six companies in that sector fell out of the Fortune 500, and Exxon Mobil was ... This is good news for the women who run the legal offices at companies like ... last year, a welcome sign that as the economy and corporate profits recover, ...'
p6
aS"Jul 27, 2010 - ... quickly and accurately delivers business and financial information, news and ... companies to help them streamline and reengineer their corporate structures and ... became the industry's second-largest company, behind Exxon-Mobil (XOM)."
p7
aS'Jul 28, 2010 - Kentz Corporation Limited, the holding company of the Kentz Engineering and Construction Group, ... Participating interests include affiliates of ExxonMobil (including Esso Highlands Limited as ... Top News of The Week May 26-31, 2014.'
p8
aS'Jul 26, 2010 - BP PLC said it has entered into several agreements to sell Apache Corp. some ... Get All the Oil and Gas Journal News Delivered to Your Inbox .... exxon mobil'
p9
aS'Jul 28, 2010 - The Shell Chemicals and ExxonMobil existing crackers  and the second ExxonMobil plant ... its acquisition of stakes in Petrochemical Corp of Singapore and The Polyolefins Co last November. ... LATEST CHEMICAL INDUSTRY NEWS.'
p10
a.