(lp0
S'Jul 28, 2010 - QUOTE AND NEWS ... Delta Petroleum Corporation now renamed Par Petroleum Corporation as described below announced that as of today the Company has .... The stock fell to a 52-week low in December before Exxon Mobil Corp. (NYSE: ...'
p1
aS'Jul 28, 2010 - Daily news for the downstream oil and gas industry providing coverage of events ... AMERICA: Chevron Corp.; ConocoPhillips; ExxonMobil Corp.; Marathon Oil ...'
p2
aS"Jul 27, 2010 - Of course I'm talking about Exxon (NYSE: XOM) - and odds are if you've ... About: Exxon Mobil Corporation (XOM) .... Enjoy The Gold Bull While You Can by Doug Eberhardt; Weighing The Week Ahead: Time To Sell The News? by Jeff Miller ..."
p3
aS'Jul 27, 2010 - ... the company overtake Exxon Mobil Corp. in terms of output for the same time. ... The New York Daily News said Hayward was the most hated -- and clueless ...'
p4
aS'Jul 28, 2010 - Exxon Mobil Corp. of Irving, Texas, is scheduled to announce its results tomorrow, and San Ramon, California-based Chevron Corp. plans to report earnings ...'
p5
aS'Jul 27, 2010 - Nomac Drilling Corp. derrick man Justin Spruell, right, climbs down from an .... Chesapeake, second only to Exxon Mobil Corp. in gas production from U.S. fields, ...'
p6
aS'Jul 28, 2010 - Kentz Corporation Limited, the holding company of the Kentz Engineering and Construction Group, ... Participating interests include affiliates of ExxonMobil (including Esso Highlands Limited as ... Top News of The Week May 26-31, 2014.'
p7
aS'Jul 28, 2010 - Processing News ... an 251,600 b/d refinery at Izmit and a 226,440 b/d plant at Aliaga-Izmir, both operated by Turkish Petroleum Refineries Corp. .... exxon mobil'
p8
aS"Jul 27, 2010 - ... quickly and accurately delivers business and financial information, news and ... companies to help them streamline and reengineer their corporate structures and ... became the industry's second-largest company, behind Exxon-Mobil (XOM)."
p9
aS'Jul 28, 2010 - Legal Proceedings  Corporate Rule  Militarized Police  Police Brutality  Police ... Dusty Dan  Exxon Mobil, Big Contributor to Republican Governors ...'
p10
a.