(lp0
S"Jul 29, 2010 - Exxon Mobil Corp. reported quarterly earnings Thursday that easily beat analysts' ... Exxon Mobil posted a record $11.7 billion profit in the second quarter of 2008 as oil prices rose near $150 a barrel. .... 2016 Cable News Network. A Time ..."
p1
aS'Jul 29, 2010 - Cullen/Frost Bankers, Inc. Board Names Former Exxon Mobil General Counsel Charles Matthews a ... Matthews retired from Exxon Mobil Corporation earlier this year and is a native Houstonian. ... The news you need, when you need it.'
p2
aS'Jul 29, 2010 - Oil giants Royal Dutch Shell and Exxon Mobil see profits almost double in ... News navigation ... Second-quarter profits at oil giant Royal Dutch Shell have almost doubled after the firm completed a year-long corporate restructuring programme.'
p3
aS'Jul 28, 2010 - QUOTE AND NEWS ... Delta Petroleum Corporation now renamed Par Petroleum Corporation as described below announced that as of today the Company has .... The stock fell to a 52-week low in December before Exxon Mobil Corp. (NYSE: ...'
p4
aS'Jul 29, 2010 - ... that it sold $7 billion of assets in the U.S., Canada and Egypt to Apache Corp. ... was formerly known as Cerro Negro and was operated by Exxon Mobil Corp. .... Kuwaiti news agency reported, without giving a specific time for the restart.'
p5
aS'Jul 28, 2010 - Exxon Mobil Corp. of Irving, Texas, is scheduled to announce its results tomorrow, and San Ramon, California-based Chevron Corp. plans to report earnings ...'
p6
aS'Jul 28, 2010 - Daily news for the downstream oil and gas industry providing coverage of events ... AMERICA: Chevron Corp.; ConocoPhillips; ExxonMobil Corp.; Marathon Oil ...'
p7
aS'Jul 29, 2010 - ... U.S., on Thursday, July 29, 2010. Exxon Mobil Corp. posted its biggest profit increase since 2003,... Get premium, high resolution news photos at Getty Images.'
p8
aS'Jul 28, 2010 - Legal Proceedings  Corporate Rule  Militarized Police  Police Brutality  Police ... Dusty Dan  Exxon Mobil, Big Contributor to Republican Governors ...'
p9
aS"Jul 29, 2010 - Exxon Mobil had the largest foreign sales, of $322 billion. Wal-Mart, ranked ... Subscribe to The Economist and get the week's most relevant news and analysis."
p10
a.