(lp0
S"Jul 29, 2010 - Exxon Mobil Corp. reported quarterly earnings Thursday that easily beat analysts' ... Exxon Mobil posted a record $11.7 billion profit in the second quarter of 2008 as oil prices rose near $150 a barrel. .... 2016 Cable News Network. A Time ..."
p1
aS'Jul 29, 2010 - Cullen/Frost Bankers, Inc. Board Names Former Exxon Mobil General Counsel Charles Matthews a ... Matthews retired from Exxon Mobil Corporation earlier this year and is a native Houstonian. ... The news you need, when you need it.'
p2
aS'Jul 30, 2010 - U.S. Shipping Corporation (formerly U.S. Shipping Partners L.P.) hopes smooth ... have included BP, SeaRiver Maritime (a unit of Exxon Mobil), and Shell.'
p3
aS'Jul 29, 2010 - Oil giants Royal Dutch Shell and Exxon Mobil see profits almost double in ... News navigation ... Second-quarter profits at oil giant Royal Dutch Shell have almost doubled after the firm completed a year-long corporate restructuring programme.'
p4
aS'Jul 29, 2010 - ... that it sold $7 billion of assets in the U.S., Canada and Egypt to Apache Corp. ... was formerly known as Cerro Negro and was operated by Exxon Mobil Corp. .... Kuwaiti news agency reported, without giving a specific time for the restart.'
p5
aS'Jul 30, 2010 - Bloomberg News ... China told Exxon Mobil Corp. and BP Plc to halt exploration in areas that Vietnam considers part of its territory, according to U.S. government ...'
p6
aS'Jul 29, 2010 - ... U.S., on Thursday, July 29, 2010. Exxon Mobil Corp. posted its biggest profit increase since 2003,... Get premium, high resolution news photos at Getty Images.'
p7
aS'Jul 30, 2010 - June 15  Lawmakers summon top executives from Exxon Mobil , Chevron .... in assets to Apache Corp as it raises money to cover costs related to the spill. .... Global Business and Financial News, Stock Quotes, and Market Data and Analysis.'
p8
aS"Jul 29, 2010 - Exxon Mobil had the largest foreign sales, of $322 billion. Wal-Mart, ranked ... Subscribe to The Economist and get the week's most relevant news and analysis."
p9
aS'Jul 29, 2010 - In 2009, Exxon Mobil Corp., Pfizer, Cerro and others agreed to pay $4.3 million to settle a government suit brought in relation to the alleged contamination in ...'
p10
a.