(lp0
S'Jul 8, 2010 - ExxonMobil/XTO Merger Thursday, July 8, 2010 11:00 a.m. ET / 10:00 a.m. CT. Webcast Presentation. Listen to the Webcast in Windows Media Player ...'
p1
aS'Jul 8, 2010 - KKR, which is sitting on $12.6 billion in unused capital commitments, joins Exxon Mobil Corp. and BP Plc, the biggest owners of shale-gas deposits in the U.S., ...'
p2
aS'Jul 8, 2010 - 2 spot to break a five-year run by Exxon Mobil in the No. 1 position. Wal-Mart regained the No. 1 spot by revenue for 2009, leaping over oil companies Royal ...'
p3
aS'Jul 8, 2010 - More News From ClimateWire. Regulators ... On June 25, shareholders for Texas gas producer XTO Energy finalized a $31 billion sale to Exxon Mobil Corp.'
p4
aS'Jul 8, 2010 - DOW JONES, A NEWS CORP COMPANY .... SA TOT -1.22 % Wednesday said it agreed to buy UTS Energy Corp. for 1.5 billion Canadian dollars ($1.42 billion) ...'
p5
aS'Jul 9, 2010 - ExxonMobil, References, Casus, Direct Mail, a.s.. ... ExxonMobil is a multinational corporation with seat in the United States of America that operates in ... News ...'
p6
aS'Jul 9, 2010 - Monsanto (MON - Get Report) has been in the news for all the wrong reasons. ... Occidental Petroleum (OXY - Get Report) is less than one-fourth of Exxon Mobil (XOM), ... Check elsewhere in this thread for my comments concerning corporate ...'
p7
aS'Jul 9, 2010 - ... will move its corporate headquarters from San Diego to the Dallas-Fort Worth area by the end of ... Dallas Morning News Home .... Exxon Mobil, XOM, 78.06.'
p8
aS'Jul 8, 2010 - CBC News Posted: Jul 08, 2010 7:52 PM AT Last Updated: Jul 08, 2010 9:59 PM ... ExxonMobil announced it will not extend the life of its Sable Offshore Energy ...'
p9
aS"Jul 9, 2010 - Anadarko Petroleum Corp. says it won't help BP pay for the worst oil spill in U.S. history. ... of an oil field off the coast of Ghana that was valued at $4 billion by Exxon Mobil last year. ... 2 inmates found dead in Angola cells, news station reports."
p10
a.