(lp0
S"Aug 10, 2010 - Latest News ... including Mobil Oil Corporation, now part of energy giant ExxonMobil, into ... Bryan Williams, a Mobil executive who ran the company's efforts in ..."
p1
aS"Aug 11, 2010 - An interesting opinion piece posted on Ethical Corporation's website says that the Deepwater Horizon ... Click here to subscribe to the blog's RSS news feed."
p2
aS"Aug 10, 2010 - At Exxon Mobil Corp.'s Baytown refinery, which is the nation's largest, the annual cap on volatile organic compounds (VOCs) was 6,245 tons -- more than twice ..."
p3
aS'Aug 11, 2010 - Chesapeake, second only to Exxon Mobil Corp. in gas production from U.S. ... Drillers from Bill Barrett Corp. to EV Energy Partners have disclosed credit line ...'
p4
aS'Aug 11, 2010 - Get All the Offshore Magazine News Delivered to Your Inbox for free ... Exxon Mobil Corp. has started oil production at the Julia field in the deepwater Gulf of ...'
p5
aS'Aug 12, 2010 - ... WMC Diversified Gr A (MUTF:ITQAX) including real-time quotes, historical charts & related news, all for free! ... Exxon Mobil Corporation (XOM), 3.38%.'
p6
aS'Aug 10, 2010 - News & Info. Headlines; Message ... Exxon Mobil Corporation Common, XOM, 1.53, N/A. Verizon ... Chevron Corporation Common Stoc, CVX, 1.47, N/A. iShares ...'
p7
aS'Aug 10, 2010 - Albert Padwa, Emory University. Martin L Gorbaty, ExxonMobil Corporation. David John Lohse, ExxonMobil Corporation. Charles E. Carraher, Jr. Florida Atlantic ...'
p8
aS'Aug 11, 2010 - Anne Sheehan, Director of Corporate Governance at CalSTRS and co-signer ... His target awards are now nearly twice those of the CEO at Exxon Mobil (XOM, ...'
p9
aS'Aug 11, 2010 - ... co-founder of YouTube; Stephanie Lambidakis, 1981, CBS news reporter; ... of ExxonMobil Exploration Company, VP of Exxon Mobil Corporation; Glenn ...'
p10
a.