(lp0
S'Aug 12, 2010 - While competitors Exxon Mobil Corp. and Royal Dutch Shell Plc are free to pass on rising oil prices to consumers at the pump, state-controlled Petrobras is ...'
p1
aS"Aug 12, 2010 - S&P also ranks Exxon Mobil Corp., Microsoft Corp., and Automatic Data Processing Inc. as AAA, the same level it assigns to U.S. government debt. Moody's ..."
p2
aS'Aug 11, 2010 - Chesapeake, second only to Exxon Mobil Corp. in gas production from U.S. ... Drillers from Bill Barrett Corp. to EV Energy Partners have disclosed credit line ...'
p3
aS"Aug 11, 2010 - An interesting opinion piece posted on Ethical Corporation's website says that the Deepwater Horizon ... Click here to subscribe to the blog's RSS news feed."
p4
aS'Aug 11, 2010 - Get All the Offshore Magazine News Delivered to Your Inbox for free ... Exxon Mobil Corp. has started oil production at the Julia field in the deepwater Gulf of ...'
p5
aS'Aug 12, 2010 - ... WMC Diversified Gr A (MUTF:ITQAX) including real-time quotes, historical charts & related news, all for free! ... Exxon Mobil Corporation (XOM), 3.38%.'
p6
aS'Aug 11, 2010 - ... on BRAND SERVICES, LLC () including real-time stock quotes, historical charts & financial news, all for free! ... Customers include global energy companies, such as BP, Royal Dutch Shell, and ExxonMobil. ... Petrin Corporation, Private.'
p7
aS'Aug 12, 2010 - Lubrication Technologies Acquires Egan Oil Corporation ... In 1971, the company began selling ExxonMobil products, which continues to date. ... Back To News.'
p8
aS'Aug 11, 2010 - News; Popular; Videos; Fortune 500 ..... Whenever one debates whether Apple should have a larger market capitalization than Exxon Mobil, Wal-Mart WMT ...'
p9
aS'Aug 11, 2010 - ... co-founder of YouTube; Stephanie Lambidakis, 1981, CBS news reporter; ... of ExxonMobil Exploration Company, VP of Exxon Mobil Corporation; Glenn ...'
p10
a.