(lp0
S'Aug 19, 2010 - ACCRA, GhanaExxon Mobil Corp. said Wednesday it has canceled plans to ... a news release announcing the termination of the agreement with Exxon Mobil.'
p1
aS"Aug 18, 2010 - The Exxon Mobil Corp. said Wednesday it has pulled out of an agreement to purchase a Texas firm's multibillion-dollar ... Sign Up For Breaking News Alerts."
p2
aS"Aug 18, 2010 - ... sale of fields in Ghana to Exxon Mobil Corp. after government opposition to the deal. ... It's bad news for Ghana, because it's going to put off some potential ..."
p3
aS'Aug 20, 2010 - home  news  publications  contact us  products & services  energy & ... Exxon Mobil Corporation  Global Websites  contact us  copyright  terms & conditions ...'
p4
aS'Aug 19, 2010 - Owner: Adriatic LNG (ExxonMobil Italiana Gas; Qatar Terminal Limited [Qatar Petroleum] ... Aug 10, 2009 - ExxonMobil Corp. on Monday announced that the first ...'
p5
aS"Aug 18, 2010 - Exxon Mobil Corp (XOM. ... Exxon reports Beaumont refinery unit leak -filing ... Thomson Reuters is the world's largest international multimedia news agency, ..."
p6
aS"Aug 18, 2010 - Following months of battle with Accra, ExxonMobil, the world's biggest western oil company, has given up trying to acquire a share of Ghana's giant Jubilee oil ..."
p7
aS"Aug 20, 2010 - The field lies approximately 36 km (22.5 miles) southeast of Mobil's Edop Field in ... its partners United Meridian Corporation, who hold the remaining 25% interest. ..... Get All the Offshore Magazine News Delivered to Your Inbox for free .... as part of the Baytown Complex Laboratory of ExxonMobil Refining Supply Company, ..."
p8
aS'Aug 18, 2010 - ... Windstream Corp., with an 8.8 percent dividend yield; Kinder Morgan Energy ... 1.7 percent; Stanley Black & Decker (1877), 2.4 percent; Exxon Mobil (1882), ...'
p9
aS'Aug 19, 2010 - Home  News ... By KAREN ROBINSON-JACOBS / The Dallas Morning News krobinson@dallasnews.com. Published: .... Exxon Mobil, XOM, 78.06. Fluor Corp.'
p10
a.