(lp0
S'Aug 23, 2010 - News & Analysis ... ExxonMobil, the industry leader in 2009, spent $27.4 million in lobbying ... ConocoPhillips, Chevron Corp, ExxonMobil and U.S. petroleum ...'
p1
aS'Aug 23, 2010 - ConocoPhillips, Chevron Corp, ExxonMobil and U.S. petroleum .... Common Dreams has been providing breaking news & views for the progressive community ...'
p2
aS'Aug 22, 2010 - LARRY W. SMITH/EPAA sign outside an Exxon Mobil Corporation office building in ... of Thunderstorm Capital in Boston, is a columnist for Bloomberg News.'
p3
aS'Aug 23, 2010 - International News for oil and gas professionals. ... Devon Energy Corp. has completed the sale to BP PLC of its 5.6% interest in ACG ... ExxonMobil was reported last year to have agreed to buy a stake in Jubilee field from Kosmos in a $4 ...'
p4
aS'Aug 22, 2010 - home  news  careers  contact us. English | . Global  ExxonMobil Chemical  products & ..... Copyright 2015 Exxon Mobil Corporation. All Rights ...'
p5
aS"Aug 23, 2010 - Exxon Mobil Corp. CEO Rex Tillerson told the House Energy Committee on June 15 that Exxon wouldn't have used the well design, cement mixture or testing ..."
p6
aS'Aug 22, 2010 - Contributors include ExxonMobil, the British Coal Corporation, Cyprus ... Minnesota News Council, Determination 118 ("In the Matter of the Complaint of Drs.'
p7
aS'Aug 23, 2010 - NEWS. Dear PMSE Members,. I am honored to serve as Chair of the PMSE ..... Fellowship, he joined Exxon Mobil Corporation, where he currently holds the.'
p8
aS'Aug 22, 2010 - ... the future and decided they just had to have Energy Future Holdings Corp., the giant Dallas utility and largest electricity generator in Texas. ... By WILL DEENER / Special Contributor to The Dallas Morning News ..... Exxon Mobil, XOM, 78.06.'
p9
aS'Aug 23, 2010 - Home  News  Communities ... By ERIC TORBENSON / The Dallas Morning News etorbenson@dallasnews.com .... Exxon Mobil, XOM, 78.06. Fluor Corp.'
p10
a.