(lp0
S'Aug 26, 2010 - By MARIA HALKIAS / The Dallas Morning News mhalkias@dallasnews.com. Published: 26 August ... Exxon Mobil. Where we buy ... Fluor Corp. FLR, 41.35.'
p1
aS'Aug 26, 2010 - Home, About Us, Local News, Program Schedule, Personalities, Sports, Events/ ... Through this transaction ExxonMobil has acquired a resource base in excess of 45 .... ANADARKO PETROLEUM CORPORATION IS ONE OF THE LARGEST ...'
p2
aS'Aug 25, 2010 - ... stations, located in Northern Virginia and Maryland, from the Exxon Mobil Corporation (NYSE: XOM). Terms of ... Stores, Inc. and 170 convenience stores/fuel stations from ExxonMobil in Maryland, Virginia and Delaware. ... Share This News ...'
p3
aS'Aug 26, 2010 - Top 101 Convenience Stores  CSPnet.com - Convenience Store News ..... Mobil Speedpass+ Apple Pay. ExxonMobil Launches Speedpass+ With Apple Pay.'
p4
aS'Aug 26, 2010 - home  news  careers  contact us. English | . Global  ExxonMobil Chemical  products & ..... Copyright 2015 Exxon Mobil Corporation. All Rights ...'
p5
aS"Aug 25, 2010 - This week, Koch Industries is in the news again following an expose by Jane Meyer at the ... These views dovetail with the brothers' corporate interests. ... the Kochs vastly outdid ExxonMobil in giving money to organizations fighting legislation ..."
p6
aS'Aug 26, 2010 - Exxon and Sinopec join traders in selling crude overseas ... Oil companies including Exxon Mobil Corp and China Petroleum and Chemical Corp have joined ...'
p7
aS"Aug 26, 2010 - Exxon Says `$25 Billion Rule' Will Sink Deepwater Oil Drilling ... fighting a U.S. plan to toughen offshore drilling rules that Exxon Mobil Corp. said will cost $25 ..."
p8
aS'Aug 25, 2010 - News & Analysis ... A decade ago, Smith helped win a $1 billion verdict against ExxonMobil for environmental contamination near the Crescent City stemming ...'
p9
aS"Aug 26, 2010 - ... MoveOn.org for encouraging a boycott of Target Corp. over its attempt to buy an election. ... in history  amounts to about two weeks' worth of profit for Exxon Mobil. ... (the parent company of Fox News), have already followed Target's lead."
p10
a.