(lp0
S'Aug 26, 2010 - By MARIA HALKIAS / The Dallas Morning News mhalkias@dallasnews.com. Published: 26 August ... Exxon Mobil. Where we buy ... Fluor Corp. FLR, 41.35.'
p1
aS'Aug 27, 2010 - home  news  careers  contact us. English | . Global  ExxonMobil Chemical  products & services. polymers. polyethylene  polypropylene.'
p2
aS'Aug 26, 2010 - Home, About Us, Local News, Program Schedule, Personalities, Sports, Events/ ... Through this transaction ExxonMobil has acquired a resource base in excess of 45 .... ANADARKO PETROLEUM CORPORATION IS ONE OF THE LARGEST ...'
p3
aS'Aug 27, 2010 - News & Analysis  News & Analysis ... ExxonMobil is the most popular oil-related investment among members of Congress. This investment accounts ... By 2008, only 41 members of Congress owned ExxonMobil stock. The minimum value of ...'
p4
aS'Aug 26, 2010 - Top 101 Convenience Stores  CSPnet.com - Convenience Store News ..... Mobil Speedpass+ Apple Pay. ExxonMobil Launches Speedpass+ With Apple Pay.'
p5
aS'Aug 27, 2010 - Moscow. MIN +3. MAX +12. Mostly Clear / 12:07 PM / Traffic. News ... Novatek has said Royal Dutch Shell Plc. and Exxon Mobil Corp. were among companies ...'
p6
aS'Aug 26, 2010 - Exxon and Sinopec join traders in selling crude overseas ... Oil companies including Exxon Mobil Corp and China Petroleum and Chemical Corp have joined ...'
p7
aS"Aug 27, 2010 - ... of fields in Ghana to Exxon Mobil Corp. after government opposition to the deal. ... didn't answer a call made to his mobile phone by Bloomberg News today."
p8
aS"Aug 27, 2010 - HOUSTON, Aug 27 Exxon Mobil Corp's (XOM. ... The refinery, a 50-50 joint venture between Exxon and Venezuela's national oil company PDVSA, ... Thomson Reuters is the world's largest international multimedia news agency, providing ..."
p9
aS"Aug 26, 2010 - ... MoveOn.org for encouraging a boycott of Target Corp. over its attempt to buy an election. ... in history  amounts to about two weeks' worth of profit for Exxon Mobil. ... (the parent company of Fox News), have already followed Target's lead."
p10
a.