(lp0
S'Aug 31, 2010 - On Wednesday August 18, 2010 Kosmos Energy announced that its sale and Purchase Agreement (SPA) with ExxonMobil has been terminated. No reasons ...'
p1
aS"Aug 31, 2010 - And unlike one of its rivals, it doesn't have dollars flowing its way from Exxon Mobil Corp (XOM.N), which is expecting to pump $600 million into the emerging ..."
p2
aS'Aug 31, 2010 - DOW JONES, A NEWS CORP COMPANY .... of aging oil infrastructure from companies including BP, Royal Dutch Shell PLC, and Exxon Mobil Corp. XOM 0.24 ...'
p3
aS'Aug 31, 2010 - ... 0.25 25.0 XOM Exxon Mobil Corp 2.98 0.44 29.2 WMB Williams Cos Inc/The ... NWSA News Corp 1.22 0.07 23.4** DIS Walt Disney Co/The 1.08 0.35 77.4* ...'
p4
aS'Aug 31, 2010 - SOLIDITE FINANCIERE EXXON MOBIL CORP ..... Source : XOM News: Exxon Mobil Corporation Breaking News | Seeking Alpha Chaque fois que Buffett investi ...'
p5
aS"Aug 30, 2010 - These views dovetail with the brothers' corporate interests. ... from 2005 to 2008, the Kochs vastly outdid ExxonMobil in giving money to organizations fighting ...... for policy at Americans for Prosperity, is a contributor to the Fox News Web site."
p6
aS'Aug 30, 2010 - ... and all stock screening tools do not know about news events such as an oil spill, ... this highly competitive corporation is engaged in every aspect of the oil and ... Exxon Mobil is rated a STRONG BUY and is expected to rally 15.6% over the ...'
p7
aS"Aug 31, 2010 - Unlike one of its rivals, it doesn't have dollars flowing its way from Exxon Mobil Corp (XOM.N), which is expecting to pump $600 million into the emerging ..."
p8
aS'Aug 31, 2010 - Plaintiffs married in 1967. From 1969 until his retirement in 2004, Mr. Anderson worked in various positions at a refinery owned by Exxon Mobil Corporation (the ...'
p9
aS'Aug 30, 2010 - Copies of Orders. Exxon Mobil Corporation (PDF) (15 pp, 445K); Global Shipping and Global Marketing (PDF) (9 pp, 232K) ...'
p10
a.