(lp0
S'Aug 3, 2010 - Careers  Investors  News; Select countryGlobal_selector_abbreviation ..... Careers  Contact us  Investors  News and updates  Perspectives blog.'
p1
aS'Aug 2, 2010 - News. Subscribe to us in your news reader: feed ProxyDemocracy News ... Shareholders of ExxonMobil Corp. will vote on eight resolutions concerning the ...'
p2
aS'Aug 3, 2010 - Exxon and Mobil are gas station brands with a great history of success.'
p3
aS'Aug 4, 2010 - ExxonMobil is seeking strategic alternatives for its 30% working interest in the 3818 ... Upstream oil and gas news for exploration and production professionals ... and Production Congo (Mer Tres Profonde Sud), an affiliate of ExxonMobil Corp, ...'
p4
aS'Aug 3, 2010 - DOW JONES, A NEWS CORP COMPANY ..... By comparison, Exxon Mobil, with a market cap of $295 million, had a total returns, which include dividends, ...'
p5
aS'Aug 2, 2010 - Burgess put it on the biggest players in the Barnett, such as Devon Energy Corp., Chesapeake Energy Corp., Exxon Mobil Corp. and Williams Companies to ...'
p6
aS'Aug 4, 2010 - ... significantly expanded last year into a corporate regional office under the command of Dr William .... Get All the Offshore Magazine News Delivered to Your Inbox for free ... Exxon Mobil Corp. has started oil production at the Julia field in the ...'
p7
aS'Aug 3, 2010 - Back to News & Media ... United States Coast Guard and ExxonMobil, Shell Oil, and/or ConocoPhillips concerning the safety of oil rigs in the Gulf and/or the term ...'
p8
aS'... stations seem to be closing, is Exxon/Mobil getting out of the &quote;gas&quote; business? ... "Fascism should more properly be called corporatism because it is the merger of state and corporate power. .... Most commented news this week.'
p9
aS'Aug 3, 2010 - ... Polypore said in March. TonenGeneral is a unit of Exxon Mobil Corp. Dow Chemical Co. and Exxon Mobil are the two largest U.S. chemical makers by sales.'
p10
a.