(lp0
S'Aug 7, 2010 - More Details for Exxon Mobil Corporation ... With the latest News & Advice from Manta, you can stay ahead of the trends and challenges affecting your industry ...'
p1
aS'Aug 6, 2010 - Oil companies: Apache Corporation stock prices, news and trends for oil and gas investors. Oil and Gas ... Exxon Mobil ... Corporate governance on the frontline.'
p2
aS'Aug 5, 2010 - Latest ExxonMobil News, Photos, Blogposts, Videos and Wallpapers. Explore ExxonMobil profile at Times of India.'
p3
aS"Aug 6, 2010 - Mercator Corp., Giffen's investment bank, pleaded guilty to a single violation of ... Mobil, now part of Irving, Texas-based Exxon Mobil Corp., wasn't accused of ..."
p4
aS'Aug 5, 2010 - The Mobil family of products/lubricants offers a range of automotive ... The ExxonMobil Fuel Finder is a free mobile application available for download.'
p5
aS'Aug 5, 2010 - Helping you find Mobil products and services for both consumer and business use, use the Mobil Distributor Locator tool to find an authorized ExxonMobil ...'
p6
aS"Aug 5, 2010 - The world's leading synthetic motor oil brand, Mobil 1 is engineered to perform ... Mobil 1 is among the leaders in motorsports and chosen as factory-fill by ... Mobil. ; |; Country Sites  Home  News  Investors  Careers  Contact Us ... Privacy policy  Terms & conditions  Copyright 2005-2016 Exxon Mobil Corporation."
p7
aS"Aug 6, 2010 - Independents team up A Petroleum News survey conducted several weeks ago .... yard Evergreen Resources Alaska Corporation Inlet Drilling Alaska/Cooper ..... ExxonMobil, the world's largest publicly traded oil compa- Davis Petroleum to ..."
p8
aS"Aug 6, 2010 - News & Views ... Exxon Mobil Corp's defiant outlook predicts Canadian and Venezuelan oilsands output will 'quadruple' over next 24 years. In sharp contrast to ..."
p9
aS'Aug 6, 2010 - Steve has covered the real estate market for The Dallas Morning News since 1980. MOST MEMORABLE ... Exxon Mobil, XOM, 78.06. Fluor Corp. FLR, 41.35.'
p10
a.