(lp0
S'Aug 8, 2010 - Frank Murkowski; then as a partner in the global law firm Patton Boggs, which just happened to represent the Alaska interests of Exxon Mobil Corp., another big ...'
p1
aS'Aug 9, 2010 - Big oil companies such as ExxonMobil Corp (NYSE: XOM), BP (NYSE: BP) and .... News of increased demand for refined products is a positive for the refiners.'
p2
aS"Aug 8, 2010 - By MARIA HALKIAS / The Dallas Morning News mhalkias@dallasnews.com ... Tindell's way of telling would-be suitors they had to promise to preserve the corporate culture, keep the current management in control, .... Exxon Mobil, XOM, 78.06."
p3
aS'Aug 8, 2010 - Top corporate givers sorted by 2009 donations. $0 ... Exxon Mobil Corporation .... While that would be bad news for charities, the reality could be even worse.'
p4
aS'Aug 9, 2010 - Get All the Offshore Magazine News Delivered to Your Inbox for free ... ExxonMobil brings Banyu Urip central processing facility online in Indonesia .... and bioinformatics at its Corporate Strategic Research laboratory located in Annandale, NJ.'
p5
aS'Aug 8, 2010 - Nomac Drilling Corp. derrick man Justin Spruell, right, climbs down from an .... Chesapeake, second only to Exxon Mobil Corp. in gas production from U.S. fields, ...'
p6
aS"Aug 9, 2010 - The cost of converting the HF alkylation unit at Mobil's Torrance, Calif., refinery to use ... Several companies, including Monsanto Corp. and Rhone-Poulenc, are ..... Kirschner, E.M., Chemical & Engineering News, Apr. 8, 1996, pp. ..... Chemist, as part of the Baytown Complex Laboratory of ExxonMobil Refining & Supply ..."
p7
aS'Aug 9, 2010 - Last year state owned Chinese Petroleum Corp. (CPC) ... Job Summary: ExxonMobil Research and Engineering Company has an immediate opening for a ...'
p8
aS"Aug 9, 2010 - DOW JONES, A NEWS CORP COMPANY ..... a finite resource, and oil giants made plays for natural gas, such as Exxon Mobil's acquisition of XTO late last year."
p9
aS'Aug 8, 2010 - Network News ... ExxonMobil, for example, is not just the second-largest American corporation; it also has the some of the deepest pockets for lobbying, ...'
p10
a.