(lp0
S'Sep 10, 2010 - Careers  Investors  News  Global .... ExxonMobil, Mobil 1 and the 1 Icon are trademarks of Exxon Mobil Corporation (NYSE: XOM) or one of its subsidiaries.'
p1
aS'Sep 9, 2010 - home  news  careers  contact us  products & services  energy & environment ... corporate news room. tools. add page to favorites; subscribe to RSS.'
p2
aS'Sep 9, 2010 - News. Blog  News Media  Latest News  News Archive; Research & Development ... We have, in the course of our reportage, beaten ExxonMobil\'s "MTG"(r), Methanol-to-Gasoline, ... There are some additional implications for Exxon\'s Coal-to-Methanol technology, relative to it\'s ... Assignee: Mobil Oil Corporation, NY.'
p3
aS'Sep 9, 2010 - If you want to move up the corporate ladder, your fantasy football allegiances have to ... Oil companies including Exxon Mobil Corp and China Petroleum and ...'
p4
aS'Sep 9, 2010 - For the 11th year, SAM Indexes provides analysis of corporate sustainability ... is responsible, along with ExxonMobil, for much of the estimated 546 million ...'
p5
aS'Sep 9, 2010 - News & Perspectives. Overview  News & views ... Exxon Mobil Corp. 52,356,691, $4,376,495,801 ... International Business Machines Corp. 11,147,261 ...'
p6
aS'Sep 10, 2010 - Previously, Mr. Clarkson served on the board of Edge Petroleum Corporation ... was responsible for the audits of ExxonMobil Corporation from 2002 to 2006.'
p7
aS'Sep 10, 2010 - Exxon Mobil Corp. reached separate settlements with both Weitz and Baron and Napoli. In September 2009, a jury awarded New York City a $105 million ...'
p8
aS'Sep 10, 2010 - More Details for Exxonmobil Pipeline Company ... With the latest News & Advice from Manta, you can stay ahead of the trends and challenges affecting your ...'
p9
aS'Sep 10, 2010 - By MARIA HALKIAS / The Dallas Morning News mhalkias@dallasnews.com. Published: 10 September .... Exxon Mobil, XOM, 78.06. Fluor Corp. FLR, 41.35.'
p10
a.