(lp0
S"Sep 14, 2010 - home  news  publications  contact us .... whether there is a fit with your profile and ExxonMobil's corporate culture and whether you have enough motivation ..."
p1
aS'Sep 13, 2010 - home  news  publications  contact us  products & services  energy & ... Exxon Mobil Corporation  Global Websites  contact us  copyright  terms & conditions ...'
p2
aS'Sep 13, 2010 - internet site. home  news  publications  contact us  products & services  energy & environment ... corporate culture  competencies & profiles  compensation & ...'
p3
aS'Sep 14, 2010 - home  news  publications  contact us  products & services  energy & ... Exxon Mobil Corporation  Global Websites  contact us  copyright  terms & conditions ...'
p4
aS"Sep 13, 2010 - Exxon Says `$25 Billion Rule' Will Sink Deepwater Oil Drilling ... U.S. plan to toughen offshore drilling rules that Exxon Mobil Corp. said will cost as much as $25 ..."
p5
aS"Sep 14, 2010 - Corp. ExxonMobil's businesses include oil and natural gas exploration and production (8% of 2009 ..... S&P Analyst Research Notes and other Company News."
p6
aS"Sep 14, 2010 - Corporation, one of the world's largest diversified media companies. News ... President and a member of Exxon Mobil's Board of Directors before retiring in 2002 ..."
p7
aS'Sep 13, 2010 - DOW JONES, A NEWS CORP COMPANY ..... Last December, Exxon Mobil Corp. .... In the near term, investors should watch for any news out of China or India ...'
p8
aS'Sep 14, 2010 - ExxonMobil is planning to conclude this month the drilling operations of its fourth exploratory well - Babendil-1 in SC 56 in ... Upstream oil and gas news for exploration and production professionals ... Current Corporate Activity articles: 2567 ...'
p9
aS"Sep 13, 2010 - Exxon Mobil (XOM, Fortune 500) recently paid over $40 billion for a shale ... That's good news to people concerned about global warming or foreign oil dependence. .... The company said the layoffs will primarily affect corporate and regional ..."
p10
a.