(lp0
S'Sep 15, 2010 - Exxon Mobil Corp. News XOM Refinery Status: Exxon Beaumont Refinery Operating New York Stock Exchange Announcements, Company Reports & Press ...'
p1
aS'Sep 16, 2010 - NEW PALTZ, N.Y. -- In one of several deals on the part of Exxon Mobil Corp., CPD ... News Flash, the 83 stations sold to CPD Energy will remain branded Mobil, ...'
p2
aS'Sep 16, 2010 - Careers  Investors  News; Select countryGlobal_selector_abbreviation ..... Careers  Contact us  Investors  News and updates  Perspectives blog.'
p3
aS'Sep 14, 2010 - home  news  publications  contact us  products & services  energy & ... Exxon Mobil Corporation  Global Websites  contact us  copyright  terms & conditions ...'
p4
aS'Sep 15, 2010 - CPD Energy Corp. headquartered in New Paltz, NY is pleased to announce, the purchase of ExxonMobil property assets and supply interests in 83 gasoline ...'
p5
aS'Sep 15, 2010 - In September 2010, Chinonso Emehelu was appointed the Director, Sub-Saharan Africa, International Government Relations, ExxonMobil Corporation.'
p6
aS"Sep 14, 2010 - Corp. ExxonMobil's businesses include oil and natural gas exploration and production (8% of 2009 ..... S&P Analyst Research Notes and other Company News."
p7
aS'Sep 15, 2010 - DOW JONES, A NEWS CORP COMPANY .... Exxon Mobil Corp. ... liquefied natural gas project to Asian buyers other than China National Petroleum Corp.'
p8
aS"Sep 14, 2010 - Corporation, one of the world's largest diversified media companies. News ... President and a member of Exxon Mobil's Board of Directors before retiring in 2002 ..."
p9
aS"Sep 15, 2010 - JoAnn Lee, '76 Assistant General Counsel, ExxonMobil. Corporation, Houston, TX. Jeffrey Leuschel '77 Partner, McCall, Parkhurst & Horton L.L.P., Dallas, TX."
p10
a.