(lp0
S'Sep 15, 2010 - Exxon Mobil Corp. News XOM Refinery Status: Exxon Beaumont Refinery Operating New York Stock Exchange Announcements, Company Reports & Press ...'
p1
aS'Sep 16, 2010 - Careers  Investors  News; Select countryGlobal_selector_abbreviation ..... Careers  Contact us  Investors  News and updates  Perspectives blog.'
p2
aS'Sep 16, 2010 - NEW PALTZ, N.Y. -- In one of several deals on the part of Exxon Mobil Corp., CPD ... News Flash, the 83 stations sold to CPD Energy will remain branded Mobil, ...'
p3
aS'Sep 15, 2010 - CPD Energy Corp. headquartered in New Paltz, NY is pleased to announce, the purchase of ExxonMobil property assets and supply interests in 83 gasoline ...'
p4
aS'Sep 17, 2010 - The ExxonMobil refinery in Joliet, Illinois, began operating in the early 1970s. ... the corporation and the plant have entered into an agreement with OSHA to ...'
p5
aS'Sep 15, 2010 - In September 2010, Chinonso Emehelu was appointed the Director, Sub-Saharan Africa, International Government Relations, ExxonMobil Corporation.'
p6
aS'Sep 15, 2010 - DOW JONES, A NEWS CORP COMPANY .... Exxon Mobil Corp. ... liquefied natural gas project to Asian buyers other than China National Petroleum Corp.'
p7
aS'Sep 16, 2010 - Iraq depends on oil for most of its income and is counting on foreign companies such as Exxon Mobil Corp. to boost output at fields that have ... Bloomberg News.'
p8
aS"Sep 15, 2010 - As important as OIMS is within ExxonMobil, it can be a tough topic to explain to someone outside the company. Yes, OIMS requires facilities to ... RSS subscribe  Click here to subscribe to the blog's RSS news feed. ... Exxon Mobil Corporation."
p9
aS'Sep 16, 2010 - The companies estimate that combining their firms into Exxon Mobil Corp. would save them $3 ..... Get All the Oil and Gas Journal News Delivered to Your Inbox.'
p10
a.