(lp0
S'Sep 16, 2010 - Iraq depends on oil for most of its income and is counting on foreign companies such as Exxon Mobil Corp. to boost output at fields that have ... Bloomberg News.'
p1
aS'Sep 17, 2010 - The ExxonMobil refinery in Joliet, Illinois, began operating in the early 1970s. ... the corporation and the plant have entered into an agreement with OSHA to ...'
p2
aS'Sep 16, 2010 - The companies estimate that combining their firms into Exxon Mobil Corp. would save them $3 ..... Get All the Oil and Gas Journal News Delivered to Your Inbox.'
p3
aS'Sep 17, 2010 - DOW JONES, A NEWS CORP COMPANY. News Corp is a .... of supporting Prop. 23. Royal Dutch Shell PLC opposes the measure, while Exxon Mobil Corp.'
p4
aS'Sep 17, 2010 - Oil & Gas - Latest Industry News, Company Profiles and Market Analysis Reports ... Exxon Mobil has commenced production at the Julia oil field in the Gulf of Mexico, ... World Bank Group member International Finance Corporation (IFC) and ...'
p5
aS'Sep 17, 2010 - The volatile nature of corporate-community relations, which has meant significant ... by Exxon Mobil and Elf oil Nigeria Limited within their corporate-community ...'
p6
aS'Sep 16, 2010 - By ELIZABETH SOUDER / The Dallas Morning News esouder@dallasnews.com. Published: 16 September .... Exxon Mobil, XOM, 78.06. Fluor Corp. FLR, 41.35.'
p7
aS'Sep 16, 2010 - Craig Barrett, retired Chairman and CEO, Intel Corporation;; Glenn Britt, ... and CEO, Sally Ride Science; and; Rex Tillerson, Chairman and CEO, ExxonMobil.'
p8
aS'Exxon Mobil Corporation has announced that its Liberian affiliate has acquired from Canadian Overseas Petroleum (Bermuda) Ltd. COPL 80 percent interest in ...'
p9
aS'Sep 16, 2010 - Mobil logo 1. Asia Pacific; Country Sites. SEARCH .... Find an ExxonMobil distributor. Buy Mobil 1 Synthetic ATF through an authorised ExxonMobil distributor.'
p10
a.