(lp0
S"Sep 1, 2010 - Exxon Mobil Corp. News XOM Exxon To 'Shortly' Restart Italy Trecate Refinery Crude New York Stock Exchange Announcements, Company Reports & Press ..."
p1
aS'Aug 31, 2010 - On Wednesday August 18, 2010 Kosmos Energy announced that its sale and Purchase Agreement (SPA) with ExxonMobil has been terminated. No reasons ...'
p2
aS"Sep 1, 2010 - Imperial Oil is a Canadian company majority owned by Irving, Texas-based Exxon Mobil Corp. (XOM), the world's largest publicly traded oil company."
p3
aS'Sep 1, 2010 - Cullen/Frost Bankers adds former ExxonMobil general counsel to board ... in 1971 and rising to become vice president and general counsel of Exxon Mobil Corp. ... Get All the Oil & Gas Financial Journal News Delivered to Your Inbox for free.'
p4
aS'Sep 1, 2010 - Exxon Mobil. 86.79. -0.01%. -0.01. Chevron. 101.40 ... People-News .... This sets the foundation for good corporate governance and sound risk management.'
p5
aS'Sep 1, 2010 - CALGARY, Alberta, Sept 1 Chevron Corp (CVX.N) has finished ... L) with 20 percent and Exxon Mobil Corp (XOM.N) and ... Our top news photography this week.'
p6
aS'Sep 1, 2010 - Rex Energy Corp. entered into a joint venture agreement with Sumitomo Corp. ... Get All the Oil and Gas Journal News Delivered to Your Inbox .... Chemist, as part of the Baytown Complex Laboratory of ExxonMobil Refining Supply Company, ...'
p7
aS'Aug 31, 2010 - SOLIDITE FINANCIERE EXXON MOBIL CORP ..... Source : XOM News: Exxon Mobil Corporation Breaking News | Seeking Alpha Chaque fois que Buffett investi ...'
p8
aS'Sep 1, 2010 - WorleyParsons is pleased to announce that it has been awarded a contract by ExxonMobil Canada Properties for the topsides on the Hebron Project.'
p9
aS'Sep 1, 2010 - ... Officer Klaus Rosenfeld told reporters at a news conference in Munich. .... Chesapeake, second only to Exxon Mobil Corp. in gas production from U.S. fields, ...'
p10
a.