(lp0
S'Sep 20, 2010 - Careers  Investors  News; Select countryGlobal_selector_abbreviation ..... Careers  Contact us  Investors  News and updates  Perspectives blog.'
p1
aS'Sep 21, 2010 - News & Analysis  News & Analysis ... Exxon Mobil. See full lobbying profile for Exxon Mobil ... S.250, 113, Corporate Tax Dodging Prevention Act, 3  S.251, 113 ...'
p2
aS'Sep 20, 2010 - As part of its agreement to join the Marine Well Containment Company headed by Exxon Mobil Corp., BP will make its underwater well containment equipment ...'
p3
aS'Sep 19, 2010 - BP took 87 days to design, build and deploy a 75-ton cap that stopped the flow after a series of failures. Exxon Mobil Corp., Chevron Corp., ConocoPhillips and ...'
p4
aS"Sep 19, 2010 - Exxon Says `$25 Billion Rule' Will Sink Deepwater Oil Drilling ... U.S. plan to toughen offshore drilling rules that Exxon Mobil Corp. said will cost as much as $25 ..."
p5
aS'Sep 20, 2010 - DOW JONES, A NEWS CORP COMPANY ..... already taken a huge hit, recording a $17 billion loss in the second quarterthe largest in U.K. corporate history.'
p6
aS'Sep 20, 2010 - DOW JONES, A NEWS CORP COMPANY .... Leading manufacturers and energy companiessuch as Exxon Mobil Corp., Dow Chemical Co., American Electric ...'
p7
aS'Sep 20, 2010 - Major oil companies including Exxon Mobil Corp., Chevron Corp. and ConocoPhillips say they use real-time well data to keep tabs on offshore drilling projects, ...'
p8
aS'Sep 20, 2010 - Oil companies: Boots and Coots Services stock prices, news and trends for oil and gas investors. ... Exxon Mobil ... On September 19, Chesapeake Energy Corp.announced the executive management team for its newly formed and wholly ...'
p9
aS'Sep 19, 2010 - "This is a great day," he says shortly after the news hit the wires. ... and signed up about 50,000 customers before brownouts, blackouts and Enron Corp.'
p10
a.