(lp0
S'Sep 22, 2010 - Exxon Mobil Corporation announced today that $2 million has been contributed in departmental grants to 81 ... Development Center Director Jeanette Doyle gather around the Exxon Mobil Corporation donation check. ... News, Notes & Events.'
p1
aS'Sep 22, 2010 - View our latest news releases. ... services  energy & environment  community & society  about us. news. Skip to Main Content. news releases  media contacts ...'
p2
aS'Sep 23, 2010 - News from the National Academies .... [ This news release and report are available at http://national-academies.org ]. NATIONAL ... Exxon Mobil Corp. Irving , ...'
p3
aS"Sep 22, 2010 - At today's news conference, Cuomo said in response to a question that he had voted for ... Oil companies including Exxon Mobil Corp and China Petroleum and ..."
p4
aS'Sep 23, 2010 - ... as $292.76 in intraday trading on the Nasdaq Stock Market, giving it a market value of $267.5 billion, the second-highest company behind Exxon Mobil Corp.'
p5
aS'Sep 22, 2010 - Exxon and Sinopec join traders in selling crude overseas ... Oil companies including Exxon Mobil Corp and China Petroleum and Chemical Corp have joined ...'
p6
aS'Sep 23, 2010 - She had an extensive career in operations at Mobil Oil and ExxonMobil after ... Williams also held other positions such as Global Financial Analyst, National Category Manager and Operations Manager for corporate stores. ... Categories: News.'
p7
aS'Sep 23, 2010 - ExxonMobil Corporation: ExxonMobil INTERNSHIPS. Deadline: Saturday, September 25 at 11:59pm. Forrester Construction Company: Summer 2010 Intern.'
p8
aS'Sep 23, 2010 - So when members of Congress constantly fly around on corporate jets and pay only ... Sign-up for our Watchdog.org email list to receive the latest news and .... on board jets owned by the likes of Koch Industries, Monsanto, Exxon/Mobil, etc.'
p9
aS'Sep 22, 2010 - Dallas Morning News Home. ePaper Subscribe  Up to 50% Off Newsstand .... Energy Transfer Partners, ETP, 21.64. Exxon Mobil, XOM, 78.06. Fluor Corp.'
p10
a.