(lp0
S'Sep 27, 2010 - DOW JONES, A NEWS CORP COMPANY. News Corp is a network of .... 27, 2010 12:17 p.m. ET. The Sakhalin-1 consortium operated by Exxon Mobil Corp.'
p1
aS'Sep 27, 2010 - Chevron Corp., ConocoPhillips, ExxonMobil Corp., and Royal Dutch Shell PLC pooled $1 ..... Get All the Oil and Gas Journal News Delivered to Your Inbox.'
p2
aS'Sep 27, 2010 - ExxonMobil Corp. reported second-quarter 2010 earnings of $7.56 billion, up from $3.95 billion a year earlier. .... International news for oil and gas professionals ...'
p3
aS"Sep 27, 2010 - ExxonMobil and its partner Shell plan to more than double the number of new wells in Iraq's West Qurna Phase One to ... Upstream oil and gas news for exploration and production professionals ... Current Corporate Activity articles: 2567 ..."
p4
aS'Sep 27, 2010 - United States. News | Mon Sep 27, 2010 9:33am EDT ... 1981 - Standard Oil of Ohio (SOHIO) purchases Kennecott Copper Corp. ... 2002 - Exxon Mobil sells its interests in copper producer Disputada to Anglo American for $1.3 billion. (Editing ...'
p5
aS'Sep 27, 2010 - Oil & Energy News ... 27 /PRNewswire/ -- US Natural Gas Corp (OTC Bulletin Board: UNGS), an energy ...... *MZST is a service mark of Exxon Mobil Corporation.'
p6
aS'Sep 27, 2010 - The Boeing Corporate Travel Department handles travel services within the ...... BTN estimates Exxon Mobil reduced its U.S. booked air spending by more than ...'
p7
aS'Sep 27, 2010 - Holding, Fund, S&P Global Infrastructure Index. Exxon Mobil Corporation, 3.69. 0.00. PG&E, 3.40. 1.90. Royal Dutch Shell-A Shs, 3.33. 0.00. BP, 3.05. 0.00.'
p8
aS'Sep 26, 2010 - By JIM LANDERS / The Dallas Morning News jlanders@dallasnews.com. Published: 26 September 2010 .... Exxon Mobil, XOM, 78.06. Fluor Corp. FLR, 41.35.'
p9
aS"Sep 26, 2010 - Exxon Mobil Corporation, WND, Jack Balagia, Ass't GC, Charles Matthews, VP, GC .... News Corporation9, 10, Eugenie Gavenchak, SVP, Deputy GC, Lawrence ..."
p10
a.