(lp0
S'Sep 29, 2010 - Careers  Investors  News  Global .... percent), Sakhalinmorneftegas-Shelf (11.5 percent) and Oil and Natural Gas Corporation (ONGC) Videsh Ltd. (20 percent).'
p1
aS'Sep 29, 2010 - ExxonMobil Corp. started production from Odoptu field, the second offshore field developed in ... Get All the Oil and Gas Journal News Delivered to Your Inbox.'
p2
aS'Sep 29, 2010 - dit le 29/09/2010 - Plus de news de "ExxonMobil" - Voir la fiche entreprise de ... (11.5 percent) and Oil and Natural Gas Corporation (ONGC) Videsh Ltd. (20 ...'
p3
aS'Sep 29, 2010 - REGIONAL NEWS ... Exxon Mobil Corporation announced today the startup of production from the Odoptu field at the Sakhalin-1 project offshore northeastern ...'
p4
aS"Sep 28, 2010 - Dec 19, 2008 - Recently uncovered damage at Exxon Mobil Corp.'s (XOM) $1 billion natural gas import terminal under construction in southeast Texas will delay ..."
p5
aS"Sep 28, 2010 - The launch of a new field at ExxonMobil led Sakhalin-1 will keep the Pacific offshore project's output roughly steady next ... Upstream oil and gas news for exploration and production professionals ... Current Corporate Activity articles: 2567 ..."
p6
aS'Sep 28, 2010 - ... owned 70% by Qatar Petroleum International (QPI), the international arm of Qatar Petroleum (QP), and the remaining by ExxonMobil and ConocoPhillips.'
p7
aS'Sep 29, 2010 - Shareholders are Qatar Petroleum (70%), ExxonMobil (17.6%) and ... Qatar Petroleum was established in 1974 as a national corporation completely owned by ...'
p8
aS'Sep 28, 2010 - Home; Report on Business; Industry News; Energy & Resources ... Energy Corp. and XTO Energy Inc. (the latter recently acquired by Exxon Mobil Corp. for ...'
p9
aS'Sep 29, 2010 - News | Wed Sep 29, 2010 6:26am EDT ... Oilfields operated by units of Exxon Mobil and production streams run by Eni are also benefiting ... to a lack of funding from state run Nigeria National Petroleum Corp (NNPC), which holds a majority ...'
p10
a.