(lp0
S'Sep 2, 2010 - "Taking on the world\'s toughest energy challenges, by fuelling it the brightest minds from a variety of disciplines"'
p1
aS'Sep 2, 2010 - home  news  publications  contact us  products & services  energy & environment ... ExxonMobil & me ... the right fit? corporate culture  competencies & ...'
p2
aS"Sep 1, 2010 - Exxon Mobil Corp. News XOM Exxon To 'Shortly' Restart Italy Trecate Refinery Crude New York Stock Exchange Announcements, Company Reports & Press ..."
p3
aS'Sep 2, 2010 - ... to a May 12 U.S. Justice Department letter obtained by Bloomberg News. ... to sell its 23.5 percent Jubilee stake and other Ghana assets to Exxon Mobil Corp.'
p4
aS'Sep 2, 2010 - "Now you just don\'t see the corporate cards and the several-thousand-dollar ... plan to toughen offshore drilling rules that Exxon Mobil Corp. said will cost as ...'
p5
aS'Sep 1, 2010 - Cullen/Frost Bankers adds former ExxonMobil general counsel to board ... in 1971 and rising to become vice president and general counsel of Exxon Mobil Corp. ... Get All the Oil & Gas Financial Journal News Delivered to Your Inbox for free.'
p6
aS"Sep 1, 2010 - Imperial Oil is a Canadian company majority owned by Irving, Texas-based Exxon Mobil Corp. (XOM), the world's largest publicly traded oil company."
p7
aS'Sep 1, 2010 - CALGARY, Alberta, Sept 1 Chevron Corp (CVX.N) has finished ... L) with 20 percent and Exxon Mobil Corp (XOM.N) and ... Our top news photography this week.'
p8
aS'Sep 1, 2010 - Lead Story  Campus News ... such as, Neiman Marcus, American Airlines, Exxon Mobil Corporation, Frito Lay, Match.com, US Air Force and many more.'
p9
aS'Sep 1, 2010 - Rex Energy Corp. entered into a joint venture agreement with Sumitomo Corp. ... Get All the Oil and Gas Journal News Delivered to Your Inbox .... Chemist, as part of the Baytown Complex Laboratory of ExxonMobil Refining Supply Company, ...'
p10
a.