(lp0
S'Sep 2, 2010 - "Taking on the world\'s toughest energy challenges, by fuelling it the brightest minds from a variety of disciplines"'
p1
aS'Sep 2, 2010 - home  news  publications  contact us  products & services  energy & environment ... ExxonMobil & me ... the right fit? corporate culture  competencies & ...'
p2
aS"Sep 2, 2010 - We hope this Website gives you a good impression of ExxonMobil's activities, work environment, corporate culture and the kind of candidates we are looking for."
p3
aS'Sep 2, 2010 - ... to a May 12 U.S. Justice Department letter obtained by Bloomberg News. ... to sell its 23.5 percent Jubilee stake and other Ghana assets to Exxon Mobil Corp.'
p4
aS'Sep 2, 2010 - "Now you just don\'t see the corporate cards and the several-thousand-dollar ... plan to toughen offshore drilling rules that Exxon Mobil Corp. said will cost as ...'
p5
aS'Sep 3, 2010 - Nomac Drilling Corp. derrick man Justin Spruell, right, climbs down from an .... Chesapeake, second only to Exxon Mobil Corp. in gas production from U.S. fields, ...'
p6
aS'Sep 3, 2010 - DAILY NEWS ALBANY BUREAU CHIEF ... Johnson & Johnson, Exxon Mobil, Ford, General Electric, American Express, Pfizer Pharmaceuticals, ... "It\'s not surprising that a part-time legislator has stock in blue-chip corporate America, but what ...'
p7
aS'Sep 2, 2010 - By JASON ROBERSON / The Dallas Morning News jroberson@dallasnews. ... Medical Center Plano and Medical City Dallas Hospital, both owned by Nashville-based Hospital Corporation of America, have profit .... Exxon Mobil, XOM, 78.06.'
p8
aS"Sep 3, 2010 - By SHERYL JEAN / The Dallas Morning News ... The letter also indicated that Capital Southwest Venture Corp., Heelys' largest .... Exxon Mobil, XOM, 78.06."
p9
aS'Sep 3, 2010 - ... Li-Ion Battery Electrolyte Solutions https://t.co/EJSg3LER4W | More News ... energy companies  BP America, Chevron Corporation, ExxonMobil Corporation, ...'
p10
a.