(lp0
S'Sep 7, 2010 - DOW JONES, A NEWS CORP COMPANY ... companies in the worlds of diversified media, news, education, and information services. ..... And Exxon Mobil Corp.'
p1
aS'Sep 8, 2010 - Get information, directions, products, services, phone numbers, and reviews on Exxon Mobil Corporation in Port Arthur, TX. Discover more Gasoline Service ...'
p2
aS'Sep 7, 2010 - ... percent gain, according to the median of 40 estimates in a Bloomberg News survey. ... Oil companies including Exxon Mobil Corp and China Petroleum and ...'
p3
aS'Sep 7, 2010 - News. Petry in Cardinal Cadence  Motiva- Port Arthur Business Profiles Related to ... ExxonMobil. Bechtel/Jacob Jacobs Engineering KBR URS Corporation'
p4
aS'Sep 7, 2010 - By S.C. GWYNNE and GARY JACOBSON / The Dallas Morning News .... This was in all ways a normal corporate transaction. .... As a benchmark, it was more than the directors of Exxon Mobil made that year, a company 100 times larger than ...'
p5
aS'Sep 6, 2010 - Home  News  Communities ... By ERIC TORBENSON / The Dallas Morning News etorbenson@dallasnews.com .... Exxon Mobil, XOM, 78.06. Fluor Corp.'
p6
aS'Sep 6, 2010 - Since the previous edition of the OGJ150, Petro Resources Corp. changed its name and is ... 1 ExxonMobil Corp. recorded the highest earnings for the year at $19.28 billion. .... Get All the Oil and Gas Journal News Delivered to Your Inbox.'
p7
aS'Sep 7, 2010 - Grassroots and Progressive views on local, national and world news ... The ACC, whose members include Exxon Mobil Corporation and plastic bag and film ... Exxon also invested an additional $15,000 to several senators as campaign ...'
p8
aS'Sep 6, 2010 - ExxonMobil does not report its proved reserves or production to EIA. For its filing with the SEC, ... 2 OCCIDENTAL PETROLEUM CORP. (w). 93.7. 1,606.0. 99.0.'
p9
aS'Sep 7, 2010 - Get All the Offshore Magazine News Delivered to Your Inbox for free .... as part of the Baytown Complex Laboratory of ExxonMobil Refining Supply Company, ...'
p10
a.