(lp0
S'Oct 28, 2015 - Join e-club: http://www.elpolloloco.com/locorewards/ CONTACT: Media Contact: Kellie ... El Pollo Loco. Source: El Pollo Loco. News Provided by Acquire Media.'
p1
aS'Oct 28, 2015 - COSTA MESA, Calif., Oct. 28, 2015 (GLOBE NEWSWIRE) -- El Pollo Loco (Nasdaq:LOCO), the nation\'s ... "Our heart is in Los Angeles, where we opened our first El Pollo Loco in the U.S. We are integrated in the local ... other news releases in'
p2
aS'Oct 27, 2015 - news. print; email ... 83 with $1.1 billion in sales; El Pollo Loco in Costa Mesa at No. 103 with $723 million; Del Taco in Lake Forest at No. 115 with $656 million ...'
p3
aS"Oct 27, 2015 - BY NEWS DESK | OCTOBER 27, 2015. A court in Hamburg, Germany, has decided that a ... SUPPLIERS' SAFETY NEWS . ... El Pollo Loco Detailed facility audit ..."
p4
aS"Oct 28, 2015 - Save Money. Fry's Weekly Ads  Fry's Digital Coupons  Fry's Promotions  Home/; News/; Blogs/; Blog: Latest Tucson crime news ..."
p5
aS"Oct 28, 2015 - ... Fry's Digital Coupons  Fry's Promotions. Breaking news: Wildcats given No. 6 seed in NCAA tournament, will play Thursday night  Home/; News/; Local news ..."
p6
aS'Oct 27, 2015 - BITE NEWS SIGN UP ... EL POLLO LOCO HLDGS INC, 2.71 ... News. ETF MANAGERS GROUP ANNOUNCES THE LAUNCH OF BITE-THE FIRST EVER ...'
p7
aS'Oct 27, 2015 - For the past five years, Syd has reported on restaurant and nightlife news for the ... California-based fire-grilled chicken chain El Pollo Loco has opened a ...'
p8
aS"Oct 28, 2015 - That's great news for retail businesses, unless they manage cash poorly. ... Restaurant operator El Pollo Loco leverages smart safes to dramatically cut the time ..."
p9
aS'Oct 28, 2015 - Pacific Boulevard was shut down in both directions between 56th and 57th streets. Related Topics: news building fire fire Huntington Park Los Angeles County.'
p10
a.