(lp0
S'Oct 20, 2015 - This news comes on the heels of the announcement that we were headed to .... Congratulations on this! indeed a great news. .... Quirious about El Pollo Loco.'
p1
aS'Oct 20, 2015 - While many other market reports only provide stock news and opinion, we offer ... Alerts For Celldex Therapeutics, Anavex Life Sciences Corp, El Pollo Loco, ...'
p2
aS'Oct 21, 2015 - See the latest news from NRN ... at 30-minute delivery in new campaign  Starbucks launches delivery by Postmates in Seattle 1; El Pollo Loco test drives electric ...'
p3
aS"Oct 20, 2015 - Latest News. Teens' love affair with Chipotle isn't over, study finds  Greene Turtle's founder to hatch a burger concept  McDonald's take on a healthier breakfast ..."
p4
aS'Oct 21, 2015 - ... broadcast, rewritten or redistributed. Print this article Back to Top. A Share. A A A. Share Article. Related. 10NEWS APP: News, weather & traffic on the go.'
p5
aS"Oct 20, 2015 - Home  BUSINESS  Local Business News  Currently Filming ... El Pollo Loco out; burgers and juice in  Macy's continues to plan store closures amidst slower ..."
p6
aS'Oct 21, 2015 - Joaquin "El Chapo" Guzman reportedly fell off a small cliff while trying to evade special ops ... Never believe cnn the same news outlet that got caught making up stories el chapo alive ... El Pollo Loco should have kept his nut ass in prison.'
p7
aS'Oct 22, 2015 - El Pollo Loco Catering for Board Mtg., FUSD JDP I. August 5, 2015. Paul Martins Restaurant I Mtg. w/ Randall Lewis re: Arboretum I August 7, 2015. Page 1 of 2.'
p8
aS'Oct 20, 2015 - A Chinese Star Wars fan takes a selfie in front of hundreds of miniature storm trooper figures placed atop the Juyongguan section of the Great Wall of China ...'
p9
aS'Oct 21, 2015 - Citi Trends Inc. (CTRN) appears to be an attractive choice for investors, given its strong fundamentals, solid financial position and impressive earnings results.'
p10
a.