(lp0
S"Oct 19, 2015 - ... the Next Level. El Pollo Loco Holdings Inc(LOCO) ... Access to Jim Cramer's daily blog; Intraday commentary and news; Real-time trading forums. Only $49.95."
p1
aS'Oct 19, 2015 - October 19, 2015 08:00 ET | Source: El Pollo Loco, Inc. ... COSTA MESA, Calif., Oct. 19, 2015 (GLOBE NEWSWIRE) -- El Pollo Loco ... other news releases in'
p2
aS'Oct 20, 2015 - This news comes on the heels of the announcement that we were headed to .... Congratulations on this! indeed a great news. .... Quirious about El Pollo Loco.'
p3
aS'Oct 20, 2015 - While many other market reports only provide stock news and opinion, we offer ... Alerts For Celldex Therapeutics, Anavex Life Sciences Corp, El Pollo Loco, ...'
p4
aS"Oct 20, 2015 - Home  BUSINESS  Local Business News  Currently Filming ... El Pollo Loco out; burgers and juice in  Macy's continues to plan store closures amidst slower ..."
p5
aS"We could have done with out El Pollo Loco in my opinion that place is gross . But at least we will have more options around here (even though we really don't ..."
p6
aS"Oct 19, 2015 - El Pollo Loco - Not bad for a cheapish family meal. Whataburger - Northpark is closer for me. Raising Cane's - Great news, finally makes it a dinner option."
p7
aS'Oct 19, 2015 - FREE Breaking News Alerts from StreetInsider.com! ... El Pollo Loco Announces the Grand Opening of New Las Vegas Restaurant  PetGiftBox is a Proud ...'
p8
aS'Oct 19, 2015 - (Source: El Pollo Loco Holdings Inc ) COSTA MESA, Calif., Oct. 19, 2015 (GLOBE NEWSWIRE) -- El Pollo Loco ... Popular News Stories ... El Pollo Loco Offers New Entrees Featuring Both Fire-Grilled Chicken and Baja Shrimp (El Pollo .'
p9
aS'Oct 20, 2015 - See the latest news from NRN. Revenue increased 12.2 percent, to $1.2 ... El Pollo Loco names Kay Bogeajis COO  Print  reprints  Favorite  EMAIL. inShare ...'
p10
a.