(lp0
S'Nov 11, 2015 - 3 men accused of stealing from 31 El Pollo Loco locations in Southern California. El Pollo Loco theft ... For breaking news in California, follow @MattHjourno.'
p1
aS'Nov 11, 2015 - CONTACT: Media Contact: Kellie Duffy ICR Inc. 203-682-8200 LOCO@icrinc.com. El Pollo Loco. Source: El Pollo Loco. News Provided by Acquire Media.'
p2
aS"Nov 11, 2015 - 11, 2015 (GLOBE NEWSWIRE) -- El Pollo Loco (Nasdaq:LOCO), the nation's leading fire-grilled chicken chain, today opened its newest ... El Pollo Loco Grows California Presence With New Chatsworth Restaurant ... other news releases in"
p3
aS'Nov 11, 2015 - El Pollo Loco Burglary Spree, Covering 5 Counties, Ends in Arrests .... Get free daily newsletters and real-time news alerts from the Claremont-La Verne Patch.'
p4
aS'Nov 11, 2015 - El Pollo Loco Holdings Inc. (NASDAQ: LOCO) is scheduled to report its third-quarter financial results on Thursday after the markets close. The consensus ...'
p5
aS'Nov 11, 2015 - The Q3 2015 earnings report for small cap Tex Mex or Mexican restaurant stock El Pollo LoCo Holdings Inc (NASDAQ: LOCO), a potential peer of small caps ...'
p6
aS'Nov 11, 2015 - Moving can be expensive, and Action 7 News has learned it can be even pricier for those moving out of New Mexico than the other way around. ... ElPolloLoco.'
p7
aS'Nov 11, 2015 - News (current) .... Tamales To Go, 5251 Timberhill, perfect score; El Pollo Loco, 7327 San Pedro, perfect score; Gretalia Coffee House & Deli, 12300 Hwy.'
p8
aS'Nov 11, 2015 - A roundup of business news from around the world. ... Breaking news about economic and business issues. ... Earnings: El Pollo Loco, Nordstrom, Viacom.'
p9
aS'Nov 11, 2015 - ... Nordstrom, Blue Buffalo, El Pollo Loco, Party City, Planet Fitness, Sunrun ... Global Business and Financial News, Stock Quotes, and Market Data and Analysis.'
p10
a.