(lp0
S'Nov 9, 2015 - CONTACT: Media Contact: Kellie Duffy ICR Inc. 203-682-8200 LOCO@icrinc.com. El Pollo Loco. Source: El Pollo Loco. News Provided by Acquire Media.'
p1
aS"Nov 9, 2015 - 9, 2015 (GLOBE NEWSWIRE) -- El Pollo Loco (Nasdaq:LOCO), the nation's leading fire-grilled chicken chain, today opened its newest location in ... El Pollo Loco Heats Up Houston With New Restaurant Opening ... other news releases in"
p2
aS'Nov 9, 2015 - News Feed. Ricardo Esquivel Villegas eating pollo at El Pollo Loco. November 30, 2015  Aguascalientes City, Mexico . BUENA TARDESITA PARA TODOS.'
p3
aS'Nov 9, 2015 - Breaking news logo (new). Enlarge Photo. A crash closed a southwest-side intersection Monday night. The intersection at West Ajo Way at South Mission Road ...'
p4
aS"Nov 10, 2015 - Workers and union leaders rallied for a $15 minimum wage and marched from McDonald's to El Pollo Loco. It was part of a national protest."
p5
aS'Nov 10, 2015 - News. Police Identify Gunman, Victim in San Jose Hostage Case. By Silicon Valley Newsroom / November .... I stopped at El Pollo Loco for my families dinner.'
p6
aS"Nov 9, 2015 - November 9, 2015 HKA Texas News, Humble ... Valley Ranch Town Center adds Chickfila, Chili's, El Pollo Loco, Freebirds, Subway, T. Jin's Asian Caf and ..."
p7
aS'Nov 9, 2015 - In corporate news, Plum Creek Timber, Dish Network and Hertz Global reported earnings before the bell. SunEdison, Lions Gate and Rackspace are all due ...'
p8
aS'Nov 9, 2015 - In corporate news, Plum Creek Timber, Dish Network and Hertz Global reported ... Blue Buffalo (BUFF), El Pollo Loco (LOCO), Party City (PRTY), Planet Fitness ...'
p9
aS"Nov 9, 2015 - ... Applied Materials, Cisco, El Pollo Loco, Fossil, Kohl's, Nordstrom, and Planet .... 3  cbsnews.com/news/new-rules-for-social-security-claiming-strategies/ ..."
p10
a.