(lp0
S'Nov 23, 2015 - The adoption of a familiar low-tech device and tweaks to a central production line have cut service times and boosted throughput for El Pollo Loco. 1.'
p1
aS"Nov 23, 2015 - El Pollo Loco Frequent diners of El Pollo Loco should consider joining the My ... Once signed up the members will receive My Loco Rewards' exclusive news, ..."
p2
aS"Nov 22, 2015 - News: Photos: What it looked like to move Taco Bell building from Downey to Irvine ... The building passed McDonald's, El Pollo Loco, Starbucks, Del Taco and ..."
p3
aS'Nov 22, 2015 - Local Business news for Ventura County, California brought to you by the Ventura County Star.'
p4
aS"Nov 24, 2015 - Recent News | Recent Reviews | Current Deals & Specials ..... Chicken Dairy Queen Del Taco Domino's Dunkin' Donuts El Pollo Loco Hardee's In-N-Out Jack in ..."
p5
aS"Nov 23, 2015 - ... Men's Gloves and $10 Gift Cards to Target, Von's, CVS, Subway or El Pollo Loco. ... Posted by admin on January 27, 2015 in News, Parties, Recent Blog | 0 ..."
p6
aS'Nov 23, 2015 - News Feed ... Empezando el ao bien con rica comida y lindas amistades. Uriostegui ... Connie Stiles Valdez We had buffet at pollo loco here in Russellville.'
p7
aS'Nov 22, 2015 - November 22, 2015 . Tell people what you think. People Also Like. El Pollo Loco (42839 10th Street W., Lancaster, CA)  Fast Food Restaurant ... News Feed ...'
p8
aS'Nov 23, 2015 - Philippine News for the Filipino Global Community. Masthead, pagematch: 1 ..... Paul Parenas. About time, the Filipinos declare this man "El Pollo Loco".'
p9
aS'Nov 23, 2015 - Comments from certain Fed officials indicating gradual rate hike and gains in retail stocks helped markets finish in the green on Friday.'
p10
a.