(lp0
S'Nov 30, 2015 - After-hours buzz: Mattress Firm, El Pollo Loco & more ... El Pollo Loco, the Mexican-style restaurant chain, surged on a positive note by ... Breaking News.'
p1
aS'Nov 30, 2015 - CONTACT: Media Contact: Christine Beggan , ICR loco@icrinc.com 203.682.8200. El Pollo Loco. Source: El Pollo Loco. News Provided by Acquire Media.'
p2
aS"Nov 30, 2015 - Double Down for El Pollo Loco's New Limited Time Offerings ... 30, 2015 (GLOBE NEWSWIRE) -- El Pollo Loco (Nasdaq:LOCO), the nation's leading fire-grilled chicken chain, today announced its new Ultimate ... other news releases in"
p3
aS'Nov 30, 2015 - Guggenheim Securities Initiates Coverage on El Pollo Loco Holdings at Buy, ... REALTIME NEWSFEED; REALTIME AUDIO NEWS; FULL CALENDAR SUITE ...'
p4
aS'Nov 30, 2015 - El Pollo Loco - Kanan. Grand Re-Opening Fundraiser Thursday Dec 3rd. Share: All News Releases. November 30, 2015. AGOURA HILLS EL POLLO LOCO ...'
p5
aS"Nov 30, 2015 - In a rare expansion opportunity, El Pollo Loco has locked in a spot in the 99%-leased ... El Pollo Loco will open in first quarter 2016 at the corner of Southwest Freeway ... and sign up to get daily updates with Baltimore's latest business news."
p6
aS"Nov 30, 2015 - Watch 'Behind The Kitchen Door' on KSAT 12 News ... perfect score; El Pollo Loco, 1133 S.W. Military Dr., 3 demerits; Olive Garden, 7811 IH-35 S., 4 demerits ..."
p7
aS'Nov 30, 2015 - El Pollo Loco Holdings Inc (Symbol: LOCO) saw options trading volume of 4,526 ... For the various different available expirations for FIVE options , LOCO options , or RLYP options , visit StockOptionsChannel.com. ... Market News, Investing.'
p8
aS'Nov 29, 2015 - El Pollo Loco  is seeking a General Manager, an Assistant Manager and a Shift Leader in Riverside, CA. www.indeed.com.  24 Hour Fitness  is seeking a ...'
p9
aS'Nov 30, 2015 - During his 11 years at BSSP, he also worked on Converse, Google, Chipotle, Sprite and El Pollo Loco, among other brands. Yetman brings with him a belief that ...'
p10
a.