(lp0
S"Nov 5, 2015 - The simplicity strategy seems to be paying off: Nation's Restaurant News recently named ... El Pollo Loco initially started in Mexico, though the company is now ..."
p1
aS'Nov 5, 2015 - ... chains, all of which are striving for Chipotle-style growth. Wingstop is down 20% this year, Bojangles has lost nearly 30% and El Pollo Loco has plunged 60%.'
p2
aS"Nov 4, 2015 - Wendy's stock rose more than 4 percent on the news. Wendy's ... digital ordering drives 2Q same-store sales  El Pollo Loco same-store sales rise on value focus."
p3
aS"Nov 4, 2015 - Home > Finance > Corporate News > Famous Dave's reveals credit compliance ... See the latest news from NRN ... El Pollo Loco names Kay Bogeajis COO."
p4
aS'Nov 5, 2015 - Shake Shack, El Pollo Loco, Bojangles, Wingstop and Fogo de Chao are all down 20% or more in recent months. "We\'ve had a number of disappointments," ...'
p5
aS'Nov 4, 2015 - While many other market reports only provide stock news and opinion, we offer ... Alerts For Celldex Therapeutics, Anavex Life Sciences Corp, El Pollo Loco, ...'
p6
aS'Nov 4, 2015 - El Pollo Loco Q4 revenue $86.3 mln vs $90 mln. 4:07 P.M. ET. Breaking El Pollo Loco Q4 earnings 14c a share vs 12c a share .... More News from MarketWatch.'
p7
aS"Nov 5, 2015 - Stocks in the News. Madeleine Johnson ... Zacks News for ( WING ) ... Will Comps Growth Aid El Pollo Loco's (LOCO) Q4 Earnings? 03/07/16-9:40AM EST Zacks ..."
p8
aS"Nov 4, 2015 - Stocks in the News. Madeleine Johnson ... Zacks News for ( BOJA ) ... El Pollo Loco, Bojangles' Prospects Bright: Take Your Pick. 03/11/16-2:21PM EST Zacks ..."
p9
aS'Nov 4, 2015 - El Pollo Loco [NASDAQ: LOCO]. $344.86 Million Total Revenue. Single unit franchise opportunities are available throughout the Southwest with .... Latest News ...'
p10
a.