(lp0
S"Nov 5, 2015 - The simplicity strategy seems to be paying off: Nation's Restaurant News recently named ... El Pollo Loco initially started in Mexico, though the company is now ..."
p1
aS'Nov 5, 2015 - ... chains, all of which are striving for Chipotle-style growth. Wingstop is down 20% this year, Bojangles has lost nearly 30% and El Pollo Loco has plunged 60%.'
p2
aS'Nov 6, 2015 - El Pollo Loco. Get a free order of chips and guac when you register for their rewards ... Share. E-mail. More From. Food News  Food News. Apr 14, 2016. Share.'
p3
aS'Nov 6, 2015 - El Pollo Loco offers a "15% discount (maximum value of $1.50) to our guests that serve the community, which includes police officers, firefighters, EMTs, federal ...'
p4
aS"Nov 6, 2015 - See the latest news from NRN. Rubio's bought eight Lime Fresh locations in Florida and plans them to convert them to Rubio's Coastal Grill locations once the ..."
p5
aS'Nov 7, 2015 - With El Nino expected to bring plenty of rain, many roofing companies are slammed with business as homeowners scramble to replace old and leaky roofs.'
p6
aS'Nov 5, 2015 - Shake Shack, El Pollo Loco, Bojangles, Wingstop and Fogo de Chao are all down 20% or more in recent months. "We\'ve had a number of disappointments," ...'
p7
aS'Nov 6, 2015 - ... Nordstrom, Blue Buffalo, El Pollo Loco, Party City, Planet Fitness, Sunrun ... Global Business and Financial News, Stock Quotes, and Market Data and Analysis.'
p8
aS'Nov 6, 2015 - While many other market reports only provide stock news and opinion, we offer ... Alerts For Celldex Therapeutics, Anavex Life Sciences Corp, El Pollo Loco, ...'
p9
aS'Nov 6, 2015 - Find 15 listings related to El Pollo Loco in Missouri City on YP.com. See reviews, photos, directions, phone numbers and more for El Pollo Loco locations in ...'
p10
a.