(lp0
S'Dec 14, 2015 - December 14, 2015 13:01 ET | Source: El Pollo Loco, Inc. photo- ... Hours of operation for the Tempe El Pollo Loco restaurant are 10 a.m. to 11 p.m. seven days a week with dine-in service concluding one hour prior to ... other news releases in'
p1
aS'Dec 14, 2015 - Inspection Date, Inspection #, Violations. 12/14/2015, 5643514, 13. 06/19/2015, 5456990, 2. 11/07/2014, 5332472, 8. 06/20/2014, 5196616, 14. 05/09/2014 ...'
p2
aS"Dec 15, 2015 - News  Sports  Entertainment  Classifieds .... include McDonald's, In-N-Out Burger, Chipotle, The Habit Burger Grill, Chick-fil-A, El Pollo Loco and Panera Bread."
p3
aS'Dec 16, 2015 - Employment  Events / News. food. The University Student Union is home to a variety of ... Contact. Lidia Martinez, Manager (562) 985-1883. El Pollo Loco Logo ...'
p4
aS'Dec 16, 2015 - News Feed ... Alex Blanyino Saravia Vargas eating pollo ala braza at El Pollo Loco. ... SP Saavedra was with nghelitus Sebstian R S at El Pollo Loco. July 19 ...'
p5
aS'Dec 15, 2015 - On 15 Dec 2015 @ElPolloLoco tweeted: "Congratulations to our #LocoForZero Swee.." - read what others are saying and join the conversation.'
p6
aS'Dec 15, 2015 - Chipotle Mexican Grill founder Steve Ells appeared on The Today Show to address a recent series of foodborne illness outbreaks at the fast-casual chain.'
p7
aS'Dec 15, 2015 - Close. News & Media .... Ms. Jenkins is also the former chief marketing officer of El Pollo Loco restaurants, a 400-unit Southern California-based company.'
p8
aS'Dec 15, 2015 - Home  News ... BRAKEmax, Ell Pollo Loco open new locations. BRAKEmax comes to Sahuarita; El Pollo Loco to East Broadway in Tucson.'
p9
aS'Dec 14, 2015 - 160 reviews of El Burrito Loco "Amazing, amazing!!! This place is ... I usually get the Pollo Ranchero, it\'s more spicy then the usually which is Awesome! Was this ...'
p10
a.