(lp0
S"Dec 24, 2015 - Even before the E. coli news hit, though, Chipotle and other fast-casual chains ... Zoe's, Fiesta, El Pollo Loco and Habit logged decelerating comp growth during ..."
p1
aS"Dec 23, 2015 - Even before the E. coli news hit, though, Chipotle and other fast-casual chains ... Zoe's, Fiesta, El Pollo Loco and Habit logged decelerating comp growth during ..."
p2
aS'Dec 23, 2015 - Top news. Food ... Other Southern California brands that fall into the category include Irvine-based In-N-Out Burger and Costa Mesa-based El Pollo Loco, ...'
p3
aS'Dec 23, 2015 - News Feed ... Prieto marin usted es el ser maaas carepicha que pueda existir. Pollo Loco. Place to ... Dayana Acevedo was eating pollo asado at Pollo Loco.'
p4
aS'Dec 23, 2015 - While many other market reports only provide stock news and opinion, we offer ... Alerts For Celldex Therapeutics, Anavex Life Sciences Corp, El Pollo Loco, ...'
p5
aS'Dec 23, 2015 - Find El Pollo Loco in Huntington Park with Address, Phone number from Yahoo US Local. Includes El Pollo Loco Reviews, maps & directions to El Pollo Loco in ...'
p6
aS"Dec 25, 2015 - Labels: Burger King , Limited-Time , News .... Church's Chicken Dairy Queen Del Taco Domino's Dunkin' Donuts El Pollo Loco Hardee's In-N-Out Jack in the Box ..."
p7
aS"Dec 24, 2015 - for me, the flavor is never very consistent, depending heavily on where I get it from. the stuff at, say, El Pollo Loco won't taste the same as Fish Company in LA."
p8
aS"Dec 25, 2015 - Single tenant El Pollo Loco - San Bernardino, CA Single tenant Wendy's - New Mexico. + Show More. Client Testimonials. Chris and Milo acted as our listing ..."
p9
aS'Dec 23, 2015 - More. Copy link to Tweet; Embed Tweet. OneTen REI @OneTenREI 23 Dec 2015 Tempe, AZ. El Pollo Loco Fires Up Arizona with New Tempe Restaurant ...'
p10
a.