(lp0
S"Dec 28, 2015 - The limited time items, now available at all El Pollo Loco locations will help customers stick to their New Year's resolutions focusing on ... other news releases in"
p1
aS"Dec 28, 2015 - (Source: El Pollo Loco Holdings Inc ) 3a822dc9-79bf-4a6a-9436-df25c92a1bc1.pdf START THE NEW YEAR RIGHT WITH EL POLLO LOCO'S NEW UNDER ..."
p2
aS"Dec 28, 2015 - ... off 21%, Habit (HABT) is down 27%, El Pollo Loco (LOCO) is minus 35% and Noodles .... Access to Jim Cramer's daily blog; Intraday commentary and news ..."
p3
aS'Dec 27, 2015 - Philippine News for the Filipino Global Community. Masthead, pagematch: 1 .... Women in farming towns bear brunt of El Nio ... language? El pollo loco idea!'
p4
aS"Dec 27, 2015 - 'Hi folks, don't feel like cooking on Thursday? Good news, ... El Pollo Loco (12860 W Washington Blvd, Los Angeles)  Mexican Restaurant  The Wilshire ..."
p5
aS"Dec 28, 2015 - Local Business News. Connie Sparks: Using Other People's Money to Finance Your Business. By Connie Sparks Business Matters. December 28, 2015 1:58 ..."
p6
aS'Dec 27, 2015 - HSL Properties and its affiliates donated more than $700000 to charitable causes in 2015.'
p7
aS'Dec 28, 2015 - Carlos Rosales Mendoza, El Tsico, was killed during a series of clashes in the ... excellent news.....the more dead scumbags the better ..... Yea, but El Chango, El Mas loco, La Tuta and him founded La Familia and got rid ..... El americano also murdered his friend el pollo and made him pollo a la parrilla rostizado al carbon.'
p8
aS'Dec 28, 2015 - Qdoba Mexican Eats is a chain of fast casual restaurants in the United States and Canada serving Mexican-style cuisine. The company is a wholly owned ...'
p9
aS'Dec 29, 2015 - More news ... Pick. Report. FNQRebecca ElPolloLoco. 28 Dec 2015 16:56. 5 6. He can be more effective and ... bcmo2307 ElPolloLoco. 28 Dec 2015 17:00. 2 3.'
p10
a.