(lp0
S'Dec 2, 2015 - Ample Hills Creamery, Cantina Laredo, Fresh & Co, others also introduce new menu items.'
p1
aS'Dec 3, 2015 - Leaders become laggards as El Pollo Loco and Noodles hit lows ... while El Pollo Loco Holdings Inc. and Noodles & Co. are among those that hit all-time lows ...'
p2
aS'Dec 3, 2015 - El Pollo Loco (NASDAQ:LOCO), the citrus-marinated fire-grilled chicken specialist just introduced a "Double Chicken" line. Most people associate El Pollo Loco ...'
p3
aS"Dec 3, 2015 - At some point, Tina Marie Ortiz left the hospital room with Kevin's aunt to pick up some dinner, takeout from El Pollo Loco  only to find they were locked out ..."
p4
aS"Dec 2, 2015 - December 2, 2015 HKA Texas News, Humble ... Valley Ranch Town Center adds Chickfila, Chili's, El Pollo Loco, Freebirds, Subway, T. Jin's Asian Caf and ..."
p5
aS'Dec 3, 2015 - While many other market reports only provide stock news and opinion, we offer ... Alerts For Celldex Therapeutics, Anavex Life Sciences Corp, El Pollo Loco, ...'
p6
aS'Dec 2, 2015 - 10723 Louetta, 281-520-4015. The California-based chain El Pollo Loco has opened its sixth Houston-area store. The restaurant specializes in citrus-marinated, ...'
p7
aS'Dec 3, 2015 - Current Weather. Clear. 40. Complete Forecast  News  Sports  A & E ..... we highly recommend the Poblano Pollo Loco and liked the burgers for the most part. .... El Tipico Restaurant, 1444 South Ave., was one of the first Mexican ...'
p8
aS"Dec 3, 2015 - Save Money. Fry's Weekly Ads  Fry's Digital Coupons  Fry's Promotions. Breaking news: Wildcats given No. 6 seed in NCAA tournament, will play Thursday ..."
p9
aS"Dec 3, 2015 - Recent News | Recent Reviews | Current Deals & Specials ..... Chicken Dairy Queen Del Taco Domino's Dunkin' Donuts El Pollo Loco Hardee's In-N-Out Jack in ..."
p10
a.