(lp0
S'Dec 7, 2015 - CONTACT: MEDIA CONTACT Kellie Duffy , ICR LOCO@icrinc.com 203.682.8200. El Pollo Loco. Source: El Pollo Loco. News Provided by Acquire Media.'
p1
aS'Dec 7, 2015 - El Pollo Loco Continues California Development With Opening of New Tracy Restaurant ... other news releases in. Product / Services Announcement in the last ...'
p2
aS'Dec 8, 2015 - Bad news: Krua Thai made the list of "D" restaurants in November. ... This month saw a lot of chain restaurants including Zipp\'s, El Pollo Loco, and Village Inn ...'
p3
aS'Dec 8, 2015 - Taco Loco A crispy Flour Tortilla bowl filled with Lettuce and Grilled Chicken ... Pollo Adobo Sauteed Chicken with Spinach, Onions, Mushrooms and Tomatoes. ..... El Regional Sauteed Mushrooms, Green Squash, Onions and Tomatoes with ...'
p4
aS"Dec 8, 2015 - Watch 'Behind The Kitchen Door' on KSAT 12 News ... 22211 IH-10 W., perfect score; El Pollo Loco, 4645 W. Commerce St., perfect score; Honey Baked Ham, ..."
p5
aS'Dec 8, 2015 - While many other market reports only provide stock news and opinion, we ... El Pollo Loco, First Solar, Dollar Tree and hundreds of other stocks Released By ...'
p6
aS'Dec 8, 2015 - While many other market reports only provide stock news and opinion, we offer ... Alerts For Celldex Therapeutics, Anavex Life Sciences Corp, El Pollo Loco, ...'
p7
aS"Dec 8, 2015 - National News  Houston Real Estate News  Contact Us ... El Pollo Loco is opening at the corner of I-69 and FM 762 in the space formerly occupied by Arby's."
p8
aS'Dec 8, 2015 - Get reviews, hours, directions, coupons and more for El Pollo Loco at 310 E Main St, Radford, VA. Search for other Fast Food Restaurants in Radford on YP.com.'
p9
aS"Dec 8, 2015 - Auntie Anne's Soft Pretzels; Bagel Street Caf (Clark Oil); Blimpie; Cosi; D'Angelos; Denny's; Dippin' Dots; El Pollo Loco; Famous Famiglia; Fuzzy's Taco Shop ..."
p10
a.