(lp0
S"Jan 20, 2015 - At South Napa Marketplace, an El Pollo Loco, fast-food-style restaurant, will soon replace the ... El Pollo Loco should be open for business this year, officials said. .... Currents. +7. The restaurant business is booming in Iraq. Here's why  News ..."
p1
aS"Jan 20, 2015 - The offering follows a string of successful IPOs by casual dining chains last year, including Habit Restaurants Inc, El Pollo Loco Holdings Inc and Zoe's Kitchen ..."
p2
aS"Jan 20, 2015 - El Pollo Loco's shares rose as much as 33 percent in their debut in July, while shares of Zoe's Kitchen jumped more than 70 percent when the company listed in ..."
p3
aS'Jan 20, 2015 - Consulting my phone, I scrolled through a list of familiar names in the area: Panera Bread, California Pizza Kitchen, El Pollo Loco. I was on the verge on just ...'
p4
aS'Jan 20, 2015 - Other fast-casual restaurant operators have fared well after their IPOs, including chicken chain El Pollo Loco Holdings and Mediterranean-style restaurant chain ...'
p5
aS'Jan 20, 2015 - El Pollo Loco free meal and more discount food. ... New year, good news -- Our Under 500 Calories menu has fresh new additions to help you kick-off a healthy ...'
p6
aS'Jan 20, 2015 - El Pollo Loco Holdings Inc. fetches around 2.5 times sales, Noodles & Co. trades at 2 times, and Potbelly Corp. is valued at around 1.2 times its annualized sales ...'
p7
aS"Jan 20, 2015 - Valley Ranch Town Center adds Chickfila, Chili's, El Pollo Loco, Freebirds, Subway, T. Jin's Asian Caf and others ... What's NEW and NEWS in HKA Texas!"
p8
aS'Jan 20, 2015 - El Pollo Loco followed with a $200 million secondary offering in November. Shake Shack plans to list on the New York Stock Exchange under symbol SHAK.'
p9
aS'Jan 20, 2015 - Breaking News : IN THE BLACK MEDIA 2 CALLS THE BLACK WOMAN A "B!TCH"?OMAR aka EL POLLO LOCO(Parody) - Duration: 4 minutes, 47 seconds.'
p10
a.