(lp0
S'Jan 23, 2015 - Costa Mesa-based El Pollo Loco Holdings Inc. has been mentioned as a possible takeover target after news reports that a Philippines-based restaurant ...'
p1
aS"Jan 22, 2015 - Nation's Restaurant News ... but a Wall Street analyst issued a report outlining six potential candidates, including El Pollo Loco, Fiesta Restaurant Group Inc., ..."
p2
aS'Jan 23, 2015 - Other brands mentioned, including El Pollo Loco (EV multiple  19.5x), Popeyes Louisiana Kitchen (20.6x), Fiesta Restaurant Group (20.4x) and Sonic Corp.'
p3
aS'Jan 22, 2015 - Elk Grove\'s Unique Online Google News Source .... M.D. "El Pollo Loco is a good example of a business that invests in the local .... Who eats at El Pollo Loco?'
p4
aS'Jan 22, 2015 - El Pollo Loco Franchise Opportunity ... Based in Dallas and with more than 300 locations across the U.S., Mexico, El Salvador and Uruguay, Red Mango is a ...'
p5
aS"Jan 22, 2015 - Valley Ranch Town Center adds Chickfila, Chili's, El Pollo Loco, Freebirds, Subway, T. Jin's Asian Caf and others ... What's NEW and NEWS in HKA Texas!"
p6
aS'Jan 22, 2015 - Drivers Melany Rodriguez, left, and Meghan Krueger are responsible for bringing the Planters Nutmobile to town. The vehicle, on a promotion swing around the ...'
p7
aS'Jan 23, 2015 - ... for the quarter and any news from its pending acquisition by Comcast Corp. ..... casual dining chains last year, including Habit Restaurants Inc, El Pollo Loco ...'
p8
aS'Jan 23, 2015 - New Strong Buy Stocks for March 29th Zacks; The Zacks Analyst Blog Highlights: El Pollo Loco Holdings, Habit Restaurants, Ross Stores, Target and Wal-Mart ...'
p9
aS'Jan 22, 2015 - People Also Like. El Pollo Loco (336 E Market St, Salinas, CA) ... News Feed ... Share  Montecito Manor Assisted Living, Linda Lampe and Al Gaxiola like this.'
p10
a.