(lp0
S'Jan 2, 2015 - Shares of El Pollo Loco, another fast casual company, were up 5.5 percent Friday from their $19 market debut in July. ... Our top news photography last month.'
p1
aS'Jan 1, 2015 - Scheduled to open this spring is the restaurant El Pollo Loco. The city of Tracy is also currently working on completing the site appraisal for Chipotle Mexican ...'
p2
aS"Jan 2, 2015 - National news ... Also, Zoe's Kitchen ZOES, +1.88% and El Pollo Loco LOCO, -1.13% admittedly the best stock symbol since the advent of time, came public and ..."
p3
aS'Jan 2, 2015 - Here are the top 25 Director Of Operations profiles at El Pollo Loco on LinkedIn. Get all the articles, ... Current, Director of Operations at El Pollo Loco, District Manager at El Pollo Loco. Past, Area .... Discover news and ideas. Connect with the ...'
p4
aS'Jan 2, 2015 - You can access more in-depth stories and analysis, as well as news not found on any other website or any other media outlet. You also get free eNewsletters, ...'
p5
aS"Jan 2, 2015 - 'Teen Wolf' Season 6 Spoilers, Cast News, Rumors: Peter Hale Is Back To ... up as the chicken mascot for the restaurant chain El Pollo Loco to make ends meet."
p6
aS'Jan 1, 2015 - In the Argentine capital, the family set up El Pollo Loco or Crazy Chicken  a Persian caf and delicatessen  and by the age of four Marsha could speak Farsi, ...'
p7
aS'Jan 1, 2015 - Current Weather. Partly cloudy. 27. Complete Forecast  News  Sports ..... The grande fajita burrito, Mexican chili, and pollo loco were tasty standouts. ... months after opening in its new location on Douglas Road, El Nuevo Vallarta is back to ...'
p8
aS'Jan 1, 2015 - ... more Wall Street Pros; Intraday commentary & news; Ultra-actionable trading ... Diversified model portfolio of dividend stocks; Alerts when market news affect ...'
p9
aS'Jan 2, 2015 - AVOCADO SALAD - 5 UNDER 500 CALORIES from El Pollo Loco with 5 reviews from critics and local diners. View menu online and photos.'
p10
a.