(lp0
S"Jan 6, 2015 - Go crazy and join El Pollo Loco's eClub and My Loco Rewards program for exclusive news, rewards and previews delivered directly to your inbox. My Loco ..."
p1
aS'Jan 5, 2015 - El Pollo Loco continues to grow quickly as it expands store count, profit margins rise ... Baird Sees Loco Undervalued, Wild Wings Overvalued ... Related news.'
p2
aS'Jan 6, 2015 - The newest El Pollo Loco restaurant at 10506 Trinity Parkway , Stockton, celebrated its opening with a ribbon cutting Tuesday.Human relations manager George ...'
p3
aS'Jan 6, 2015 - El Pollo Loco Holding Inc. lost nearly 50% in two months, but an overdone selloff and two analyst upgrades promise good things for LOCO stock.'
p4
aS'Jan 6, 2015 - Bidness Etc takes a look at Jeffries upgrade of El Pollo LoCo Holdings Inc (NASDAQ:LOCO) stock to a Buy.'
p5
aS"Jan 6, 2015 - Go crazy and join El Pollo Loco's eClub and My Loco Rewards program for exclusive news, rewards and previews delivered directly to your inbox. My Loco ..."
p6
aS"Jan 5, 2015 - 5, 2015 (GLOBE NEWSWIRE) -- El Pollo Loco (Nasdaq:LOCO), the nation's leading fire-grilled chicken chain, today announced an ... other news releases in"
p7
aS'Jan 6, 2015 - El Pollo LoCo Holdings (NASDAQ:LOCO) stock jumped this morning in premarket trading after several analysts announced upgrades for the company.'
p8
aS'Jan 6, 2015 - Menu Tracker: New items from White Castle, Starbucks, El Pollo Loco, more. Jan 6, 2015. Bret Thorn. Comments 0. Advertisement. Next. Prev. Advertisement.'
p9
aS"Jan 6, 2015 - Analysts at Jefferies upgraded their El Pollo Loco Holdings, Inc. (LOCO) rating to 'Buy' ... In other El Pollo Loco Holdings news this morning, the nation's leading ..."
p10
a.