(lp0
S'Jan 8, 2015 - January 08, 2015 14:42 ET | Source: El Pollo Loco, Inc. ... Local fans are also encouraged to join the My Loco Rewards program for exclusive news, rewards and ...'
p1
aS'Jan 9, 2015 - LA Weekly is the definitive source of information for news, music, movies, restaurants, ... L.A. El Pollo Loco Franchisee Fined $145K for Overtime Violations.'
p2
aS"Jan 8, 2015 - El Pollo Loco (Nasdaq:LOCO), the nation's leading fire-grilled chicken restaurant ... an analyst upgrades/downgrades the stock or when significant news hits the ..."
p3
aS"Jan 9, 2015 - Locally, chains marketing socially responsible or low-calorie menu items include Carl's Jr., Del Taco, El Pollo Loco and Chick-fil-A. BY NANCY LUNA / STAFF ..."
p4
aS'Jan 8, 2015 - El Pollo Loco is featuring four under-500-calorie items (chicken-and-shrimp grilled tostada, skinny chicken quesadilla, grilled chicken and kale salad, double ...'
p5
aS"Jan 8, 2015 - New Miami Subs News .... Don Pablo's  Dunkin Donuts  El Chico  El Pollo Loco  El Ranchero Grande  El Torito  Famous Daves  Fleming's Prime Steakhouse ..."
p6
aS'Jan 8, 2015 - Updated news for Pharming Group N.V. - including PHGUF company news, press releases and other ... El Pollo Loco cuts guidance as sales growth slows.'
p7
aS'Jan 8, 2015 - Join LinkedIn to get the latest news, insights, and opportunities from over 3 ... Nissin Foods; Amada America, Inc. Maxim Integrated; El Pollo Loco; Creative ...'
p8
aS'Jan 8, 2015 - Join LinkedIn to get the latest news, insights, and opportunities from over 3 ... Golden Arch Enterprises  Peglion LLC DBA EL Pollo Loco  Csc Investments Llc ...'
p9
aS'Jan 9, 2015 - Chain taps bloggers, social media in mysterious unveiling of new rib flavors, more.'
p10
a.