(lp0
S'Feb 10, 2015 - Stocks in the News ... (PNRA - Analyst Report) and El Pollo Loco Holdings Inc (LOCO - Snapshot Report), ... Zacks News for ( MCD, CMG, LOCO, PNRA, SHAK ) ...'
p1
aS'Feb 10, 2015 - El Pollo Loco  Dinner for Two for $10. Includes 4 pc legs and thighs, 3 small sides, 2 loco salads, 2 churros and 2 small drinks. Available through February 15th ...'
p2
aS'Feb 9, 2015 - News in Focus .... held recent operations roles in restaurant brands such as Fresh Enterprises, Inc. and El Pollo Loco. ... The news you need, when you need it.'
p3
aS"Feb 9, 2015 - MCD stock fell just over 1% on the news; shares are now down about 3% in ... and El Pollo LoCo Holdings Inc (NASDAQ:LOCO) hasn't helped MCD stock either."
p4
aS'Feb 10, 2015 - Here are the top 25 District Manager profiles at El Pollo Loco on LinkedIn. Get all the articles, experts, jobs, and insights you need.'
p5
aS"Feb 10, 2015 - They are easy to find in EL Pollo Loco's chicken and nobody cares. ... happens that frequently, but I've seen this same body part on a UK news site from KFC."
p6
aS"Feb 9, 2015 - The two buildings include three tenants: 901 Bar & Grill at 2902 South Figueroa St, Carl's Jr at 2912 South Figueroa St, and El Pollo Loco at 2904 South ..."
p7
aS"Feb 9, 2015 - Cramer says this is a very big currency play, but the good news is it's ... The next user asks about El Pollo Loco (LOCO - Get Report) , and Cramer says he likes ..."
p8
aS"Feb 9, 2015 - February 9, 2015 LOCAL NEWS. Share ... Valley Ranch Town Center adds Chickfila, Chili's, El Pollo Loco, Freebirds, Subway, T. Jin's Asian Caf and others."
p9
aS"Feb 10, 2015 - Proposed highway seen as key to region's economic future."
p10
a.