(lp0
S"Feb 12, 2015 - The secret to El Pollo Loco is great-tasting food. ... 2,812 Franchises | 2,998 Articles | 54,639 News Stories .... El Pollo Loco's marketing team of experience executives and management is dedicated to providing first-class marketing support."
p1
aS'Feb 10, 2015 - El Pollo Loco  Dinner for Two for $10. Includes 4 pc legs and thighs, 3 small sides, 2 loco salads, 2 churros and 2 small drinks. Available through February 15th ...'
p2
aS"Feb 11, 2015 - US fast-food chicken chain El Pollo Loco announced the launch of five new Baja ... and a seafood chowder at select locations, reports Nation's Restaurant News."
p3
aS"Feb 10, 2015 - They are easy to find in EL Pollo Loco's chicken and nobody cares. ... happens that frequently, but I've seen this same body part on a UK news site from KFC."
p4
aS'Feb 10, 2015 - Here are the top 25 District Manager profiles at El Pollo Loco on LinkedIn. Get all the articles, experts, jobs, and insights you need.'
p5
aS'Feb 11, 2015 - EXCEPTIONS: El Pollo Loco, Panda Express and Subway. For more details and to load your MataMoney cards online, click here. For any questions regarding ...'
p6
aS'Feb 11, 2015 - The strip mall, located on the west side of Blackstone just north of Sierra, currently is home to Dollar General, Goodwill, El Pollo Loco, Fashion Furniture Outlet ...'
p7
aS'Feb 10, 2015 - Brands and Franchises: Brooks Brothers, U-Haul, El Pollo Loco, United Van Lines, ... Media Companies: The Weather Company, The Dallas Morning News, The ...'
p8
aS"Feb 11, 2015 - February 11, 2015 For Birthdays, HKA Texas News, Humble, Things to do in ... Valley Ranch Town Center adds Chickfila, Chili's, El Pollo Loco, Freebirds, ..."
p9
aS"Feb 10, 2015 - Proposed highway seen as key to region's economic future."
p10
a.