(lp0
S"Feb 12, 2015 - The secret to El Pollo Loco is great-tasting food. ... 2,812 Franchises | 2,998 Articles | 54,639 News Stories .... El Pollo Loco's marketing team of experience executives and management is dedicated to providing first-class marketing support."
p1
aS"Feb 11, 2015 - US fast-food chicken chain El Pollo Loco announced the launch of five new Baja ... and a seafood chowder at select locations, reports Nation's Restaurant News."
p2
aS"Feb 12, 2015 - El Pollo Loco Chick-fil-a. Freebirds Sports Clips Supercuts GNC Subway Nails of America T. Jin's Asian Caf. Download: Site Plan. Azalea District Now Open."
p3
aS"Feb 11, 2015 - February 11, 2015 For Birthdays, HKA Texas News, Humble, Things to do in ... Valley Ranch Town Center adds Chickfila, Chili's, El Pollo Loco, Freebirds, ..."
p4
aS'Feb 11, 2015 - The strip mall, located on the west side of Blackstone just north of Sierra, currently is home to Dollar General, Goodwill, El Pollo Loco, Fashion Furniture Outlet ...'
p5
aS'Feb 11, 2015 - EXCEPTIONS: El Pollo Loco, Panda Express and Subway. For more details and to load your MataMoney cards online, click here. For any questions regarding ...'
p6
aS'Feb 12, 2015 - Updated El Pollo Loco reports higher profit; sales slide. 5:20 P.M. ET. Bojangles profit dips, but results .... More News from MarketWatch. Top Stories. Trending.'
p7
aS'Feb 12, 2015 - You can access more in-depth stories and analysis, as well as news not found on any other website or any other media outlet. You also get free eNewsletters, ...'
p8
aS'Feb 12, 2015 - Covered CA and Youth Speak Outreach Event - Enroll for Coverage  Project Youth Green Volunteer Days  First Step College Tour Fundraiser at El Pollo Loco.'
p9
aS'Feb 11, 2015 - ... and provide the warfighter with even more options in the battlespace, Mike Jarrett, Raytheon Air Warfare Systems vice president, said in a news release.'
p10
a.