(lp0
S"Feb 12, 2015 - El Pollo Loco Chick-fil-a. Freebirds Sports Clips Supercuts GNC Subway Nails of America T. Jin's Asian Caf. Download: Site Plan. Azalea District Now Open."
p1
aS'Feb 13, 2015 - The Katy News welcomes the newest members of the Katy Chamber and hopes that you will enjoy meeting them. Jan 9 Storage West Houston 19936 Saums Rd ...'
p2
aS"Feb 13, 2015 - ... he showed up for what he thought would be a tryst with a young girl who he'd been chatting with online, Tucson police said in a news release Thursday night."
p3
aS'Feb 12, 2015 - Tucson IDA supports community through programs like Pima-Tucson Homebuyers Solution.'
p4
aS'Feb 12, 2015 - You can access more in-depth stories and analysis, as well as news not found on any other website or any other media outlet. You also get free eNewsletters, ...'
p5
aS'Feb 12, 2015 - Updated El Pollo Loco reports higher profit; sales slide. 5:20 P.M. ET. Bojangles profit dips, but results .... More News from MarketWatch. Top Stories. Trending.'
p6
aS"Feb 13, 2015 - ... McDonald's to offer Filet-O-Fish with Old Bay to spice up sales  El Pollo Loco debuts Baja ... Surimi Forum 2016 blog: Catch the latest news on the sector here ..."
p7
aS'Feb 12, 2015 - These online sales were featured at either DealsPlus or U.S. News & World Report ... velvet Blizzard Cupid cake for $9.99; El Pollo Loco -- Dinner for two for $10 ...'
p8
aS'Feb 13, 2015 - Current, Director of Real Estate at El Pollo Loco. Past, Director of Real Estate at Corner Bakery Cafe, Director of Real Estate at Which Wich? Superior ...'
p9
aS'Feb 13, 2015 - Investors call some stocks their darlings. Date one of these bulls in this season of love.'
p10
a.