(lp0
S'Feb 6, 2015 - Pollo Norte often sells out of its Mexico City-style rotisserie chicken by 6:30 p.m. .... Pollos a la Brasa El Inka, the Gresham gem, cooks its Peruvian-style chickens in a wood-fired rotisserie. Wander .... The quality and taste of the Pollo Loco chicken was excellent and even with a heavy hispanic .... Your Regional News Pages.'
p1
aS'Feb 5, 2015 - While at DGWB, Koegeboehn also led nationally-recognized accounts including California Avocado Commission, Yogurtland, Dole, and El Pollo Loco.'
p2
aS'Feb 7, 2015 - Nutrition information and analysis for El Pollo Loco Gravy. See calories, carbs, fat ... Your source for health news and medical information. Explore HealthGrove .'
p3
aS'Feb 7, 2015 - Nutrition information and analysis for El Pollo Loco Roja Salsa. See calories, carbs, fat, ... HealthGrove. Your source for health news and medical information.'
p4
aS"Feb 6, 2015 - As El Pollo Loco expands across the Houston area, I've been given the chance to ... One last bit of exciting news before I close up for the day, there was another ..."
p5
aS'Feb 5, 2015 - Maybe eat at nicer places than El Pollo Loco? Kidding. Shit is good. Though maybe explain to her a bit more about how the intimacy stuff makes you feel ...'
p6
aS'Feb 5, 2015 - ... Family Dollar, Dollar General, Yogurtland, Clarks Nutritional Centers, King Taco, Sherwin Williams, Sears Appliance, El Pollo Loco, Regency Movie Theatres, ...'
p7
aS"Feb 5, 2015 - Starbucks, Dunkin' Donuts, Jack in the Box, El Pollo Loco, Bonefish Grill, Red Lobster, ... Menu Tracker: New items from Burger King, Freshii, Pollo Campero,"
p8
aS'Feb 6, 2015 - The category includes companies like the Habit Burger Grill, which saw a 120 percent first-day pop in November, and El Pollo Loco, which saw a nearly 23 ...'
p9
aS"Feb 5, 2015 - Valley Ranch Town Center adds Chickfila, Chili's, El Pollo Loco, Freebirds, Subway, T. Jin's Asian Caf and others ... What's NEW and NEWS in HKA Texas!"
p10
a.