(lp0
S"Mar 12, 2015 - El Pollo Loco Holdings Inc.'s systemwide same-store sales rose 7.6 percent for the ... You can access more in-depth stories and analysis, as well as news not ..."
p1
aS"Mar 12, 2015 - Shares of El Pollo Loco (LOCO) are up in after-hours trading today as the company ... Access to Jim Cramer's daily blog; Intraday commentary and news ..."
p2
aS"Mar 12, 2015 - El Pollo Loco's shares are soaring on news that the company had another successful quarter. Investors believe the Tex-Mex chicken chain could be the next ..."
p3
aS"Mar 12, 2015 - Shares of El Pollo Loco are surging after the fast food chain reported strong sales for its fourth quarter. The chain's revenue increased 12% to $90 million for the ..."
p4
aS'Mar 12, 2015 - El Pollo Loco Holdings Inc. (NASDAQ: LOCO) reported its fourth-quarter financial results after markets closed on Thursday. The crazy chicken had $0.14 in ...'
p5
aS'Mar 11, 2015 - Reuters Signs a News Deal with Red Bull, But Is That a Good Thing? .... Grilled chicken maker El Pollo Loco LOCO 2.92% is faring a bit better, with the stock ...'
p6
aS'Mar 12, 2015 - Shake Shack (NYSE:SHAK), Potbelly (NASDAQ:PBPB), El Pollo Loco (NASDAQ:LOCO) and others may have what it takes on the menu, but will their numbers ...'
p7
aS"Mar 12, 2015 - ... just north of Sierra, currently is home to Dollar General, Goodwill, El Pollo Loco and a number of smaller stores. ... That's very good news, Beal said. It's been ..."
p8
aS'Mar 12, 2015 - El Pollo Loco shares look tasty after an earnings-driven spike, said CNBC "Fast ... "You own it until there\'s a piece of bad news where they really sell it, and they ...'
p9
aS'Mar 12, 2015 - Aeropostale (ARO) and El Pollo Loco (LOCO) will report after the close. The U.S. government will post weekly jobless claims at 8:30 a.m. ET. The Census ...'
p10
a.