(lp0
S'Mar 16, 2015 - El Pollo Loco stock can be quite volatile, but it also offers mouthwatering potential for growth in the years ahead.'
p1
aS'Mar 16, 2015 - We engage members via e-mails featuring news of promotional offers, member rewards, and product previews. Members are offered complimentary two-piece ...'
p2
aS"Mar 17, 2015 - An El Pollo Loco opened in the center in 2008, but closed in 2011 amidst the chain's struggles in the Atlanta market. Today, the former chicken joint is an urgent ..."
p3
aS"Mar 17, 2015 - Economic News This Week ... Comparable Store Sales Reports: Casey's General Store up 14.1 percent, El Pollo Loco (system up 7.6 percent, company-owned ..."
p4
aS"Mar 16, 2015 - September 24, 2014 HKA Texas News, New Caney ... Valley Ranch Town Center adds Chickfila, Chili's, El Pollo Loco, Freebirds, Subway, T. Jin's Asian Caf ..."
p5
aS"Mar 16, 2015 - HKA Texas News Director, Editor .... Valley Ranch Town Center adds Chickfila, Chili's, El Pollo Loco, Freebirds, Subway, T. Jin's Asian Caf and others. April 7 ..."
p6
aS"Mar 16, 2015 - March 16, 2015 Business Spotlight, HKA Texas News, New Caney ... Valley Ranch Town Center adds Chickfila, Chili's, El Pollo Loco, Freebirds, Subway, ..."
p7
aS"Mar 17, 2015 - El Pollo Loco's business is on fire  Powdered alcohol will come to America this summer. Arts & Entertainment; Business; Buffalo Wild Wings; Business Insider ..."
p8
aS'Mar 16, 2015 - Find 1 listings related to El Pollo Loco in Smyrna on YP.com. See reviews, photos, directions, phone numbers and more for El Pollo Loco locations in Smyrna, ...'
p9
aS'Mar 16, 2015 - Market News  Stock Ideas  Dividends  Market Outlook  Investing Strategy  ETFs & ... El Pollo Loco (NASDAQ:LOCO) - 7.6%; Noodles (NASDAQ:NDLS) - 1.3% ...'
p10
a.