(lp0
S'Mar 20, 2015 - El Pollo Loco gluten-free menu includes their flame grilled Mexican chicken, corn ... avoid any flour tortillas, and you can easily eat gluten-free at El Pollo Loco.'
p1
aS'Mar 19, 2015 - After a strong quarterly report from El Pollo Loco (NASDAQ:LOCO), Levy Acquisition Corp. (LEVY) announced that it was buying Del Taco. The purchase price ...'
p2
aS'The Famous San Diego Chicken Commercial El Pollo Loco. ... ABC 10 News 520 views. 3:54. Red Door ...'
p3
aS'Mar 19, 2015 - Find 3 listings related to El Pollo Loco in Greeley on YP.com. See reviews, photos, directions, phone numbers and more for El Pollo Loco locations in Greeley, ...'
p4
aS'Mar 19, 2015 - El Pollo Loco COO Kay Bogeajis to leave company. 8:02 A.M. ET. Westlake Chemical raises bid for .... More News from MarketWatch. Top Stories. Trending.'
p5
aS'Mar 20, 2015 - Businesses like the Buylow Supermarket, Dollar General and El Pollo Loco have opened their doors, with a Starbucks slated to open soon on Martin Luther King ...'
p6
aS"Mar 20, 2015 - March 20, 2015 HKA Texas News, Kingwood, ShopHKA ... Valley Ranch Town Center adds Chickfila, Chili's, El Pollo Loco, Freebirds, Subway, T. Jin's Asian ..."
p7
aS'Mar 19, 2015 - Submit Your News ... But another feature of the 700 square foot shop just west of Pollo Loco on William Street is touted by the .... El Dorado Savings Bank Full .'
p8
aS'Mar 19, 2015 - The rice and beans were roughly the same as El Pollo Loco but small portions. ... The only good news is that it was taco Tuesday, so I wasted slightly less money ...'
p9
aS'Mar 19, 2015 - Information and news for the media ... El Pollo Loco was the most expensive stock to borrow one month after its IPO; its shared have subsequently retreated by ...'
p10
a.