(lp0
S'Mar 25, 2015 - El Pollo Loco Sold in Henderson. elpollo. El Pollo Loco Sold in Henderson. 22:07 25 March in Just Closed, News by Makayla Turner  0 Comments. 0 Likes ...'
p1
aS"Mar 26, 2015 - Shake Shack (NYSE:SHAK), El Pollo Loco (NASDAQ:LOCO), and Zoe's Kitchen (NYSE:ZOES) are three restaurant stocks firing on all cylinders and offering ..."
p2
aS'Mar 26, 2015 - Find El Pollo Loco\'s price list in the USA which offers "Classsic Salad, Burrito, ... GOOD NEWS ... El Pollo Loco makes primarily Mexican chicken entrees.'
p3
aS"Mar 25, 2015 - Posted in News on Wednesday, March 25, 2015 4:38 pm. ... facility in Humble  El Pollo Loco celebrates growing presence in Houston by hosting 'Loco Fun Day' ..."
p4
aS"Mar 26, 2015 - News Feed. Yazmine Herrera added a new photo  at El Camaron Loco 2. October 15, 2015  Aurora, CO, United States . Yazmine Herrera's photo. 25 Likes."
p5
aS"Mar 26, 2015 - March 26, 2015 Atascocita, HKA Texas News, ShopHKA ... Valley Ranch Town Center adds Chickfila, Chili's, El Pollo Loco, Freebirds, Subway, T. Jin's Asian ..."
p6
aS'Mar 25, 2015 - Member & Headquarter News. 6. Industry .... cities within a 100 mile radius including Mobile, AL. .... franchisees who currently operate 13 El Pollo Loco stores.'
p7
aS"Mar 25, 2015 - El Pollo Loco (LOCO) is an Ugly Duckling set-up trying to push up off of a ... Personal or not, investors didn't take kindly to the news, sending GOGO down to its ..."
p8
aS"Mar 25, 2015 - They are Broken Yolk Bauer said when they do eat out, Cafe, California Pizza Kitchen, she prefers having her children Chili's, El Pollo Loco, Sombrero split an ..."
p9
aS"Mar 25, 2015 - Nation's Restaurant News. Search: Events/MUFSO  Digital Edition  Subscribe ..... Nation's Restaurant News Corporate. About Us  Advertise  Contact  Terms of ..."
p10
a.