(lp0
S"Mar 5, 2015 - At El Pollo Loco, we go to crazy lengths for our signature citrus-marinated,... ... News Feed ... El Pollo Loco (Brownsville - Boca Chica)'s photo. Share."
p1
aS"Mar 5, 2015 - CSPnet.com - Convenience Store News  April 2016 CSP cover .... Raising Cane's has highest stomach share, followed by El Pollo Loco. Raising Cane's had ..."
p2
aS"Mar 4, 2015 - El Pollo Loco moved up several spots in this year's study to land in second place, .... for the latest insights, timely discussions, commentary and industry news."
p3
aS'Mar 4, 2015 - Three-piece mixed chicken meal with campero beans and cole slaw at Pollo ... What results is not as plump as Juan Pollo, comparable to El Pollo Loco with respect ... News. Sports. Biz. A&E. Email. Life. Wanted man arrested after brandishing ...'
p4
aS'Mar 4, 2015 - ... atmosphere categories," Market Force reported. "It was recognized for offering the healthiest food options, as were El Pollo Loco, Zaxby\'s and Boston Market.".'
p5
aS'Mar 6, 2015 - Crossroads Village is anchored by an Aldi and was (previously) also home to a popular and successful location of El Pollo Loco. In early 2010, William "Willie" ...'
p6
aS'Mar 4, 2015 - El Pollo Loco moved up several spots from the year prior to take second, followed by ... Del Taco has highest stomach share, followed by El Pollo Loco. ... NEWS. Grubhub, California Pizza Kitchen partner to provide delivery for 117 locations.'
p7
aS'Mar 6, 2015 - Latest News  Calendar; Ensembles. Advanced Orchestra  Intermediate Band  Intermediate ... El Pollo Loco Dine-out. April 21 at 2:00 PM - 9:00 PM. Wed 04 ...'
p8
aS'Mar 4, 2015 - LOCO: EL POLLO LOCO Detailed Estimate. ... News. All News. Estimates. Detailed Estimates. Zacks Research. Snapshot  Analyst ... Get Free Report for LOCO.'
p9
aS"Mar 4, 2015 - Essential Local News and Opinion for Greater San Diego ... Chick-fil-A, Chili's, Cold Stone Creamery, El Pollo Loco, On the Border, The Patio, Poway Sushi ..."
p10
a.