(lp0
S"Apr 13, 2015 - Bojangles' may seem to be going public at the right time given the success that investors in Popeyes and El Pollo Loco may be experiencing, but Bojangles' ..."
p1
aS'Apr 13, 2015 - El Pollo Loco planning to fill former KFC space in Folsom - It appears a former KFC location in Folsom is getting a new life, with a continued focus on chicken.'
p2
aS'Apr 13, 2015 - Find 20 listings related to El Pollo Loco in Silver Spring on YP.com. See reviews, photos, directions, phone numbers and more for El Pollo ...'
p3
aS"Apr 12, 2015 - April 12, 2015 Atascocita, HKA Texas News, The Groves ... Valley Ranch Town Center adds Chickfila, Chili's, El Pollo Loco, Freebirds, Subway, T. Jin's Asian ..."
p4
aS"Apr 13, 2015 - Save Money. Fry's Weekly Ads  Fry's Digital Coupons  Fry's Promotions  Home/; News/; Blogs/; Blog: Latest Tucson crime news ..."
p5
aS"Apr 13, 2015 - Save Money. Fry's Weekly Ads  Fry's Digital Coupons  Fry's Promotions  Home/; Tucson's entertainment guide/; Blogs/; Latest entertainment and dining news ..."
p6
aS'Apr 14, 2015 - Recent restaurant industry IPO debuts like Shake Shack and El Pollo Loco have been turning heads, .... Subscribe to receive the latest BDO News and Insights.'
p7
aS"The only fast food I eat now a days is El Pollo Loco, In N Out and maybe Jack N The Box. I've never been told asking for extra condiments cost extra. I live in ..."
p8
aS'Apr 14, 2015 - Based in New York with an office in Shanghai, American Securities LLC is a leading U.S. private equity firm that invests in market-leading North American ...'
p9
aS'Apr 12, 2015 - News Feed ..... People Also Like. YSC DB /WR Training 101. Sports League. El Pollo Loco (4330 Genessee Ave, San Diego)  Mexican Restaurant  Capelli.'
p10
a.