(lp0
S'Apr 14, 2015 - Steve Sather first tasted El Pollo Loco 20 years before he took over the corner office. ... Time Inc. All rights reserved. Search. News; Popular; Videos; Fortune 500 ...'
p1
aS"Apr 13, 2015 - Bojangles' may seem to be going public at the right time given the success that investors in Popeyes and El Pollo Loco may be experiencing, but Bojangles' ..."
p2
aS"Apr 14, 2015 - ... individual investors. Includes the bull case, bear case, breaking news. ... El Pollo Loco, Bojangles' Prospects Bright: Take Your Pick. at Zacks.com (Mar 11, ..."
p3
aS'Apr 14, 2015 - ... in the recent past include El Pollo Loco Holdings, Inc. (LOCO - Snapshot Report), ... Get the latest research report on LOCO - FREE ... Zacks News for ( SHAK ) ...'
p4
aS'Apr 14, 2015 - If she was on the West Coast, a trip to El Pollo Loco would have done the trick as well. But Chipotle was the ... Filed in: National/World News. Topics: chipotle ...'
p5
aS"Apr 14, 2015 - Posted in News on Tuesday, April 14, 2015 9:51 am. ... facility in Humble  El Pollo Loco celebrates growing presence in Houston by hosting 'Loco Fun Day' ..."
p6
aS'Apr 13, 2015 - Find 20 listings related to El Pollo Loco in Silver Spring on YP.com. See reviews, photos, directions, phone numbers and more for El Pollo ...'
p7
aS'Apr 14, 2015 - Some other restaurant stocks that debuted on the stock market in the recent past include El Pollo Loco Holdings, Inc. LOCO, The Habit Restaurants, Inc. HABT ...'
p8
aS'Apr 14, 2015 - If she was on the West Coast, a trip to El Pollo Loco (LOCO) would have done the trick as well. fast food hillary chipotle. Related: Hillary channels Elizabeth ...'
p9
aS"Apr 13, 2015 - Save Money. Fry's Weekly Ads  Fry's Digital Coupons  Fry's Promotions  Home/; News/; Blogs/; Blog: Latest Tucson crime news ..."
p10
a.