(lp0
S'Apr 14, 2015 - Steve Sather first tasted El Pollo Loco 20 years before he took over the corner office. ... Time Inc. All rights reserved. Search. News; Popular; Videos; Fortune 500 ...'
p1
aS'Apr 15, 2015 - El Pollo Loco is offering Baja shrimp as a seasonal menu option available through spring. New entres include Shrimp & Chicken Avocado Bowl, featuring rice, ...'
p2
aS"Apr 14, 2015 - ... individual investors. Includes the bull case, bear case, breaking news. ... El Pollo Loco, Bojangles' Prospects Bright: Take Your Pick. at Zacks.com (Mar 11, ..."
p3
aS'Apr 14, 2015 - ... in the recent past include El Pollo Loco Holdings, Inc. (LOCO - Snapshot Report), ... Get the latest research report on LOCO - FREE ... Zacks News for ( SHAK ) ...'
p4
aS'Apr 14, 2015 - If she was on the West Coast, a trip to El Pollo Loco would have done the trick as well. But Chipotle was the ... Filed in: National/World News. Topics: chipotle ...'
p5
aS"Apr 14, 2015 - Posted in News on Tuesday, April 14, 2015 9:51 am. ... facility in Humble  El Pollo Loco celebrates growing presence in Houston by hosting 'Loco Fun Day' ..."
p6
aS'Apr 16, 2015 - (AllHipHop News) This week marks the ten year anniversary of the Dame Dash directed film State ... N.O.R.E. starred as El Pollo Loco in the 2005 sequel.'
p7
aS'Apr 14, 2015 - Some other restaurant stocks that debuted on the stock market in the recent past include El Pollo Loco Holdings, Inc. LOCO, The Habit Restaurants, Inc. HABT ...'
p8
aS'Apr 14, 2015 - If she was on the West Coast, a trip to El Pollo Loco (LOCO) would have done the trick as well. fast food hillary chipotle. Related: Hillary channels Elizabeth ...'
p9
aS"Apr 15, 2015 - April 15, 2015 HKA Texas News, Porter, Valley Ranch ... Valley Ranch Town Center adds Chickfila, Chili's, El Pollo Loco, Freebirds, Subway, T. Jin's Asian Caf ..."
p10
a.