(lp0
S'Apr 28, 2015 - Shareholder Tools. Shareholder Briefcase  Email Alerts Subscription  Download Library  Snapshot / Tearsheet  RSS News Feeds; Print; Share. Facebook ...'
p1
aS'Apr 27, 2015 - News; Logins. ApexView Login  Waste Tracker. Contact ... El Pollo - Client Portfolio Header  Cracker Barrel - Client Portfolio Header  Black Angus - Client ...'
p2
aS"Apr 27, 2015 - Posted in News on Monday, April 27, 2015 4:23 pm. ... facility in Humble  El Pollo Loco celebrates growing presence in Houston by hosting 'Loco Fun Day' ..."
p3
aS"Apr 27, 2015 - Recent consumer IPOs include restaurant chains such as Dave & Buster's, El Pollo Loco and Shake Shack, and speciality retailers such as the Michaels Cos."
p4
aS"Apr 27, 2015 - El Pueblo off of Birmingham in Cardiff. They're 99 ... ago (0 children). Mariscos la Viga at H street by el Pollo loco .... Tacos el Pansion in City Heights. Generally ..."
p5
aS'Apr 27, 2015 - The fast food chain "El Pollo Loco" has been a savior. I eat there quite a bit. Easy, cheap, TASTY, healthy (if you choose right), all nutritional info online.'
p6
aS'Apr 27, 2015 - Car Dealership  Grand Prix Car Wash  Car Wash & Detailing  El Pollo Loco (Richmond)  Mexican Restaurant  See more places in Richmond, ... News Feed ...'
p7
aS"Apr 27, 2015 - Labels: Deals , Limited-Time , News , Popeyes .... Dunkin' Donuts El Pollo Loco Hardee's In-N-Out Jack in the Box KFC Krispy Kreme Little Caesars McDonald's ..."
p8
aS'Apr 27, 2015 - Golf: News | Leaderboard Auto Racing: News | Results Tennis: News | Scoreboard Other: MLS | Womens NCAA BK | WNBA | CFL | Minor League Baseball | NFL ...'
p9
aS'Apr 26, 2015 - Past, Senior Director of Operations at El Pollo Loco, Franchise Operations Leader at Taco Bell, Ops &amp; Training Leader - Taco Bell Int&#39;l... Education ...'
p10
a.