(lp0
S'May 10, 2015 - Instead, I think if you already own shares of Shake Shack (NYSE:SHAK), J.C. Penney (NYSE:JCP), or El Pollo Loco (NASDAQ:LOCO), then you should be ...'
p1
aS'May 10, 2015 - Bad News: The Dyson Airblade is Basically a Virus Catapult April 16, 2016 .... Then on Thursday, watch out for fast food chain El Pollo Loco LOCO 1.70% which ...'
p2
aS'May 12, 2015 - ... including real-time stock quotes, historical charts & financial news, all for free! ... Financial Market News - Apr 4, 2016 .... LOCO  El Pollo LoCo Hol... 12.94, + ...'
p3
aS'May 12, 2015 - BOJA, PLKI & LOCO ... BOJA), Popeyes Louisiana Kitchen Inc (NASDAQ: PLKI) and El Pollo LoCo Holdings Inc (NASDAQ: LOCO). ... Recent News On BOJA ...'
p4
aS'May 11, 2015 - "That puts stocks in a hard place, where good news could be bad and bad news could be bad ... I think it\'s a tight window for Goldilocks, given where earnings ...'
p5
aS'May 11, 2015 - He noted the absence of major market-moving news and economic reports on Monday and .... Party City, Applied Materials,Symantec, El Pollo Loco, King Digital.'
p6
aS'May 11, 2015 - Steve Sather, CEO and president  El Pollo Loco, Costa Mesa ... This news release has been issued by Ernst & Young LLP, an EY member firm serving clients ...'
p7
aS"May 12, 2015 - A review of El Pollo Loco's Carna Asada Wet Burrito. ... skip to main | skip to sidebar. Brand Eating  Recent News | Recent Reviews | Current Deals & Specials ..."
p8
aS"May 11, 2015 - He noted the absence of major market-moving news and economic reports on Monday and Tuesday. The U.S. 10-year Treasury .... Earnings: Kohl's, Nordstrom, Party City, Applied Materials,Symantec, El Pollo Loco, King Digital. 8:30 am: Initial ..."
p9
aS"May 10, 2015 - ... the #3 Fastest-Growing Chain by Nation's Restaurant News, and the Best ... Popeye's Louisiana Kitchen (PLKI), El Pollo Loco (LOCO), Cluck-U, Wendy's ..."
p10
a.