(lp0
S"May 1, 2015 - El Pollo Loco should just change their name to Los Pollos Hermanos, that way you don't have to change any of the infrastructure, just get new branding material!"
p1
aS'Apr 30, 2015 - ... including real-time stock quotes, historical charts & financial news, all for free! ... Business Finance News - Mar 31, 2016 .... LOCO  El Pollo LoCo Hol.'
p2
aS'Apr 30, 2015 - ... including real-time stock quotes, historical charts & financial news, all for free! ... Financial Market News - Mar 30, 2016 .... LOCO  El Pollo LoCo Hol... 12.94, + ...'
p3
aS'May 1, 2015 - ... or recommendation on Bakersfield restaurants, trends or food news in general? ... El Pollo Loco is offering four fire-grilled carne asada items (tostada, tacos, ...'
p4
aS"May 1, 2015 - If Los Pollos Hermanos does indeed open, it's not only good news for fans, but also for the couple that live in the house used as Walter White's home. The house ..."
p5
aS"May 1, 2015 - Bojangles boasts a low price-to-sales ratio of just 1.4 which compares favorably with El Pollo Loco's ratio of 3 and Shake Shack's ratio of 7. Southern-style ..."
p6
aS'Apr 30, 2015 - El Pollo Loco Q4 revenue $86.3 mln vs $90 mln. 4:07 P.M. ET. Breaking El Pollo Loco Q4 earnings 14c a share vs 12c a share .... More News from MarketWatch.'
p7
aS'Apr 30, 2015 - El Pollo Loco shares down 5.9% in premarket trade. 8:25 A.M. ET. Steel Dynamics started at outperform .... More News from MarketWatch. Top Stories. Trending.'
p8
aS'May 2, 2015 - In other Breaking Bad food-related news, Gilligan also took the opportunity to reiterate that people should .... *El Pollo Loco arms itself for the impending war* ...'
p9
aS'Apr 30, 2015 - ... inspection of her Ford SUV led to the discovery of more than 7,800 rounds of ammunition, according to a U.S. Customs and Border Protection news release.'
p10
a.