(lp0
S"May 19, 2015 - At last check, shares of El Pollo Loco are just piercing the 38% Fibonacci level while filling in a prior bullish gap. I'm sure the news back then was equally ..."
p1
aS"May 19, 2015 - However, LOCO's valuation is still quite bloated especially compared to PLKI. This is not the first time I compared El Pollo Loco (NASDAQ:LOCO) to Popeyes ..."
p2
aS'May 20, 2015 - Aside from the relaunch, no other news emerged on the company Wednesday. The grand ... El Pollo Loco stock fell 5.6% to 22.24 in early afternoon trading.'
p3
aS'May 20, 2015 - El Pollo Loco 6M share Block Trade priced at $22.25. The deal size range was $22.15-22.35. Jefferies acted as sole book running manager for the offering ...'
p4
aS'May 19, 2015 - Find 20 listings related to El Pollo Loco in Goodyear on YP.com. See reviews, photos, directions, phone numbers and more for El Pollo Loco locations in ...'
p5
aS'May 19, 2015 - Find 21 listings related to El Pollo Loco Locations in Chandler on YP.com. See reviews, photos, directions, phone numbers and more for El ...'
p6
aS'May 19, 2015 - Find 20 listings related to El Pollo Loco Locations in Sun City on YP.com. See reviews, photos, directions, phone numbers and more for El Pollo Loco Locations ...'
p7
aS"May 19, 2015 - ... Bojangles', Boston Market, Popeyes Louisiana Kitchen and El Pollo Loco, for ... according to a survey last year by Nation's Restaurant News and WD Partners."
p8
aS'May 20, 2015 - By Nick Turner and Leslie Patton Bloomberg News  Wednesday May 20, 2015 ... Popeyes Louisiana Kitchen and El Pollo Loco  for food quality, value and ...'
p9
aS"May 20, 2015 - Zacks News for BOJA ... Company News for March 14, 2016. 03/14/16-9:10AM EST Zacks ... El Pollo Loco, Bojangles' Prospects Bright: Take Your Pick."
p10
a.