(lp0
S'May 21, 2015 - CONTACT: Media Contact: Alecia Pulman , ICR LOCO@icrinc.com 203.682.8200. El Pollo Loco. Source: El Pollo Loco. News Provided by Acquire Media.'
p1
aS'May 21, 2015 - El Pollo Loco plans to enter the Dallas market following the California-based ... Sather, president and CEO of El Pollo Loco, commenting in a news release.'
p2
aS"May 21, 2015 - COSTA MESA, Calif., May 21, 2015 (GLOBE NEWSWIRE) -- El Pollo Loco (Nasdaq:LOCO), the nation's leading fire-grilled chicken ... other news releases in"
p3
aS'May 21, 2015 - El Pollo Loco said it plans at least 20 restaurants for a previously announced expansion into Dallas, to include seven franchised by an ... news. print; email ...'
p4
aS'May 21, 2015 - Form 4 El Pollo Loco Holdings, For: May 19 Filed by: Trimaran Pollo Partners, .... Top 10 News for 4/11 - 4/15: Valeant Heads into Default; Big Banks Solid in Q1; ...'
p5
aS'May 20, 2015 - Aside from the relaunch, no other news emerged on the company Wednesday. The grand ... El Pollo Loco stock fell 5.6% to 22.24 in early afternoon trading.'
p6
aS'May 20, 2015 - El Pollo Loco 6M share Block Trade priced at $22.25. The deal size range was $22.15-22.35. Jefferies acted as sole book running manager for the offering ...'
p7
aS"May 21, 2015 - P&G Professional named Vendor of the Year by El Pollo Loco for their Cleaning ... in El Pollo Loco's cleanliness score in Nation's Restaurant News and WD ..."
p8
aS"May 21, 2015 - HAIF - Houston's Leading News Forum. Existing ..... 3160 Fondren, 77098 (was Pollo loco, then Sam's grill, and razed) #2036 ..... 18041 El Camino Real, 77058."
p9
aS'May 20, 2015 - By Nick Turner and Leslie Patton Bloomberg News  Wednesday May 20, 2015 ... Popeyes Louisiana Kitchen and El Pollo Loco  for food quality, value and ...'
p10
a.