(lp0
S"May 22, 2015 - El Pollo Loco will join Dallas' food fray next year. ... for our free Morning Edition and Afternoon Edition newsletters for the latest news on North Texas businesses."
p1
aS'May 21, 2015 - CONTACT: Media Contact: Alecia Pulman , ICR LOCO@icrinc.com 203.682.8200. El Pollo Loco. Source: El Pollo Loco. News Provided by Acquire Media.'
p2
aS'May 21, 2015 - El Pollo Loco plans to enter the Dallas market following the California-based ... Sather, president and CEO of El Pollo Loco, commenting in a news release.'
p3
aS"May 21, 2015 - COSTA MESA, Calif., May 21, 2015 (GLOBE NEWSWIRE) -- El Pollo Loco (Nasdaq:LOCO), the nation's leading fire-grilled chicken ... other news releases in"
p4
aS'May 21, 2015 - El Pollo Loco said it plans at least 20 restaurants for a previously announced expansion into Dallas, to include seven franchised by an ... news. print; email ...'
p5
aS'May 22, 2015 - Critical Alerts For Transocean, Deere, El Pollo Loco, Cisco Systems and Vivint ... While many other market reports only provide stock news and opinion, we offer ...'
p6
aS'May 21, 2015 - Form 4 El Pollo Loco Holdings, For: May 19 Filed by: Trimaran Pollo Partners, .... Top 10 News for 4/11 - 4/15: Valeant Heads into Default; Big Banks Solid in Q1; ...'
p7
aS'May 22, 2015 - Solano News; US / World; Opinion; Features; Entertainment; Sports ... who was standing near the El Pollo Loco parking lot next to the on-ramp, said he saw a ...'
p8
aS"May 22, 2015 - Latest News: Business ... low of 480  Anadarko rises in Wall Street trading, El Pollo Loco slumps  DC people's counsel opposes latest Exelon-Pepco proposal."
p9
aS"May 21, 2015 - P&G Professional named Vendor of the Year by El Pollo Loco for their Cleaning ... in El Pollo Loco's cleanliness score in Nation's Restaurant News and WD ..."
p10
a.