(lp0
S'May 27, 2015 - Mexican-style chicken chain El Pollo Loco is bringing seven restaurants to North ... Afternoon Edition newsletters for the latest news on North Texas businesses.'
p1
aS"May 28, 2015 - Even after an initial decline, shares of El Pollo Loco have continued to fall, losing around 23% of the company's market value.To be truthful, I think that the."
p2
aS"May 27, 2015 - There's a Taco Bell next door and an El Pollo Loco directly across the street, yet the restaurant that's really doing business is Melody's Mexican Kitchen, which is ..."
p3
aS"May 27, 2015 - News in Focus .... Denny's franchisee in California), 4 Sizzler's, 5 Corner Bakery and 6 El Pollo Loco restaurants. ... The news you need, when you need it."
p4
aS"May 27, 2015 - These include El Pollo Loco Holdings Inc. (LOCO - Snapshot Report), Zoe's Kitchen Inc. (ZOES - Snapshot ... Zacks News for ( SHAK, ZOES, HABT, LOCO ) ..."
p5
aS"May 27, 2015 - May 27, 2015 HKA Texas News. Share ... Valley Ranch Town Center adds Chickfila, Chili's, El Pollo Loco, Freebirds, Subway, T. Jin's Asian Caf and others."
p6
aS"May 27, 2015 - May 27, 2015 Comments Off on Confused by the FIFA corruption news? John Oliver ... El Pollo Loco's Crazy Freshman Year as a Public Company. March 15 ..."
p7
aS'May 28, 2015 - restaurant 6 el pollo loco food. 0. SHARES. Share On FacebookPin It  Jennifer. Jennifer is the Alabama and Nevada staff writer for Only In Your State.'
p8
aS"May 28, 2015 - Latest silver news .... To wit, Shake Shack has become the Yahoo! of 2015  whilst other, assorted c-p like El Pollo Loco, Buffalo Wild Wings, Popeye's ..."
p9
aS"May 27, 2015 - 1 casual dining restaurant in the Nation's Restaurant News 2015 Consumer Picks ..... El Pollo Loco (Nasdaq:LOCO) is the nation's leading fire-grilled chicken ..."
p10
a.