(lp0
S'May 7, 2015 - Companies like Shake Shack and El Pollo Loco have done very well, while Potbelly and Noodles & Co. have struggled since their debuts. Peralta: ...'
p1
aS'May 8, 2015 - El Pollo Loco shares edged up 0.15% to 26.80. ... You will find the latest news, market analysis, and education to help you become a more successful investor.'
p2
aS"May 7, 2015 - DOW JONES, A NEWS CORP COMPANY .... Bojangles' most closely matched peer, was El Pollo Loco Holdings Its stock jumped 60% in its first day of trading."
p3
aS'May 8, 2015 - ... six fast-casual restaurants, from Potbelly Corp. to El Pollo Loco Holdings Inc., ... factor works against the shares when investors panic after a bad bit of news.'
p4
aS'May 8, 2015 - Get reviews, hours, directions, coupons and more for El Pollo Loco at 623 E Lee St, Sardis, MS. Search for other Fast Food Restaurants in Sardis on YP.com.'
p5
aS'May 7, 2015 - Quantcast. Sector News. Technology ... In comparison, El Pollo LoCo Holdings Inc. (NASDAQ:LOCO) trades at a 3x multiple, while Bojangles, being the cheapest, is backed to be significantly cheaper than LOCO. Read Also:A History Lesson ...'
p6
aS'May 8, 2015 - On Thursday, restaurant chain operator El Pollo Loco Holdings Inc is expected to slightly miss first-quarter revenue estimates, according to Thomson Reuters ...'
p7
aS'May 7, 2015 - Latest News. Dow ... El Pollo Loco COO Kay Bogeajis to leave company .... Check out what Mohamed El-Erian had to say at a Vegas conference last night.'
p8
aS'May 8, 2015 - For instance, burger chains Shake Shack and Habit Burger more than doubled on their first day of trading. El Pollo Loco, Potbelly and Noodles & Co. have also ...'
p9
aS"May 8, 2015 - May 8, 2015 HKA Texas News. Share .... Valley Ranch Town Center adds Chickfila, Chili's, El Pollo Loco, Freebirds, Subway, T. Jin's Asian Caf and others."
p10
a.