(lp0
S"Jun 19, 2015 - El Pollo Loco trades down to post-IPO lows.The Mexican restaurant concept wasn't appropriately valued from the beginning.The stock is still rather expensive ..."
p1
aS"Jun 19, 2015 - ... Taco Bell, Applebee's, El Pollo Loco, Black Bear Diner and Umpqua Bank. ... for a way to keep contributing to Napa after they were gone, said a news release."
p2
aS'Jun 18, 2015 - The mural graces the side of El Pollo Loco Los Pandas, a Mexican restaurant. ... The purpose of the mural at El Pollo Loco Los Pandas is written on the wall: ...'
p3
aS'Jun 19, 2015 - DOW JONES, A NEWS CORP COMPANY .... El Pollo Loco, LOCO -0.49 % which went public at $15 a share last July, jumped more than 60% on its first day of ...'
p4
aS"Jun 19, 2015 - News and information on Raising Cane's Chicken Fingers."
p5
aS"Jun 19, 2015 - Nation's Restaurant News. Search: Events/MUFSO  Digital Edition  Subscribe .... Nation's Restaurant News Corporate. About Us  Advertise  Contact  Terms of ..."
p6
aS"Jun 18, 2015 - ... manager at Rally's Hamburgers for about five years, and also as a general/products training manager at an El Pollo Loco restaurant for more than 10 years."
p7
aS"Jun 18, 2015 - June 18, 2015 Atascocita, HKA Texas News, ShopHKA ... Valley Ranch Town Center adds Chickfila, Chili's, El Pollo Loco, Freebirds, Subway, T. Jin's Asian ..."
p8
aS"Jun 19, 2015 - Latest FOGO News | Press Releases. Who's the Next Chipotle? Apr 05 / Zacks.com. See All FOGO News ... LOCOEl Pollo Loco Holdin... -0.07, -0.49%. TACODel ..."
p9
aS"Jun 19, 2015 - Pollo Campero, home of Authentic Latin Chicken, will celebrate Father's Day by giving Dad the gift of free food! ... Houston; News ... All Mothers a Sweet Treat on Mother's Day  Latin Flavors to the Bone  Watch out KFC: El Pollo Loco is sizzling."
p10
a.