(lp0
S'Jun 22, 2015 - Critical Alerts For Seadrill, Intrexon, bluebird bio Inc., El Pollo Loco and ... While many other market reports only provide stock news and opinion, we offer ...'
p1
aS'Jun 22, 2015 - June 22, 2015 HKA Texas News, Restaurants. Share ... The 2,900 square-foot Humble El Pollo Loco restaurant has seating for 72 guests in the dining room and ...'
p2
aS'Jun 22, 2015 - DOW JONES, A NEWS CORP COMPANY. News Corp is a .... A Sonic Corp. drive-in restaurant in Normal, Ill. Photo: DANIEL ACKER/BLOOMBERG NEWS. By.'
p3
aS'Jun 22, 2015 - You can access more in-depth stories and analysis, as well as news not found ... Carley leaving El Pollo Loco for Red Robin  Noodles & Company executive VP ...'
p4
aS"Jun 22, 2015 - Nation's Restaurant News. Search: Events/MUFSO  Digital Edition  Subscribe .... Nation's Restaurant News Corporate. About Us  Advertise  Contact  Terms of ..."
p5
aS"Jun 22, 2015 - Save Money. Fry's Weekly Ads  Fry's Digital Coupons  Fry's Promotions  Home/; News/; Blogs/; Blog: Latest Tucson crime news ..."
p6
aS"Jun 22, 2015 - Television's longest-running evening business news broadcast, NBR features in-depth coverage and analysis of ... LOCO, El Pollo Loco Holdings Inc, -8.20%."
p7
aS'Jun 22, 2015 - El Pollo Loco serves fresh avocados in numerous items, including sliced in a line of Avocado Tostadas and chopped in several chicken burritos. It gives a fresh, ...'
p8
aS"Jun 22, 2015 - Oak Brook, IL (Restaurant News Release) Portillo's Hot Dogs, LLC today announced it has named Keith Kinsey as its new Chief Executive Officer, effective July ..."
p9
aS"Jun 22, 2015 - Here's a breakdown of two popular chicken wing destinations--Wingstop and Buffalo Wild Wings--and a look at which is best for your investment portfolio."
p10
a.