(lp0
S'Jun 28, 2015 - The news that Ella Plaza had locked in its anchor restaurant  Union Kitchen, ... been demolished to make way for an El Pollo Loco, which touts its healthful, ...'
p1
aS'Jun 29, 2015 - TACO and LOCO are both primarily Mexican chains in California.Both describe themselves as QSR+.Both trade at similar valuations but one has a clear edge.'
p2
aS'Jun 28, 2015 - Social News ... Foster said Friday night menu has included food from Casa Delicias in Hesperia or El Pollo Loco, Italian food, burgers and hot dogs on the grill or ...'
p3
aS"Jun 28, 2015 - Posted in Atascocita News on Sunday, June 28, 2015 10:39 am. ... in Humble  El Pollo Loco celebrates growing presence in Houston by hosting 'Loco Fun Day' ..."
p4
aS'Jun 28, 2015 - Find 13 listings related to El Pollo Loco in Pasadena on YP.com. See reviews, photos, directions, phone numbers and more for El Pollo Loco ...'
p5
aS'Jun 28, 2015 - Find 14 listings related to El Pollo Loco Locations in Pearland on YP.com. See reviews, photos, directions, phone numbers and more for El ...'
p6
aS"Jun 28, 2015 - News and information on Zaxby's from Nation's Restaurant News."
p7
aS'Jun 30, 2015 - Correlation is Bad News for US Equity Investors ... For example: El Pollo Loco Holdings ($LOCO), with no restaurants outside of the United States and minimal ...'
p8
aS'Jun 28, 2015 - Restaurant management software system for the back office. Integrated restaurant system for inventory, vendor, labor, food cost management and operations.'
p9
aS"Jun 28, 2015 - On the ABC News TV program Nightline, April 18, 2011, there was a feature .... El Torito Execs Tackle Panda Push,' Nation's Restaurant News, August 7, 1995, ..."
p10
a.