(lp0
S'Jun 1, 2015 - Watch KCRA/KQCA News ... Citrus Heights El Pollo Loco shooting ... Sunday evening when shots were fired near an El Pollo Loco restaurant in Citrus Heights.'
p1
aS'Jun 1, 2015 - RANCHO CUCAMONGA: Riverside man dies in jail cell. News .... Clark came to Farmer Boys from El Pollo Loco in 2006 to spur company expansion. Havadjias ...'
p2
aS"Jun 2, 2015 - ... Bojangles (BOJA) and El Pollo Loco (LOCO), Boston Market's backers may be seeking to ... Access to Jim Cramer's daily blog; Intraday commentary and news ..."
p3
aS'Jun 1, 2015 - Eadon has held various senior executive positions with El Pollo Loco, Taco Bell, ARCO Products Company, ... The news you need, when you need it. Journalists ...'
p4
aS"Jun 1, 2015 - Home > News > People > Farmer Boys names Karen Eadon president, COO ... with such restaurants as Applebee's Neighborhood Bar & Grill, El Pollo Loco, ..."
p5
aS"ET Giveaway at McDonald's 48. Ford Aerostar 49. El Pollo Loco 50. Buick 51. KABC City View promo: Latino ..."
p6
aS"Jun 1, 2015 - This news was a disappointment after the 0.5% advance the Commerce ..... El Pollo Loco, Jack in the Box, Kohl's, Nordstrom, Perry Ellis and Symantec. Friday ..."
p7
aS"Jun 2, 2015 - Economic News This Week. Real Gross Domestic ... Growth Chains: El Pollo Loco will open seven locations in North Texas in the next four years. Fuzzy's Taco ..."
p8
aS'Jun 1, 2015 - Carniceria El Potrero, 624 W Broadway Rd Suite 205, Mesa, 85210, 5/6/15, 3. Chennai Fusion Grill, 4929 W Chandler Blvd Suite 1, Chandler, 85226, 5/20/15, 3.'
p9
aS"Jun 2, 2015 - Brazilian steakhouse chain Fogo de Chao Inc., Habit Restaurants Inc., El Pollo Loco Inc., Zoe's Kitchen Inc. and Dave & Buster's Inc. all priced IPOs last year."
p10
a.