(lp0
S'Jul 9, 2015 - 1 Injured After Truck Crashes Into El Pollo Loco in Sunland ... A vehicle struck an El Pollo Loco location in Sunland on July 9, 2015. ... Filed in: Local News.'
p1
aS"Jul 9, 2015 - New $5 Pollo Bowl Combos Available for a Limited Time Costa Mesa, CA (RestaurantNews.com) El Pollo Loco (Nasdaq:LOCO), the nation's leading fire-grilled."
p2
aS"Jul 9, 2015 - Inland Empire Business News. Don't Miss. Tune in to The Main ... El Pollo Loco Coming to Inland Empire.001. El Pollo Loco is coming to Wildomar. The popular chain that ... El Pollo Loco plans to move in by the end of the year. The number of ..."
p3
aS'Jul 9, 2015 - ABC7 Eyewitness News  @ABC7. 9 months ... Blvd in Sunland; 1 injured. PHOTO: Multi-vehicle crash sends pickup truck into El Pollo Loco in 7800 block ...'
p4
aS'Jul 9, 2015 - ... Workshop, Windstream, VASCO Data Security and El Pollo Loco... ... While many other market reports only provide stock news and opinion, we offer strategies ...'
p5
aS'Jul 9, 2015 - Breaking News, Crime, Life, Business, Sports, Food, and LGBT issues, online ... arrested 28-year-old Alfonso Kee Kee Peterson at an El Pollo Loco in Long ...'
p6
aS'Jul 9, 2015 - By City News Service ... Peterson is accused of telling the officer on Thursday to meet him at an El Pollo Loco restaurant in Long Beach. He was arrested at the ...'
p7
aS"Jul 9, 2015 - Posted in News on Thursday, July 9, 2015 1:57 pm. ... facility in Humble  El Pollo Loco celebrates growing presence in Houston by hosting 'Loco Fun Day' ..."
p8
aS'Jul 9, 2015 - ... Peterson is accused of telling Jane Doe to meet him at an El Pollo Loco in the city ... This author is used when OC Breeze publishes news releases from other ...'
p9
aS"Jul 9, 2015 - Technomic lists brands such as Chick-fil-A, Culver's, El Pollo Loco, In-N-Out ... NEWS. SelbySoft certifies Elo to streamline POS experience for coffee, pizza ..."
p10
a.