(lp0
S"Jul 13, 2015 - The 3,500-square foot restaurant, coming to the Milwaukee Avenue space formerly occupied by El Pollo Loco and Mr. G's Beef, will seat 99 people. 2715 N."
p1
aS'Jul 13, 2015 - 74 ORANGE COUNTY BUSINESS JOURNAL Local breaking news: ... Sather has brought former Yum and Taco Bell alumni to El Pollo Loco: I Chief Operating ...'
p2
aS'Jul 13, 2015 - of Costa Mesa-based El Pollo Loco Holdings. Inc.;. I Stephanie Lambrecht, vice president ... Local breaking news: wwwncbinom. ORANGE COUNTY BUSINESS ...'
p3
aS"Jul 13, 2015 - Save Money. Fry's Weekly Ads  Fry's Digital Coupons  Fry's Promotions. Breaking news: Wildcats given No. 6 seed in NCAA tournament, will play Thursday ..."
p4
aS"Jul 13, 2015 - Labels: Limited-Time , News , White Castle .... Chipotle Church's Chicken Dairy Queen Del Taco Domino's Dunkin' Donuts El Pollo Loco Hardee's In-N-Out Jack ..."
p5
aS"Jul 13, 2015 - Labels: Bojangles , Limited-Time , News .... Chipotle Church's Chicken Dairy Queen Del Taco Domino's Dunkin' Donuts El Pollo Loco Hardee's In-N-Out Jack in ..."
p6
aS'Jul 14, 2015 - ... Northeast Corner of 24th Avenue & Northern Avenue, Phoenix, Arizona. 100% LEASED. LA Fitness, Wells Fargo, Sprouts, El Pollo Loco, Burger King.'
p7
aS'Jul 13, 2015 - ... CVS Caremark (64)  CVS Health (86)  El Pollo Loco (4)  IHOP (6) .... Careers  Our story  Giving back  Life at Snagajob  News  Affiliate ...'
p8
aS'Jul 12, 2015 - Hot News  Horscopo; Lookeatep ... Segn el usuario detrs del perfil, el pollo fue adquirido en la rotisera de un Walmart de Cool Valley, Missouri, en los Estados Unidos ... Y yo estaba comiendo un pollo con papas fritas :O loco vomite todo!'
p9
aS'Jul 13, 2015 - News Feed ..... Global Receivables Insurance Solutions  May 15, 2015 . New Meatco UPDATE; NY Korean Restaurant Files BK; El Pollo Loco Earnings Tank.'
p10
a.