(lp0
S'Jul 16, 2015 - El Pollo Loco gives us four new takes on their signature Pollo Bowl with new $5 Pollo Bowl Combos. ... - Original Pollo Bowl - Chopped flame-grilled chicken breast, pinto beans, rice, pico de gallo, onions, and cilantro. - New Shrimp & Chicken Bowl - Chopped flame-grilled chicken ...'
p1
aS'Jul 16, 2015 - Visit NatureMade.com for the latest news and offerings. ... Priceline, MINI Cooper, Blue Shield of California, Greyhound, El Pollo Loco, Sunrun and others.'
p2
aS'Jul 16, 2015 - ... the first sitting president to visit a prison  a federal institution in Oklahoma called El Reno. .... The best SoCal news in your inbox, daily. ... 3 men arrested in connection to El Pollo Loco thefts Article  In Newark, Obama to call for breaking ...'
p3
aS"Jul 16, 2015 - October 14, 2015 Business Spotlight, Crosby, HKA Texas News ... Valley Ranch Town Center adds Chickfila, Chili's, El Pollo Loco, Freebirds, Subway, T. Jin's ..."
p4
aS'Jul 16, 2015 - Anyone who downloads the free app knows about that fight at El Pollo Loco, or any other crime in the city. "If you\'re curious what\'s going on it will show exactly ...'
p5
aS'Jul 17, 2015 - MaxPreps News - European squad on American tournament circuit features six players over 6-foot-8. ... "El Pollo Loco was a big success for lunch yesterday.'
p6
aS'Jul 16, 2015 - Updated El Pollo Loco reports higher profit; sales slide. 3/10 .... More News from MarketWatch ... An immersive hub for financial news, analysis, market data.'
p7
aS'Jul 17, 2015 - From Business: Founded in 1975, El Pollo Loco is a chain of quick-service restaurants that specializes in serving flame-grilled chicken. It operates more than ...'
p8
aS'Jul 17, 2015 - In an effort to smoothly integrate the recently acquired Family Dollar into its organization, Dollar Tree Inc. (DLTR) has appointed Michael Witynski as the ...'
p9
aS'Jul 16, 2015 - News Feed .... Jesse Angel Aguirre, Brandon El Flaco Hernandez, Robert Aguilar and 4 others like this. ..... El Pollo Loco (1909 N Main St, Santa Ana, CA).'
p10
a.