(lp0
S'Jul 28, 2015 - Where: El pollo loco Symptoms: Diarrhea, Nausea, Fever, Vomiting... ... Search. Facebook Twitter  About  Reports  News  FAQ  Contact  Got Food Poisoning?'
p1
aS'Jul 29, 2015 - It\'s fitting that one of the first outcomes of the acquisition is signing a deal with Subway, Paydiant said in a news release. "We look ... El Pollo Loco COO resigns.'
p2
aS"Jul 29, 2015 - July 29, 2015 HKA Texas News, Kingwood ... Valley Ranch Town Center adds Chickfila, Chili's, El Pollo Loco, Freebirds, Subway, T. Jin's Asian Caf and others."
p3
aS'Jul 30, 2015 - Find 26 listings related to El Pollo Loco in Santee on YP.com. See reviews, photos, directions, phone numbers and more for El Pollo Loco ...'
p4
aS'Jul 29, 2015 - news. print; email ... Buys Again  Irvine Restaurant Operator Buys Again  Recent Restaurant Closing No Surprise, Another Sad  El Pollo Loco Sets Dallas Plan ...'
p5
aS"Jul 28, 2015 - Posted in News on Tuesday, July 28, 2015 4:08 pm. Similar Stories. El Pollo Loco celebrates growing presence in Houston by hosting 'Loco Fun Day'  Sullivan ..."
p6
aS"Jul 28, 2015 - Recent News | Recent Reviews | Current Deals & Specials ..... Chicken Dairy Queen Del Taco Domino's Dunkin' Donuts El Pollo Loco Hardee's In-N-Out Jack in ..."
p7
aS"Jul 28, 2015 - Labels: Limited-Time , News , Popeyes .... Chicken Dairy Queen Del Taco Domino's Dunkin' Donuts El Pollo Loco Hardee's In-N-Out Jack in the Box KFC Krispy ..."
p8
aS'Jul 29, 2015 - News. ANZA: Hemet man pleads not guilty in homicide case ... Resort & Casino. Find Tickets  La Original Banda El Limon at Morongo Casino, Resort & Spa ...'
p9
aS'Jul 29, 2015 - Members of the Parks and Recreation Board are reviewing designs and finalizing development plans for several new or updated Allen parks. Chairperson Tricia ...'
p10
a.