(lp0
S'Jul 30, 2015 - Home ; News ; Urban renewal ... entering town from the 110 Freeway has been shuttered, while new plans to build an El Pollo Loco are being launched.'
p1
aS'Jul 31, 2015 - Fiesta Restaurant Group Inc. has raised its Pollo Tropical opening targets for this year ... You can access more in-depth stories and analysis, as well as news not ... aims to grow customer base  Subway to serve up avocado  El Pollo Loco to ...'
p2
aS'Jul 31, 2015 - Updated El Pollo Loco reports higher profit; sales slide. 5:20 P.M. ET. Bojangles profit dips, but results .... More News from MarketWatch. Top Stories. Trending.'
p3
aS'Jul 30, 2015 - Get the latest news, analysis and video updates on Lobsters from MarketWatch. ... El Pollo Loco COO Kay Bogeajis to leave company. 8:03a. Westlake Chemical ...'
p4
aS'Jul 30, 2015 - News & Information ... multiunit franchising company that owns and operates nine El Pollo Loco restaurants in the greater Phoenix area, as well as four El Pollo ...'
p5
aS"Jul 31, 2015 - 15. Bank of America. 16. Verizon Wireless. 17. The Vive Lounge. 18. The Eye Shoppe Optometry. 19. San Biagio's. 20. El Pollo Loco. 21. Charles Schwab ..."
p6
aS'Jul 31, 2015 - The dog continued to bite the suspect, even while being struck.'
p7
aS"Jul 30, 2015 - News Feed. Dale Roller eating El Pollo Loco at Pod Inn Hotel. February 9  Los Angeles, CA, United States . Mi pollo es muy loco! Dale Roller's photo. 3 Likes ..."
p8
aS"Jul 30, 2015 - These articles tend to be non-news and speculation posing as news. ..... El Pollo Loco's company Instagram profile actually commented on this photo of an El ..."
p9
aS"Jul 31, 2015 - Lunch will be provided by El Pollo Loco, Jersey Mike's and Little Caesars. Cost is $225 for ... The ONLY Official and Accurate News Blog of the. City of Mission ..."
p10
a.