(lp0
S'Jul 6, 2015 - COSTA MESA, Calif., July 6, 2015 (GLOBE NEWSWIRE) -- El Pollo Loco ... July 06, 2015 08:00 ET | Source: El Pollo Loco, Inc. photo- ... other news releases in'
p1
aS'Jul 6, 2015 - News Feed. Selina Rios checked in to El Pollo Loco Sardis. February 3  Sardis ... Jose Ubiarco was with Gonzales Alex at El Pollo Loco Sardis. July 6, 2015 ...'
p2
aS'Jul 6, 2015 - Find 41 listings related to El Rinconsito in Newport News on YP.com. See reviews ... 13754 Warwick Blvd Ste BNewport News,VA 23602 ... El Pollo LocoMenu.'
p3
aS'Jul 6, 2015 - Del Taco posted respectable results in 2014, but El Pollo Loco (NASDAQ:LOCO) did a bit better, going by their respective presentations. The comparison is a bit ...'
p4
aS"Jul 6, 2015 - Recent News | Recent Reviews | Current Deals & Specials ..... Unfortunately Walgreens phased out that brand, but this news gives me true hope. .... Dairy Queen Del Taco Domino's Dunkin' Donuts El Pollo Loco Hardee's In-N-Out Jack in the ..."
p5
aS"Jul 6, 2015 - Labels: Cold Stone Creamery , Limited-Time , News .... Church's Chicken Dairy Queen Del Taco Domino's Dunkin' Donuts El Pollo Loco Hardee's In-N-Out Jack ..."
p6
aS"Jul 6, 2015 - The Pollo Adove, a menu highlight, presents a heaping helping of grilled ... In addition to breakfast selections, Taco Felix's tortilla soup and El Angel Polo ..."
p7
aS'Chicken Salad Chick - Duration: 4:30. WDEF News 12 974 views ... EL POLLO LOCO Hand Carved Chicken ...'
p8
aS'Jul 6, 2015 - One chicken taco al carbon, one cheese enchilada, one crispy taco, served with .... 3 Pieces of pollo loco, served with rice beans, sliced avocado and tortillas.'
p9
aS"Jul 6, 2015 - Labels: Bruegger's Bagels, News ... Dominos Pizza  Don Pablos  Dunkin Donuts  El Chico  El Pollo Loco  El Ranchero Grande  El Torito  Famous Dave's ..."
p10
a.