(lp0
S'Jul 6, 2015 - COSTA MESA, Calif., July 6, 2015 (GLOBE NEWSWIRE) -- El Pollo Loco ... July 06, 2015 08:00 ET | Source: El Pollo Loco, Inc. photo- ... other news releases in'
p1
aS"Jul 7, 2015 - Award-winning local news and cultural programming alongside the best of NPR. ... El Pollo Loco's Mendelsohn said they'll have to cut employee hours by 20 ..."
p2
aS"Jul 7, 2015 - News in Focus .... Denny's franchisee in California), 4 Sizzler's, 5 Corner Bakery and 6 El Pollo Loco restaurants. ... The news you need, when you need it."
p3
aS'Jul 7, 2015 - NEWS: Minimum wage: The future of the hourly worker in LA (#AT30) ... Michaela Mendelsohn, Owner of El Pollo Loco franchise locations with over 33 years of ...'
p4
aS'Jul 7, 2015 - El Pollo Loco Holdings: 5.1%. Jamba Inc.: 5%. Follow me on Twitter and Facebook. Comment on this story. Print; Report Corrections; Reprints & Permissions.'
p5
aS'Jul 6, 2015 - News Feed. Selina Rios checked in to El Pollo Loco Sardis. February 3  Sardis ... Jose Ubiarco was with Gonzales Alex at El Pollo Loco Sardis. July 6, 2015 ...'
p6
aS'Jul 6, 2015 - Del Taco posted respectable results in 2014, but El Pollo Loco (NASDAQ:LOCO) did a bit better, going by their respective presentations. The comparison is a bit ...'
p7
aS"Jul 7, 2015 - Tucson's giant Great Dane George makes an appearance in the video."
p8
aS'Jul 7, 2015 - Chicken, steak, shrimp and sausage. Shrimp. Camarones. Chicken. Pollo ... Camarones al Grill La Independencia ... Burrito Loco .... news-queens-taste ...'
p9
aS'Jul 8, 2015 - Popular now: Sign Up for Lone Star Steakhouse to Receive Exclusive News, Invitations and Special Surprises. ... EL Pollo Loco Coupons El Pollo Loco.'
p10
a.