(lp0
S'Aug 10, 2015 - El Pollo Loco Holdings, Inc. (LOCO) is set to report second quarter 2015 results on Aug 13, after the markets ... Zacks News for ( DRI, RRGB, PLAY, LOCO ) ...'
p1
aS"Aug 10, 2015 - Precision Castparts surged 19 percent on news that Warren Buffett's .... Nordstrom, Applied Materials, Flowers Foods, El Pollo Loco, King Digital, Party City."
p2
aS"Aug 10, 2015 - We can look to another recent fast casual IPO, El Pollo Loco Holdings Inc (NASDAQ:LOCO), for a possible answer. The company's management thinks that an ..."
p3
aS"Aug 10, 2015 - You can access more in-depth stories and analysis, as well as news not found on ... Stiles steps down as Ruth's Chris president  El Pollo Loco COO steps down ..."
p4
aS"Aug 10, 2015 - Precision Castparts surged 19 percent on news that Warren Buffett's .... Nordstrom, Applied Materials, Flowers Foods, El Pollo Loco, King Digital, Party City."
p5
aS'Aug 10, 2015 - I read about the news Saturday in Reuters and in the Wall Street Journal, AVK ... El Pollo Loco out; burgers and juice in  Occupational healthcare firm gains ...'
p6
aS'Aug 10, 2015 - Updated El Pollo Loco reports higher profit; sales slide. 5:20 P.M. ET. Bojangles profit dips, but results .... More News from MarketWatch. Top Stories. Trending.'
p7
aS"Aug 10, 2015 - news emerged from the manufacturing sector, however: the Commerce Department noted a ... El Pollo Loco, Kohl's, Nordstrom, and Tribune Media. The initial ..."
p8
aS'Aug 10, 2015 - El pollo Loco- their salads are really good! Flame broiler- all veggies half and half bowl (sometimes no sauce). Taco Bell- power cantons bowls no rice or beans ...'
p9
aS'Aug 9, 2015 - Find 23 listings related to El Pollo Loco in La Mesa on YP.com. See reviews, photos, directions, phone numbers and more for El Pollo Loco ...'
p10
a.