(lp0
S'Aug 10, 2015 - El Pollo Loco Holdings, Inc. (LOCO) is set to report second quarter 2015 results on Aug 13, after the markets ... Zacks News for ( DRI, RRGB, PLAY, LOCO ) ...'
p1
aS'Aug 11, 2015 - Mexican-themed fire-grilled chicken chain El Pollo Loco (LOCO) is slated to report Q2 ... You will find the latest news, market analysis, and education to help you ...'
p2
aS"Aug 10, 2015 - Precision Castparts surged 19 percent on news that Warren Buffett's .... Nordstrom, Applied Materials, Flowers Foods, El Pollo Loco, King Digital, Party City."
p3
aS"Aug 11, 2015 - Is this bad news or good news for the markets? .... Earnings: Nestle, Kohl's, Nordstrom, Applied Materials, Flowers Foods, El Pollo Loco, King Digital, Party City."
p4
aS"Aug 10, 2015 - Precision Castparts surged 19 percent on news that Warren Buffett's .... Nordstrom, Applied Materials, Flowers Foods, El Pollo Loco, King Digital, Party City."
p5
aS"Aug 10, 2015 - We can look to another recent fast casual IPO, El Pollo Loco Holdings Inc (NASDAQ:LOCO), for a possible answer. The company's management thinks that an ..."
p6
aS"Aug 11, 2015 - Better news emerged from the manufacturing sector, however: the ... Parts, Applied Materials, Dillard's, El Pollo Loco, Kohl's, Nordstrom, and Tribune Media."
p7
aS"Aug 10, 2015 - You can access more in-depth stories and analysis, as well as news not found on ... Stiles steps down as Ruth's Chris president  El Pollo Loco COO steps down ..."
p8
aS'Aug 10, 2015 - I read about the news Saturday in Reuters and in the Wall Street Journal, AVK ... El Pollo Loco out; burgers and juice in  Occupational healthcare firm gains ...'
p9
aS"Aug 11, 2015 - ... Fry's Digital Coupons  Fry's Promotions. Breaking news: Wildcats given No. 6 seed in NCAA tournament, to face play-in winner  Home/; News/; Local news ..."
p10
a.