(lp0
S"Aug 14, 2015 - El Pollo Loco (LOCO) stock is plummeting today after the company announced ... Access to Jim Cramer's daily blog; Intraday commentary and news; Real-time ..."
p1
aS"Aug 13, 2015 - El Pollo Loco (LOCO) shares are lower after the company guided below analysts' ... El Pollo Loco (LOCO) Stock Falls in After-Hours Trading on Revenue Miss ... Access to Jim Cramer's daily blog; Intraday commentary and news; Real-time ..."
p2
aS'Aug 14, 2015 - Shares of El Pollo Loco crashed below their initial public offering price Friday for ... in the worlds of diversified media, news, education, and information services.'
p3
aS'Aug 14, 2015 - What: Shares of El Pollo Loco (NASDAQ:LOCO) fell 20% on Friday morning, ... what: Weak same-store growth in the company-owned segment is bad news.'
p4
aS"Aug 13, 2015 - El Pollo Loco share tumble 12% as revenue, same-store sales fall short. By Trey ... El Pollo Loco's adjusted earnings per share were 19 cents, ahead of the FactSet consensus of 18 cents. The company posted ... More News from MarketWatch."
p5
aS'Aug 13, 2015 - Shares of restaurant operator El Pollo Loco tanked as much as 14 percent after it posted adjusted earnings of 19 cents a share ... Karma AllenNews Associate ...'
p6
aS'Aug 14, 2015 - From Yahoo Finance: El Pollo Loco shares fell 18% in afternoon trading on Friday after the company reported...'
p7
aS'Aug 14, 2015 - Shares of El Pollo Loco plunged 21% a day after the fast-food chain released second-quarter results that missed Wall Street expectations. The Costa Mesa ...'
p8
aS'Aug 13, 2015 - El Pollo Loco Holdings Inc. (NASDAQ: LOCO) is scheduled to report its second-quarter financial results after the markets close on Thursday. Consensus ...'
p9
aS"Aug 13, 2015 - Aug 13 Restaurant chain operator El Pollo Loco Holdings Inc's quarterly comparable sales fell ... El Pollo Loco reported a 3.9 percent fall in customer traffic to ... Thomson Reuters is the world's largest international multimedia news agency, ..."
p10
a.