(lp0
S'Aug 16, 2015 - Business News ... El Pollo Loco shares plunged 21 percent on Friday after the chain released second-quarter results that fell short of Wall Street expectations. ... Stephen Sather, El Pollo Loco chief executive, was quoted by the Los Angeles ...'
p1
aS'Aug 17, 2015 - El Pollo Loco (NASDAQ:LOCO) fell 20.7% on Friday after lowering their annual growth forecast to 3%. In just over a year since the $15 a share IPO last July the ...'
p2
aS'Aug 16, 2015 - El Pollo Loco reported mixed second quarter results on Thursday, August 13 that sent shares plummeting the next day.The market seems to be focusing on the ...'
p3
aS'Aug 17, 2015 - El Pollo Loco pairs their signature flame-grilled chicken with Baja Shrimp for five new, limited-time chicken & shrimp entrees, including new paella. ... - Chicken, Shrimp & Sausage Paella Bowl - Chopped chicken breast, Baja Shrimp, pork linguica sausage, and peas atop a bed of rice.'
p4
aS'Aug 17, 2015 - Shares of chicken restaurant chain El Pollo Loco traded down 21 percent on ... El Pollo Loco is one of many recent initial public offering high fliers down .... Global Business and Financial News, Stock Quotes, and Market Data and Analysis.'
p5
aS'Aug 17, 2015 - ... Marketing Officer at EL POLLO LOCO HOLDINGS INC. How much did Ed Valle make as Chief Marketing Officer of EL POLLO LOCO HOLDINGS INC in 2014.'
p6
aS'Aug 17, 2015 - More Latest News. Education board denies Hope ... The losers ended up as the El Pollo Loco special at the taqueria the following day. ( permalink | suggest ...'
p7
aS'Aug 17, 2015 - ... directors including El Pollo Loco, Inc., SuperNova Shipping, LLC, Consolidated Advisers, L.L.C. and Transportation Technologies Industries, Inc. Mr. Flyer was ...'
p8
aS"Aug 17, 2015 - El Pollo Loco is crashing - via @YahooFinance ... Is El Pollo Loco's Drop Overdone? ... What to Expect From El Pollo Loco Earnings - via @YahooFinance ..."
p9
aS"Aug 16, 2015 - Copyright 2016 Arizona Daily Star. All rights reserved. This material may not be published, broadcast, rewritten or redistributed. Today's Health News ..."
p10
a.