(lp0
S'Aug 20, 2015 - El Pollo Loco (LOCO): "Step up to the big time and go with Chipotle Mexican Grill (CMG)." ... Access to Jim Cramer\'s daily blog; Intraday commentary and news ...'
p1
aS'Aug 20, 2015 - Warrior Trading News Articles ... On Thursday after the close El Pollo Loco (LOCO) reported second quarter earnings that sent the shares into a nosedive in ... El Pollo Loco CEO Steve Sather said in a statement with the release of earnings:.'
p2
aS'El Pollo LoCo Holdings Inc. shares tumbled this week more than 7% after receiving a price target cut at ...'
p3
aS'Aug 20, 2015 - Updated El Pollo Loco reports higher profit; sales slide  Log In  Home  News Viewer  Video  Radio, ... More News from MarketWatch. Top Stories. Trending.'
p4
aS"Aug 21, 2015 - August 21, 2015 Atascocita, HKA Texas News, Hotels ... Valley Ranch Town Center adds Chickfila, Chili's, El Pollo Loco, Freebirds, Subway, T. Jin's Asian Caf ..."
p5
aS"Aug 21, 2015 - Zacks News for ( BOJA ) ... Company News for March 14, 2016. 03/14/16-9:10AM EST Zacks ... El Pollo Loco, Bojangles' Prospects Bright: Take Your Pick."
p6
aS"Aug 20, 2015 - Pollo Campero, home of Authentic Latin Chicken, will celebrate National Family Meals Month by offering guests a ... Houston; News ... Mothers a Sweet Treat on Mother's Day  Latin Flavors to the Bone  Watch out KFC: El Pollo Loco is sizzling."
p7
aS'Aug 21, 2015 - Pollo Tropical is now open in League City at 3170 Gulf Freeway. ... El Pollo Loco has leased 32,777 square feet of land in Spring Town Center at ... <span class="title">Real <span class="widget-title-remainder">Estate News</span></span>.'
p8
aS"Aug 21, 2015 - ... Sitemap  Privacy Policy. You are here: HomeNewsWhy you're smarter than a chicken ... Try it now at your local El Pollo Loco!! Would be interesting to see ..."
p9
aS'Aug 21, 2015 - FREE Breaking News Alerts from StreetInsider.com! .... El Pollo Loco Announces the Grand Opening of New Las Vegas Restaurant  Colony Starwood Homes to ...'
p10
a.