(lp0
S"Aug 24, 2015 - On this news, the price of El Pollo Loco's shares declined by 20% from its closing price of $18.36 per share on August 13, 2015, to $14.56 per share on August ..."
p1
aS'Aug 25, 2015 - El Pollo Loco Holdings Inc. was slapped with a putative shareholder class action Monday alleging key executives knowingly made misleading statements that ...'
p2
aS'Aug 24, 2015 - 13 stock of El Pollo Loco between May 15, 2015 and August 13, 2015, inclusive (the ..... (g) Unexpected material news about El Pollo Loco was rapidly.'
p3
aS"Aug 24, 2015 - Plaintiff Daniel Turocy purchased El Pollo Loco common stock during the Class Period ... also signed El Pollo Loco's filings with the SEC during the Class Period. 10. ..... (g) Unexpected material news about El Pollo Loco was rapidly reflected ..."
p4
aS'Aug 25, 2015 - Ask Matt: Is it crazy to buy El Pollo Loco? Columnist | 2 hours ago 0 Views  Travel liars, pants on fire. Advice | 33 minutes ago 8 Views  Apollo Global to buy ...'
p5
aS'Aug 24, 2015 - Here is a look at the performance of Wingstop Inc verses the performance of Bojangles Inc, Popeyes Louisiana Kitchen Inc and El Pollo LoCo Holdings Inc:.'
p6
aS"Aug 24, 2015 - Latest News. Starbucks pulls back plans for boozy units in San Francisco  It's a wrap for this McDonald's menu item  Burger King's olive branch to McDonald's ..."
p7
aS"Aug 25, 2015 - El Pollo Loco Extreme Brandz Group of Companies Fazoli's Restaurant Group Inc. Fire CZ Inc. Firkin Group of Pubs, The First Class Seats Focus Brands Inc."
p8
aS'Aug 25, 2015 - El Pollo Loco Logo.  Flame Broiled Chicken  Chicken Tortilla Soup  Chicken Avocado Salad  Skinny Chicken Quesadilla  Whole Wheat Avocado Burrito ...'
p9
aS'Aug 24, 2015 - Each Tuesday, historical writer David Leighton shares the story behind Tucson street names. Contact him at streetsmarts@tucson.com ...'
p10
a.