(lp0
S'Aug 26, 2015 - Top news. Food ... View slideshow. Costa Mesa-based El Pollo Loco is being sued for securities violations. SAM GANGWER , SAM GANGWER, STAFF.'
p1
aS'Aug 26, 2015 - Courthouse News Service ... Lead plaintiff Daniel Turocy sued El Pollo Loco Holdings, CEO Stephen J. Sather and other controlling ... Though none of the defendants had sold any El Pollo Loco shares since November 2014, immediately after ...'
p2
aS"Aug 26, 2015 - On this news, the price of El Pollo Loco's shares declined by 20% from its closing price of $18.36 per share on August 13, 2015, to $14.56 per share on August ..."
p3
aS"Aug 26, 2015 - Chipotle has been the envy of every business owner for the last 20 years or sonothing's changed there. Pancheros is still expanding. El Pollo Loco got a lot of ..."
p4
aS'Aug 27, 2015 - News & Views .... He even cooked for me and always had a hearty laugh when I asked for a meal from El Pollo Loco, a fast food restaurant whose healthy food ...'
p5
aS'Aug 26, 2015 - Restaurant Industry Insight, News and Analysis. Sections About Us ... well off their 52-week highs. El Pollo Loco has been the worst performer of the recent IPOs.'
p6
aS"Aug 27, 2015 - St. Mary's Tortilla Factory takes on Zivaz Mexican Bistro; Ole Mexican Grill faces El Guero Canelo in Round 4 of Burrito Madness."
p7
aS'Aug 26, 2015 - You can access more in-depth stories and analysis, as well as news not found on ... More restaurants testing delivery service  El Pollo Loco test drives electric ...'
p8
aS'Aug 27, 2015 - ... live streaming video online. KRQE reports on news, weather, traffic, investigations and sports for New Mexico. ... KRQE News 13 .... ElPolloLoco. 21 years, for ...'
p9
aS'Aug 27, 2015 - Updated El Pollo Loco reports higher profit; sales slide. 5:20 P.M. ET. Bojangles profit dips, but results .... More News from MarketWatch. Top Stories. Trending.'
p10
a.