(lp0
S"Aug 3, 2015 - August 03, 2015 08:00 ET | Source: El Pollo Loco, Inc. ... 3, 2015 (GLOBE NEWSWIRE) -- El Pollo Loco (Nasdaq:LOCO), the nation's ... other news releases in"
p1
aS"Aug 4, 2015 - A review of El Pollo Loco's Power Bowl, which features chopped chicken breast, broccoli, black beans, pico de gallo, and cotija cheese."
p2
aS'Aug 3, 2015 - US-based El Pollo Loco, a fast food chicken chain, added more shrimp items to its menu, the ... Surimi Forum 2016 blog: Catch the latest news on the sector here ...'
p3
aS'Aug 3, 2015 - 7, 32, El Pollo Loco, $723.0, $1,700.0, 243, 172, 415, 14. 8, 34, Wingstop, $678.8, $1,073.0, 652, 41, 693, 78. 9, 41, Boston Market, $602.0, $1,314.0, 3, 453, 456 ...'
p4
aS"Aug 3, 2015 - 3, 2015 (GLOBE NEWSWIRE)  El Pollo Loco (Nasdaq:LOCO), a nation's heading fire-grilled duck chain, ... We are ceaselessly innovating during El Pollo Loco, meditative about new flavors and combinations that move out a ... More News."
p5
aS'Aug 3, 2015 - US fast-food chicken chain El Pollo Loco announced the launch of five new Baja shrimp menu items to its existing chicken items, eliminating the need "to ...'
p6
aS'Aug 3, 2015 - AUA Private Equity is a diversified investment firm but does have past restaurant success with fast-food Mexican eatery El Pollo Loco, which has about 400 ...'
p7
aS"Aug 3, 2015 - 3, 2015 (GLOBE NEWSWIRE) -- El Pollo Loco (Nasdaq:LOCO), the nation's leading fire-grilled chicken chain, today announced the launch of five new entrees ..."
p8
aS"Aug 2, 2015 - ... Coupons  Fry's Promotions. Breaking news: Wildcats given No. 6 seed in NCAA tournament, to face play-in winner  Home/; News/; Local news/; Mine Tales ..."
p9
aS"Aug 3, 2015 - Pollo Locuas Restaurant, Blue Island, IL. 1386 likes  59 talking ... News Feed ... Today, caldos de Res y pollo 708-389-6880. Pollo Locuas Restaurant's photo."
p10
a.