(lp0
S'Aug 7, 2015 - El Pollo Loco Adds Chicken and Shrimp Combo Options to its Menu Seafood News.'
p1
aS"Aug 7, 2015 - Five Delicious New Dishes Available for a Limited Time Costa Mesa, CA (RestaurantNews.com) El Pollo Loco (Nasdaq:LOCO), the nation's leading fire-grilled."
p2
aS'Aug 7, 2015 - El Pollo Loco Holdings, Inc. (Nasdaq:LOCO) appointed former Norcraft Cabinetry ... Canadian News. Cabinetry Scion Mark Buller Joins El Pollo Loco Board.'
p3
aS'Aug 6, 2015 - Another poultry-focused eatery, El Pollo Loco (LOCO), is scheduled to report Q2 ... You will find the latest news, market analysis, and education to help you ...'
p4
aS"Aug 7, 2015 - Ann Arbor, MI (Restaurant News Release) Domino's Pizza (NYSE: DPZ), the ... El Pollo Loco Offers New Entrees Featuring Both Fire-Grilled Chicken and Baja ..."
p5
aS'Aug 7, 2015 - Perfume maker Coty Inc made news in July, entering an agreement with Procter ... El Pollo LoCo Holdings Inc is expected to report second-quarter profit below ...'
p6
aS"Aug 6, 2015 - Melissa will walk us through her journey as a news anchor, mother and care ... El Pollo Loco celebrates growing presence in Houston by hosting 'Loco Fun Day' ..."
p7
aS'Aug 7, 2015 - Earnings are expected from Cisco, News Corp., Kraft Heinz and Alibaba, but the big ... Nordstrom, Applied Materials, Flowers Foods, El Pollo Loco, King Digital, ...'
p8
aS'Aug 7, 2015 - Stay up to date with company news ... Join LinkedIn to get the latest news, insights, and opportunities from over 3 million ... Risk Management (El Pollo Loco)'
p9
aS'Aug 6, 2015 - You can access more in-depth stories and analysis, as well as news not found on any other website or any other media outlet. You also get free eNewsletters, ...'
p10
a.