(lp0
S"Sep 14, 2015 - 14, 2015 (GLOBE NEWSWIRE) -- El Pollo Loco (Nasdaq:LOCO), the nation's leading fire-grilled chicken chain, today opened its newest location in Folsom, CA."
p1
aS"Sep 15, 2015 - Atlanta, GA (Restaurant News Release) Tin Drum Asiacafe, a fast casual concept ...... El Pollo Loco is the nation's leading fire-grilled chicken restaurant chain ..."
p2
aS'Sep 15, 2015 - http://www.locoforzero.com/ http://10minutemail.com/10MinuteMail/index.html Now when you enjoy the taste of El Pollo Loco fire-grilled chicken, you can wash ...'
p3
aS'Sep 14, 2015 - El Pollo Loco Holdings, Inc. (LOCO) has depreciated 66.29% over the past year. .... Subscribe to News To Use for the latest insights and analysis ...'
p4
aS'Sep 14, 2015 - While many other market reports only provide stock news and opinion, we offer ... Alerts For Celldex Therapeutics, Anavex Life Sciences Corp, El Pollo Loco, ...'
p5
aS"Sep 15, 2015 - Watch KOAT Action 7 News On Demand  Home; / New Mexico News. By Nancy Laflin  Bio .... ElPolloLoco. Really, didn't know he was a pedophile? Maybe we ..."
p6
aS'Sep 14, 2015 - (Source: El Pollo Loco Holdings Inc ) Microsoft Word - EPL M3 2015 Press Release FINAL Avocado Lovers Rejoice as El Pollo Loco Launches New Line of ...'
p7
aS'Sep 14, 2015 - Reese Witherspoon. In case Reese Witherspoon\'s acting career doesn\'t pan out, the 39-year-old can turn to her secret talent. "I am a bit of a hip-hop dancer," ...'
p8
aS'Sep 16, 2015 - El Pollo Loco #3518. Point (-121.267239 38.619368). 2281 Sunrise Blvd Gold .... Connect with Sacramento County  Metro Cable. Sign-up for news updates!'
p9
aS"Sep 15, 2015 - ... top restaurant franchise, like McDonald's or Subway, or a smaller regional food franchise, like 16 Handles or El Pollo Loco, having an effective local marketing ..."
p10
a.