(lp0
S'Sep 16, 2015 - (SCHW), fell by 18% and Most Dangerous Small Cap Stock, El Pollo Loco Holdings, Inc. (LOCO), fell by 35%. Overall, 18 out of the 40 Most Dangerous stocks ...'
p1
aS"Sep 17, 2015 - With all the news about fast-food chains sourcing antibiotic-free meat, you'd think there's a good chance this burger didn't come from a cow injected with ..."
p2
aS'Sep 16, 2015 - For information on The Baltimore Library Project, click here.For information on Phases 1 & 2 of the Washington National Cathedral restoration, click here.'
p3
aS"Sep 16, 2015 - Noodles & Co., Potbelly, Del Frisco's and El Pollo Loco. Who could ..... news that Chief Marketing Officer Bob Kraut was out after less than two years in the job."
p4
aS"Sep 16, 2015 - Tenants announced to date include Sam's Club, Kroger Marketplace, Academy Sports & Outdoors, Chili's, Chick-Fil-A and El Pollo Loco. The Town Center ..."
p5
aS'Sep 17, 2015 - We localized that but from the central base, Mark Hardison, vice president of marketing at El Pollo Loco told BIA/Kelsey at its national conference in March.'
p6
aS"Sep 17, 2015 - Home  Mail  Search  News  Sports  Finance  Celebrity  Weather .... Selling McDonald's  Nordstrom, El Pollo LoCo, King Digital Lead Thursday's After-Hours ..."
p7
aS'Sep 17, 2015 - by El Gato Pollo Loco on Sep 17, 2015 | 11:23 PM up. Captain-Marvelous .... The only thing that would make this perfect would be Bad News Barrett . ACTION !'
p8
aS'Sep 17, 2015 - He serves as a director of William Lyon Homes, Inc., El Pollo Loco, Inc., Stantec Inc. and Remy International, Inc. Within the past five years, Mr. Ammerman also ...'
p9
aS"Sep 17, 2015 - She really loved mariachi bands, and the El Pollo Loco manager gave me a good discount ... I implied a semi-respected news anchor's ability to have a period ..."
p10
a.