(lp0
S"Sep 17, 2015 - With all the news about fast-food chains sourcing antibiotic-free meat, you'd think there's a good chance this burger didn't come from a cow injected with ..."
p1
aS'Sep 18, 2015 - Over a catered lunch of El Pollo Loco grilled chicken and tortillas, staffers rattle ..... TakePart is the digital news and lifestyle magazine from Participant Media, the ...'
p2
aS"Sep 18, 2015 - Over a catered lunch of El Pollo Loco grilled chicken and tortillas, staffers rattle off some of the report's painful statistics: Transgender people experience ..."
p3
aS'Sep 18, 2015 - Above, a little girl requests a packet of sauce at an El Pollo Loco restaurant in Santa Ana. (Mariah Tauger/ Los Angeles Times). Karen KaplanContact Reporter.'
p4
aS'Sep 17, 2015 - We localized that but from the central base, Mark Hardison, vice president of marketing at El Pollo Loco told BIA/Kelsey at its national conference in March.'
p5
aS"Sep 18, 2015 - Baskin-Robbins. 65: Whataburger. 65: Dunkin' Donuts. 60: McDonald's. 55: Domino's Pizza. 55: Hardee's. 50: Subway. 50: Gold Star Chili. 35: El Pollo Loco. 30:"
p6
aS'Sep 17, 2015 - by El Gato Pollo Loco on Sep 17, 2015 | 11:23 PM up. Captain-Marvelous .... The only thing that would make this perfect would be Bad News Barrett . ACTION !'
p7
aS"Sep 17, 2015 - She really loved mariachi bands, and the El Pollo Loco manager gave me a good discount ... I implied a semi-respected news anchor's ability to have a period ..."
p8
aS'Sep 17, 2015 - He serves as a director of William Lyon Homes, Inc., El Pollo Loco, Inc., Stantec Inc. and Remy International, Inc. Within the past five years, Mr. Ammerman also ...'
p9
aS'Sep 18, 2015 - Darden Restaurants, Inc. (DRI) is set to report first-quarter fiscal 2016 results on Sep 22, 2015, before the opening bell.'
p10
a.