(lp0
S'Sep 21, 2015 - Joining them now is El Pollo Loco, which has plans for a $450,000 new store at ... S.A. Shop Talk will highlight breaking news, interactive data and shopping ...'
p1
aS"Sep 22, 2015 - Informing Communities / Spring's #1 News Source ... Whataburger; Bank of America; Pollo Loco; Starbucks Coffee; Today's Vision; Made Ya Smile Dental ..."
p2
aS'Sep 21, 2015 - KRQE reports on news, weather, traffic, investigations and sports for New ... The Downs Casino released this statement to KRQE News 13: .... ElPolloLoco.'
p3
aS'Sep 21, 2015 - Action 7 News obtained an email Brandenburg sent to Chief Gorden Eden on Sept. 4. It says in part that people .... ElPolloLoco. Oops, shot my team member ...'
p4
aS"Sep 21, 2015 - The Daily Progress, Charlottesville News. dailyprogress. ... 'Mmm, el pollo loco!! om nom nom :-)' ... La msica para Fiesta el 2015 - un grupo Culpeper locales!"
p5
aS"Sep 21, 2015 - News Feed ... El Pollo Loco - Starbucks - Unknown Sushi place - Spring Children's Dentistry (http://springchildrensdentistry.com/) - UPS - AT&T - Today's Vision"
p6
aS"Sep 21, 2015 - News... but not as you know it. 84.0m shares ... 'El Pollo Loco' (left)  Buttermilk Fried Chicken, Chorizo, Avocado, Rocket & Mayo. 'El Matador' (right)  Beef, ..."
p7
aS'Sep 21, 2015 - Puppy rescued by Angels for Animals from Summit, Arizona, Sept. 15, 2015.'
p8
aS"Sep 20, 2015 - El Pollo Loco: PE 'Bust-Out', 20+ Years Of Failed Domestic Expansion, Pre-IPO Window ... Gsk news has been spotty at best, and their prs around it where quite ..."
p9
aS'Sep 22, 2015 - One of the most common examples is a date-stamp added to news and blog results. ... Search: "walking taco news" .... Search: "el pollo loco menu" (Seattle) ...'
p10
a.