(lp0
S"Oct 12, 2015 - Chicken is flying at El Pollo Loco Holdings (NASDAQ:LOCO), and at least one Wall Street ... The good news for El Pollo Loco's shareholders is that the stock is ..."
p1
aS"Oct 12, 2015 - A poorly received fiscal Q2 2015 earnings report sent El Pollo Loco's stock tumbling ... During September, absent other company news, these class action suits ..."
p2
aS"Oct 12, 2015 - Top 101 Convenience Stores  CSPnet.com - Convenience Store News  April 2016 CSP .... Case Study: El Pollo Loco. The Mexican concept knows it isn't Taco ..."
p3
aS'Oct 12, 2015 - Fogo de Chao, El Pollo Loco and Noodles & Company are all trading below their IPO ... Jonathan Maze covers finance for Nations Restaurant News, as well as ...'
p4
aS"Oct 12, 2015 - ... Denny's  Domino's Pizza  Dunkin' Donuts  El Pollo Loco  Famous Dave's  Five Guys Burgers  Golden Corral ... Powered by WordPress and Dynamic News."
p5
aS'Oct 12, 2015 - While many other market reports only provide stock news and opinion, we offer ... Alerts For Celldex Therapeutics, Anavex Life Sciences Corp, El Pollo Loco, ...'
p6
aS"Oct 12, 2015 - It is not unusual for some restaurants and food trucks to operate on a cash-only basis. My beloved oyster dive, Gilhooley's, banned payment by credit card ..."
p7
aS"Oct 11, 2015 - ... and Taco Bell! Bojangles, Popeyes, El Pollo Loco, Qdoba, On the Border and Chili's, too! .... Breitbart News Daily: The Battle of New YorkThe Street Protest."
p8
aS"Oct 11, 2015 - ... 2016 Arizona Daily Star. All rights reserved. This material may not be published, broadcast, rewritten or redistributed. View 0 Comments. Today's Health News ..."
p9
aS"Oct 12, 2015 - Dunkin Donuts, Hooters, Whataburger, Popeye's, and El Pollo Loco are just a few of the food service chains that have hung their hats on this hue. From muted ..."
p10
a.