(lp0
S"Oct 16, 2015 - The lawsuit seeks to recover damages for El Pollo Loco investors under the federal securities laws. To join the El Pollo class action, visit the firm's website at http://www.rosenlegal.com/cases-706.html, or contact Phillip ... other news releases in"
p1
aS'Oct 15, 2015 - Every week CBS 5 News is sent a list of restaurants that have been recently ... CBS 5 News selects five restaurants with some of the hi... ... El Pollo Loco.'
p2
aS'Oct 15, 2015 - You can access more in-depth stories and analysis, as well as news not found on any other website or any other media outlet. You also get free eNewsletters, ...'
p3
aS"Oct 15, 2015 - Home ; News ; Municipal governments ... If the city required English, then at an El Pollo Loco, he said, you'd have signs reading 'The Crazy Chicken.'."
p4
aS'Oct 16, 2015 - Paynter has used the opportunity to relocate Rent A Center from across the street to next to El Pollo Loco. The move allows more space for the new DSW shoe ...'
p5
aS"Oct 15, 2015 - ... KOAT Action 7 News On Demand  Home; / New Mexico News .... ElPolloLoco. The investigation in to Han's ... ElPolloLoco. I'm having a battle of wits with an ..."
p6
aS'Oct 16, 2015 - Tier 1 competitor design wins should become much bigger part of the news flow ... while some one off shorts have worked here like El Pollo Loco and Pot Belly, ...'
p7
aS'Oct 16, 2015 - Orcutt Academy High School News and Event ... El Pollo Loco will have you craving its food, which ranges from burritos and nachos to quesadillas. Its customers ...'
p8
aS"Oct 16, 2015 - This subsegment, as dubbed by Technomic as QSR-Plus, includes brands like Chick-fil-A, Culver's, El Pollo Loco, Freddy's, In-N-Out Burger, Pita Pit, and ..."
p9
aS'Oct 16, 2015 - Get reviews, hours, directions, coupons and more for El Pollo Loco at 20740 Kuykendahl Rd, Spring, TX. Search for other Fast Food Restaurants in Spring on ...'
p10
a.