(lp0
S"Oct 12, 2015 - Chicken is flying at El Pollo Loco Holdings (NASDAQ:LOCO), and at least one Wall Street ... The good news for El Pollo Loco's shareholders is that the stock is ..."
p1
aS"Oct 12, 2015 - A poorly received fiscal Q2 2015 earnings report sent El Pollo Loco's stock tumbling ... During September, absent other company news, these class action suits ..."
p2
aS"Oct 12, 2015 - Top 101 Convenience Stores  CSPnet.com - Convenience Store News  April 2016 CSP .... Case Study: El Pollo Loco. The Mexican concept knows it isn't Taco ..."
p3
aS'Oct 12, 2015 - Fogo de Chao, El Pollo Loco and Noodles & Company are all trading below their IPO ... Jonathan Maze covers finance for Nations Restaurant News, as well as ...'
p4
aS'Oct 13, 2015 - While many other market reports only provide stock news and opinion, we offer ... Alerts For Celldex Therapeutics, Anavex Life Sciences Corp, El Pollo Loco, ...'
p5
aS'Oct 12, 2015 - While many other market reports only provide stock news and opinion, we offer ... Alerts For Celldex Therapeutics, Anavex Life Sciences Corp, El Pollo Loco, ...'
p6
aS"Oct 13, 2015 - El Pollo Loco's COO To Leave Company  Why Did Restaurant Brands International ... 2016 FOX News Network, LLC. All rights reserved. FAQ - Privacy Policy ..."
p7
aS"Oct 12, 2015 - ... Denny's  Domino's Pizza  Dunkin' Donuts  El Pollo Loco  Famous Dave's  Five Guys Burgers  Golden Corral ... Powered by WordPress and Dynamic News."
p8
aS"Oct 13, 2015 - El Pollo Loco's Crazy Freshman Year as a Public Company  newsrus.org. Filed under: Company News, Earnings, Restaurants, IPOs John Crowe/Alamy One of ..."
p9
aS"Oct 13, 2015 - Sunny skies and temperatures in the 90s will be hanging around for another couple of days, with tomorrow's daytime highs near or at-record for Oct. 14."
p10
a.