(lp0
S'Oct 15, 2015 - Nutrition information and analysis for El Pollo Loco Chicken Nuggets. See calories, carbs ... HealthGrove. Your source for health news and medical information.'
p1
aS'Oct 15, 2015 - Nutrition information and analysis for El Pollo Loco Corn Tortilla. See calories, carbs, fat, ... HealthGrove. Your source for health news and medical information.'
p2
aS'Oct 14, 2015 - Home  BUSINESS  Local Business News  Old-time diner closer to opening in Santa .... Located in part of the space formerly occupied by the El Chaparral Mexican ... El Pollo Loco out; burgers and juice in  Occupational healthcare firm gains ...'
p3
aS'Oct 13, 2015 - While many other market reports only provide stock news and opinion, we offer ... Alerts For Celldex Therapeutics, Anavex Life Sciences Corp, El Pollo Loco, ...'
p4
aS"Oct 13, 2015 - El Pollo Loco's COO To Leave Company  Why Did Restaurant Brands International ... 2016 FOX News Network, LLC. All rights reserved. FAQ - Privacy Policy ..."
p5
aS"Oct 14, 2015 - almost 13% on the news. Despite the markdown, Dunkin' .... Bell, Jiffy Lube, Chick-fil-A, El Pollo Loco and Raising Cane's. Jiffy Lube, their largest client so far, ..."
p6
aS"Oct 14, 2015 - October 14, 2015 Business Spotlight, Crosby, HKA Texas News .... Valley Ranch Town Center adds Chickfila, Chili's, El Pollo Loco, Freebirds, Subway, T. Jin's ..."
p7
aS"Oct 13, 2015 - Sunny skies and temperatures in the 90s will be hanging around for another couple of days, with tomorrow's daytime highs near or at-record for Oct. 14."
p8
aS'Oct 14, 2015 - Tulsa World: Tulsa News, Sports, Weather, Business & Entertainment ... Chef Fernando Garcia prepares food at the El Rey Del Pollo food truck near 21st Street ...'
p9
aS"Oct 13, 2015 - El Pollo Loco's Crazy Freshman Year as a Public Company  newsrus.org. Filed under: Company News, Earnings, Restaurants, IPOs John Crowe/Alamy One of ..."
p10
a.