(lp0
S"Oct 19, 2015 - ... the Next Level. El Pollo Loco Holdings Inc(LOCO) ... Access to Jim Cramer's daily blog; Intraday commentary and news; Real-time trading forums. Only $49.95."
p1
aS'Oct 19, 2015 - October 19, 2015 08:00 ET | Source: El Pollo Loco, Inc. ... COSTA MESA, Calif., Oct. 19, 2015 (GLOBE NEWSWIRE) -- El Pollo Loco ... other news releases in'
p2
aS'Oct 18, 2015 - ... businesses coming to Main Street Kingwood alongside the new HEB megastore & Memorial Hermann Convenient Care Center. -Food & Drink. El Pollo Loco.'
p3
aS"Oct 19, 2015 - El Pollo Loco - Not bad for a cheapish family meal. Whataburger - Northpark is closer for me. Raising Cane's - Great news, finally makes it a dinner option."
p4
aS'Oct 19, 2015 - FREE Breaking News Alerts from StreetInsider.com! ... El Pollo Loco Announces the Grand Opening of New Las Vegas Restaurant  PetGiftBox is a Proud ...'
p5
aS'Oct 18, 2015 - Calories in Beverages gold peak fresh-brewed mango passion fruit tea sm by El pollo loco (retired) fl oz.'
p6
aS'Oct 19, 2015 - (Source: El Pollo Loco Holdings Inc ) COSTA MESA, Calif., Oct. 19, 2015 (GLOBE NEWSWIRE) -- El Pollo Loco ... Popular News Stories ... El Pollo Loco Offers New Entrees Featuring Both Fire-Grilled Chicken and Baja Shrimp (El Pollo .'
p7
aS'Oct 18, 2015 - El Pollo Loco (3155 Saviers Rd, Oxnard, CA)  Mexican Restaurant  Brincolines Jumps  Party Supplies. Dive Bars in Oxnard, California ... News Feed ...'
p8
aS"Oct 18, 2015 - Join LinkedIn to get the latest news, insights, and opportunities from over 3 million ... Headquartered in Cypress, California, and our portfolio of brands include: El Torito .... El Pollo Loco  BJ's Restaurants, Inc. California Pizza Kitchen  Rubio's ..."
p9
aS"Oct 19, 2015 - This news story was published on October 19, 2015. Advertise on NIT ..... El pollo loco, you've shit your pants for far less than that. Buzz, you gotta lotta nerve ..."
p10
a.