(lp0
S'Oct 1, 2015 - El Pollo Loco (LOCO): Despite more than fifty Wall Street criminal stock upgrades ... BREAKING NEWS: Keurig Green Mountain $4 million dollars earnings call.'
p1
aS'Oct 1, 2015 - This restaurant does not appear to be taking online orders at this time. Get to know us. About Grubhub  Our apps  Our blog  Careers  Investor relations  News.'
p2
aS'Oct 1, 2015 - You can access more in-depth stories and analysis, as well as news not found ... downgrades outlook after disappointing 2Q  El Pollo Loco fights falling traffic ...'
p3
aS"Oct 1, 2015 - Combined with disappointing guidance, the news helped send shares down nearly 10%, and they've been in free fall ever since, now ... El Pollo Loco (LOCO)."
p4
aS'Mental Health issues are a big problem in this Country and almost nothing is being done to solve these issues ...'
p5
aS'Oct 1, 2015 - ... Ray Vaughan, El Pollo Loco, Conservative News Today, Thunder Valley Casino Resort , SAVEUR Magazine, Donald Trump For President, Trilogy at Rio Vista ...'
p6
aS'Oct 1, 2015 - Get reviews, hours, directions, coupons and more for El Pollo Loco at 215 N Gaffey St, San Pedro, CA. Search for other Fast Food Restaurants in San Pedro on ...'
p7
aS'Sep 30, 2015 - ... lasts forever in Hollywood, Competition Motors is now an Armenian banquet hall and the Ranch Market is home to high-end Mexican eatery El Pollo Loco.'
p8
aS"Oct 1, 2015 - Here at Sporting News headquarters, we're big fans of the booming craft brew industry in this country. Especially when it .... El Pollo Loco. Photo: Pixel Studio ..."
p9
aS'Oct 1, 2015 - Athos says it has sold millions of dollars worth of workout gear outfitted with sensors. Fitness trackers and smartwatches that count the number steps taken and ...'
p10
a.