(lp0
S'Oct 15, 2015 - Every week CBS 5 News is sent a list of restaurants that have been recently ... CBS 5 News selects five restaurants with some of the hi... ... El Pollo Loco.'
p1
aS'Oct 15, 2015 - You can access more in-depth stories and analysis, as well as news not found on any other website or any other media outlet. You also get free eNewsletters, ...'
p2
aS"Oct 15, 2015 - Home ; News ; Municipal governments ... If the city required English, then at an El Pollo Loco, he said, you'd have signs reading 'The Crazy Chicken.'."
p3
aS"Oct 15, 2015 - ... KOAT Action 7 News On Demand  Home; / New Mexico News .... ElPolloLoco. The investigation in to Han's ... ElPolloLoco. I'm having a battle of wits with an ..."
p4
aS'Oct 15, 2015 - Nutrition information and analysis for El Pollo Loco Vanilla Soft Serve Ice Cream. See calories, carbs, fat, ... Your source for health news and medical information.'
p5
aS'Oct 14, 2015 - Home  BUSINESS  Local Business News  Old-time diner closer to opening in Santa .... Located in part of the space formerly occupied by the El Chaparral Mexican ... El Pollo Loco out; burgers and juice in  Occupational healthcare firm gains ...'
p6
aS"Oct 14, 2015 - almost 13% on the news. Despite the markdown, Dunkin' .... Bell, Jiffy Lube, Chick-fil-A, El Pollo Loco and Raising Cane's. Jiffy Lube, their largest client so far, ..."
p7
aS'Oct 16, 2015 - Get reviews, hours, directions, coupons and more for El Pollo Loco at 20740 Kuykendahl Rd, Spring, TX. Search for other Fast Food Restaurants in Spring on ...'
p8
aS"Oct 14, 2015 - October 14, 2015 Business Spotlight, Crosby, HKA Texas News .... Valley Ranch Town Center adds Chickfila, Chili's, El Pollo Loco, Freebirds, Subway, T. Jin's ..."
p9
aS'Oct 16, 2015 - ... Kimberly Elise, TheRealKeshiaKnightPulliam, ABC 13 Houston, KPRC2, KHOU 11 News, FOX 26 Houston, 13abc, Fox 13 News, Great Day Houston KHOU ...'
p10
a.