(lp0
S'Oct 1, 2015 - El Pollo Loco (LOCO): Despite more than fifty Wall Street criminal stock upgrades ... BREAKING NEWS: Keurig Green Mountain $4 million dollars earnings call.'
p1
aS'Oct 2, 2015 - Watch KOAT Action 7 News On Demand  Home; / New Mexico News ... ElPolloLoco. While APD, possibly could be suffering ... ElPolloLoco. Is that you, Trebec?'
p2
aS'Oct 1, 2015 - This restaurant does not appear to be taking online orders at this time. Get to know us. About Grubhub  Our apps  Our blog  Careers  Investor relations  News.'
p3
aS'Oct 1, 2015 - You can access more in-depth stories and analysis, as well as news not found ... downgrades outlook after disappointing 2Q  El Pollo Loco fights falling traffic ...'
p4
aS"Oct 2, 2015 - 4A's > News & Views > Agency News ... Made, MINI Cooper, HTC, Blue Shield of California, Greyhound, El Pollo Loco, Sunrun, Logan's Roadhouse and others."
p5
aS"Oct 1, 2015 - Combined with disappointing guidance, the news helped send shares down nearly 10%, and they've been in free fall ever since, now ... El Pollo Loco (LOCO)."
p6
aS'Oct 1, 2015 - ... Ray Vaughan, El Pollo Loco, Conservative News Today, Thunder Valley Casino Resort , SAVEUR Magazine, Donald Trump For President, Trilogy at Rio Vista ...'
p7
aS'Oct 1, 2015 - Get reviews, hours, directions, coupons and more for El Pollo Loco at 215 N Gaffey St, San Pedro, CA. Search for other Fast Food Restaurants in San Pedro on ...'
p8
aS"Oct 2, 2015 - 2016 Time Inc. All rights reserved. Search. News; Popular; Videos; Fortune 500 ... El Pollo Loco's sales grow, but weak outlook ruffles feathers May 14, 2015 ..."
p9
aS"Oct 2, 2015 - Even though it's considered fast food, El Pollo Loco is so good, but I have to stay away. As far as working out, I'm normally in the gym every day. I've been kind of ..."
p10
a.