(lp0
S'Oct 22, 2015 - COSTA MESA, Calif., Oct. 22, 2015 (GLOBE NEWSWIRE) -- El Pollo Loco (Nasdaq:LOCO), the nation\'s ... "The WKS Restaurant Corporation has been an El Pollo Loco franchisee for 28 years and we are thrilled to ... other news releases in'
p1
aS'Oct 22, 2015 - Check out our LOCO stock analysis, current LOCO quote, charts, and historical prices for EL ... LOCO Stock predictions, Articles, and EL POLLO LOCO News.'
p2
aS"Oct 22, 2015 - Bakersfield has a new El Pollo Loco franchise, at 5030 Gosford Road. It's the ... Thank you for reading Bakersfield.com, your trusted source for local news and ..."
p3
aS'Oct 21, 2015 - See the latest news from NRN ... at 30-minute delivery in new campaign  Starbucks launches delivery by Postmates in Seattle 1; El Pollo Loco test drives electric ...'
p4
aS'Oct 22, 2015 - El Pollo Loco Catering for Board Mtg., FUSD JDP I. August 5, 2015. Paul Martins Restaurant I Mtg. w/ Randall Lewis re: Arboretum I August 7, 2015. Page 1 of 2.'
p5
aS'Oct 21, 2015 - ... broadcast, rewritten or redistributed. Print this article Back to Top. A Share. A A A. Share Article. Related. 10NEWS APP: News, weather & traffic on the go.'
p6
aS'Oct 21, 2015 - Joaquin "El Chapo" Guzman reportedly fell off a small cliff while trying to evade special ops ... Never believe cnn the same news outlet that got caught making up stories el chapo alive ... El Pollo Loco should have kept his nut ass in prison.'
p7
aS"Oct 22, 2015 - Posted in Atascocita News on Thursday, October 22, 2015 10:31 am. ... El Pollo Loco celebrates growing presence in Houston by hosting 'Loco Fun Day' ..."
p8
aS"Oct 22, 2015 - Valley Ranch Town Center adds Chickfila, Chili's, El Pollo Loco, Freebirds, Subway, T. Jin's Asian Caf and others ... What's NEW and NEWS in HKA Texas!"
p9
aS'Oct 21, 2015 - Citi Trends Inc. (CTRN) appears to be an attractive choice for investors, given its strong fundamentals, solid financial position and impressive earnings results.'
p10
a.