(lp0
S'Oct 25, 2015 - DOW JONES, A NEWS CORP COMPANY. News Corp is a network of leading .... Photo: Luke Sharrett/Bloomberg News. By. Spencer Jakab. Spencer Jakab.'
p1
aS'Oct 25, 2015 - There, he worked several odd jobs as a struggling actor, and even hid that dreamy face under a chicken suit while working as the mascot for el Pollo Loco.'
p2
aS'Oct 26, 2015 - While many other market reports only provide stock news and opinion, we ... El Pollo Loco, First Solar, Dollar Tree and hundreds of other stocks Released By ...'
p3
aS'Oct 26, 2015 - Home  News ... BRAKEmax, Ell Pollo Loco open new locations. BRAKEmax comes to Sahuarita; El Pollo Loco to East Broadway in Tucson.'
p4
aS'Oct 26, 2015 - A prickly pear cactus is growing out of a saguaro in the Desert Garden area along the Bajada Loop Nature Trail in Sabino Canyon northeast of Tucson. -- Credit: ...'
p5
aS"Oct 26, 2015 - ... Fingers, Campero International, Chicken Express, Brown's Chicken & Pasta, Kennedy Fried Chicken, Crown Fried Chicken, Bush's Chicken, El Pollo Loco."
p6
aS'Oct 25, 2015 - []davidthefatMale -1 points0 points1 point 5 months ago (0 children). Personally, the only chicken fast food place I go to is El Pollo Loco. permalink; save; report ...'
p7
aS"Oct 27, 2015 - El Pollo Loco is a differentiated and growing restaurant concept that ..... Brand of the Year, a 2012 Hot Concepts winner by Nation's Restaurant News and one."
p8
aS'Oct 26, 2015 - Many Americans love food trucks. They are more than just fast food on wheels and although their popularity has somehow cooled down a little, these mobile ...'
p9
aS"Oct 26, 2015 - ... Slotzilla Zip Line Las Vegas, Yella's Fashionista Closet, Begin with Yes, StevenAitchison, Throwback Lounge, El Pollo Loco, LG USA Mobile, Back Pain Tips, ..."
p10
a.