(lp0
S'Oct 27, 2015 - news. print; email ... 83 with $1.1 billion in sales; El Pollo Loco in Costa Mesa at No. 103 with $723 million; Del Taco in Lake Forest at No. 115 with $656 million ...'
p1
aS"Oct 27, 2015 - BY NEWS DESK | OCTOBER 27, 2015. A court in Hamburg, Germany, has decided that a ... SUPPLIERS' SAFETY NEWS . ... El Pollo Loco Detailed facility audit ..."
p2
aS'Oct 26, 2015 - While many other market reports only provide stock news and opinion, we ... El Pollo Loco, First Solar, Dollar Tree and hundreds of other stocks Released By ...'
p3
aS'Oct 27, 2015 - BITE NEWS SIGN UP ... EL POLLO LOCO HLDGS INC, 2.71 ... News. ETF MANAGERS GROUP ANNOUNCES THE LAUNCH OF BITE-THE FIRST EVER ...'
p4
aS"Oct 28, 2015 - That's great news for retail businesses, unless they manage cash poorly. ... Restaurant operator El Pollo Loco leverages smart safes to dramatically cut the time ..."
p5
aS'Oct 27, 2015 - For the past five years, Syd has reported on restaurant and nightlife news for the ... California-based fire-grilled chicken chain El Pollo Loco has opened a ...'
p6
aS"Oct 27, 2015 - Save Money. Fry's Weekly Ads  Fry's Digital Coupons  Fry's Promotions. Breaking news: Wildcats given No. 6 seed in NCAA tournament, to face play-in winner ..."
p7
aS'Oct 27, 2015 - Walmart, Hobby Lobby, Chikfila, a movie theater, Staples, El Pollo Loco, RC ... El Pollo Loco, Regal Ent. Group (theater), Panera Bread and Chick-fil-A (plus ...'
p8
aS'Oct 27, 2015 - Pre-Market News Analysis on: El Pollo LoCo Holdings Inc(NASDAQ:LOCO), ImmunoGen, Inc.(NASDAQ:IMGN), Simon Property Group Inc(NYSE:SPG), Box ...'
p9
aS"GNP1.de-Holland correspondent Alise Telimi (Shortcut Kickbox News) talked to ... Cesar ''el pollo loco ..."
p10
a.