(lp0
S'Oct 5, 2015 - El Pollo Loco (NASDAQ: LOCO) is a restaurant chain that belongs to the "fast casual" category. This type of restaurant operates like a fast food joint (e.g., KFC), ...'
p1
aS'Oct 5, 2015 - Among the restaurants taking a dive in the past month were Wingstop, Habit Restaurants, Fogo de Chao, and El Pollo Loco. Following the collapse of stocks like ...'
p2
aS"Oct 5, 2015 - Home  ESHA News; The Food Processor Fall 2015 Program Update ... Chick-Fil-A, Costco Food Court, Culvers, Denny's, El Pollo Loco, Green Burrito, Hardee's, ..."
p3
aS'Oct 5, 2015 - While many other market reports only provide stock news and opinion, we offer ... Alerts For Celldex Therapeutics, Anavex Life Sciences Corp, El Pollo Loco, ...'
p4
aS'Oct 4, 2015 - ... FIRST LOCATION . . . EL POLLO LOCO EXPANDING ... Get the latest breaking industry news sent directly to your email. Is this your company? Claim it today!'
p5
aS'Oct 5, 2015 - El Pollo Loco to RP. SoCal chicken spot to open in September ... On August 25, 2010 ... Latest News. The Pharmacy in Santa Rosa. (Erica Olsson Photography) ...'
p6
aS'Oct 5, 2015 - 45-55 m. est. wait. El Pollo Loco #41 logo  El Pollo Loco #41. 5055 Auburn Blvd, Sacramento, CA 95841. Chicken. $$$$$. Not enough ratings. $20. min. $5.99 +.'
p7
aS'Oct 4, 2015 - Having to work for his career as an actor, Brad moved to California, and to support himself, he dressed like a chicken while working for El Pollo Loco. In 2000 ...'
p8
aS'Oct 4, 2015 - Join us  News  Events ... turn right onto Yucaipa Blvd. Go 2.9 miles, turn left onto Oak Glen (there is an El Pollo Loco and Bank of America on your left). Go 2.6 ...'
p9
aS'Oct 5, 2015 - 24 Hour Shipping on most orders. "El Pollo Loco" t-shirt created by RandomGrisso. This design is available on many sizes, styles, and colors of shirts.'
p10
a.