(lp0
S'Oct 5, 2015 - El Pollo Loco (NASDAQ: LOCO) is a restaurant chain that belongs to the "fast casual" category. This type of restaurant operates like a fast food joint (e.g., KFC), ...'
p1
aS'Oct 5, 2015 - Among the restaurants taking a dive in the past month were Wingstop, Habit Restaurants, Fogo de Chao, and El Pollo Loco. Following the collapse of stocks like ...'
p2
aS"Oct 5, 2015 - Home  ESHA News; The Food Processor Fall 2015 Program Update ... Chick-Fil-A, Costco Food Court, Culvers, Denny's, El Pollo Loco, Green Burrito, Hardee's, ..."
p3
aS"Oct 7, 2015 - Order delivery online from El Pollo Loco in Phoenix instantly! View El Pollo Loco's April 2016 deals, coupons & menus. Order delivery online right now or by ..."
p4
aS'Oct 6, 2015 - While many other market reports only provide stock news and opinion, we ... El Pollo Loco, First Solar, Dollar Tree and hundreds of other stocks Released By ...'
p5
aS'El Pollo Loco6 months ago. Hamm 2-1. Dope ass battle bloe. Read more. Show less. Reply 1. Loading... Show ...'
p6
aS'Oct 6, 2015 - Last year, the blackout game sparked criticism when some said it resembled blackface.'
p7
aS'Oct 6, 2015 - MLB: News | Scoreboard NFL: News | Scoreboard NBA: News | Scoreboard NHL: News ... Golf: News | Leaderboard Auto Racing: News | Results Tennis: News | ...'
p8
aS'Oct 5, 2015 - El Pollo Loco to RP. SoCal chicken spot to open in September ... On August 25, 2010 ... Latest News. The Pharmacy in Santa Rosa. (Erica Olsson Photography) ...'
p9
aS'Oct 6, 2015 - News  Arts  Music  Screens  Food & Drink  Calendar  Best Of SA  Special Issues ..... Subscribe now to get the latest news delivered right to your inbox.'
p10
a.