(lp0
S'Oct 7, 2015 - SunTrust has launched coverage on El Pollo Loco (LOCO) with a Buy rating and $17 ... 2,264 people get LOCO breaking news and analysis by email alert.'
p1
aS"Oct 7, 2015 - Order delivery online from El Pollo Loco in Phoenix instantly! View El Pollo Loco's April 2016 deals, coupons & menus. Order delivery online right now or by ..."
p2
aS'Oct 6, 2015 - While many other market reports only provide stock news and opinion, we ... El Pollo Loco, First Solar, Dollar Tree and hundreds of other stocks Released By ...'
p3
aS'El Pollo Loco6 months ago. Hamm 2-1. Dope ass battle bloe. Read more. Show less. Reply 1. Loading... Show ...'
p4
aS'Oct 7, 2015 - Finance Home  My Portfolio  My Quotes News  Market Data  Yahoo Originals  Business & ... The Zacks Analyst Blog Highlights: El Pollo Loco Holdings, Habit ...'
p5
aS'Oct 6, 2015 - Last year, the blackout game sparked criticism when some said it resembled blackface.'
p6
aS'Oct 6, 2015 - MLB: News | Scoreboard NFL: News | Scoreboard NBA: News | Scoreboard NHL: News ... Golf: News | Leaderboard Auto Racing: News | Results Tennis: News | ...'
p7
aS'Oct 7, 2015 - Get reviews, hours, directions, coupons and more for El Pollo Loco at 3102 Ella Blvd, Houston, TX. Search for other Fast Food Restaurants in Houston on ...'
p8
aS'Oct 7, 2015 - While news of the promotion has been extensively covered in national media, little attention has .... Are you, like me, still waiting for a return of El Pollo Loco?'
p9
aS'Oct 7, 2015 - Tacos Al Carbn $12. Grilled marinated flank steak ... POLLO ROSTIZADO - ROTISSSERIE CHICKEN sinaloa style ... El Jimador Tequila Blanco, orange liqueur, lime, salt rim ... Agave Loco Tequila Reposado, orange liqueur, lime, guava, chamoy rim. Dos Equis ... Sign up for breaking news from the Chicago food scene. Go.'
p10
a.