(lp0
S'Nov 16, 2015 - The department received a 911 call at 6:16 a.m. about a fire in an El Pollo Loco ... Firefighters use a chain saw to open up the clay tiles over an El Pollo Loco restaurant that ... (Photo by Mike Meadows/Special to the Los Angeles Daily News).'
p1
aS'Nov 16, 2015 - Since the first El Pollo Loco opened in Los Angeles in 1980, the chain has grown to 420 restaurants in the U.S. with 15 in Texas. The location at 1555 W. Grand ...'
p2
aS'Nov 16, 2015 - El Pollo Loco continues to see slow traffic numbers as no quick recovery is anticipated.The company is taking the right measures to boost traffic into next year.'
p3
aS'Nov 17, 2015 - News Feed ... Apply Online: www.elpolloloco.com/careers to search.jobcast.net. 550 Likes51 Comments71 Shares  Share. All Languages; Africa and Middle ...'
p4
aS'Nov 16, 2015 - ... construction yesterday. In the far east end of the Target parking lot, kinda by El Pollo Loco. ... ago (0 children). Next to the Shell, Fudruckers, and El Pollo Loco.'
p5
aS'Nov 16, 2015 - (Photo by Mike Meadows/Special to the Los Angeles Daily News) ... (Source: El Pollo Loco Holdings Inc ) Previous Release Fire-Grilled Chicken Restaurant ...'
p6
aS'Nov 16, 2015 - Search: 2,812 Franchises | 3,004 Articles | 54,718 News Stories ..... El Pollo Loco The secret to El Pollo Loco is great-tasting food. Our menu has a broad... Add.'
p7
aS'Nov 16, 2015 - Breaking news: Wildcats given No. 6 seed in NCAA tournament, will play Thursday night  Home/; News/; Blogs/; Blog: Latest Tucson crime news ...'
p8
aS'Nov 16, 2015 - Find 184 listings related to Take Out Restaurants in Newport News on ... When You Think Of Mexican Food, Think of El Azteca ... I always get the pollo loco.'
p9
aS"Nov 18, 2015 - Examples of cards to order: Starbucks, Vons, Sprouts, Jamba Juice, El Pollo Loco, Michaels crafts, Panda Express, Islands, Souplantation, Chili's, The Kebab ..."
p10
a.