(lp0
S'Nov 18, 2015 - Join e-club: http://www.elpolloloco.com/locorewards/ CONTACT: Media Contact: Kellie ... El Pollo Loco. Source: El Pollo Loco. News Provided by Acquire Media.'
p1
aS"Nov 18, 2015 - 18, 2015 (GLOBE NEWSWIRE) -- El Pollo Loco (Nasdaq:LOCO), the nation's leading fire-grilled chicken chain, today opened its ... other news releases in"
p2
aS'Nov 19, 2015 - El Pollo Loco announced a Dec. 3 date for the reopening of its Agoura Hills restaurant, which has been closed since late 2014 due to fire. The reopening event ...'
p3
aS'Nov 19, 2015 - Opening soon in Dublin California, on 3898 Fallon Rd, El Pollo Loco is looking for full-time and part-time food prep assistants, cashiers and cook!'
p4
aS"Nov 19, 2015 - ... Domino's Pizza, Inc. (DPZ); El Pollo Loco, Inc. (LOCO); Express, Inc. (EXPR); Fiesta Restaurant Group, Inc. (FRGI); Five Below, ... More News RSS feed for ICR."
p5
aS'Nov 19, 2015 - Get the detailed quarterly/annual income statement, cashflow statement, and balance sheet for El Pollo LoCo Holdings Inc (NASDAQ:LOCO). See revenue ...'
p6
aS'Nov 18, 2015 - 28 El Pollo Loco jobs in Dublin, CA are available at Snagajob. Dublin El Pollo Loco employers are now hiring. Find your next job today!'
p7
aS'Nov 18, 2015 - Apply for an El Pollo Loco Cook/Prep job in West Jordan, Utah. Apply online instantly. View this and more full-time & part-time jobs in in West Jordan, UT on ...'
p8
aS"Nov 19, 2015 - Zacks News for ( BOJA ) ... Company News for March 14, 2016. 03/14/16-9:10AM EST Zacks ... El Pollo Loco, Bojangles' Prospects Bright: Take Your Pick."
p9
aS"Nov 19, 2015 - ... Inc. (SAUC); Domino's Pizza, Inc. (DPZ); El Pollo Loco, Inc. (LOCO); Express, Inc. (EXPR) ... http://www.businesswire.com/news/home/20151119005394/en/."
p10
a.