(lp0
S'Nov 12, 2015 - The man drove away to another El Pollo Loco when a maintenance worker arrived in the parking lot, according to the news release. Both men exited the vehicle ...'
p1
aS"Nov 13, 2015 - What: El Pollo Loco (NASDAQ:LOCO) stock fell on Friday, following the company's third-quarter results. Shares declined as much as 10% during the trading day, ..."
p2
aS'Nov 12, 2015 - Alleged Burglary Crew Arrested In String Of El Pollo Loco Break-Ins. November 12, 2015 ... The pair was first seen allegedly casing another El Pollo Loco restaurant in Westminster, before a maintenance worker arrived. ... MORE NEWS. image.'
p3
aS'Nov 12, 2015 - El Pollo Loco Holdings lowered expectations for the full year after reporting a ... in the worlds of diversified media, news, education, and information services.'
p4
aS'Nov 12, 2015 - El Pollo Loco reported its third-quarter earnings fell to $4.7 million, or 12 cents a share, ... El Pollo Loco revised down the top end of its 2015 adjusted EPS range and now expects ... An immersive hub for financial news, analysis, market data.'
p5
aS"Nov 12, 2015 - Stocks in the News. Madeleine Johnson ... Check back later for our full analysis on El Pollo Loco's latest earnings report! Want the latest recommendations from ..."
p6
aS'Nov 12, 2015 - El Pollo Loco Holdings Inc. reported a sharp profit decrease in the third quarter ended Sept. ... See the latest news from NRN ... El Pollo Loco has 415 company-owned and franchised restaurants in Arizona, California, Nevada, Texas and Utah ...'
p7
aS"Nov 13, 2015 - El Pollo Loco (LOCO) stock is declining in mid-morning trading on Friday, after the ... Access to Jim Cramer's daily blog; Intraday commentary and news ..."
p8
aS'Nov 12, 2015 - News: Trio arrested in Stanton on suspicion of burglarizing 31 El Pollo Locos across Southern California | henry, county, pollo, angeles, department, loco, sheriff, ...'
p9
aS'Nov 12, 2015 - There has been a string of burglaries at 31 El Pollo Loco restaurants across SoCal. File photo by ... The best SoCal news in your inbox, daily. Catch up each ...'
p10
a.