(lp0
S'Nov 18, 2015 - Join e-club: http://www.elpolloloco.com/locorewards/ CONTACT: Media Contact: Kellie ... El Pollo Loco. Source: El Pollo Loco. News Provided by Acquire Media.'
p1
aS"Nov 18, 2015 - 18, 2015 (GLOBE NEWSWIRE) -- El Pollo Loco (Nasdaq:LOCO), the nation's leading fire-grilled chicken chain, today opened its ... other news releases in"
p2
aS'Nov 17, 2015 - News Feed ... Apply Online: www.elpolloloco.com/careers to search.jobcast.net. 550 Likes51 Comments71 Shares  Share. All Languages; Africa and Middle ...'
p3
aS'Nov 18, 2015 - 28 El Pollo Loco jobs in Dublin, CA are available at Snagajob. Dublin El Pollo Loco employers are now hiring. Find your next job today!'
p4
aS'Nov 18, 2015 - Apply for an El Pollo Loco Cook/Prep job in West Jordan, Utah. Apply online instantly. View this and more full-time & part-time jobs in in West Jordan, UT on ...'
p5
aS'Nov 18, 2015 - ... Mexican Grill, Inc. (NYSE:CMG); International: The Olive Garden1; Regional: El Pollo Loco, Inc. (NASDAQ:LOCO)2; Regional Atmosphere: Texas Roadhouse, ...'
p6
aS'Nov 18, 2015 - Tacos Al Pastor. Grilled, marinated pork sirloin, served w/ onions & cilantro ... Tacos De Pollo Azado. Grilled chicken breast, served w/ onions & cilantro. $11.99.'
p7
aS"Nov 18, 2015 - Recent News | Recent Reviews | Current Deals & Specials ..... Chicken Dairy Queen Del Taco Domino's Dunkin' Donuts El Pollo Loco Hardee's In-N-Out Jack in ..."
p8
aS"Nov 17, 2015 - Labels: KFC , News .... Queen Del Taco Domino's Dunkin' Donuts El Pollo Loco Hardee's In-N-Out Jack in the Box KFC Krispy Kreme Little Caesars McDonald's ..."
p9
aS"Nov 18, 2015 - Examples of cards to order: Starbucks, Vons, Sprouts, Jamba Juice, El Pollo Loco, Michaels crafts, Panda Express, Islands, Souplantation, Chili's, The Kebab ..."
p10
a.