(lp0
S'Nov 27, 2015 - ... Kandi Technologies, Keryx Biopharmaceuticals, Exxon Mobil and El Pollo Loco... ... While many other market reports only provide stock news and opinion, we ...'
p1
aS'Nov 27, 2015 - News Feed ... El Poco Loco updated their cover photo. ... Our pals Casa de Loco are teaming up with Ash Hayes from @formysenses to bring a fresh spin on ...'
p2
aS'Nov 26, 2015 - El Pollo Loco, Alvarado Street, L.A. (1980) ... Nationwide  BUSINESS BEAT: Cider House Opening, Hyatt Rebrand, and Other Business News from Long Beach ...'
p3
aS"Nov 26, 2015 - November 26, 2015 At Christmas Time, Events, HKA Texas News, Things to do in ... Valley Ranch Town Center adds Chickfila, Chili's, El Pollo Loco, Freebirds, ..."
p4
aS'Nov 27, 2015 - El Pollo Loco Q4 revenue $86.3 mln vs $90 mln. 4:07 P.M. ET. Breaking El Pollo Loco Q4 earnings 14c a share vs 12c a share .... More News from MarketWatch.'
p5
aS'Nov 27, 2015 - DailyMagazine: The News Gateway. ... News: Science/Energy. Home  Science ..... Ulta Salon gets a lift; El Pollo Loco sinks; Chevron upgraded by Goldman.'
p6
aS"Nov 27, 2015 - Welcome to FanningMaryElle, your #1 source for the latets news, pictures, ... Latest Candid: Headed out for lunch in Hollywood's El Pollo Loco restaurant [06/04] ..."
p7
aS"Nov 26, 2015 - Market News  Stock Ideas  Dividends  Market Outlook  Investing Strategy  ETFs & Funds  Earnings  PRO  Long Ideas  Short Ideas  Cramer's Picks  IPOs ..."
p8
aS'Nov 26, 2015 - El Pollo Loco Phone Number (503) 641-1431 561.61 mile. El Pollo ... Sign Up to Get the First Taste of Taco Bell Coupons, News & Offers2 plusses | 0 comments ...'
p9
aS"Nov 27, 2015 - Recent News | Recent Reviews | Current Deals & Specials ..... Chicken Dairy Queen Del Taco Domino's Dunkin' Donuts El Pollo Loco Hardee's In-N-Out Jack in ..."
p10
a.