(lp0
S'Nov 19, 2015 - El Pollo Loco announced a Dec. 3 date for the reopening of its Agoura Hills restaurant, which has been closed since late 2014 due to fire. The reopening event ...'
p1
aS'Nov 20, 2015 - by Mike Bodine; in News;  20 Nov, 2015. A couple ... Rumors of an El Pollo Loco at Cottonwood Plaza have been floating around Bishop for years. Rightly so ...'
p2
aS'Nov 19, 2015 - Opening soon in Dublin California, on 3898 Fallon Rd, El Pollo Loco is looking for full-time and part-time food prep assistants, cashiers and cook!'
p3
aS"Nov 19, 2015 - ... Domino's Pizza, Inc. (DPZ); El Pollo Loco, Inc. (LOCO); Express, Inc. (EXPR); Fiesta Restaurant Group, Inc. (FRGI); Five Below, ... More News RSS feed for ICR."
p4
aS'Nov 19, 2015 - Get the detailed quarterly/annual income statement, cashflow statement, and balance sheet for El Pollo LoCo Holdings Inc (NASDAQ:LOCO). See revenue ...'
p5
aS"Nov 20, 2015 - Nation's Restaurant News. Search: Events/MUFSO  Digital Edition  Subscribe .... Nation's Restaurant News Corporate. About Us  Advertise  Contact  Terms of ..."
p6
aS'Nov 19, 2015 - Still, the company has struggled to dodge the Fogle news on social media. And the Reputation Institute found that the investigation and the plea deal had a ...'
p7
aS"Nov 19, 2015 - Zacks News for ( BOJA ) ... Company News for March 14, 2016. 03/14/16-9:10AM EST Zacks ... El Pollo Loco, Bojangles' Prospects Bright: Take Your Pick."
p8
aS"Nov 19, 2015 - ... Inc. (SAUC); Domino's Pizza, Inc. (DPZ); El Pollo Loco, Inc. (LOCO); Express, Inc. (EXPR) ... http://www.businesswire.com/news/home/20151119005394/en/."
p9
aS'Nov 20, 2015 - Pollo Loco Dunkerque, Duinkerke (Dunkerque). 218 likes  5 talking about this  11 were ... News Feed ... ElPollo Loco Dunkerque Gare. Livraison  domicile a ...'
p10
a.