(lp0
S'Nov 23, 2015 - The adoption of a familiar low-tech device and tweaks to a central production line have cut service times and boosted throughput for El Pollo Loco. 1.'
p1
aS"Nov 23, 2015 - El Pollo Loco Frequent diners of El Pollo Loco should consider joining the My ... Once signed up the members will receive My Loco Rewards' exclusive news, ..."
p2
aS'Nov 24, 2015 - News Feed. El Pollo Loco added 4 new photos. November 24, 2015 . New Ultimate Double Chicken Entres now available for a limited time only! Which will ...'
p3
aS'Nov 24, 2015 - Miami New Times is your guide to news, music, movies, culture, restaurants and events in Miami, Florida. ... Carlos Bello, El Pollo Loco. 2 years ago | Miami ...'
p4
aS'Nov 24, 2015 - While many other market reports only provide stock news and opinion, we offer ... Alerts For Celldex Therapeutics, Anavex Life Sciences Corp, El Pollo Loco, ...'
p5
aS"Nov 24, 2015 - Recent News | Recent Reviews | Current Deals & Specials ..... Chicken Dairy Queen Del Taco Domino's Dunkin' Donuts El Pollo Loco Hardee's In-N-Out Jack in ..."
p6
aS"Nov 23, 2015 - ... Men's Gloves and $10 Gift Cards to Target, Von's, CVS, Subway or El Pollo Loco. ... Posted by admin on January 27, 2015 in News, Parties, Recent Blog | 0 ..."
p7
aS'Nov 23, 2015 - Philippine News for the Filipino Global Community. Masthead, pagematch: 1 ..... Paul Parenas. About time, the Filipinos declare this man "El Pollo Loco".'
p8
aS'Nov 23, 2015 - Comments from certain Fed officials indicating gradual rate hike and gains in retail stocks helped markets finish in the green on Friday.'
p9
aS'Nov 25, 2015 - The white trashiest part of my lunch is the champagne being cheaper than El Pollo Loco. Read it on Facebook - link in bio. I cross-referenced Star Wars and Star ...'
p10
a.