(lp0
S'Nov 2, 2015 - Costa Mesa-based El Pollo Loco Holdings Inc. has chosen the first six sites to start its expansion into North Texas next year, a news report said.'
p1
aS'Nov 4, 2015 - El Pollo Loco #3598 758 S Watson Rd, Buckeye, AZ, 85326. Phone: 623-386-1037  El Pollo Loco #3763 2253 E Baseline Rd, Gilbert, AZ, 85234'
p2
aS'Nov 3, 2015 - El Pollo Loco to enter North Texas market next year with six locations ... It shared the timing and locations exclusively with The Dallas Morning News. Next year ...'
p3
aS'Nov 2, 2015 - Although the company has not confirmed the promotion, Automotive News obtained a .... El Pollo Loco to enter North Texas market next year with six locations ...'
p4
aS'Nov 2, 2015 - While many other market reports only provide stock news and opinion, we offer ... Alerts For Celldex Therapeutics, Anavex Life Sciences Corp, El Pollo Loco, ...'
p5
aS"Nov 2, 2015 - The Onion, America's Finest News Source. ... You mean I'll be forced to make do with Qdoba, Del Taco, El Pollo Loco, and Moe's Southwest Grill?."
p6
aS"Nov 3, 2015 - Christie Martin November 3, 2015 News, Victorville News ... a San Bernardino Sheriff's Department press release, a Burger King, El Pollo Loco, Nancy's Hair Inn, ..."
p7
aS"Nov 3, 2015 - Guidelines. 1. Discuss news items relevant to investors ... So today I put all my money in El Pollo Loco (LOCO) - I was also considering Vivint Solar. I'll spare you ..."
p8
aS'Nov 3, 2015 - See the latest news from NRN ... behind loyalty program  Steve Carley leaving El Pollo Loco for Red Robin  Red Robin to roll out tabletop tablets systemwide.'
p9
aS"Nov 2, 2015 - Other tenants in Valley Ranch include Houston-based Academy Sports + Outdoors, a Sam's Club, and restaurants like Chili's, Chick-fil-A and El Pollo Loco."
p10
a.