(lp0
S'Nov 4, 2015 - El Pollo Loco #3598 758 S Watson Rd, Buckeye, AZ, 85326. Phone: 623-386-1037  El Pollo Loco #3763 2253 E Baseline Rd, Gilbert, AZ, 85234'
p1
aS"Nov 4, 2015 - Wendy's stock rose more than 4 percent on the news. Wendy's ... digital ordering drives 2Q same-store sales  El Pollo Loco same-store sales rise on value focus."
p2
aS'Nov 3, 2015 - El Pollo Loco to enter North Texas market next year with six locations ... It shared the timing and locations exclusively with The Dallas Morning News. Next year ...'
p3
aS"Nov 3, 2015 - Christie Martin November 3, 2015 News, Victorville News ... a San Bernardino Sheriff's Department press release, a Burger King, El Pollo Loco, Nancy's Hair Inn, ..."
p4
aS'Nov 3, 2015 - While many other market reports only provide stock news and opinion, we offer ... Alerts For Celldex Therapeutics, Anavex Life Sciences Corp, El Pollo Loco, ...'
p5
aS'Nov 4, 2015 - While many other market reports only provide stock news and opinion, we offer ... Alerts For Celldex Therapeutics, Anavex Life Sciences Corp, El Pollo Loco, ...'
p6
aS"Nov 3, 2015 - Guidelines. 1. Discuss news items relevant to investors ... So today I put all my money in El Pollo Loco (LOCO) - I was also considering Vivint Solar. I'll spare you ..."
p7
aS'Nov 3, 2015 - El pollo -Unlike a typical Tex-Mex restaurant, El Pollo Loco started out in Guasave, Mexico, as a roadside chicken stand in 1975. The first American restaurant ...'
p8
aS'Nov 4, 2015 - El Pollo Loco Q4 revenue $86.3 mln vs $90 mln. 4:07 P.M. ET. Breaking El Pollo Loco Q4 earnings 14c a share vs 12c a share .... More News from MarketWatch.'
p9
aS'Nov 4, 2015 - Tucson nurse Lee Chaudoin has worked in disaster areas 10 times in the last five years.'
p10
a.