(lp0
S'Nov 30, 2015 - After-hours buzz: Mattress Firm, El Pollo Loco & more ... El Pollo Loco, the Mexican-style restaurant chain, surged on a positive note by ... Breaking News.'
p1
aS'Nov 30, 2015 - CONTACT: Media Contact: Christine Beggan , ICR loco@icrinc.com 203.682.8200. El Pollo Loco. Source: El Pollo Loco. News Provided by Acquire Media.'
p2
aS"Nov 30, 2015 - Double Down for El Pollo Loco's New Limited Time Offerings ... 30, 2015 (GLOBE NEWSWIRE) -- El Pollo Loco (Nasdaq:LOCO), the nation's leading fire-grilled chicken chain, today announced its new Ultimate ... other news releases in"
p3
aS'Nov 30, 2015 - Guggenheim Securities Initiates Coverage on El Pollo Loco Holdings at Buy, ... REALTIME NEWSFEED; REALTIME AUDIO NEWS; FULL CALENDAR SUITE ...'
p4
aS'Nov 30, 2015 - El Pollo Loco - Kanan. Grand Re-Opening Fundraiser Thursday Dec 3rd. Share: All News Releases. November 30, 2015. AGOURA HILLS EL POLLO LOCO ...'
p5
aS"Dec 1, 2015 - El Pollo Loco has leased an 81,888-square-foot parcel of land formerly occupied by Arby's in Brazos Town Center at U.S. 59 and FM 762 in Rosenberg from ..."
p6
aS"Nov 30, 2015 - In a rare expansion opportunity, El Pollo Loco has locked in a spot in the 99%-leased ... El Pollo Loco will open in first quarter 2016 at the corner of Southwest Freeway ... and sign up to get daily updates with Baltimore's latest business news."
p7
aS"Nov 30, 2015 - Watch 'Behind The Kitchen Door' on KSAT 12 News ... perfect score; El Pollo Loco, 1133 S.W. Military Dr., 3 demerits; Olive Garden, 7811 IH-35 S., 4 demerits ..."
p8
aS'Nov 30, 2015 - El Pollo Loco Holdings Inc (Symbol: LOCO) saw options trading volume of 4,526 ... For the various different available expirations for FIVE options , LOCO options , or RLYP options , visit StockOptionsChannel.com. ... Market News, Investing.'
p9
aS'Dec 1, 2015 - While many other market reports only provide stock news and opinion, we ... El Pollo Loco, First Solar, Dollar Tree and hundreds of other stocks Released By ...'
p10
a.