(lp0
S"Dec 15, 2015 - News  Sports  Entertainment  Classifieds .... include McDonald's, In-N-Out Burger, Chipotle, The Habit Burger Grill, Chick-fil-A, El Pollo Loco and Panera Bread."
p1
aS'Dec 16, 2015 - News Feed ... Alex Blanyino Saravia Vargas eating pollo ala braza at El Pollo Loco. ... SP Saavedra was with nghelitus Sebstian R S at El Pollo Loco. July 19 ...'
p2
aS'Dec 16, 2015 - Employment  Events / News. food. The University Student Union is home to a variety of ... Contact. Lidia Martinez, Manager (562) 985-1883. El Pollo Loco Logo ...'
p3
aS'Dec 15, 2015 - On 15 Dec 2015 @ElPolloLoco tweeted: "Congratulations to our #LocoForZero Swee.." - read what others are saying and join the conversation.'
p4
aS'Dec 16, 2015 - Before he was famous, Pitt worked for an El Pollo Loco restaurant in Hollywood. His job was to dress in a big yellow chicken suit and dance outside to attract ...'
p5
aS'Dec 17, 2015 - Brad Pitt: El Pollo Loco Chicken Dancer .... "I wore leg warmers, I wore a bandanawithout question had to soak up the sweat," she jokingly told E! News.'
p6
aS'Dec 15, 2015 - Chipotle Mexican Grill founder Steve Ells appeared on The Today Show to address a recent series of foodborne illness outbreaks at the fast-casual chain.'
p7
aS'Dec 16, 2015 - Breaking News. 39 mins ago: Aswath ... El Pollo Loco (LOCO. founded in 1980) and Del Taco (TACO. founded in 1964). All were marketed as new and exciting ...'
p8
aS'Dec 16, 2015 - Updated El Pollo Loco reports higher profit; sales slide. 5:20 P.M. ET. Bojangles profit dips, but results .... More News from MarketWatch. Top Stories. Trending.'
p9
aS"Dec 16, 2015 - Long Beach's most-read news source. Breaking News, Crime, Life, Business, Sports, Food, and LGBT issues, online daily. ... El Pollo Loco. Votes: 0%. El Torito."
p10
a.