(lp0
S'Dec 14, 2015 - December 14, 2015 13:01 ET | Source: El Pollo Loco, Inc. photo- ... Hours of operation for the Tempe El Pollo Loco restaurant are 10 a.m. to 11 p.m. seven days a week with dine-in service concluding one hour prior to ... other news releases in'
p1
aS'Dec 14, 2015 - Inspection Date, Inspection #, Violations. 12/14/2015, 5643514, 13. 06/19/2015, 5456990, 2. 11/07/2014, 5332472, 8. 06/20/2014, 5196616, 14. 05/09/2014 ...'
p2
aS"Dec 13, 2015 - ... this  152 were here. At El Pollo Loco, we go to crazy lengths for our signature citrus-marinated,. ... News Feed ... El Pollo Loco (San Pedro, CA)'s photo. Share ..."
p3
aS'Dec 13, 2015 - 4 El Pollo Loco jobs in Richmond, TX are available at Snagajob. Richmond El Pollo Loco employers are now hiring. Find your next job today!'
p4
aS'Dec 13, 2015 - First-graders hold up a sign expressing their pride for military parents Friday at Frank Borman Elementary School. The school is located on the Davis-Monthan ...'
p5
aS'Dec 14, 2015 - Star Wars enthusiast and collector Brian Petty in his midtown workshop where he makes cast resin and fiberglass studio models of costumes and props from the ...'
p6
aS'Dec 14, 2015 - 160 reviews of El Burrito Loco "Amazing, amazing!!! This place is ... I usually get the Pollo Ranchero, it\'s more spicy then the usually which is Awesome! Was this ...'
p7
aS'Dec 14, 2015 - El Pollo Loco Verified account @ElPolloLoco      @Wisam90sa  @@@@ @ShusainOfficial  Haroon Ullah @haroonullah  Alishba Memon @ ...'
p8
aS'Dec 14, 2015 - How many white people do you see working at a Mexican Restaurant that isn\'t "Taco Bell" or "El Pollo Loco"? How many black people? How many hispanics ...'
p9
aS'Dec 14, 2015 - ... so consider trying a local favorite, such as El Pollo Loco (fast-food chicken that is so ... dining suggestions by theme, feature articles, contests, news and more.'
p10
a.