(lp0
S"Dec 17, 2015 - December 17, 2015 11:53 ET | Source: El Pollo Loco, Inc. ... The new 3,940 square foot El Pollo Loco in Rosenberg features 116 seats in the dining room and the brand's hacienda design with an open kitchen layout ... other news releases in"
p1
aS"Dec 17, 2015 - Home  News; Cities ... El Pollo Loco serial burglary suspects dubbed 'Ocean's 11' crew for array of tools, weapons ... Both suspects face years behind bars if convicted of the El Pollo Loco crime spree that began June 24 and ended Nov."
p2
aS"Dec 17, 2015 - MBMG's clients include El Pollo Loco, Shakey's Pizza, Cerritos Auto Square, ... Portada is the leading source of news and analysis on the Latin Marketing and ..."
p3
aS'Dec 17, 2015 - Find 2 listings related to El Pollo Loco in Memphis on YP.com. See reviews, photos, directions, phone numbers and more for El Pollo Loco locations in Memphis, ...'
p4
aS'Dec 18, 2015 - Find 3 listings related to El Pollo Loco in Laredo on YP.com. See reviews, photos, directions, phone numbers and more for El Pollo Loco locations in Laredo, TX.'
p5
aS'Dec 18, 2015 - Find 2 listings related to El Pollo Loco in Greensboro on YP.com. See reviews, photos, directions, phone numbers and more for El Pollo Loco locations in ...'
p6
aS'Dec 17, 2015 - Find 5 listings related to El Pollo Loco in Kansas City on YP.com. See reviews, photos, directions, phone numbers and more for El Pollo Loco locations in ...'
p7
aS'Dec 18, 2015 - She is currently the CEO of Pollo West Corp, one of the largest franchisees for El Pollo Loco restaurant in the Western Region of the United States. She founded ...'
p8
aS'Dec 16, 2015 - Before he was famous, Pitt worked for an El Pollo Loco restaurant in Hollywood. His job was to dress in a big yellow chicken suit and dance outside to attract ...'
p9
aS'Dec 16, 2015 - Breaking News. 39 mins ago: Aswath ... El Pollo Loco (LOCO. founded in 1980) and Del Taco (TACO. founded in 1964). All were marketed as new and exciting ...'
p10
a.