(lp0
S'Dec 10, 2015 - CONTACT: Media Contact: Kellie Duffy ICR Inc. 203-682-8200 LOCO@icrinc.com. El Pollo Loco. Source: El Pollo Loco. News Provided by Acquire Media.'
p1
aS'Dec 10, 2015 - El Pollo Loco Brings the Heat to Wildomar With New Restaurant ... December 10, 2015 13:05 ET | Source: El Pollo Loco, Inc. photo- ... other news releases in'
p2
aS"Dec 9, 2015 - December 9, 2015 Generation Park, HKA Texas News, Summerwood, Westlake ... Valley Ranch Town Center adds Chickfila, Chili's, El Pollo Loco, Freebirds, ..."
p3
aS'Dec 9, 2015 - Two men convicted of first-degree murder in the killing of a Border Patrol agent whose death brought to light a bungled federal gun-tracking operation are ...'
p4
aS'Dec 9, 2015 - Headlines News  News  Badly burned girl who lost family in arson attack asks .... Market Losers: Avalanche Biotechnologies Inc, El Pollo LoCo Holdings Inc, ...'
p5
aS'Dec 9, 2015 - The report showed that fast food chain El Pollo Loco leased a land from NewQuest with a total area of 81,888 square feet. NewQuest also leased out its ...'
p6
aS"Dec 10, 2015 - ... Korean barbecue tacos, pork belly tacos, the 'loco pollo' burrito and a variety of ... bulgogi beef, cabbage and French fries) and the spicy 'el scorcho' sauce.."
p7
aS'Dec 10, 2015 - Current Weather. Cloudy. 47. Complete Forecast  News  Sports  A & E ..... we highly recommend the Poblano Pollo Loco and liked the burgers for the most part. .... El Tipico Restaurant, 1444 South Ave., was one of the first Mexican ...'
p8
aS'Dec 9, 2015 - Good news, Van Nuys! New Ultimate Double Chicken Entres now available for a limited time only! Which will you try first - the Ultimate Double Chicken ...'
p9
aS"Dec 9, 2015 - News Feed ... The EL Pollo Loco Chicken loves the Friendship Fairy Book. India Phillips Foundation's photo. Share. Valerie Carpenter, Deborah Horner, Andres ..."
p10
a.