(lp0
S'Dec 10, 2015 - CONTACT: Media Contact: Kellie Duffy ICR Inc. 203-682-8200 LOCO@icrinc.com. El Pollo Loco. Source: El Pollo Loco. News Provided by Acquire Media.'
p1
aS'Dec 10, 2015 - El Pollo Loco Brings the Heat to Wildomar With New Restaurant ... December 10, 2015 13:05 ET | Source: El Pollo Loco, Inc. photo- ... other news releases in'
p2
aS"Dec 11, 2015 - See who's on the list HEB Megastore. El Pollo Loco ... NEWS. Read the latest news and updates about Woodridge Forest. LEARN MORE learn more about ..."
p3
aS"Dec 11, 2015 - El Pollo Loco has leased an 81,888-square-foot parcel formerly occupied by Arby's in Brazos Town Center at U.S. 59 and FM 762 in Rosenberg from NewQuest ..."
p4
aS'Dec 10, 2015 - Current Weather. Cloudy. 47. Complete Forecast  News  Sports  A & E ..... we highly recommend the Poblano Pollo Loco and liked the burgers for the most part. .... El Tipico Restaurant, 1444 South Ave., was one of the first Mexican ...'
p5
aS'Dec 11, 2015 - Also read: Backstage News - When John Cena is Expected To Return To WWE ... El Pollo Loco (south park W.T.F. episode reference) will come out from under ...'
p6
aS"Dec 10, 2015 - ... Korean barbecue tacos, pork belly tacos, the 'loco pollo' burrito and a variety of ... bulgogi beef, cabbage and French fries) and the spicy 'el scorcho' sauce.."
p7
aS'Dec 10, 2015 - More news .... ElPolloLoco TomTitTot. 9 Dec 2015 16:34. 9 10. If the ALP put in a half decent leader ... Pick. Report. TomTitTot ElPolloLoco. 9 Dec 2015 16:39.'
p8
aS'Dec 10, 2015 - Arizona center Chance Comanche during the second half of an NCAA college basketball exhibition game against Chico State, Sunday, Nov 8, 2015, in Tucson, ...'
p9
aS"Dec 10, 2015 - It's Not News, It's Fark. How To Fark Log In | Sign Up . Login ... Perhaps we should not be hasty in apprehending El Chapo. ..... EL POLLO LOCO! ISIL..Is...I.."
p10
a.