(lp0
S"Dec 17, 2015 - December 17, 2015 11:53 ET | Source: El Pollo Loco, Inc. ... The new 3,940 square foot El Pollo Loco in Rosenberg features 116 seats in the dining room and the brand's hacienda design with an open kitchen layout ... other news releases in"
p1
aS"Dec 17, 2015 - Home  News; Cities ... El Pollo Loco serial burglary suspects dubbed 'Ocean's 11' crew for array of tools, weapons ... Both suspects face years behind bars if convicted of the El Pollo Loco crime spree that began June 24 and ended Nov."
p2
aS"Dec 17, 2015 - MBMG's clients include El Pollo Loco, Shakey's Pizza, Cerritos Auto Square, ... Portada is the leading source of news and analysis on the Latin Marketing and ..."
p3
aS'Dec 17, 2015 - Find 2 listings related to El Pollo Loco in Memphis on YP.com. See reviews, photos, directions, phone numbers and more for El Pollo Loco locations in Memphis, ...'
p4
aS'Dec 18, 2015 - Find 2 listings related to El Pollo Loco in Greensboro on YP.com. See reviews, photos, directions, phone numbers and more for El Pollo Loco locations in ...'
p5
aS'Dec 18, 2015 - Find 17 listings related to El Pollo Loco in Arlington on YP.com. See reviews, photos, directions, phone numbers and more for El Pollo Loco locations in Arlington, VA. ... There are screens broadcasting news and sports. The food quality is ...'
p6
aS'Dec 18, 2015 - Find 3 listings related to El Pollo Loco in Laredo on YP.com. See reviews, photos, directions, phone numbers and more for El Pollo Loco locations in Laredo, TX.'
p7
aS'Dec 17, 2015 - Find 5 listings related to El Pollo Loco in Kansas City on YP.com. See reviews, photos, directions, phone numbers and more for El Pollo Loco locations in ...'
p8
aS'Dec 18, 2015 - She is currently the CEO of Pollo West Corp, one of the largest franchisees for El Pollo Loco restaurant in the Western Region of the United States. She founded ...'
p9
aS'Dec 18, 2015 - I recall last year that Ami Bera attended the grand opening of El Pollo Loco on Calvine I think it .... Elk Grove News Is a Member of the First Amendment Coalition.'
p10
a.