(lp0
S'Dec 2, 2015 - Ample Hills Creamery, Cantina Laredo, Fresh & Co, others also introduce new menu items.'
p1
aS"Dec 1, 2015 - El Pollo Loco has leased an 81,888-square-foot parcel of land formerly occupied by Arby's in Brazos Town Center at U.S. 59 and FM 762 in Rosenberg from ..."
p2
aS'Dec 1, 2015 - While many other market reports only provide stock news and opinion, we ... El Pollo Loco, First Solar, Dollar Tree and hundreds of other stocks Released By ...'
p3
aS"Dec 2, 2015 - December 2, 2015 HKA Texas News, Humble ... Valley Ranch Town Center adds Chickfila, Chili's, El Pollo Loco, Freebirds, Subway, T. Jin's Asian Caf and ..."
p4
aS"Dec 1, 2015 - Watch KOAT Action 7 News On Demand  Home; / New Mexico News. By Lida Alikhani .... ElPolloLoco. What's that girls name that did this kind of thing a couple ..."
p5
aS'Dec 1, 2015 - Find El Pollo Loco in Simi Valley with Address, Phone number from Yahoo US Local. Includes El Pollo Loco Reviews, maps & directions to El Pollo Loco in Simi ...'
p6
aS'Dec 1, 2015 - The Texas Border Business is the parent company for Mega Doctor News which ...... After an unprecedented success with El Pollo Loco in Mexico and Los ...'
p7
aS"Dec 2, 2015 - Lauri Kaye's Alberto's Portrait Story, ink on paper, was on display at Unplugged, a wine bar."
p8
aS'Dec 1, 2015 - A blog about fast food news and reviews. ... in a can due to its portability and convenience. Continue... Posted by Q 0 Comments. Labels: News , Whole Foods ...'
p9
aS"Dec 1, 2015 - Market News  Stock Ideas  Dividends  Market Outlook  Investing Strategy  ETFs & Funds  Earnings  PRO  Long Ideas  Short Ideas  Cramer's Picks  IPOs ..."
p10
a.