(lp0
S"Dec 28, 2015 - The limited time items, now available at all El Pollo Loco locations will help customers stick to their New Year's resolutions focusing on ... other news releases in"
p1
aS"Dec 28, 2015 - (Source: El Pollo Loco Holdings Inc ) 3a822dc9-79bf-4a6a-9436-df25c92a1bc1.pdf START THE NEW YEAR RIGHT WITH EL POLLO LOCO'S NEW UNDER ..."
p2
aS"Dec 29, 2015 - Arby's, California Tortilla, Dickey's Barbecue, El Pollo Loco, Sonic Drive In, Tilted Kilt and Tropical Smoothie Caf; also introduce new menu items. Contact Bret ..."
p3
aS"Dec 29, 2015 - The El Pollo Loco on the 6600 block of Van Nuys Boulevard in Van Nuys doesn't have a drive-thru, but that didn't stop a motorist from driving through the fast ..."
p4
aS"Dec 30, 2015 - Rockville, MD (Restaurant News Release) Overdid it on eggnog and Christmas ... Start the New Year Right With El Pollo Loco's New Under 500 Calorie Items."
p5
aS"Dec 28, 2015 - ... off 21%, Habit (HABT) is down 27%, El Pollo Loco (LOCO) is minus 35% and Noodles .... Access to Jim Cramer's daily blog; Intraday commentary and news ..."
p6
aS'Dec 29, 2015 - New Music, Music News, Concerts, Gossip - 97.1 AMP RADIO ... Costa Mesa (#27) headquarters to Hurley, Volcom, RVCA, and El Pollo Loco. Novice and ...'
p7
aS"Dec 29, 2015 - Despite all the good news and the solid earnings reports, investors have soured on the shares. ... El Pollo Loco, Bojangles' Prospects Bright: Take Your Pick."
p8
aS'Dec 28, 2015 - Carlos Rosales Mendoza, El Tsico, was killed during a series of clashes in the ... excellent news.....the more dead scumbags the better ..... Yea, but El Chango, El Mas loco, La Tuta and him founded La Familia and got rid ..... El americano also murdered his friend el pollo and made him pollo a la parrilla rostizado al carbon.'
p9
aS'Dec 28, 2015 - News Feed ... At El Pollo Loco, we go to crazy lengths to bring you real food with honest ingredients. El Pollo Loco. Crazy You Can Taste. Mary Ponce, Maribel ...'
p10
a.