(lp0
S'Dec 22, 2015 - BREAKING NEWS Firefighters rescue kitten from Central Fresno apartment fire ... A Fresno man who wears several hats at the Clovis El Pollo Loco has formed a ...'
p1
aS'Dec 22, 2015 - The Golden Girls, a group of about 20 women who meet once a week at the El Pollo Loco restaurant on Shaw Avenue in Clovis, adopted the spirit of the season ...'
p2
aS'Dec 22, 2015 - Clovis El Pollo Loco employee Shane Cory was surprised just in time for ... led a news conference to address the arrest of Deputy Police Chief Keith Foster on ...'
p3
aS"Dec 22, 2015 - Location-wise, El Pollo Loco's Kuykendahl-fronting restaurant opened well ahead of projections. Similar sales milestones have ... Back to news. Newsletters ..."
p4
aS'Dec 21, 2015 - ... this article. Industry News Commercial Real Estate ... The new building will be adjacent to the recently opened El Pollo Loco and will front Kuykendahl Road.'
p5
aS'Dec 22, 2015 - Joe Galli, KESQ News Channel 3 & CBS Local 2 Reporter, joseph.galli@kesq.com .... I was at ell pollo loco and a scum bag in a Honda civic was parked in a ...'
p6
aS'Dec 22, 2015 - While many other market reports only provide stock news and opinion, we ... El Pollo Loco, First Solar, Dollar Tree and hundreds of other stocks Released By ...'
p7
aS'36. El Pollo Loco with Hollywood Video offer 37. Chevrolet Malibu 38. Another KABC Eyewitness News promo ...'
p8
aS"Dec 22, 2015 - Bad news if you've been waiting on Surface Hub: Microsoft has delayed the release of this unique solution a ... So is El Pollo Loco... he does this all the time."
p9
aS"Dec 21, 2015 - Headlines News  News  The 'I'm single' shirtless runner is also a Christian .... Market Losers: Avalanche Biotechnologies Inc, El Pollo LoCo Holdings Inc, And ..."
p10
a.