(lp0
S'Dec 21, 2015 - ... this article. Industry News Commercial Real Estate ... The new building will be adjacent to the recently opened El Pollo Loco and will front Kuykendahl Road.'
p1
aS'36. El Pollo Loco with Hollywood Video offer 37. Chevrolet Malibu 38. Another KABC Eyewitness News promo ...'
p2
aS"Dec 21, 2015 - Location-wise, El Pollo Loco's Kuykendahl-fronting restaurant opened well ahead of ... and sign up to get daily updates with Baltimore's latest business news."
p3
aS"Dec 21, 2015 - Headlines News  News  The 'I'm single' shirtless runner is also a Christian .... Market Losers: Avalanche Biotechnologies Inc, El Pollo LoCo Holdings Inc, And ..."
p4
aS"Dec 21, 2015 - Taste better then El Pollo Loco an ever one is friendly an the price is always right..... October 4 ... News Feed .... 'Gordita: Asada, Pastor, Pollo, and Chorizo.'."
p5
aS'Dec 21, 2015 - El Sabor De Mi Tierra, San Benito, TX. 718 likes  28 talking about this  5305 were here. Mexican ... News Feed ... Pollo al carbon$6.99. Pollo loco x2 $17.99'
p6
aS"Dec 21, 2015 - Hungry Hungry IPO: El Pollo Loco Ruffles Nasdaq's Feathers. You Say Goodbye, I Say Hello: Aloha Cafe, Little Tokyo. El Atacor Taqueria (...number 11)."
p7
aS'Dec 21, 2015 - Odd and interesting news from the Midwest. 1of 19. Miniature horse provides therapy in Grand Rapids area. By HEIDI FENTON. The Grand Rapids Press.'
p8
aS"Dec 20, 2015 - Labels: McDonald's , News .... Jr. Chick-fil-A Chipotle Church's Chicken Dairy Queen Del Taco Domino's Dunkin' Donuts El Pollo Loco Hardee's In-N-Out Jack in ..."
p9
aS'Dec 20, 2015 - Bagels  Open Christmas Eve and Closed Christmas Day; El Pollo Loco  Open Christmas Eve and Closed Christmas Day; El Torito Mexican Restaurant ...'
p10
a.