(lp0
S'Dec 30, 2015 - El Pollo Loco launches under-500-calorie menu items, for now | chicken, items, loco, new, pollo, menu, avocado, calorie, calories, bowl. ... Top news. Business ...'
p1
aS"Dec 30, 2015 - COSTA MESA, Calif., Dec. 30, 2015 (GLOBE NEWSWIRE) -- El Pollo Loco (Nasdaq:LOCO), the nation's leading fire-grilled chicken restaurant chain, today ..."
p2
aS'Dec 30, 2015 - New Location Marks the 10th Store Opened by El Pollo Loco Franchisee Rafael Armenta.'
p3
aS"Dec 30, 2015 - Company Announces Five Flavorful Options Each Less Than 500 Calories Costa Mesa, CA (RestaurantNews.com) El Pollo Loco (Nasdaq:LOCO), the nation's ..."
p4
aS'Dec 30, 2015 - El Pollo Loco News. November 11, 2015: El Pollo Loco Holdings (LOCO Updated Trend Analysis) El Pollo Loco today opened its newest location in Chatsworth, ...'
p5
aS"Dec 29, 2015 - Arby's, California Tortilla, Dickey's Barbecue, El Pollo Loco, Sonic Drive In, Tilted Kilt and Tropical Smoothie Caf; also introduce new menu items. Contact Bret ..."
p6
aS"Dec 29, 2015 - The El Pollo Loco on the 6600 block of Van Nuys Boulevard in Van Nuys doesn't have a drive-thru, but that didn't stop a motorist from driving through the fast ..."
p7
aS"Dec 30, 2015 - Rockville, MD (Restaurant News Release) Overdid it on eggnog and Christmas ... Start the New Year Right With El Pollo Loco's New Under 500 Calorie Items."
p8
aS'Dec 30, 2015 - The California-based chain El Pollo Loco has opened its seventh Houston-area store in Rosenberg. The restaurant specializes in citrus-marinated, fire-grilled ...'
p9
aS"Dec 29, 2015 - Despite all the good news and the solid earnings reports, investors have soured on the shares. ... El Pollo Loco, Bojangles' Prospects Bright: Take Your Pick."
p10
a.