(lp0
S'Dec 30, 2015 - El Pollo Loco launches under-500-calorie menu items, for now | chicken, items, loco, new, pollo, menu, avocado, calorie, calories, bowl. ... Top news. Business ...'
p1
aS'Dec 30, 2015 - New Location Marks the 10th Store Opened by El Pollo Loco Franchisee Rafael Armenta.'
p2
aS"Dec 30, 2015 - COSTA MESA, Calif., Dec. 30, 2015 (GLOBE NEWSWIRE) -- El Pollo Loco (Nasdaq:LOCO), the nation's leading fire-grilled chicken restaurant chain, today ..."
p3
aS'Dec 31, 2015 - El Mercado Supermarket has signed a 42130 square foot lease in the Fairmont Junction Shopping Center. ... El Pollo Loco has opened at 1108 Silber in west Houston, its 8th restaurant in the Houston market. ... Morning News Update.'
p4
aS'Dec 30, 2015 - El Pollo Loco News. November 11, 2015: El Pollo Loco Holdings (LOCO Updated Trend Analysis) El Pollo Loco today opened its newest location in Chatsworth, ...'
p5
aS'Dec 31, 2015 - News Feed. Jef Van de Weyer eating Mexicaanse keuken at El Pollo Loco with Nicoletta Sorrentino ... Sunny Boy with Saai Nam and Kurwa Fin at El Pollo Loco.'
p6
aS'Dec 31, 2015 - ... at the Boulder Station..chicken was similar too El Poco Loco but better side dishes ... we also had a BM at Decator and Sahara where the El Pollo Loco is now.'
p7
aS"Dec 31, 2015 - 30, 2015 (GLOBE NEWSWIRE) -- El Pollo Loco (Nasdaq:LOCO), the nation's leading fire-grilled chicken chain, today opened its newest location in Lodi, CA."
p8
aS"Dec 31, 2015 - Home  BUSINESS  Local Business News  Outlook 2016: New Housing .... El Pollo Loco out; burgers and juice in  Macy's continues to plan store closures ..."
p9
aS"Dec 31, 2015 - Home  BUSINESS  Local Business News  Movie Ranches to Qualify as Production .... El Pollo Loco out; burgers and juice in  Macy's continues to plan store ..."
p10
a.