(lp0
S'Dec 3, 2015 - Leaders become laggards as El Pollo Loco and Noodles hit lows ... while El Pollo Loco Holdings Inc. and Noodles & Co. are among those that hit all-time lows ...'
p1
aS'Dec 4, 2015 - Some of the leaders are now laggards, as more than 20 restaurant stocks have slumped at least 10 percent in 2015, while El Pollo Loco Holdings Inc. and ...'
p2
aS'Dec 3, 2015 - El Pollo Loco (NASDAQ:LOCO), the citrus-marinated fire-grilled chicken specialist just introduced a "Double Chicken" line. Most people associate El Pollo Loco ...'
p3
aS'Dec 5, 2015 - The Holmes PTSA is having a fundraiser at the El Pollo Loco located on Nordhoff Street at Balboa Blvd. in Northridge on Thursday, December 17th, from 12:00 ...'
p4
aS"Dec 3, 2015 - At some point, Tina Marie Ortiz left the hospital room with Kevin's aunt to pick up some dinner, takeout from El Pollo Loco  only to find they were locked out ..."
p5
aS'Dec 3, 2015 - While many other market reports only provide stock news and opinion, we offer ... Alerts For Celldex Therapeutics, Anavex Life Sciences Corp, El Pollo Loco, ...'
p6
aS"Dec 4, 2015 - News Feed ... 17.DAVIDOFF 18.DELIFRANCE 19.EL POLLO LOCO 20.ERBERT & GERBERT'S 21.FROGGER 22.GAME OF THRONES 23.THE GLENLIVET 24."
p7
aS"Dec 3, 2015 - Save Money. Fry's Weekly Ads  Fry's Digital Coupons  Fry's Promotions. Breaking news: Wildcats given No. 6 seed in NCAA tournament, will play Thursday ..."
p8
aS'Dec 3, 2015 - Current Weather. Clear. 40. Complete Forecast  News  Sports  A & E ..... we highly recommend the Poblano Pollo Loco and liked the burgers for the most part. .... El Tipico Restaurant, 1444 South Ave., was one of the first Mexican ...'
p9
aS'Dec 3, 2015 - Prices of U.S. crude fell below $40 on Wednesday, leading to declining benchmarks on lower energy stocks. It has been a routine phenomenon this year as oil ...'
p10
a.