(lp0
S'Dec 7, 2015 - El Pollo Loco Continues California Development With Opening of New Tracy Restaurant ... other news releases in. Product / Services Announcement in the last ...'
p1
aS'Dec 6, 2015 - Adding to the negative news was that this was the fourth consecutive quarter that ... Several restaurant stocks like Potbelly and El Pollo Loco have tumbled since ...'
p2
aS'Dec 6, 2015 - 44 El Pollo Loco jobs in Perris, CA are available at Snagajob. Perris El Pollo Loco employers are now hiring. Find your next job today!'
p3
aS'Dec 6, 2015 - SCV News. General SCV NewsSanta Clarita ... By his happened to me once after using my card at pollo loco on Pico canyon. But I still had the card. I suspected ...'
p4
aS'Dec 8, 2015 - Get reviews, hours, directions, coupons and more for El Pollo Loco at 310 E Main St, Radford, VA. Search for other Fast Food Restaurants in Radford on YP.com.'
p5
aS'Dec 6, 2015 - ... Richard Pryor, MISAKI - The Official page, El Pollo Loco (2131 Monterey Rd, ... CA), Freedom Partners, 2gobaja.com, News on Womanista, JumbleJoy.com, ...'
p6
aS'Dec 6, 2015 - Advice, horoscopes and other relationship news. Dear Carolyn: Through the years, my husband has learned to let go of the hopes and dreams he had for his ...'
p7
aS'Dec 7, 2015 - During his 11 years at BSSP, he also worked on Converse, Google, Chipotle, Sprite and El Pollo Loco. "I\'d heard a lot about Lyle and his work before he ...'
p8
aS"Dec 7, 2015 - ... options in most US locations (Taco Bell, Qdoba, El Pollo Loco, Chuy's, etc). ... of scary headlines for 24 hour news channels, which, combined with the low ..."
p9
aS"Dec 7, 2015 - Mr. Zuckerberg was in the news recently for his announcement to donate 99% of his and his wife's, Priscilla Chan, shares in Facebook to multiple charities."
p10
a.