(lp0
S'Dec 8, 2015 - Bad news: Krua Thai made the list of "D" restaurants in November. ... This month saw a lot of chain restaurants including Zipp\'s, El Pollo Loco, and Village Inn ...'
p1
aS"Dec 8, 2015 - Watch 'Behind The Kitchen Door' on KSAT 12 News ... 22211 IH-10 W., perfect score; El Pollo Loco, 4645 W. Commerce St., perfect score; Honey Baked Ham, ..."
p2
aS'Dec 8, 2015 - Taco Loco A crispy Flour Tortilla bowl filled with Lettuce and Grilled Chicken ... Pollo Adobo Sauteed Chicken with Spinach, Onions, Mushrooms and Tomatoes. ..... El Regional Sauteed Mushrooms, Green Squash, Onions and Tomatoes with ...'
p3
aS'Dec 8, 2015 - While many other market reports only provide stock news and opinion, we ... El Pollo Loco, First Solar, Dollar Tree and hundreds of other stocks Released By ...'
p4
aS"Dec 9, 2015 - December 9, 2015 Generation Park, HKA Texas News, Summerwood, Westlake ... Valley Ranch Town Center adds Chickfila, Chili's, El Pollo Loco, Freebirds, ..."
p5
aS"Dec 8, 2015 - National News  Houston Real Estate News  Contact Us ... El Pollo Loco is opening at the corner of I-69 and FM 762 in the space formerly occupied by Arby's."
p6
aS'Dec 9, 2015 - The report showed that fast food chain El Pollo Loco leased a land from NewQuest with a total area of 81,888 square feet. NewQuest also leased out its ...'
p7
aS"Dec 8, 2015 - Auntie Anne's Soft Pretzels; Bagel Street Caf (Clark Oil); Blimpie; Cosi; D'Angelos; Denny's; Dippin' Dots; El Pollo Loco; Famous Famiglia; Fuzzy's Taco Shop ..."
p8
aS'Dec 9, 2015 - Headlines News  News  Badly burned girl who lost family in arson attack asks .... Market Losers: Avalanche Biotechnologies Inc, El Pollo LoCo Holdings Inc, ...'
p9
aS'Dec 9, 2015 - Two men convicted of first-degree murder in the killing of a Border Patrol agent whose death brought to light a bungled federal gun-tracking operation are ...'
p10
a.