(lp0
S'Jan 11, 2015 - They are the Grilled Chicken & Kale Salad, Chicken & Shrimp Grilled Tostada, Double Chicken Wet Burrito, and Skinny Chicken Enchilada. ... The Chicken & Shrimp Grilled Tostada consists of a large, whole wheat grilled tortilla filled with lettuce blend, Baja shrimp, cotija cheese ...'
p1
aS'Jan 12, 2015 - On the other hand, that both Popeyes and El Pollo Loco have performed so well seems to be bad news for ... Bad news for your credit card company. The plastic ...'
p2
aS'Jan 12, 2015 - news. print; email ... Plans 12 Craft-Your-Own Pizza Restaurants  Small Restaurants Seek Big League Through Franchises  El Pollo Loco Sets Dallas Plan ...'
p3
aS"Jan 11, 2015 - El Pollo Loco: 10% off senior discounts varies by location (55+). Friendly's Restaurants: Breakfast discount varies by location (60+) Senior List readers to confirm."
p4
aS'Jan 11, 2015 - Get reviews, hours, directions, coupons and more for El Pollo Loco at 305 E Betteravia Rd, Santa Maria, CA. Search for other Fast Food Restaurants in Santa ...'
p5
aS"Jan 12, 2015 - January 12, 2015 HKA Texas News, Humble ... Valley Ranch Town Center adds Chickfila, Chili's, El Pollo Loco, Freebirds, Subway, T. Jin's Asian Caf and ..."
p6
aS"Jan 12, 2015 - January 12, 2015 Atascocita, HKA Texas News ... Valley Ranch Town Center adds Chickfila, Chili's, El Pollo Loco, Freebirds, Subway, T. Jin's Asian Caf and ..."
p7
aS'Jan 11, 2015 - News Feed ... Gunned down in her El Pollo Loco uniform, she was only 18. There is now a $50,000 reward for information that leads to the arrest and conviction ...'
p8
aS"Jan 12, 2015 - News & Politics  Family & Parenting  Yelper Shout-Outs ... Man, why couldn't it have been an In-N-Out, or El Pollo Loco? Report as inappropriate. 1/12/2015."
p9
aS'Jan 12, 2015 - Here is a look at the violations recorded at Maricopa County restaurants from Jan. 5 to Jan. 9 by the Maricopa County Environmental Services department.'
p10
a.