(lp0
S"Jan 14, 2015 - El Pollo Loco CEO Stephen Sather explains how the company remains focused on building ... Access to Jim Cramer's daily blog; Intraday commentary and news ..."
p1
aS'Jan 13, 2015 - El Pollo Loco CEO: Lower Oil Prices Positive for the Restaurant ... El Pollo Loco CEO Stephen J. Sather says his staff greeted more diners in the first .... Plus 15 more Wall Street Pros; Intraday commentary & news; Ultra-actionable trading ideas ...'
p2
aS"Jan 13, 2015 - Stephen Sather, El Pollo Loco CEO and president, discusses how lower oil ... Sather also provides perspective into El Pollo Loco's trend towards healthier ... Global Business and Financial News, Stock Quotes, and Market Data and Analysis."
p3
aS'Jan 14, 2015 - After losing money from 2011 to 2013, El Pollo Loco (LOCO) is expected to have broken that streak in 2014. The crazy chicken is slated to have earned 55 ...'
p4
aS'Jan 14, 2015 - Chipotle Mexican Grill, Red Robin Gourmet Burgers Inc., El Pollo Loco and Carrols Restaurant Group Inc. were among restaurant chains to make news on day ...'
p5
aS'Jan 14, 2015 - You can access more in-depth stories and analysis, as well as news not found on ... Restaurant Finance Watch: What Chipotle, El Pollo Loco have in common 1 ...'
p6
aS'Stephen Sather, El Pollo Loco CEO and president, discusses how lower oil prices are positive for the company ...'
p7
aS"Jan 14, 2015 - Tech News, Reviews & Analysis .... He was a very large franchisee of El Pollo Loco and Rally's Hamburgers (a part of his career that contained some level of ..."
p8
aS"Jan 13, 2015 - January 13, 2015 HKA Texas News, Humble ... Valley Ranch Town Center adds Chickfila, Chili's, El Pollo Loco, Freebirds, Subway, T. Jin's Asian Caf and ..."
p9
aS"Jan 13, 2015 - Posted in Atascocita News on Tuesday, January 13, 2015 11:27 am. ... El Pollo Loco celebrates growing presence in Houston by hosting 'Loco Fun Day' ..."
p10
a.