(lp0
S"Jan 14, 2015 - El Pollo Loco CEO Stephen Sather explains how the company remains focused on building ... Access to Jim Cramer's daily blog; Intraday commentary and news ..."
p1
aS'Jan 14, 2015 - After losing money from 2011 to 2013, El Pollo Loco (LOCO) is expected to have broken that streak in 2014. The crazy chicken is slated to have earned 55 ...'
p2
aS'Jan 14, 2015 - Chipotle Mexican Grill, Red Robin Gourmet Burgers Inc., El Pollo Loco and Carrols Restaurant Group Inc. were among restaurant chains to make news on day ...'
p3
aS'Jan 14, 2015 - You can access more in-depth stories and analysis, as well as news not found on ... Restaurant Finance Watch: What Chipotle, El Pollo Loco have in common 1 ...'
p4
aS"Jan 14, 2015 - Tech News, Reviews & Analysis .... He was a very large franchisee of El Pollo Loco and Rally's Hamburgers (a part of his career that contained some level of ..."
p5
aS"Jan 15, 2015 - El Pollo Loco, the nation's leading fire-grilled chicken restaurant chain signed AA Pollo, Inc. to a 20 ... AA Pollo, Inc. also bought six El Pollo Loco restaurants in San Antonio. .... Get the latest fast food coupons, news, and tips every month."
p6
aS'Jan 15, 2015 - Back. Shops  Restaurants  Services  All Tenants Alphabetically >. News & Events ... California Seafood Pub. (626) 472-9271. El Pollo Loco. (626) 960-8861.'
p7
aS'Jan 15, 2015 - Back. Shops  Restaurants  Services  All Tenants Alphabetically >. News & Events ... California Seafood Pub. (626) 472-9271. El Pollo Loco. (626) 960-8861.'
p8
aS'Jan 15, 2015 - This desert made the news in 2012 and was subsequently removed from the menu, likely due to public reaction. This is .... crazy for chickenEl Pollo Loco.'
p9
aS'Jan 14, 2015 - elpolloloco. w/ del rio being from east bay, wonder if they had any discussions .... 2016 Bay Area News Group. All rights reserved. Hiero by aThemes. Quantcast.'
p10
a.