(lp0
S"Jan 20, 2015 - The offering follows a string of successful IPOs by casual dining chains last year, including Habit Restaurants Inc, El Pollo Loco Holdings Inc and Zoe's Kitchen ..."
p1
aS"Jan 20, 2015 - At South Napa Marketplace, an El Pollo Loco, fast-food-style restaurant, will soon replace the ... El Pollo Loco should be open for business this year, officials said. .... Currents. +7. The restaurant business is booming in Iraq. Here's why  News ..."
p2
aS"Jan 20, 2015 - El Pollo Loco's shares rose as much as 33 percent in their debut in July, while shares of Zoe's Kitchen jumped more than 70 percent when the company listed in ..."
p3
aS'Jan 20, 2015 - Other fast-casual restaurant operators have fared well after their IPOs, including chicken chain El Pollo Loco Holdings and Mediterranean-style restaurant chain ...'
p4
aS'Jan 20, 2015 - Consulting my phone, I scrolled through a list of familiar names in the area: Panera Bread, California Pizza Kitchen, El Pollo Loco. I was on the verge on just ...'
p5
aS'Jan 21, 2015 - El Pollo Loco rose more than 4%, and Chipotle Mexican Grill was down less than 1%. ... You will find the latest news, market analysis, and education to help you ...'
p6
aS'Jan 20, 2015 - El Pollo Loco Holdings Inc. fetches around 2.5 times sales, Noodles & Co. trades at 2 times, and Potbelly Corp. is valued at around 1.2 times its annualized sales ...'
p7
aS"Jan 21, 2015 - Posted in News on Wednesday, January 21, 2015 12:26 pm. ... in Humble  El Pollo Loco celebrates growing presence in Houston by hosting 'Loco Fun Day' ..."
p8
aS'Jan 20, 2015 - El Pollo Loco followed with a $200 million secondary offering in November. Shake Shack plans to list on the New York Stock Exchange under symbol SHAK.'
p9
aS"Jan 20, 2015 - Business Latest News Wires ... after their IPOs, including chicken chain El Pollo Loco Holdings Inc. and Mediterranean-style restaurant chain Zoe's Kitchen Inc."
p10
a.