(lp0
S'Jan 21, 2015 - El Pollo Loco rose more than 4%, and Chipotle Mexican Grill was down less than 1%. ... You will find the latest news, market analysis, and education to help you ...'
p1
aS"Jan 22, 2015 - Nation's Restaurant News ... but a Wall Street analyst issued a report outlining six potential candidates, including El Pollo Loco, Fiesta Restaurant Group Inc., ..."
p2
aS'Jan 22, 2015 - Elk Grove\'s Unique Online Google News Source .... M.D. "El Pollo Loco is a good example of a business that invests in the local .... Who eats at El Pollo Loco?'
p3
aS"Jan 21, 2015 - Posted in News on Wednesday, January 21, 2015 12:26 pm. ... in Humble  El Pollo Loco celebrates growing presence in Houston by hosting 'Loco Fun Day' ..."
p4
aS'Jan 22, 2015 - El Pollo Loco Franchise Opportunity ... Based in Dallas and with more than 300 locations across the U.S., Mexico, El Salvador and Uruguay, Red Mango is a ...'
p5
aS'Jan 21, 2015 - (855) 754-2795 - El Pollo Loco Franchise Settles Overtime Pay Lawsuit ... The El Pollo Loco franchise has four locations in Southern California, which are ... The site also has legal news on unpaid overtime pay lawsuits, class actions, and ...'
p6
aS"Jan 21, 2015 - January 21, 2015 Atascocita, HKA Texas News .... Valley Ranch Town Center adds Chickfila, Chili's, El Pollo Loco, Freebirds, Subway, T. Jin's Asian Caf and ..."
p7
aS"Jan 22, 2015 - Valley Ranch Town Center adds Chickfila, Chili's, El Pollo Loco, Freebirds, Subway, T. Jin's Asian Caf and others ... What's NEW and NEWS in HKA Texas!"
p8
aS"Jan 21, 2015 - ... US Bank, MINI Cooper, Blue Shield of California, Greyhound, El Pollo Loco, Redfin and others. Adweek named BSSP 'Best Small Agency of the Decade."
p9
aS'Jan 22, 2015 - Drivers Melany Rodriguez, left, and Meghan Krueger are responsible for bringing the Planters Nutmobile to town. The vehicle, on a promotion swing around the ...'
p10
a.