(lp0
S'Jan 25, 2015 - El Pollo Loco Holdings fetches around 2.5 times sales, Noodles & Co. trades at 2 times, and Potbelly Corp. is valued at around 1.2 times its annualized sales ...'
p1
aS'Jan 26, 2015 - News. 02/02/2013  02/02/2013:Filming Death by Gloss  Los Angeles, CA ... 02/06/2012  02/15/2012: Performing El Pollo Loco commercial  Long ...'
p2
aS"Jan 26, 2015 - January 26, 2015 Fall Creek, HKA Texas News, Sports / Recreation / Fishing ... Valley Ranch Town Center adds Chickfila, Chili's, El Pollo Loco, Freebirds, ..."
p3
aS'Jan 25, 2015 - We tell the government how to secure the border step-by-step, McCaul said in a news release, and put in place real penalties for ignoring the will of Congress.'
p4
aS"Jan 25, 2015 - Labels: Deals , News , Outback Steakhouse .... Church's Chicken Dairy Queen Del Taco Domino's Dunkin' Donuts El Pollo Loco Hardee's In-N-Out Jack in the ..."
p5
aS"Jan 26, 2015 - Labels: Jack in the Box , News ... Coffee during the next four weeks (you can also score a free Doritios Locos Tacos until the end of the month, while you're at it)."
p6
aS"Jan 26, 2015 - ... Carrows Restaurants, Chevys Fresh Mex, Claim Jumper, Coco's Bakery Restaurants, Del Taco, Einstein Noah, El Pollo Loco, Hooters, Interim HealthCare, ..."
p7
aS'Jan 26, 2015 - Crime, News, Robbery. A+ A-. Email Print. http://www.murrieta247.com/2015/01/police-say-robbery-suspect-matches-previous-description.html ...'
p8
aS'Jan 26, 2015 - Church of Scientology International, et al. ... News of the World imploded during the British phone-hacking scandal when, among other ... Maybe El Pollo Loco?'
p9
aS'Jan 26, 2015 - Appearances  Press Releases & News  MAGAZINE  TV Videos .... Where: Birmingham, AL. Website: ..... Where: Los Angeles, CA. Website: elpolloloco.com ...'
p10
a.