(lp0
S"Jan 27, 2015 - Habit's shares more than doubled since opening in November. Zoe's Kitchen spiked more than 70 percent when they listed in April. El Pollo Loco's shares ..."
p1
aS"Jan 26, 2015 - January 26, 2015 Fall Creek, HKA Texas News, Sports / Recreation / Fishing ... Valley Ranch Town Center adds Chickfila, Chili's, El Pollo Loco, Freebirds, ..."
p2
aS"Jan 27, 2015 - January 27, 2015 HKA Texas News, Kingwood, ShopHKA ... Valley Ranch Town Center adds Chickfila, Chili's, El Pollo Loco, Freebirds, Subway, T. Jin's Asian ..."
p3
aS'Jan 27, 2015 - Thread: going to El Pollo Loco for lunch today ..... Our Newsletter. Be the first to receive exciting news, features, and special offers from Bodybuilding.com! Send ...'
p4
aS'Jan 27, 2015 - ... Plaza Shopping Center on Clayton Road in Concord, where El Pollo Loco is ... a photo of them, and send them to the following address: news@claycord.com.'
p5
aS'Jan 27, 2015 - El Pollo Loco: The Bears Are Coming ... Weighing The Week Ahead: Can Stocks (Finally) Celebrate Good News? by Jeff Miller; Silver Is Now A Golden ...'
p6
aS"Jan 27, 2015 - Shares of El Pollo Loco Holdings Inc. (Nasdaq: LOCO) leaped 60.2% on its opening day in October. Zoe's Kitchen Inc. (NYSE: ZOES) opened at $25.65 in April."
p7
aS"Jan 27, 2015 - Television's longest-running evening business news broadcast, NBR features in-depth coverage and analysis of ... LOCO, El Pollo Loco Holdings Inc, -8.20%."
p8
aS"Jan 26, 2015 - Labels: Jack in the Box , News ... Coffee during the next four weeks (you can also score a free Doritios Locos Tacos until the end of the month, while you're at it)."
p9
aS'Jan 26, 2015 - Church of Scientology International, et al. ... News of the World imploded during the British phone-hacking scandal when, among other ... Maybe El Pollo Loco?'
p10
a.