(lp0
S'Jan 28, 2015 - Local fans are also encouraged to join the My Loco Rewards program for exclusive news, rewards and previews delivered to their inbox. My Loco Rewards also ...'
p1
aS"Jan 28, 2015 - It's time to get crazy and join the El Pollo Loco eClub. Local fans are also encouraged to join the My Loco Rewards program for exclusive news, rewards and ..."
p2
aS'Jan 28, 2015 - El Pollo Loco continued its expansion in the Houston market with the ... El Pollo Loco has grown to more than 400 restaurants in five states. ... <span class="title">Real <span class="widget-title-remainder">Estate News</span></span>.'
p3
aS'Jan 29, 2015 - The best SoCal news in your inbox, daily. ... 3 men arrested in connection to El Pollo Loco thefts Article  Law-enforcement safety concerns prompt call for ...'
p4
aS'Jan 28, 2015 - Industry News Retailing & Restaurants ... based El Pollo Loco Holdings, Addison, Texas-based Fiesta Restaurant Group, San Diego-based Jack in the Box, ...'
p5
aS"Jan 27, 2015 - Habit's shares more than doubled since opening in November. Zoe's Kitchen spiked more than 70 percent when they listed in April. El Pollo Loco's shares ..."
p6
aS'Jan 28, 2015 - El Pollo Loco Holdings Inc., a chicken chain with locations in the American Southwest, fetches around 2.8 times its annualized sales figure for the first three ...'
p7
aS"Jan 27, 2015 - January 27, 2015 HKA Texas News, Kingwood, ShopHKA ... Valley Ranch Town Center adds Chickfila, Chili's, El Pollo Loco, Freebirds, Subway, T. Jin's Asian ..."
p8
aS"Jan 28, 2015 - O), El Pollo Loco Holdings Inc (LOCO. ... Thomson Reuters is the world's largest international multimedia news agency, providing investing news, world news, ..."
p9
aS'Jan 27, 2015 - Thread: going to El Pollo Loco for lunch today ..... Our Newsletter. Be the first to receive exciting news, features, and special offers from Bodybuilding.com! Send ...'
p10
a.