(lp0
S"Jan 29, 2015 - I wouldn't touch El Pollo Loco stock with a 10-foot chicken feather. The stock is ... The interest payments aren't too onerous, so that's good news. In the El Pollo ..."
p1
aS"Jan 30, 2015 - San Jose Mercury News .... including Mediterranean-style restaurant chain Zoe's Kitchen, chicken chain El Pollo Loco and burger chain The Habit Restaurants."
p2
aS'Jan 30, 2015 - Katy residents, we have a Pollo...an El Pollo Loco that is! ... Local fans are also encouraged to join the My Loco Rewards program for exclusive news, rewards ...'
p3
aS"Jan 30, 2015 - El Pollo Loco, Potbelly, Noodles and Zoe's Kitchen have gone public in the past two years and ... Get the latest news and Live VIPIR Radar on your phone!"
p4
aS"Jan 30, 2015 - El Pollo Loco (LOCO), Potbelly (PBPB), Noodles (NDLS) and Zoe's Kitchen (ZOES) have gone public in the past two years and soared on their first day of trading ..."
p5
aS'Jan 30, 2015 - DOW JONES, A NEWS CORP COMPANY. News Corp ..... El Pollo Loco Holdings Inc., which went public on July 24, 2014, jumped 60% on its first day of trading.'
p6
aS'Jan 30, 2015 - This month alone, I got news releases from Del Taco and El Pollo Loco announcing, respectively, a partnership with turkey manufacturer Jennie-O and an ...'
p7
aS'Jan 30, 2015 - Costa Mesa-based El Pollo Loco Holdings Inc. has been mentioned as a possible takeover target after news reports that a Philippines-based restaurant ...'
p8
aS'Jan 29, 2015 - News Feed. El Pollo Loco added 4 new photos. January 29, 2015 . NEW Shrimp Mango Tacos, Shrimp Verde Enchiladas, Shrimp & Chicken Avocado Bowl and ...'
p9
aS"Jan 30, 2015 - Chicken chain El Pollo Loco Holdings Inc. jumped 60 percent in July and Mediterranean-style restaurant chain Zoe's Kitchen Inc. ... Sidekick More Market News."
p10
a.