(lp0
S'Jan 5, 2015 - El Pollo Loco continues to grow quickly as it expands store count, profit margins rise ... Baird Sees Loco Undervalued, Wild Wings Overvalued ... Related news.'
p1
aS"Jan 5, 2015 - 5, 2015 (GLOBE NEWSWIRE) -- El Pollo Loco (Nasdaq:LOCO), the nation's leading fire-grilled chicken chain, today announced an ... other news releases in"
p2
aS'Jan 5, 2015 - Updated El Pollo Loco reports higher profit; sales slide. 3/10. Bojangles profit dips, but results top .... More News from MarketWatch. Top Stories. Trending.'
p3
aS'Jan 5, 2015 - El Pollo Loco shares down 17.5% in premarket trade. 8:07 A.M. ET. SFO to charge Deutsche bankers .... More News from MarketWatch. Top Stories. Trending.'
p4
aS"Jan 5, 2015 - Wingstop, El Pollo Loco. Papa Murphy's, Zoes, Potbelly. Noodles & Company, Chuy's, Dunkin. Let us help you write ... News & Events  Conferences. General ..."
p5
aS"Jan 5, 2015 - Internationalization efforts at Pima Community College have generated concern in some citizens who believe such goals are not in our community's best interest ..."
p6
aS'Jan 5, 2015 - Since 1998 Armet Davis Newlove has provided services in the development, design, and maintenance of all EL POLLO LOCO prototypes resulting in the ...'
p7
aS'Jan 5, 2015 - Take El Pollo Loco, the quick-serve restaurant chain. Some of the grillmasters have been with the restaurants for 20 years. They have a following, like chefs at ...'
p8
aS'Jan 5, 2015 - EL POLLO LOCO!!! TOP 10 AJ GIFs ... Wasteland by Bad News Barrett and a pin for 1.2.3!!! Winner of ... VIctor is in the ring with a midget Al Snow. He tosses ...'
p9
aS'Jan 5, 2015 - Shares of El Pollo Loco, another fast casual company, were also up over 5% from .... [http://www.bloomberg.com/news/2014-12-29/shake-shack-files-for-initial- ...'
p10
a.