(lp0
S"Jan 7, 2015 - Shares of El Pollo Loco jumped $1.66, or nearly 8%, to $22.52 Tuesday after two Wall Street brokerage firms' analysts boosted their ratings on ... Related News."
p1
aS"Jan 6, 2015 - Go crazy and join El Pollo Loco's eClub and My Loco Rewards program for exclusive news, rewards and previews delivered directly to your inbox. My Loco ..."
p2
aS'Jan 6, 2015 - El Pollo Loco Holding Inc. lost nearly 50% in two months, but an overdone selloff and two analyst upgrades promise good things for LOCO stock.'
p3
aS'Jan 6, 2015 - Bidness Etc takes a look at Jeffries upgrade of El Pollo LoCo Holdings Inc (NASDAQ:LOCO) stock to a Buy.'
p4
aS'Jan 6, 2015 - The newest El Pollo Loco restaurant at 10506 Trinity Parkway , Stockton, celebrated its opening with a ribbon cutting Tuesday.Human relations manager George ...'
p5
aS"Jan 6, 2015 - Go crazy and join El Pollo Loco's eClub and My Loco Rewards program for exclusive news, rewards and previews delivered directly to your inbox. My Loco ..."
p6
aS'Jan 6, 2015 - El Pollo LoCo Holdings (NASDAQ:LOCO) stock jumped this morning in premarket trading after several analysts announced upgrades for the company.'
p7
aS'Jan 6, 2015 - Menu Tracker: New items from White Castle, Starbucks, El Pollo Loco, more. Jan 6, 2015. Bret Thorn. Comments 0. Advertisement. Next. Prev. Advertisement.'
p8
aS'Jan 7, 2015 - Looking for powerful growth stocks in the restaurant business? Chipotle Mexican Grill, Buffalo Wild Wings, and El Pollo Loco are three tasty choices to pick from ...'
p9
aS'Jan 7, 2015 - 13 reviews of El Pollo Loco "Food is fine BUT they use a stinky, nauseating cleaner ... is bad news because El Pollo Loco had one of the best shakes in fast food.'
p10
a.