(lp0
S'Feb 17, 2015 - Watch the archived CEO Signature Series interview with Steve Sather, President & Chief Executive Officer of El Pollo Loco, Inc. (LOCO). This.'
p1
aS"Feb 17, 2015 - ... like Habit Restaurants (HABT), El Pollo Loco (LOCO) and Zoe's Kitchen (ZOES). ... You will find the latest news, market analysis, and education to help you ..."
p2
aS'Feb 16, 2015 - El Pollo Dorado al Carbon, a taco truck that has operated on the corner of 21st and Wellington Place for years, burned last week in a fire. The dramatic photos of ...'
p3
aS"Feb 16, 2015 - Valley Ranch Town Center adds Chickfila, Chili's, El Pollo Loco, Freebirds, Subway, T. Jin's Asian Caf and others ... What's NEW and NEWS in HKA Texas!"
p4
aS'Feb 17, 2015 - Related News. Examining Hollywood remakes: .... 1988 El placer de matar. Luis. 1988 Women on the ...... El Pollo Loco?? ginlover92545  The best  atackett5.'
p5
aS'Feb 17, 2015 - Related Taco Bell tests Sriracha menu Taco Bell offers free Doritos Locos ... You can access more in-depth stories and analysis, as well as news not found on ...'
p6
aS"Feb 16, 2015 - Labels: News ... El Pollo Loco Introduces New Baja Shrimp. El Pollo Loco, the nation's leading fire-grilled chicken chain announced the addition of Baja Shrimp ..."
p7
aS'Feb 17, 2015 - Valvoline Instant Oil Change, located at 7981 El Cajon Blvd next to El Pollo Loco, has equipped the building with a full facelift, new signage, cutting edge tools, ...'
p8
aS'Feb 16, 2015 - El Pollo Loco restaurant at Mason Rd. and ... 128  KATY MAGAZINE FEBRUARY/MARCH 2015 Visit KatyMagazine.com for Katy jobs, events, news and more.'
p9
aS"Feb 18, 2015 - Labels: Deals , News , Panda Express .... Chicken Dairy Queen Del Taco Domino's Dunkin' Donuts El Pollo Loco Hardee's In-N-Out Jack in the Box KFC Krispy ..."
p10
a.