(lp0
S'Feb 17, 2015 - Watch the archived CEO Signature Series interview with Steve Sather, President & Chief Executive Officer of El Pollo Loco, Inc. (LOCO). This.'
p1
aS"Feb 17, 2015 - ... like Habit Restaurants (HABT), El Pollo Loco (LOCO) and Zoe's Kitchen (ZOES). ... You will find the latest news, market analysis, and education to help you ..."
p2
aS"Feb 18, 2015 - news. print; email ... purchased the site, which also includes a Carl's Jr. and an El Pollo Loco, from a limited liability entity formed by Darryl Holter, chief executive ..."
p3
aS'Feb 17, 2015 - Related News. Examining Hollywood remakes: .... 1988 El placer de matar. Luis. 1988 Women on the ...... El Pollo Loco?? ginlover92545  The best  atackett5.'
p4
aS"Feb 18, 2015 - Valley Ranch Town Center adds Chickfila, Chili's, El Pollo Loco, Freebirds, Subway, T. Jin's Asian Caf and others ... What's NEW and NEWS in HKA Texas!"
p5
aS'Feb 17, 2015 - Related Taco Bell tests Sriracha menu Taco Bell offers free Doritos Locos ... You can access more in-depth stories and analysis, as well as news not found on ...'
p6
aS'Feb 18, 2015 - You can access more in-depth stories and analysis, as well as news not found on any other website or any other media outlet. You also get free eNewsletters, ...'
p7
aS'Feb 17, 2015 - Valvoline Instant Oil Change, located at 7981 El Cajon Blvd next to El Pollo Loco, has equipped the building with a full facelift, new signage, cutting edge tools, ...'
p8
aS'Feb 18, 2015 - This latest bit of news is welcome, however, the amount of expansion in the restaurant ... equity plays or IPOs to fund growth (like Shake Shack or El Pollo Loco).'
p9
aS"Feb 18, 2015 - Labels: Deals , News , Panda Express .... Chicken Dairy Queen Del Taco Domino's Dunkin' Donuts El Pollo Loco Hardee's In-N-Out Jack in the Box KFC Krispy ..."
p10
a.