(lp0
S"Feb 20, 2015 - Fox News, whose escape from reality is even greater than the satire printed in The Onion has a thing about Climate Change and it isn't good."
p1
aS"Feb 20, 2015 - July 29, 2014 HKA Texas News, Porter, Restaurants ... Valley Ranch Town Center adds Chickfila, Chili's, El Pollo Loco, Freebirds, Subway, T. Jin's Asian Caf ..."
p2
aS"Feb 20, 2015 - July 29, 2014 HKA Texas News, Porter, Restaurants ... Valley Ranch Town Center adds Chickfila, Chili's, El Pollo Loco, Freebirds, Subway, T. Jin's Asian Caf ..."
p3
aS"Feb 19, 2015 - Valley Ranch Town Center adds Chickfila, Chili's, El Pollo Loco, Freebirds, Subway, T. Jin's Asian Caf and others ... What's NEW and NEWS in HKA Texas!"
p4
aS"Feb 20, 2015 - ... Shack (SHAK), El Pollo Loco (LOCO), and Zoe's Kitchen (ZOES) highlighting the ... The most recent news for Panera, however, has not been great as the stock ..."
p5
aS"Feb 19, 2015 - Posted in News on Thursday, February 19, 2015 5:26 pm. ... facility in Humble  El Pollo Loco celebrates growing presence in Houston by hosting 'Loco Fun Day' ..."
p6
aS"Feb 19, 2015 - USC football, Trojans basketball and other sports news ... The sale also includes the El Pollo Loco and Carl's Jr., which means a new development is probably ..."
p7
aS'Feb 19, 2015 - You can access more in-depth stories and analysis, as well as news not found on any other website or any other media outlet. You also get free eNewsletters, ...'
p8
aS'Feb 20, 2015 - CHICKEN CORN CHOWDER El Pollo Loco Copycat Recipe Makes 8 servings. 8 slices bacon, chopped 1 pound skinless, boneless chicken breasts, cut into ...'
p9
aS'Feb 20, 2015 - This Arizona State Board for Charter Schools report details areas where Compass High School fails or meets standards. The board used the report to help ...'
p10
a.