(lp0
S'Feb 23, 2015 - Cody Sandberg, 35, was in 5th District Court for a preliminary hearing connected to an alleged assault that occurred near the El Pollo Loco restaurant in ...'
p1
aS'Feb 23, 2015 - El Pollo Loco Corp., the California-based, grilled chicken chain, has signed on as its first tenant. CBRE, the commercial real estate company that negotiated the ...'
p2
aS'Feb 23, 2015 - New Charity Classic Sponsorship: El Pollo Loco. Posted on ... Excited to announce El Pollo Loco as a sponsor of the J.J. Watt Charity Classic. ... News Feed.'
p3
aS"Feb 23, 2015 - ... as Shake Shack, Zoe's Kitchen and El Pollo Loco saw their stock sizzle in recent public trading debuts. ... Breaking news about economic and business issues."
p4
aS"Feb 23, 2015 - February 23, 2015 HKA Texas News, Humble ... Valley Ranch Town Center adds Chickfila, Chili's, El Pollo Loco, Freebirds, Subway, T. Jin's Asian Caf and ..."
p5
aS"Feb 24, 2015 - February 24, 2015 Fall Creek, HKA Texas News ... Valley Ranch Town Center adds Chickfila, Chili's, El Pollo Loco, Freebirds, Subway, T. Jin's Asian Caf and ..."
p6
aS"Feb 24, 2015 - National News  Los Angeles Real Estate News ... Marshall's, PetSmart, ULTA Cosmetics, Anna's Linens, Dollar Tree, El Pollo Loco, Starbucks and Chipotle."
p7
aS'Feb 23, 2015 - Here are the restaurants that were cited with violations directly contributes to increasing the risk of food-borne illness or injury between Feb. 9 to 17.'
p8
aS'Feb 24, 2015 - Pollo a la brasa is essentially roast chicken bathed in spices, a meal eaten ... The Peruvian newspaper El Comercio estimates that nearly three-quarters of all ...'
p9
aS'Feb 24, 2015 - DOW JONES, A NEWS CORP COMPANY ..... Stocks to Watch: Shake Shack, Lumber Liquidators, EMC  Investors Suddenly Not So Crazy About El Pollo Loco.'
p10
a.