(lp0
S'Feb 25, 2015 - Santa Clarita was rocked by the news last year that El Pollo Loco would be vacating its long held spot on Magic Mountain Parkway after what is rumored to be ...'
p1
aS'Feb 25, 2015 - For more information on El Pollo Loco, visit our website at El PolloLoco.com. ... with the My Loco Rewards program for exclusive news, rewards and previews.'
p2
aS'Feb 25, 2015 - Home News Church Relocation Leads Way for New Broadway Retail ... El Pollo Loco has signed a long-term ground lease for the western-most pad. Neil Board ...'
p3
aS'Feb 24, 2015 - Pollo a la brasa is essentially roast chicken bathed in spices, a meal eaten ... The Peruvian newspaper El Comercio estimates that nearly three-quarters of all ...'
p4
aS"Feb 24, 2015 - February 24, 2015 Fall Creek, HKA Texas News ... Valley Ranch Town Center adds Chickfila, Chili's, El Pollo Loco, Freebirds, Subway, T. Jin's Asian Caf and ..."
p5
aS"Feb 24, 2015 - National News  Los Angeles Real Estate News ... Marshall's, PetSmart, ULTA Cosmetics, Anna's Linens, Dollar Tree, El Pollo Loco, Starbucks and Chipotle."
p6
aS'Feb 25, 2015 - San Diego police on Wednesday released their first full-year report in more than a decade on the racial profiles of drivers pulled over in traffic stops. The data ...'
p7
aS'Feb 24, 2015 - DOW JONES, A NEWS CORP COMPANY ..... Stocks to Watch: Shake Shack, Lumber Liquidators, EMC  Investors Suddenly Not So Crazy About El Pollo Loco.'
p8
aS'Feb 25, 2015 - Ed Hocken. He had a news magazine show on MSNBC and got fired from that. ... Jim Varney. El Pollo Loco requires all employees to wear hats or hairnets ...'
p9
aS"Feb 24, 2015 - El Pollo Loco debuted a limited time baja shrimp menu item and Carl's Jr. - Hardee's teamed ... Surimi Forum 2016 blog: Catch the latest news on the sector here ..."
p10
a.