(lp0
S'Feb 25, 2015 - Santa Clarita was rocked by the news last year that El Pollo Loco would be vacating its long held spot on Magic Mountain Parkway after what is rumored to be ...'
p1
aS'Feb 25, 2015 - For more information on El Pollo Loco, visit our website at El PolloLoco.com. ... with the My Loco Rewards program for exclusive news, rewards and previews.'
p2
aS'Feb 25, 2015 - Home News Church Relocation Leads Way for New Broadway Retail ... El Pollo Loco has signed a long-term ground lease for the western-most pad. Neil Board ...'
p3
aS'Feb 25, 2015 - Adjacent to high traffic El Pollo Loco.  Park Place regional mall hub.  Close to Davis-Monthan Air Force Base main entry.  Located immediatley east of the NEC ...'
p4
aS'Feb 26, 2015 - This is a sponsored post, but all opinions are my own. In time for Easter (and Lent), El Pollo Loco is offering shrimp dishes. For me what this means is that I can ...'
p5
aS"Feb 26, 2015 - Valley Ranch Town Center adds Chickfila, Chili's, El Pollo Loco, Freebirds, Subway, T. Jin's Asian Caf and others ... What's NEW and NEWS in HKA Texas!"
p6
aS"Feb 26, 2015 - February 26, 2015 Fall Creek, For Birthdays, HKA Texas News, Things to do in ... Valley Ranch Town Center adds Chickfila, Chili's, El Pollo Loco, Freebirds, ..."
p7
aS'Feb 25, 2015 - San Diego police on Wednesday released their first full-year report in more than a decade on the racial profiles of drivers pulled over in traffic stops. The data ...'
p8
aS'Feb 25, 2015 - Ed Hocken. He had a news magazine show on MSNBC and got fired from that. ... Jim Varney. El Pollo Loco requires all employees to wear hats or hairnets ...'
p9
aS'Feb 25, 2015 - The TJX Companies, Inc. (TJX) reported earnings of 93 cents per share in the fourth quarter of fiscal 2015, beating the Zacks Consensus Estimate of 90 cents by ...'
p10
a.