(lp0
S"Feb 27, 2015 - El Pollo Loco moved up several spots to land in second place (49%), closely followed by rapidly growing Moe's Southwest Grill (48%) and Del Taco (47%)."
p1
aS'Feb 26, 2015 - This is a sponsored post, but all opinions are my own. In time for Easter (and Lent), El Pollo Loco is offering shrimp dishes. For me what this means is that I can ...'
p2
aS'Feb 27, 2015 - El Pollo Loco owns, operates and franchises over 400 El Pollo Loco Restaurants with most operated in Western United States. Incoming franchisees must have ...'
p3
aS"Feb 26, 2015 - Valley Ranch Town Center adds Chickfila, Chili's, El Pollo Loco, Freebirds, Subway, T. Jin's Asian Caf and others ... What's NEW and NEWS in HKA Texas!"
p4
aS'Feb 27, 2015 - New Charity Classic Sponsorship: El Pollo Loco. Posted on ... Excited to announce El Pollo Loco as a sponsor of the J.J. Watt Charity Classic. ... News Feed.'
p5
aS'Feb 27, 2015 - Recent News | Recent Reviews | Current Deals & Specials .... El Pollo Loco - New, limited-time Baja Shrimp menu which includes Avocado Shrimp Salad, ...'
p6
aS"Feb 27, 2015 - El Pollo Loco debuted a limited time baja shrimp menu item and Carl's Jr. .... and that's because at Fishing News International we strongly believe that change is ..."
p7
aS"Feb 27, 2015 - It's now replaced with an El Pollo Loco and Chase branch. ..... When the news came out I remember that we stopped drinking tap water and only drank distilled ..."
p8
aS'Feb 27, 2015 - Creating Midland, Texas traditions in Mexican food since 1957.'
p9
aS'Feb 27, 2015 - Customers dine during dinner service at El Sombrero restaurant, 807 S. Main ... that night, so it would be the enchiladas de carne ($16) and tamal de pollo ($16).'
p10
a.