(lp0
S'Feb 2, 2015 - CONTACT: Media Contact: Alecia Pulman , ICR LOCO@icrinc.com 203.682.8200. El Pollo Loco. Source: El Pollo Loco. News Provided by Acquire Media.'
p1
aS'Feb 2, 2015 - Undercurrent News. Restaurant chain El Pollo Loco is adding Baja Shrimp as a seasonal option through the spring, the company said Monday. There will also ...'
p2
aS'Feb 2, 2015 - El Pollo Loco Introduces New Baja Shrimp Seafood News.'
p3
aS"Feb 2, 2015 - 2, 2015 (GLOBE NEWSWIRE) -- El Pollo Loco (Nasdaq:LOCO), the nation's leading fire-grilled chicken chain, today announced the addition of Baja ... El Pollo Loco introduces new Baja Shrimp across menu favorites ... other news releases in"
p4
aS'Feb 3, 2015 - Regionally speaking, Arizona is perfectly positioned at the four corners of fast food. It has long enjoyed both worlds of Whataburger and In-N-out as well as El ...'
p5
aS'Feb 3, 2015 - ... in the wake of such exposure. The bad news is that dishes like this one still exist on their menu. ... 10 g fat (6 g saturated), 987 mg sodium. 12. El Pollo Loco ...'
p6
aS"Feb 2, 2015 - DOW JONES, A NEWS CORP COMPANY .... Photo: Bloomberg News. By ... Since El Pollo Loco Holdings Inc. LOCO 1.70 % 's 60% pop last summer, its shares ..."
p7
aS"Feb 2, 2015 - Access to Jim Cramer's daily blog; Intraday commentary and news; Real-time trading forums ... El Pollo Loco, Chick-fil-A... Burritos? Chipolte, El Pollo Loco."
p8
aS"Feb 2, 2015 - ETF News And Commentary ... including The Habit Restaurants (HABT), El Pollo Loco Holdings (LOCO) and Zoe's ... Zacks News for ( SHAK, FPX, IPO, XLY ) ..."
p9
aS"Feb 3, 2015 - From Judge Antonio Riojas' third-floor office on East Alameda Street, he can see it looming to the northwest  the new Pima County Consolidated Justice Court."
p10
a.