(lp0
S"Feb 4, 2015 - At El Pollo Loco we go to crazy lengths to create Mexican-inspired entrees that are made with ... Restaurant Beverage-Snack Brand in Nation's Restaurant News ..."
p1
aS'Feb 6, 2015 - Pollo Norte often sells out of its Mexico City-style rotisserie chicken by 6:30 p.m. .... Pollos a la Brasa El Inka, the Gresham gem, cooks its Peruvian-style chickens in a wood-fired rotisserie. Wander .... The quality and taste of the Pollo Loco chicken was excellent and even with a heavy hispanic .... Your Regional News Pages.'
p2
aS'Feb 4, 2015 - Get reviews, hours, directions, coupons and more for El Pollo Loco at 1440 W Walnut St, Garland, TX. Search for other Fast Food Restaurants in Garland on ...'
p3
aS"Feb 4, 2015 - ... with public debuts and its representation of the underwriters in the fast-casual restaurant IPOs of El Pollo Loco Inc. and Zoe's Kitchen Inc., Rodgers said."
p4
aS'Feb 4, 2015 - By J.M. Scott, San Antonio Express-News ..... Express-News  ExpressNews.com  iPad app  eEdition  Search Our News Archive  Manage Your Subscription.'
p5
aS"Feb 4, 2015 - February 4, 2015 HKA Texas News, Restaurants ... Valley Ranch Town Center adds Chickfila, Chili's, El Pollo Loco, Freebirds, Subway, T. Jin's Asian Caf and ..."
p6
aS'Feb 4, 2015 - El Pollo Loco: 10% off senior discounts varies by location (55+) ..... Moon Pies and Twinkies cheap, and you can watch Faux News for free are one star hotels.'
p7
aS'Feb 5, 2015 - ... Family Dollar, Dollar General, Yogurtland, Clarks Nutritional Centers, King Taco, Sherwin Williams, Sears Appliance, El Pollo Loco, Regency Movie Theatres, ...'
p8
aS'Feb 5, 2015 - Maybe eat at nicer places than El Pollo Loco? Kidding. Shit is good. Though maybe explain to her a bit more about how the intimacy stuff makes you feel ...'
p9
aS"Feb 5, 2015 - Starbucks, Dunkin' Donuts, Jack in the Box, El Pollo Loco, Bonefish Grill, Red Lobster, ... Menu Tracker: New items from Burger King, Freshii, Pollo Campero,"
p10
a.