(lp0
S'Feb 10, 2015 - Stocks in the News ... (PNRA - Analyst Report) and El Pollo Loco Holdings Inc (LOCO - Snapshot Report), ... Zacks News for ( MCD, CMG, LOCO, PNRA, SHAK ) ...'
p1
aS'Feb 9, 2015 - El Pollo Loco Holdings, Inc. (LOCO - Snapshot Report) has an Earnings ESP of +8.33% and a Zacks Rank #2 ... Zacks News for ( PNRA, TXRH, LOCO, NDLS ) ...'
p2
aS"Feb 9, 2015 - MCD stock fell just over 1% on the news; shares are now down about 3% in ... and El Pollo LoCo Holdings Inc (NASDAQ:LOCO) hasn't helped MCD stock either."
p3
aS'Feb 9, 2015 - News in Focus .... held recent operations roles in restaurant brands such as Fresh Enterprises, Inc. and El Pollo Loco. ... The news you need, when you need it.'
p4
aS"Feb 9, 2015 - Cramer says this is a very big currency play, but the good news is it's ... The next user asks about El Pollo Loco (LOCO - Get Report) , and Cramer says he likes ..."
p5
aS"Feb 9, 2015 - The two buildings include three tenants: 901 Bar & Grill at 2902 South Figueroa St, Carl's Jr at 2912 South Figueroa St, and El Pollo Loco at 2904 South ..."
p6
aS'Feb 8, 2015 - If you guys live in Vegas you can see me on channel 3 news at 4:30 or 5:30 am they .... at work and calling them her uncle and how much u love el pollo loco.'
p7
aS"Feb 9, 2015 - February 9, 2015 LOCAL NEWS. Share ... Valley Ranch Town Center adds Chickfila, Chili's, El Pollo Loco, Freebirds, Subway, T. Jin's Asian Caf and others."
p8
aS"Feb 9, 2015 - Save Money. Fry's Weekly Ads  Fry's Digital Coupons  Fry's Promotions  Home/; News/; Local news/; Government and politics ..."
p9
aS'Feb 9, 2015 - El Pollo Loco shows it correctly and he has done no manipulation on the image. .... Thurrott Daily email newsletter to stay up to date on the latest Microsoft news!'
p10
a.