(lp0
S'Mar 9, 2015 - El Pollo Loco Holdings, Inc. (LOCO) is set to report fourth-quarter and full year 2014 results on Mar 12, after the ... Zacks News for ( SONC, DRI, LOCO, PBPB ) ...'
p1
aS"Mar 10, 2015 - Outposts of El Pollo Loco can be found in California, Nevada, Utah, Texas, and ... Positioning  El Pollo Loco's Sales Rose 5 Percent and More Industry News ..."
p2
aS'Mar 9, 2015 - Looking Ahead of Wall Street: Urban Outfitters, Shake Shack, El Pollo Loco ... El Pollo Loco is set to announce its fourth quarter 2014 earnings results on Thursday, ... an analyst upgrades/downgrades the stock or when significant news hits the ...'
p3
aS'Mar 9, 2015 - A man in his 20s was shot and made it into an El Pollo Loco restaurant in an ... A news videographer at the scene said investigators were focusing their attention ...'
p4
aS'Mar 10, 2015 - DOW JONES, A NEWS CORP COMPANY ... is a network of leading companies in the worlds of diversified media, news, education, and information services.'
p5
aS"Mar 10, 2015 - Nation's Restaurant News. Search ... Louisiana Kitchen, KFC and El Pollo Loco as well as Steak n Shake and Taco Bell, the gap is even worse: 730 basis points."
p6
aS'Mar 10, 2015 - Economic News This Week. The Federal ... El Pollo Loco has signed a franchise agreement for the development of 5 restaurants in the Salt Lake City area.'
p7
aS'Mar 10, 2015 - Earnings: Dollar General, Hovnanian, Vail Resorts, El Pollo Loco, Springleaf, ... Global Business and Financial News, Stock Quotes, and Market Data and ...'
p8
aS'Mar 9, 2015 - "There\'s no economic news (on Monday) so markets are going to reassess .... Earnings: Dollar General, Hovnanian, Vail Resorts, El Pollo Loco, Springleaf, ...'
p9
aS"Mar 9, 2015 - Market News  Stock Ideas  Dividends  Market Outlook  Investing Strategy  ETFs & Funds  Earnings  PRO  Long Ideas  Short Ideas  Cramer's Picks  IPOs ..."
p10
a.