(lp0
S"Mar 10, 2015 - Outposts of El Pollo Loco can be found in California, Nevada, Utah, Texas, and ... Positioning  El Pollo Loco's Sales Rose 5 Percent and More Industry News ..."
p1
aS'Mar 11, 2015 - Sonic Drive-In, Qdoba Mexican Grill, others also introduce new menu items.'
p2
aS'Mar 11, 2015 - Reuters Signs a News Deal with Red Bull, But Is That a Good Thing? .... Grilled chicken maker El Pollo Loco LOCO 2.92% is faring a bit better, with the stock ...'
p3
aS'Mar 10, 2015 - Economic News This Week. The Federal ... El Pollo Loco has signed a franchise agreement for the development of 5 restaurants in the Salt Lake City area.'
p4
aS'Mar 10, 2015 - DOW JONES, A NEWS CORP COMPANY ... is a network of leading companies in the worlds of diversified media, news, education, and information services.'
p5
aS'Mar 10, 2015 - Earnings: Dollar General, Hovnanian, Vail Resorts, El Pollo Loco, Springleaf, ... Global Business and Financial News, Stock Quotes, and Market Data and ...'
p6
aS'Mar 11, 2015 - Crossroads Village is anchored by an Aldi and was (previously) also home to a popular and successful location of El Pollo Loco. In early 2010, William "Willie" ...'
p7
aS'Mar 11, 2015 - In other manufacturing news, January brought a 0.2% retreat in the Federal ... from Jamba, RE/MAX, El Pollo Loco, FTD, Dollar General and Aeropostale.'
p8
aS'Mar 11, 2015 - Earnings Season These selected companies are scheduled to release quarterly financial results: Aeropostale (ARO); Dollar General (DG); El Pollo Loco (LOCO) ...'
p9
aS'Mar 11, 2015 - It was a Thursday night around 9 pm when I decided it was finally time for dinner. For some reason, I was craving El Pollo Loco but the two mile journey might as ...'
p10
a.