(lp0
S'Mar 13, 2015 - El Pollo Loco enjoyed a stronger-than-expected earnings report, giving LOCO ... On news of the El Pollo Loco earnings report, LOCO stock is up about 12% to ...'
p1
aS'Mar 13, 2015 - El Pollo Loco, the Mexican-style chicken chain that went public in July, may only have restaurants in ... The buzz keeps growing for El Pollo Loco (LOCO), which revealed very strong sales Thursday after the bell. ..... 2016 Cable News Network.'
p2
aS'Mar 13, 2015 - The right ingredients are in place for this to be a slow yet gradual rise in 2015, but El Pollo Loco will need to keep getting things right.'
p3
aS"Mar 12, 2015 - El Pollo Loco Holdings Inc.'s systemwide same-store sales rose 7.6 percent for the ... You can access more in-depth stories and analysis, as well as news not ..."
p4
aS"Mar 12, 2015 - Shares of El Pollo Loco (LOCO) are up in after-hours trading today as the company ... Access to Jim Cramer's daily blog; Intraday commentary and news ..."
p5
aS"Mar 12, 2015 - El Pollo Loco's shares are soaring on news that the company had another successful quarter. Investors believe the Tex-Mex chicken chain could be the next ..."
p6
aS"Mar 12, 2015 - Shares of El Pollo Loco are surging after the fast food chain reported strong sales for its fourth quarter. The chain's revenue increased 12% to $90 million for the ..."
p7
aS'Mar 12, 2015 - El Pollo Loco Holdings Inc. (NASDAQ: LOCO) reported its fourth-quarter financial results after markets closed on Thursday. The crazy chicken had $0.14 in ...'
p8
aS"Mar 13, 2015 - Is El Pollo Loco's pop meaningful? Or just another movement?"
p9
aS'Mar 13, 2015 - El Pollo Loco swings to a profit in the fourth quarter after posting higher sales and lower interest expenses.'
p10
a.