(lp0
S'Mar 16, 2015 - El Pollo Loco stock can be quite volatile, but it also offers mouthwatering potential for growth in the years ahead.'
p1
aS'Mar 16, 2015 - We engage members via e-mails featuring news of promotional offers, member rewards, and product previews. Members are offered complimentary two-piece ...'
p2
aS"Mar 17, 2015 - An El Pollo Loco opened in the center in 2008, but closed in 2011 amidst the chain's struggles in the Atlanta market. Today, the former chicken joint is an urgent ..."
p3
aS"Mar 16, 2015 - September 24, 2014 HKA Texas News, New Caney ... Valley Ranch Town Center adds Chickfila, Chili's, El Pollo Loco, Freebirds, Subway, T. Jin's Asian Caf ..."
p4
aS"0:00-0:14 El Pollo Loco's Baja Shrimp Entrees 2. ... June 15, 1985 commercials and NBC News Special ..."
p5
aS'Mar 16, 2015 - Market News  Stock Ideas  Dividends  Market Outlook  Investing Strategy  ETFs & ... El Pollo Loco (NASDAQ:LOCO) - 7.6%; Noodles (NASDAQ:NDLS) - 1.3% ...'
p6
aS'Mar 16, 2015 - Find 1 listings related to El Pollo Loco in Smyrna on YP.com. See reviews, photos, directions, phone numbers and more for El Pollo Loco locations in Smyrna, ...'
p7
aS'Mar 17, 2015 - Wendys Taco Bell KFC El Pollo Loco Del Taco ... most viewed right now. 11. Video inside Apr 9 - Socialism in Venezuela 70 comments 1 day ago @news ...'
p8
aS"Mar 15, 2015 - Filed under: Company News, Walt Disney, Travel, Entertainment Industry, Travel Industry Stuart .... El Pollo Loco's Crazy Freshman Year as a Public Company."
p9
aS'Mar 16, 2015 - ... more Wall Street Pros; Intraday commentary & news; Ultra-actionable trading ... Diversified model portfolio of dividend stocks; Alerts when market news affect ...'
p10
a.