(lp0
S'Mar 18, 2015 - El Pollo Loco rallied after better-than-expected fourth-quarter results.This could happen again when results for the first quarter of 2015 come out.However, wit.'
p1
aS'Mar 18, 2015 - Updated El Pollo Loco reports higher profit; sales slide. 3/10 .... More News from MarketWatch ... An immersive hub for financial news, analysis, market data.'
p2
aS'Mar 18, 2015 - Updated El Pollo Loco reports higher profit; sales slide. 3/10. Bojangles profit dips, but results top .... More News from MarketWatch. Top Stories. Trending.'
p3
aS"Mar 18, 2015 - Local participating restaurants include the Broken Yolk Cafe, California Pizza Kitchen, Chili's, El Pollo Loco, Sombrero Mexican Food, Souplantation, The Kebab ..."
p4
aS"Mar 17, 2015 - Economic News This Week ... Comparable Store Sales Reports: Casey's General Store up 14.1 percent, El Pollo Loco (system up 7.6 percent, company-owned ..."
p5
aS"Mar 17, 2015 - El Pollo Loco's business is on fire  Powdered alcohol will come to America this summer. Arts & Entertainment; Business; Buffalo Wild Wings; Business Insider ..."
p6
aS'Mar 18, 2015 - You can access more in-depth stories and analysis, as well as news not found on any other website or any other media outlet. You also get free eNewsletters, ...'
p7
aS"Mar 18, 2015 - March 18, 2015 HKA Texas News, Kingwood, Things to do in Humble, Kingwood, ... Valley Ranch Town Center adds Chickfila, Chili's, El Pollo Loco, Freebirds, ..."
p8
aS'Mar 18, 2015 - News  Arts  Music  Screens  Food & Drink  Calendar  Best Of SA  Special Issues ..... Subscribe now to get the latest news delivered right to your inbox.'
p9
aS"Mar 19, 2015 - AAMCO, El Pollo Loco, Charley's Grilled Sub-. Dairy Queen, MaidPro, Saxby's Coffee. Little Caesars, Jersey Mike's, Mooyah Burger's & Fries. Dunkin Donuts ..."
p10
a.