(lp0
S'Mar 18, 2015 - El Pollo Loco rallied after better-than-expected fourth-quarter results.This could happen again when results for the first quarter of 2015 come out.However, wit.'
p1
aS'The Famous San Diego Chicken Commercial El Pollo Loco. ... ABC 10 News 520 views. 3:54. Red Door ...'
p2
aS'Mar 18, 2015 - Updated El Pollo Loco reports higher profit; sales slide. 3/10 .... More News from MarketWatch ... An immersive hub for financial news, analysis, market data.'
p3
aS'Mar 18, 2015 - Updated El Pollo Loco reports higher profit; sales slide. 3/10. Bojangles profit dips, but results top .... More News from MarketWatch. Top Stories. Trending.'
p4
aS"Mar 18, 2015 - Local participating restaurants include the Broken Yolk Cafe, California Pizza Kitchen, Chili's, El Pollo Loco, Sombrero Mexican Food, Souplantation, The Kebab ..."
p5
aS'Mar 19, 2015 - Find 3 listings related to El Pollo Loco in Greeley on YP.com. See reviews, photos, directions, phone numbers and more for El Pollo Loco locations in Greeley, ...'
p6
aS'Mar 18, 2015 - You can access more in-depth stories and analysis, as well as news not found on any other website or any other media outlet. You also get free eNewsletters, ...'
p7
aS"Mar 18, 2015 - March 18, 2015 HKA Texas News, Kingwood, Things to do in Humble, Kingwood, ... Valley Ranch Town Center adds Chickfila, Chili's, El Pollo Loco, Freebirds, ..."
p8
aS'Mar 19, 2015 - Submit Your News ... But another feature of the 700 square foot shop just west of Pollo Loco on William Street is touted by the .... El Dorado Savings Bank Full .'
p9
aS'Mar 18, 2015 - News  Arts  Music  Screens  Food & Drink  Calendar  Best Of SA  Special Issues ..... Subscribe now to get the latest news delivered right to your inbox.'
p10
a.