(lp0
S"Mar 23, 2015 - Danger Zone: El Pollo Loco (LOCO) Check out this week's Danger Zone interview ... However, this pop seems to be a case of investors thinking that any news is ..."
p1
aS'Mar 23, 2015 - El Pollo Loco Holdings (LOCO) stock quote, charts, historical data, financials. El Pollo Loco Holdings Inc operates limited service ... View All LOCO News ...'
p2
aS"Mar 23, 2015 - News in Focus .... El Pollo Loco, Potbelly Sandwich Shop, Pita Pit and Freddy's Frozen Custard & Steakburgers logged ... The news you need, when you need it."
p3
aS"Mar 23, 2015 - March 23, 2015 LOCAL NEWS. Share .... Valley Ranch Town Center adds Chickfila, Chili's, El Pollo Loco, Freebirds, Subway, T. Jin's Asian Caf and others."
p4
aS"Mar 23, 2015 - One-stop complete news resource for news, ideas, trends, innovations, issues ... QSR-plus chains Chick-fil-A, In-N-Out Burger, Culver's, El Pollo Loco, Potbelly ..."
p5
aS'Mar 23, 2015 - Home/; News/; Blogs/; Street Smarts .... landing field for several U.S. Army planes that were mapping out an aerial mail route from San Diego to El Paso, Texas.'
p6
aS"Mar 22, 2015 - An Al Tazaj restaurant in Buraidah, Saudi Arabia. A California Fried ... A Pollo Campero location in San Salvador, El Salvador ... Nation's Restaurant News."
p7
aS'Mar 23, 2015 - You can access more in-depth stories and analysis, as well as news not found on any other website or any other media outlet. You also get free eNewsletters, ...'
p8
aS'Mar 23, 2015 - Updated El Pollo Loco reports higher profit; sales slide. 5:20 P.M. ET. Bojangles profit dips, but results .... More News from MarketWatch. Top Stories. Trending.'
p9
aS"Mar 23, 2015 - El Pollo Loco. Where: 390 S. Mason, Katy; 9540 FM 1960 ...... Restaurants & Bars News ... Some good news coming out of the 'Star Wars' universe ..."
p10
a.