(lp0
S'Mar 23, 2015 - El Pollo Loco Holdings (LOCO) stock quote, charts, historical data, financials. El Pollo Loco Holdings Inc operates limited service ... View All LOCO News ...'
p1
aS"Mar 23, 2015 - Danger Zone: El Pollo Loco (LOCO) Check out this week's Danger Zone interview ... However, this pop seems to be a case of investors thinking that any news is ..."
p2
aS'Mar 23, 2015 - El Pollo Loco is a restaurant chain based in California that serves Mexican-style grilled chicken with an ... case of investors thinking that any news is good news.'
p3
aS'Mar 24, 2015 - Construction of El Pollo Loco Humble has begun at 9540 FM 1960 Bypass in Humble, ... March 24, 2015 HKA Texas News, Humble, Restaurants ... El Pollo Loco or The Crazy Chicken opened its first US restaurant in 1980 in Los Angeles.'
p4
aS"Mar 24, 2015 - Such brands include Chick-fil-A, In-N-Out Burger, Culver's, El Pollo Loco, Potbelly Sandwich Shop, Pita Pit and Freddy's Frozen Custard & Steakburgers and ..."
p5
aS"Mar 23, 2015 - News in Focus .... El Pollo Loco, Potbelly Sandwich Shop, Pita Pit and Freddy's Frozen Custard & Steakburgers logged ... The news you need, when you need it."
p6
aS"Mar 24, 2015 - The two securities were Herbalife (HLF) and El Pollo Loco Holdings (LOCO). ... The news doesn't usually change things when it comes to Online Trading ..."
p7
aS'Mar 24, 2015 - Taco Bell Corp. will launch a Biscuit Taco nationwide on Thursday, along with a new crispy chicken option and a marketing campaign designed to spark a ...'
p8
aS"Mar 23, 2015 - One-stop complete news resource for news, ideas, trends, innovations, issues ... QSR-plus chains Chick-fil-A, In-N-Out Burger, Culver's, El Pollo Loco, Potbelly ..."
p9
aS'Mar 24, 2015 - Iconiq Capital Llc performance, aum, news, profile and returns. ... 45, LOCO - EL POLLO LOCO HLDGS INC, LOCO, 0, 0, 0.00, 0.05, 0.00, -100.00, -9,300, Sold ...'
p10
a.