(lp0
S'Mar 24, 2015 - Construction of El Pollo Loco Humble has begun at 9540 FM 1960 Bypass in Humble, ... March 24, 2015 HKA Texas News, Humble, Restaurants ... El Pollo Loco or The Crazy Chicken opened its first US restaurant in 1980 in Los Angeles.'
p1
aS'Mar 25, 2015 - El Pollo Loco Sold in Henderson. elpollo. El Pollo Loco Sold in Henderson. 22:07 25 March in Just Closed, News by Makayla Turner  0 Comments. 0 Likes ...'
p2
aS"Mar 24, 2015 - Such brands include Chick-fil-A, In-N-Out Burger, Culver's, El Pollo Loco, Potbelly Sandwich Shop, Pita Pit and Freddy's Frozen Custard & Steakburgers and ..."
p3
aS"Mar 25, 2015 - Posted in News on Wednesday, March 25, 2015 4:38 pm. ... facility in Humble  El Pollo Loco celebrates growing presence in Houston by hosting 'Loco Fun Day' ..."
p4
aS'Mar 24, 2015 - Taco Bell Corp. will launch a Biscuit Taco nationwide on Thursday, along with a new crispy chicken option and a marketing campaign designed to spark a ...'
p5
aS"Mar 24, 2015 - The two securities were Herbalife (HLF) and El Pollo Loco Holdings (LOCO). ... The news doesn't usually change things when it comes to Online Trading ..."
p6
aS'Mar 25, 2015 - Member & Headquarter News. 6. Industry .... cities within a 100 mile radius including Mobile, AL. .... franchisees who currently operate 13 El Pollo Loco stores.'
p7
aS'Mar 24, 2015 - Iconiq Capital Llc performance, aum, news, profile and returns. ... 45, LOCO - EL POLLO LOCO HLDGS INC, LOCO, 0, 0, 0.00, 0.05, 0.00, -100.00, -9,300, Sold ...'
p8
aS'Mar 24, 2015 - Hilltop Park Associates Llc performance, aum, news, profile and returns. ... 32, LOCO - EL POLLO LOCO HLDGS INC, LOCO, 0, 0, 0.00, 1.76, 0.00, -100.00 ...'
p9
aS"Mar 25, 2015 - El Pollo Loco (LOCO) is an Ugly Duckling set-up trying to push up off of a ... Personal or not, investors didn't take kindly to the news, sending GOGO down to its ..."
p10
a.