(lp0
S"Mar 26, 2015 - Shake Shack (NYSE:SHAK), El Pollo Loco (NASDAQ:LOCO), and Zoe's Kitchen (NYSE:ZOES) are three restaurant stocks firing on all cylinders and offering ..."
p1
aS'Mar 27, 2015 - After seeing its share price hit hard after going IPO, shares of El Pollo Loco have soared as business is improving. This should, naturally, entice restaurant-o.'
p2
aS'Mar 26, 2015 - Find El Pollo Loco\'s price list in the USA which offers "Classsic Salad, Burrito, ... GOOD NEWS ... El Pollo Loco makes primarily Mexican chicken entrees.'
p3
aS"Mar 26, 2015 - News Feed. Yazmine Herrera added a new photo  at El Camaron Loco 2. October 15, 2015  Aurora, CO, United States . Yazmine Herrera's photo. 25 Likes."
p4
aS"Mar 26, 2015 - March 26, 2015 Atascocita, HKA Texas News, ShopHKA ... Valley Ranch Town Center adds Chickfila, Chili's, El Pollo Loco, Freebirds, Subway, T. Jin's Asian ..."
p5
aS"Mar 27, 2015 - March 27, 2015 Generation Park, HKA Texas News, Summerwood. Share ... Valley Ranch Town Center adds Chickfila, Chili's, El Pollo Loco, Freebirds, Subway, ..."
p6
aS"Mar 27, 2015 - Save Money. Fry's Weekly Ads  Fry's Digital Coupons  Fry's Promotions  Home/; News/; Local news/; Government and politics ..."
p7
aS"Mar 27, 2015 - Furious 7 picks up more than a year after Dom's (Vin Diesel) and Brian's (Paul Walker) crew has returned to the States with their pardons. We find them ..."
p8
aS"Mar 27, 2015 - El Pollo Loco established a nonprofit 501 (c) charity in an effort to support local communities served by the chain's 175 restaurants. Through this organization ..."
p9
aS'Mar 26, 2015 - ... said Thursday at a news conference, according to the New York Daily News. .... while the officers on the paddy wagon take a leisurely lunch at El Pollo Loco?'
p10
a.