(lp0
S'Mar 30, 2015 - ... this article. Industry News Retailing & Restaurants ... Officials from the city of Folsom say El Pollo Loco is planning a restaurant at this more. Sonya Sorich ...'
p1
aS"Mar 30, 2015 - El Pollo Loco planning to fill former KFC space in Folsom. Written By Sacramento Business Journal ... National & World News. 'SNL' mocks GOP with hilarious ..."
p2
aS'Mar 30, 2015 - Representatives from Pollo Tropical will only commit to a "late spring" opening, but ... Valley Ranch Town Center adds Chickfila, Chili\'s, El Pollo Loco, Freebirds, Subway, T. Jin\'s Asian Caf and others ... What\'s NEW and NEWS in HKA Texas!'
p3
aS'Mar 31, 2015 - ... (CMG) and popular recent IPOs Shake Shack (SHAK) and El Pollo Loco (LOCO). ... You will find the latest news, market analysis, and education to help you ...'
p4
aS'Mar 30, 2015 - Stock: El Pollo LoCo Holdings Inc. (LOCO). Charles Payneno disclosures; Matt ... 2016 FOX News Network, LLC. All rights reserved. FAQ - Privacy Policy ...'
p5
aS'Mar 31, 2015 - Costa Mesa-based El Pollo Loco Holdings Inc. plans to enter the Dallas ..... Alto and named consultant Al Nordin its chief executive, according to a news report.'
p6
aS'Mar 30, 2015 - Tags shooting crime investigation news abq albuquerque ... ElPolloLoco ... And this after KOAT smeared the Black Berets all over the news media as the ...'
p7
aS'Mar 31, 2015 - FREE Breaking News Alerts from StreetInsider.com! ... El Pollo Loco Announces the Grand Opening of New Las Vegas Restaurant  IMPORTANT INVESTOR ...'
p8
aS'Mar 30, 2015 - News  Sports  Opinion  Outdoors  Obituaries  Buy & Sell ..... El Pollo Loco has the best fast food (and healthy) chicken out there, PERIOD! Get one in Billings!'
p9
aS"Mar 30, 2015 - Echo Park News Sponsor .... i hope it's not starry kitchen. way over hyped food, the meal I had there was absolutely awful, i'd rather have el pollo loco. Reply."
p10
a.