(lp0
S"Mar 2, 2015 - Three long-time franchisees have committed to reinvesting in the brand and expanding El Pollo Loco's presence to a total of seven locations in Utah by 2018."
p1
aS'Mar 2, 2015 - Costa Mesa-based El Pollo Loco Holdings Inc. said a group of Southern California franchisees have ... news. print; email. El Pollo Loco Plans to Expand in Utah.'
p2
aS"Mar 2, 2015 - Watch 'Behind The Kitchen Door' On KSAT 12 News ... Cascabel Restaurant, 37 N.E. Loop 410, perfect score; El Pollo Loco, 7327 San Pedro, perfect score; In N ..."
p3
aS"Mar 3, 2015 - Industry News | March 3, 2015 ... El Pollo Loco moved up several spots in this year's study to land in second place, and was followed by rapidly growing Moe's ..."
p4
aS'Mar 3, 2015 - El Pollo Loco has several limited-time Baja shrimp entres, including an ... News. Sports. Biz. A&E. Email. Life. Moreno Valley man accused of pimping in ...'
p5
aS'Mar 3, 2015 - Recent restaurant industry IPO debuts like Shake Shack and El Pollo Loco have been turning heads, said Alexis Becker, co-leader of the Restaurant practice at ...'
p6
aS'Mar 2, 2015 - Here is a look at the violations recorded at Maricopa County restaurants from Feb. 18 to Feb. 24 by Maricopa County Environmental Services. These violations ...'
p7
aS"Mar 3, 2015 - Managing Member of The Texas Network; HKA Texas - News Director, Editor; ... Valley Ranch Town Center adds Chickfila, Chili's, El Pollo Loco, Freebirds, ..."
p8
aS'Mar 2, 2015 - Newsroom: 918-581-8400, news@tulsaworld.com. Website: ... News Sports Business Scene Communities Blogs. Opinion Weekend Photovideo Investigations'
p9
aS'Mar 3, 2015 - Previous: Election day arrives; El Sereno water main break; street restriping delays ... in HLP homeless is up, three shootings this year and now this killing behind pollo loco , crime in hlp is bad and only going to get worse ... This news sucks.'
p10
a.