(lp0
S"Mar 5, 2015 - CSPnet.com - Convenience Store News  April 2016 CSP cover .... Raising Cane's has highest stomach share, followed by El Pollo Loco. Raising Cane's had ..."
p1
aS"Mar 4, 2015 - El Pollo Loco moved up several spots in this year's study to land in second place, .... for the latest insights, timely discussions, commentary and industry news."
p2
aS'Mar 4, 2015 - Three-piece mixed chicken meal with campero beans and cole slaw at Pollo ... What results is not as plump as Juan Pollo, comparable to El Pollo Loco with respect ... News. Sports. Biz. A&E. Email. Life. Wanted man arrested after brandishing ...'
p3
aS'Mar 4, 2015 - ... atmosphere categories," Market Force reported. "It was recognized for offering the healthiest food options, as were El Pollo Loco, Zaxby\'s and Boston Market.".'
p4
aS'Mar 4, 2015 - El Pollo Loco moved up several spots from the year prior to take second, followed by ... Del Taco has highest stomach share, followed by El Pollo Loco. ... NEWS. Grubhub, California Pizza Kitchen partner to provide delivery for 117 locations.'
p5
aS'Mar 3, 2015 - El Pollo Loco has several limited-time Baja shrimp entres, including an ... News. Sports. Biz. A&E. Email. Life. Moreno Valley man accused of pimping in ...'
p6
aS'Mar 4, 2015 - LOCO: EL POLLO LOCO Detailed Estimate. ... News. All News. Estimates. Detailed Estimates. Zacks Research. Snapshot  Analyst ... Get Free Report for LOCO.'
p7
aS'Mar 3, 2015 - Home > News > 2015 March > Retail is Ripe for Deals in 2015, BDO USA Survey ... Recent restaurant industry IPO debuts like Shake Shack and El Pollo Loco ...'
p8
aS"Mar 4, 2015 - Essential Local News and Opinion for Greater San Diego ... Chick-fil-A, Chili's, Cold Stone Creamery, El Pollo Loco, On the Border, The Patio, Poway Sushi ..."
p9
aS"Mar 4, 2015 - Posted in News on Wednesday, March 4, 2015 9:39 am. ... El Pollo Loco celebrates growing presence in Houston by hosting 'Loco Fun Day'  East Montgomery ..."
p10
a.