(lp0
S"Mar 5, 2015 - At El Pollo Loco, we go to crazy lengths for our signature citrus-marinated,... ... News Feed ... El Pollo Loco (Brownsville - Boca Chica)'s photo. Share."
p1
aS'Mar 6, 2015 - Latest News  Calendar; Ensembles. Advanced Orchestra  Intermediate Band  Intermediate ... El Pollo Loco Dine-out. April 21 at 2:00 PM - 9:00 PM. Wed 04 ...'
p2
aS"Mar 6, 2015 - Next week will likely be too dangerous to trade on the latest earnings news, Cramer continued, which ... Then, on Thursday, it's El Pollo Loco (LOCO) reporting."
p3
aS'Mar 6, 2015 - Crossroads Village is anchored by an Aldi and was (previously) also home to a popular and successful location of El Pollo Loco. In early 2010, William "Willie" ...'
p4
aS'Mar 6, 2015 - Thursday: El Pollo Loco: Cramer still thinks that Pollo Loco is too new to make a call on it. He still prefers Jack in the Box and Chipotle over this company.'
p5
aS'Mar 6, 2015 - Earnings: Dollar General, Hovnanian, Vail Resorts, El Pollo Loco, Springleaf, Aeropostale, OncoMed, JA Solar ... Patti DommCNBC Executive News Editor ...'
p6
aS'Mar 6, 2015 - Find 563 listings related to El Pollo Loco in Honolulu on YP.com. See reviews, photos, directions, phone numbers and more for El Pollo ...'
p7
aS'Mar 5, 2015 - El Pollo Loco cuts guidance as sales growth slows. 11/12. Yum Brands China October same-store sales .... More News from MarketWatch. Top Stories. Trending.'
p8
aS"Mar 6, 2015 - The developer has started building its tenant base too, and signed a long-term ground lease agreement with El Pollo Loco for the western-most pad. CBRE's ..."
p9
aS"Mar 5, 2015 - March 5, 2015 Fall Creek, HKA Texas News, Pizza ... Valley Ranch Town Center adds Chickfila, Chili's, El Pollo Loco, Freebirds, Subway, T. Jin's Asian Caf ..."
p10
a.