(lp0
S'Mar 9, 2015 - El Pollo Loco Holdings, Inc. (LOCO) is set to report fourth-quarter and full year 2014 results on Mar 12, after the ... Zacks News for ( SONC, DRI, LOCO, PBPB ) ...'
p1
aS'Mar 8, 2015 - Top news. News ... The El Pollo Loco is in an unincorporated area at 18571 E. Chapman Ave. The man had been shot in the back. He told investigators he was ...'
p2
aS'Mar 9, 2015 - A man in his 20s was shot and made it into an El Pollo Loco restaurant in an ... A news videographer at the scene said investigators were focusing their attention ...'
p3
aS'Mar 9, 2015 - Looking Ahead of Wall Street: Urban Outfitters, Shake Shack, El Pollo Loco ... El Pollo Loco is set to announce its fourth quarter 2014 earnings results on Thursday, ... an analyst upgrades/downgrades the stock or when significant news hits the ...'
p4
aS'Mar 9, 2015 - The El Pollo Loco fast food restaurant chain mission statement is about serving ... Retail Industry Stores and Sales Research - Retail Stats, News, Facts, History ...'
p5
aS'Mar 8, 2015 - A Trump Victory in Ohio Would Spell Bad News for Free Trade March 12, 2016 .... On Thursday, El Pollo Loco LOCO -8.20% , the Mexican broiled chicken chain ...'
p6
aS'Mar 8, 2015 - 4 El Pollo Loco jobs in Humble, TX are available at Snagajob. Humble El Pollo Loco employers are now hiring. Find your next job today!'
p7
aS'Mar 9, 2015 - "There\'s no economic news (on Monday) so markets are going to reassess .... Earnings: Dollar General, Hovnanian, Vail Resorts, El Pollo Loco, Springleaf, ...'
p8
aS'Mar 8, 2015 - Two names that fit that category are GoPro (GPRO) and El Pollo Loco (LOCO), each of which have fallen out of favor of investors due to excessively high ...'
p9
aS"Mar 9, 2015 - Market News  Stock Ideas  Dividends  Market Outlook  Investing Strategy  ETFs & Funds  Earnings  PRO  Long Ideas  Short Ideas  Cramer's Picks  IPOs ..."
p10
a.