(lp0
S"Apr 16, 2015 - COSTA MESA, Calif., April 16, 2015 (GLOBE NEWSWIRE) -- El Pollo Loco (Nasdaq:LOCO), the nation's leading ... The new Carne Asada menu items are available at all El Pollo Loco locations starting today. ... other news releases in"
p1
aS'Apr 16, 2015 - Dash recently took to Twitter to share the big news. ... Noreaga, who played El Pollo Loco in SP2, also tweeted the confirmation tagging Beanie Sigel: "State ...'
p2
aS'Apr 15, 2015 - El Pollo Loco is offering Baja shrimp as a seasonal menu option available through spring. New entres include Shrimp & Chicken Avocado Bowl, featuring rice, ...'
p3
aS'Apr 16, 2015 - (AllHipHop News) This week marks the ten year anniversary of the Dame Dash directed film State ... N.O.R.E. starred as El Pollo Loco in the 2005 sequel.'
p4
aS'Apr 15, 2015 - ... believe Dash, N.O.R.E also took to Twitter to confirm that he will be returning as his character, El Pollo Loco, in the forthcoming film. ... POSTED IN  News ...'
p5
aS"Apr 15, 2015 - April 15, 2015 HKA Texas News, Porter, Valley Ranch ... Valley Ranch Town Center adds Chickfila, Chili's, El Pollo Loco, Freebirds, Subway, T. Jin's Asian Caf ..."
p6
aS"Apr 16, 2015 - April 16, 2015 HKA Texas News, Kingwood, ShopHKA ... Valley Ranch Town Center adds Chickfila, Chili's, El Pollo Loco, Freebirds, Subway, T. Jin's Asian Caf ..."
p7
aS"Apr 16, 2015 - Posted in News on Thursday, April 16, 2015 7:00 pm. ... El Pollo Loco celebrates growing presence in Houston by hosting 'Loco Fun Day'  Sullivan launches ..."
p8
aS'Apr 16, 2015 - Or consider contacting El Pollo Loco, whose CEO. Steve Sather has said he is considering expanding his highly successful company into the northeast.'
p9
aS'Apr 15, 2015 - News, current events in & around Seattle, Washington, USA. ...... I remember when they opened an El Pollo Loco in Vancouver . I drove all the way down to get ...'
p10
a.