(lp0
S'Mar 31, 2015 - ... (CMG) and popular recent IPOs Shake Shack (SHAK) and El Pollo Loco (LOCO). ... You will find the latest news, market analysis, and education to help you ...'
p1
aS'Apr 1, 2015 - Home;  Newsroom;  News  EY Entrepreneur Of The Year 2015 award ... Irvine; Steve Sather, CEO & President  El Pollo Loco, Costa Mesa; Geoffrey Godet, ...'
p2
aS'Mar 31, 2015 - Costa Mesa-based El Pollo Loco Holdings Inc. plans to enter the Dallas ..... Alto and named consultant Al Nordin its chief executive, according to a news report.'
p3
aS"Apr 1, 2015 - ... Denny's, Inc., Elephant Bar Restaurants, Hilton Hotels Corporation, Loews Hotel Corporation, Marriott International, Inc., El Pollo Loco, Inc., Panda Restaurant ..."
p4
aS"Apr 1, 2015 - out of bankruptcy last year, the company told Nation's Restaurant News. Sugrue .... EL Pollo Loco was #1 in healthy options, and Raising Cane's in value."
p5
aS"Mar 31, 2015 - March 31, 2015 Atascocita, HKA Texas News, Restaurants ... Valley Ranch Town Center adds Chickfila, Chili's, El Pollo Loco, Freebirds, Subway, T. Jin's Asian ..."
p6
aS'Mar 31, 2015 - FREE Breaking News Alerts from StreetInsider.com! ... El Pollo Loco Announces the Grand Opening of New Las Vegas Restaurant  IMPORTANT INVESTOR ...'
p7
aS'Mar 31, 2015 - ... (NYSE:SHAK), $112.04 m, 31, $1,900,000, 1.90. El Pollo Loco (NASDAQ:LOCO), $322.52 m, 172, $1,420,000, 1.32. Buffalo Wild Wings (NASDAQ:BWLD) ...'
p8
aS"Apr 1, 2015 - Save Money. Fry's Weekly Ads  Fry's Digital Coupons  Fry's Promotions. Breaking news: Wildcats given No. 6 seed in NCAA tournament, will play Thursday ..."
p9
aS'Apr 1, 2015 - Chicken Salad Chick is a fast casual chain of chicken restaurants based in Auburn, Alabama. As of November 2015, the chain consists of 43 franchise ...'
p10
a.