(lp0
S"Apr 19, 2015 - Posted in Tracy Press News, Tracy Press City on Sunday, April 19, 2015 7:30 am. ... Between Panera, Chipotle, El Pollo Loco, Mel's, and Blaze Pizza, it's nice so ..."
p1
aS'Apr 20, 2015 - The most reliable source for Las Vegas news ... of purchase, the property was 55 percent occupied by tenants including US Bank, El Pollo Loco and H&R Block.'
p2
aS"Apr 20, 2015 - Possible El Pollo Loco Reach out to Whole Foods & Dean & Deluca. It's also ... ABC News  $2,000  Silver. 5. ... amNY.com Hiring News and Features Editors ..."
p3
aS'Apr 20, 2015 - Find The Class Action News at 4601 Wilshire Blvd Ste 225, Los Angeles CA 90010-3883. Call them at ... El Pollo Loco Mexican Restaurants  Golden Lotus ...'
p4
aS"Apr 19, 2015 - April 19, 2015 Atascocita, HKA Texas News, The Groves ... Valley Ranch Town Center adds Chickfila, Chili's, El Pollo Loco, Freebirds, Subway, T. Jin's Asian ..."
p5
aS'Apr 19, 2015 - Markets were blind-sided on Friday with news that the Chinese securities regulators .... El Pollo Loco (LOCO) put in a strong showing on Thursday, closing at a ...'
p6
aS'Apr 20, 2015 - El Pollo Loco Q4 revenue $86.3 mln vs $90 mln. 4:07 P.M. ET. Breaking El Pollo Loco Q4 earnings 14c a share vs 12c a share ..... More News from MarketWatch.'
p7
aS'Apr 20, 2015 - 24 March, 2016 in News: 2016 Election Race  24 March, 2016 in Editorial: You ... The Hide Out, located in an obscure yet cute plaza behind El Pollo Loco, has a ...'
p8
aS"Apr 19, 2015 - Copyright 2016 Arizona Daily Star. All rights reserved. This material may not be published, broadcast, rewritten or redistributed. Today's Health News ..."
p9
aS'Apr 20, 2015 - Follow I4U News on Facebook ... Read the Latest from I4U News .... to dress up as the chicken mascot for the restaurant chain El Pollo Loco to make ends meet.'
p10
a.