(lp0
S'Apr 21, 2015 - El Pollo Loco New Items: Chile Lime Shrimp Tacos: Two tacos with shrimp tossed in chile-lime glaze, avocado, mango salsa, cabbage, creamy cilantro dressing ...'
p1
aS"Apr 21, 2015 - Stampede Meat was awarded El Pollo Loco's 2014 Vendor of the Year as the supplier that best exemplifies outstanding leadership qualities in every aspect of."
p2
aS"Apr 20, 2015 - Possible El Pollo Loco Reach out to Whole Foods & Dean & Deluca. It's also ... ABC News  $2,000  Silver. 5. ... amNY.com Hiring News and Features Editors ..."
p3
aS'Apr 20, 2015 - The most reliable source for Las Vegas news ... of purchase, the property was 55 percent occupied by tenants including US Bank, El Pollo Loco and H&R Block.'
p4
aS"Apr 21, 2015 - Home  What's NEW and NEWS? ... AprilValley Ranch Town Center adds Chickfila, Chili's, El Pollo Loco, Freebirds, Subway, T. Jin's Asian ... 24 MarchEl Pollo Loco The Crazy Chicken now under construction in Humble, Texas; 24 MarchThe ..."
p5
aS"Apr 21, 2015 - The Kingwood Taco Cabana is next door to the newest Houston-area Pollo ... stay informed about What's NEW and NEWS in Humble, Kingwood, Atascocita, Texas. ... Valley Ranch Town Center adds Chickfila, Chili's, El Pollo Loco, Freebirds, ..."
p6
aS'Apr 21, 2015 - And before that, Mexican-inspired fast-casual chain El Pollo Loco raised about $107 million in its July 2014 debut and saw a nearly 23 percent first-day pop.'
p7
aS'Apr 21, 2015 - But if Japan really want to make a huge hit, I do think bringing in "El Pollo Loco" would catch on fast. It\'s light, delicious and simple and its chicken, not heavy on ...'
p8
aS'Apr 20, 2015 - El Pollo Loco Q4 revenue $86.3 mln vs $90 mln. 4:07 P.M. ET. Breaking El Pollo Loco Q4 earnings 14c a share vs 12c a share ..... More News from MarketWatch.'
p9
aS'Apr 20, 2015 - Find The Class Action News at 4601 Wilshire Blvd Ste 225, Los Angeles CA 90010-3883. Call them at ... El Pollo Loco Mexican Restaurants  Golden Lotus ...'
p10
a.