(lp0
S'Apr 21, 2015 - El Pollo Loco New Items: Chile Lime Shrimp Tacos: Two tacos with shrimp tossed in chile-lime glaze, avocado, mango salsa, cabbage, creamy cilantro dressing ...'
p1
aS"Apr 21, 2015 - Stampede Meat was awarded El Pollo Loco's 2014 Vendor of the Year as the supplier that best exemplifies outstanding leadership qualities in every aspect of."
p2
aS'Apr 22, 2015 - Andrs Cardenal (El Pollo Loco): With only 172 company-owned restaurants and 243 franchised locations as of the end of 2014, El Pollo Loco (NASDAQ:LOCO) ...'
p3
aS"Apr 21, 2015 - Home  What's NEW and NEWS? ... AprilValley Ranch Town Center adds Chickfila, Chili's, El Pollo Loco, Freebirds, Subway, T. Jin's Asian ... 24 MarchEl Pollo Loco The Crazy Chicken now under construction in Humble, Texas; 24 MarchThe ..."
p4
aS"Apr 22, 2015 - Carl's Jr., Hardee's, El Pollo Loco, others also introduce new menu items. ... Nation's Restaurant News. Search: Events/MUFSO  Digital Edition  Subscribe ..."
p5
aS"Apr 22, 2015 - The prospective IPOs come in the wake of Shake Shack Inc.'s thunderous debut in January and the pricings of Habit Restaurants Inc., El Pollo Loco Inc., Zoe's ..."
p6
aS'Apr 21, 2015 - And before that, Mexican-inspired fast-casual chain El Pollo Loco raised about $107 million in its July 2014 debut and saw a nearly 23 percent first-day pop.'
p7
aS'Apr 22, 2015 - At El Pollo Loco, we go to crazy lengths for our signature citrus-marinated, fire-grilled chicken and handcraft our entrees using fresh ingredients inspired by ...'
p8
aS'Apr 22, 2015 - Join LinkedIn to get the latest news, insights, and opportunities from over 3 ... Phong Huynh grew up in the El Pollo Loco company, rising from night porter to ...'
p9
aS'Apr 21, 2015 - But if Japan really want to make a huge hit, I do think bringing in "El Pollo Loco" would catch on fast. It\'s light, delicious and simple and its chicken, not heavy on ...'
p10
a.