(lp0
S'Apr 23, 2015 - El Pollo Loco is setting up its third Hidalgo County location scheduled to open in August. ... Posted in Local News on Thursday, April 23, 2015 11:45 am.'
p1
aS'Apr 23, 2015 - 03/08/07 - Automated Photo Red Light Enforcement Program News Conference ... 03/11/05 - Robbery at El Pollo Loco, Results in Officer Involved Shooting.'
p2
aS'Apr 23, 2015 - While many other market reports only provide stock news and opinion, we offer ... Alerts For Celldex Therapeutics, Anavex Life Sciences Corp, El Pollo Loco, ...'
p3
aS"Apr 24, 2015 - Restaurant stocks have had mostly good news in recent months, with ... partly due to recent IPOs such asZoe's Kitchen (ZOES),El Pollo Loco (LOCO),Habit ..."
p4
aS'Apr 24, 2015 - The only exception is credible news articles/police numbers/reports. ... In-N-Out is headed to El Segundo (Sepulveda & Mariposa) (la.eater.com) .... mostly would hit up ralphs or el pollo loco. but it wasnt too long before they added the chipotle, ...'
p5
aS'Apr 24, 2015 - Breaking News, Crime, Life, Business, Sports, Food, and LGBT issues, online ... playing pool, Amelia Earhart, bears, El Pollo Loco, Australia, his community and ...'
p6
aS'Apr 23, 2015 - Newsroom: 918-581-8400, news@tulsaworld.com. Website: ... News Sports Business Scene Communities Blogs. Opinion Weekend Photovideo Investigations'
p7
aS'Apr 25, 2015 - Related Topics: news history development real estate development historic district Downtown LA Los Angeles. (Copyright 2016 KABC-TV. All Rights Reserved ...'
p8
aS'Apr 24, 2015 - You can access more in-depth stories and analysis, as well as news not found on any other website or any other media outlet. You also get free eNewsletters, ...'
p9
aS'Apr 24, 2015 - Fajita Con Pollo. $13.00+. Cilantro quinoa, grilled ... croutons, chili lime caesar. Un Poco Loco .... El Green-Go (Raw, Vegan, GF). $8.50+. Pineapple, Mango ...'
p10
a.