(lp0
S'Apr 28, 2015 - Shareholder Tools. Shareholder Briefcase  Email Alerts Subscription  Download Library  Snapshot / Tearsheet  RSS News Feeds; Print; Share. Facebook ...'
p1
aS'Apr 28, 2015 - Home News Exclusive Pancho Ochoa Sr. A One of a Kind Restaurateur and ... After having an unprecedented success with El Pollo Loco in Mexico and the city ...'
p2
aS"Apr 27, 2015 - Recent consumer IPOs include restaurant chains such as Dave & Buster's, El Pollo Loco and Shake Shack, and speciality retailers such as the Michaels Cos."
p3
aS"Apr 28, 2015 - Download this stock image: An El Pollo Loco Restaurant in Modesto California at night - EN80JG from Alamy's library of millions of high resolution stock photos, ..."
p4
aS"Apr 28, 2015 - Valley Ranch Town Center adds Chickfila, Chili's, El Pollo Loco, Freebirds, Subway, T. Jin's Asian Caf and others ... What's NEW and NEWS in HKA Texas!"
p5
aS"Apr 27, 2015 - Posted in News on Monday, April 27, 2015 4:23 pm. ... facility in Humble  El Pollo Loco celebrates growing presence in Houston by hosting 'Loco Fun Day' ..."
p6
aS'Apr 28, 2015 - Related: How El Pollo Loco Churns Out New Menu Items Crazy Fast  Limited Time Offer ... Frequently covers franchise news and food trends. Meghan M. Biro ...'
p7
aS'Apr 28, 2015 - All the financial news you can trust. ... Restaurant Roundup: Chipotle Mexican Grill, Inc. (CMG), Shake Shack Inc (SHAK), El Pollo LoCo Holdings Inc (LOCO).'
p8
aS'Apr 28, 2015 - Today I was listening to polish news and they were reporting about .... Between that and her El Pollo Loco spiel, she should title her next vlog, "Watch as I harass ...'
p9
aS"Apr 27, 2015 - El Pueblo off of Birmingham in Cardiff. They're 99 ... ago (0 children). Mariscos la Viga at H street by el Pollo loco .... Tacos el Pansion in City Heights. Generally ..."
p10
a.