(lp0
S"Apr 29, 2015 - ... shop Potbelly (PBPB) to Mexican chicken seller El Pollo Loco (LOCO - Get Report). .... Access to Jim Cramer's daily blog; Intraday commentary and news ..."
p1
aS'Apr 28, 2015 - Home News Exclusive Pancho Ochoa Sr. A One of a Kind Restaurateur and ... After having an unprecedented success with El Pollo Loco in Mexico and the city ...'
p2
aS'Apr 29, 2015 - Updated El Pollo Loco reports higher profit; sales slide. 5:20 P.M. ET. Bojangles profit dips, but results .... More News from MarketWatch. Top Stories. Trending.'
p3
aS"Apr 28, 2015 - Download this stock image: An El Pollo Loco Restaurant in Modesto California at night - EN80JG from Alamy's library of millions of high resolution stock photos, ..."
p4
aS"Apr 28, 2015 - Valley Ranch Town Center adds Chickfila, Chili's, El Pollo Loco, Freebirds, Subway, T. Jin's Asian Caf and others ... What's NEW and NEWS in HKA Texas!"
p5
aS"Apr 29, 2015 - Home  News  US of America News ... Let us stop you right there, el patron. Your wife might be a .... Mehmeisterjr. El seor Heb's next whistlestop destination: Buenos Aires. ... Plus, I have experience eating at El Pollo Loco. Top that, if you can ..."
p6
aS"Apr 29, 2015 - El Pollo Loco's COO To Leave Company  How Safe Is Cameco Corporation Stock? ... 2016 FOX News Network, LLC. All rights reserved. FAQ - Privacy Policy ..."
p7
aS'Apr 29, 2015 - ... officers responded to an armed robbery at a home in the area of North Corbett Lane and West Lambert Way, according to a police department news release.'
p8
aS'Apr 29, 2015 - The Habit Restaurants, Inc. (HABT - Snapshot Report) is a company in the Retail-Restraunts space that could be an interesting play for investors. That is ...'
p9
aS"Apr 29, 2015 - Too many fast-casual concepts are being touted as The Next Chipotle. Here's a rundown, as well as our thoughts on their chances to duplicate the burrito king's ..."
p10
a.