(lp0
S'Apr 6, 2015 - El Pollo Loco investors have a second wind after the company reported full-year ... However, this pop seems to be a case of investors thinking that any news is ...'
p1
aS'Apr 5, 2015 - El Pollo Loco #6111 20780 Nordhoff St, Chatsworth, CA 91311, Phone: 818-882-8869. Fax: 714-599-5529. Hours: Mon: 10:00am-11:00pm. Tue: 10:00am-11: ...'
p2
aS"Apr 6, 2015 - El Pollo Loco Holdings' stock spiked after it debuted last year but has since fallen, leaving the company up 6.5 percent. Stock in Potbelly Corp. has sunk by more ..."
p3
aS"Apr 6, 2015 - Bojangles', Inc. (BOJA) News  Find the latest company news headlines for Bojangles', Inc. and all ... El Pollo Loco, Bojangles' Prospects Bright: Take Your Pick."
p4
aS'Apr 6, 2015 - Bojangles would give investors another QSR chicken chain in which to invest, following Popeyes Louisiana Kitchen and the more recently public El Pollo Loco, ...'
p5
aS'Apr 6, 2015 - El Pollo Loco. Geoffrey Godet, CEO & President Flatirons Solutions. Javad Mokhbery, CEO Futek. Jarrod Dogan, CEO & President Hybrid Promotions, LLC.'
p6
aS"Apr 6, 2015 - I haven't been to SoCal in a while. I didn't remember El Pollo Loco being so amazing! Didn't even mind the fam putting it all on the flour..."
p7
aS'Apr 5, 2015 - Watch KCRA/KQCA News ... Frank Vincent Sierras is from El Dorado Hills. ... Officers served multiple search warrants in El Dorado County before arresting him.'
p8
aS'Apr 6, 2015 - News; Popular; Videos; Fortune 500 .... saw a string of restaurants make successful market debuts last year, including chicken chain El Pollo Loco LOCO 1.01% ...'
p9
aS'Apr 5, 2015 - Find 14 listings related to Rico Pollo Restaurant in Jonesboro on YP.com. ... El Taco Rico - CLOSED ... 11. El Pollo Loco - CLOSED  (1).'
p10
a.