(lp0
S"Apr 8, 2015 - From Yahoo Finance: Steve Sather, CEO of El Pollo Loco, sees very good trends ... It's a trend that shows no signs of letting up, and that's good news for people ..."
p1
aS"Apr 8, 2015 - April 8 -- El Pollo Loco CEO Steve Sather discusses the company's expansion, wage costs and competitive environment. He speaks with Bloomberg's Pimm Fox ..."
p2
aS"Apr 9, 2015 - El Pollo Loco's proprietary chicken recipe is the star of the show in the restaurant's new ... For the latest food and drink updates, visit our Food News page."
p3
aS'Apr 9, 2015 - With over three decades of extensive foodservice experience in supply chain management and operations for brands including El Pollo Loco, California Pizza ...'
p4
aS'Apr 8, 2015 - In the News. Tijuana Flats ... CBS Evening News clip featuring Andy UnanueMarch 2015 ... El Pollo Loco Shares go crazy in debut, fly 32 percentJuly 27, 2014'
p5
aS"Apr 8, 2015 - Stephen Sather, CEO of El Pollo Loco (LOCO);  Steve Vaughan ... Franchise Times magazine is the news and information source for franchising. We're read by ..."
p6
aS'Apr 8, 2015 - News & Reviews  Discuss  Stuff We Heart .... We have an El Pollo Loco on campus so I got on to my phone and signed up for their E-Club ASAP. B $20 DAY 3.'
p7
aS"Apr 8, 2015 - April 8, 2015 HKA Texas News, Humble ... Valley Ranch Town Center adds Chickfila, Chili's, El Pollo Loco, Freebirds, Subway, T. Jin's Asian Caf and others."
p8
aS"Apr 8, 2015 - Ted's Montana Grill, Krispy Kreme, Culver's, others also introduce new menu items."
p9
aS'Apr 9, 2015 - News Feed ..... Fire Station. 5.0   2 public ratings. Fire Stations in Pacoima, California. People Also Like. El Pollo Loco (Harbor City)  Mexican Restaurant.'
p10
a.