(lp0
S'May 12, 2015 - El Pollo Loco Holdings, Inc. (LOCO) is set to report first quarter 2015 results on May 14, after the markets close. ... Zacks News for ( DRI, RRGB, SHAK, LOCO ) ...'
p1
aS"May 12, 2015 - ... and potential news events as a means to predict the next short squeeze. ... Shake Shack, Vivint Solar, J.C. Penney, El Pollo Loco, Conn's, FS Investment Corp, ..."
p2
aS'May 11, 2015 - "That puts stocks in a hard place, where good news could be bad and bad news could be bad ... I think it\'s a tight window for Goldilocks, given where earnings ...'
p3
aS'May 12, 2015 - Updated El Pollo Loco reports higher profit; sales slide. 3/10. Bojangles profit dips, but results top .... More News from MarketWatch. Top Stories. Trending.'
p4
aS"May 12, 2015 - May 12, 2015 HKA Texas News. Share ... Valley Ranch Town Center adds Chickfila, Chili's, El Pollo Loco, Freebirds, Subway, T. Jin's Asian Caf and others."
p5
aS'May 12, 2015 - ... including real-time stock quotes, historical charts & financial news, all for free! ... Financial Market News - Apr 4, 2016 .... LOCO  El Pollo LoCo Hol... 12.94, + ...'
p6
aS"May 12, 2015 - The results were good enough to increase expectations for peers as well, as El Pollo Loco (NASDAQ:LOCO) also rallied on Monday after Del Taco's report."
p7
aS'May 12, 2015 - BOJA, PLKI & LOCO ... BOJA), Popeyes Louisiana Kitchen Inc (NASDAQ: PLKI) and El Pollo LoCo Holdings Inc (NASDAQ: LOCO). ... Recent News On BOJA ...'
p8
aS'May 11, 2015 - Steve Sather, CEO and president  El Pollo Loco, Costa Mesa ... This news release has been issued by Ernst & Young LLP, an EY member firm serving clients ...'
p9
aS"May 12, 2015 - A review of El Pollo Loco's Carna Asada Wet Burrito. ... skip to main | skip to sidebar. Brand Eating  Recent News | Recent Reviews | Current Deals & Specials ..."
p10
a.