(lp0
S'May 12, 2015 - El Pollo Loco Holdings, Inc. (LOCO) is set to report first quarter 2015 results on May 14, after the markets close. ... Zacks News for ( DRI, RRGB, SHAK, LOCO ) ...'
p1
aS'May 13, 2015 - El Pollo Loco (LOCO), which went public last July, reports after the close Thursday. ... You will find the latest news, market analysis, and education to help you ...'
p2
aS'May 13, 2015 - PEOPLE News; Great Ideas; StyleWatch; Pets; Moms & Babies; All ... TMZ adds that Ramirez told them the rep also brought them El Pollo Loco for dinner.'
p3
aS"May 12, 2015 - ... and potential news events as a means to predict the next short squeeze. ... Shake Shack, Vivint Solar, J.C. Penney, El Pollo Loco, Conn's, FS Investment Corp, ..."
p4
aS'May 12, 2015 - Updated El Pollo Loco reports higher profit; sales slide. 3/10. Bojangles profit dips, but results top .... More News from MarketWatch. Top Stories. Trending.'
p5
aS"May 12, 2015 - May 12, 2015 HKA Texas News. Share ... Valley Ranch Town Center adds Chickfila, Chili's, El Pollo Loco, Freebirds, Subway, T. Jin's Asian Caf and others."
p6
aS"May 12, 2015 - The results were good enough to increase expectations for peers as well, as El Pollo Loco (NASDAQ:LOCO) also rallied on Monday after Del Taco's report."
p7
aS'May 13, 2015 - In the restaurant chain space, trader Brian Kelly looked at El Pollo Loco. The stock has climbed 41 percent this year and closed Wednesday just above $28 per ...'
p8
aS'May 12, 2015 - 2,812 Franchises | 2,998 Articles | 54,644 News Stories .... accounts that included the California Avocado Commission, Yogurtland, Dole, and El Pollo Loco.'
p9
aS'May 13, 2015 - Laurie Ramirez, of Rancho Cucamonga, told KTLA News that her son was tossed ... to Ramirez, a rep from Disneyland came to the hospital with El Pollo Loco (!) ...'
p10
a.