(lp0
S'May 14, 2015 - El Pollo Loco is scheduled to release its most recent quarterly results ... What to Expect From El Pollo Loco Earnings ... PPI Brings More News of Deflation .'
p1
aS'May 14, 2015 - El Pollo Loco Holdings Inc. reported better-than-expected results on Thursday, ... in the worlds of diversified media, news, education, and information services.'
p2
aS'May 14, 2015 - CONTACT: Investor Contact: Fitzhugh Taylor , ICR fitzhugh.taylor@icrinc.com 714-599-5200. El Pollo Loco. Source: El Pollo Loco. News Provided by Acquire ...'
p3
aS"May 14, 2015 - El Pollo Loco reported quarterly earnings that topped analysts' expectations ... An El Pollo Loco restaurant is shown in San Diego, California ... Breaking News."
p4
aS"May 14, 2015 - El Pollo LoCo (LOCO) stock is down after the company released its first quarter earnings ... Access to Jim Cramer's daily blog; Intraday commentary and news ..."
p5
aS"May 14, 2015 - ... Inc. All rights reserved. Search. News; Popular; Videos; Fortune 500 .... El Pollo Loco's sales grow, but weak outlook ruffles feathers. by; Tom Huddleston, Jr."
p6
aS'May 14, 2015 - Shares of El Pollo Loco tanked by more than 11% in after-hours trading on Thursday after the company reported weaker-than-expected comparable store sales.'
p7
aS'May 14, 2015 - After Hours News: King Digital Entertainment Plc (KING), El Pollo LoCo ... Shares of El Pollo LoCo Holdings Inc. (NASDAQ:LOCO) tumbled 13 percent in ...'
p8
aS'May 14, 2015 - Shares of King Digital Entertainment PLC and El Pollo Loco Holdings Inc. both fall more than 10% in the extended session ... More News from MarketWatch.'
p9
aS'May 14, 2015 - Good day ladies and gentlemen and thank you for standing by. Welcome to the El Pollo Loco First Quarter 2015 Earnings Conference Call. At this time, all ...'
p10
a.