(lp0
S"May 15, 2015 - El Pollo LoCo (LOCO) stock is slipping after the company released its first quarter earnings ... Access to Jim Cramer's daily blog; Intraday commentary and news ..."
p1
aS"May 15, 2015 - While investors were apparently disappointed by El Pollo Loco's weak outlook, the company's CEO told CNBC on Friday business is good. The restaurant chain ..."
p2
aS'May 14, 2015 - El Pollo Loco is scheduled to release its most recent quarterly results ... What to Expect From El Pollo Loco Earnings ... PPI Brings More News of Deflation .'
p3
aS"May 14, 2015 - ... Inc. All rights reserved. Search. News; Popular; Videos; Fortune 500 .... El Pollo Loco's sales grow, but weak outlook ruffles feathers. by; Tom Huddleston, Jr."
p4
aS'May 14, 2015 - El Pollo Loco Holdings Inc. reported better-than-expected results on Thursday, ... in the worlds of diversified media, news, education, and information services.'
p5
aS'May 15, 2015 - DOW JONES, A NEWS CORP COMPANY ..... El Pollo Loco reported better-than-expected results on Thursday, as first-quarter revenue rose 11% owing to falling ...'
p6
aS'May 15, 2015 - Netflix, Applied Materials, El Pollo Loco, and Keurig Green Mountain are ... Latest News .... Netflix jumps on China plan; El Pollo Loco slumps on weak outlook.'
p7
aS'May 14, 2015 - Shares of El Pollo Loco tanked by more than 11% in after-hours trading on Thursday after the company reported weaker-than-expected comparable store sales.'
p8
aS'May 14, 2015 - CONTACT: Investor Contact: Fitzhugh Taylor , ICR fitzhugh.taylor@icrinc.com 714-599-5200. El Pollo Loco. Source: El Pollo Loco. News Provided by Acquire ...'
p9
aS'May 14, 2015 - After Hours News: King Digital Entertainment Plc (KING), El Pollo LoCo ... Shares of El Pollo LoCo Holdings Inc. (NASDAQ:LOCO) tumbled 13 percent in ...'
p10
a.