(lp0
S'May 17, 2015 - Industry News | May 17, 2015 | QSR Exclusive Brief ... Comprised of Mexican meal staples, El Pollo Loco brings families together for a meal the way KFC did 20 ...'
p1
aS'May 18, 2015 - ... or eliminate crowding," in an April 2014 news release announcing the launch of ... Potbelly (PBPB) and El Pollo Loco (LOCO) Holdings returned 9% and 22%, ...'
p2
aS'May 18, 2015 - Stock: El Pollo LoCo Holdings Inc. (LOCO). Continue Reading Below .... redisributed.  2016 FOX News Network, LLC. All rights reserved. FAQ - Privacy Policy ...'
p3
aS"May 18, 2015 - Posted in News on Monday, May 18, 2015 11:50 am. ... El Pollo Loco celebrates growing presence in Houston by hosting 'Loco Fun Day'  East Montgomery ..."
p4
aS'May 18, 2015 - You can access more in-depth stories and analysis, as well as news not found ... Quiznos revs up delivery service  El Pollo Loco test drives electric delivery cars ...'
p5
aS'May 18, 2015 - News and reports ... dying, bottom of the barrel fast food chains like El Pollo Loco; or highly commoditized, zero value-added societal drains like King.com.'
p6
aS'May 19, 2015 - Trimaran Fund Management Llc performance, aum, news, profile and returns. ... 1, LOCO - El Pollo Loco Holdings Inc. LOCO, 346,821, 16,746,544, 100.00 ...'
p7
aS"May 17, 2015 - Overallocation of river that provides the West's drinking water 'a very hard problem.'"
p8
aS"May 18, 2015 - Homero Ceron, center, plays Kettle drums with the Tucson Pops Orchestra during the opening concert of it's 2014 Music Under The Stars season with a Stars Of ..."
p9
aS"May 18, 2015 - Loveland News .... News. Sports. Biz. A&E. Life. Colorado Eagles goalie Clarke Saunders came in midseason only to become club's top option  Prospect of ..."
p10
a.