(lp0
S"May 19, 2015 - At last check, shares of El Pollo Loco are just piercing the 38% Fibonacci level while filling in a prior bullish gap. I'm sure the news back then was equally ..."
p1
aS"May 19, 2015 - However, LOCO's valuation is still quite bloated especially compared to PLKI. This is not the first time I compared El Pollo Loco (NASDAQ:LOCO) to Popeyes ..."
p2
aS'May 18, 2015 - ... or eliminate crowding," in an April 2014 news release announcing the launch of ... Potbelly (PBPB) and El Pollo Loco (LOCO) Holdings returned 9% and 22%, ...'
p3
aS'May 18, 2015 - Stock: El Pollo LoCo Holdings Inc. (LOCO). Continue Reading Below .... redisributed.  2016 FOX News Network, LLC. All rights reserved. FAQ - Privacy Policy ...'
p4
aS'May 19, 2015 - Find 20 listings related to El Pollo Loco in Goodyear on YP.com. See reviews, photos, directions, phone numbers and more for El Pollo Loco locations in ...'
p5
aS'May 19, 2015 - Find 21 listings related to El Pollo Loco Locations in Chandler on YP.com. See reviews, photos, directions, phone numbers and more for El ...'
p6
aS"May 18, 2015 - Posted in News on Monday, May 18, 2015 11:50 am. ... El Pollo Loco celebrates growing presence in Houston by hosting 'Loco Fun Day'  East Montgomery ..."
p7
aS"May 19, 2015 - ... Bojangles', Boston Market, Popeyes Louisiana Kitchen and El Pollo Loco, for ... according to a survey last year by Nation's Restaurant News and WD Partners."
p8
aS'May 18, 2015 - News and reports ... dying, bottom of the barrel fast food chains like El Pollo Loco; or highly commoditized, zero value-added societal drains like King.com.'
p9
aS'May 19, 2015 - Trimaran Fund Management Llc performance, aum, news, profile and returns. ... 1, LOCO - El Pollo Loco Holdings Inc. LOCO, 346,821, 16,746,544, 100.00 ...'
p10
a.