(lp0
S'May 26, 2015 - CONTACT: Media Contact: Christine Beggan , ICR LOCO@icrinc.com 203.682.8200. El Pollo Loco. Source: El Pollo Loco. News Provided by Acquire Media.'
p1
aS'May 26, 2015 - El Pollo Loco Holdings, Inc. (LOCO), the Californian chicken chain, is looking to aggressively expand in the Texas ... Zacks News for ( BJRI, RT, ZOES, LOCO ) ...'
p2
aS"May 26, 2015 - COSTA MESA, Calif., May 26, 2015 (GLOBE NEWSWIRE) -- El Pollo Loco ... El Pollo Loco's New Hand-Carved Chicken Salads ... other news releases in. Food"
p3
aS'May 26, 2015 - El Pollo Loco Holdings, Inc. (LOCO), the Californian chicken chain, is looking to aggressively expand in the Texas region. The company has collaborated with ...'
p4
aS'May 26, 2015 - Updated El Pollo Loco reports higher profit; sales slide. 5:20 P.M. ET. Bojangles profit dips, but results .... More News from MarketWatch. Top Stories. Trending.'
p5
aS'May 26, 2015 - Chicago, IL (Restaurant News Release) According to research from Starfleet Media, 23% of ..... El Pollo Loco Continues Texas Expansion into Dallas Market.'
p6
aS"May 26, 2015 - Labels: Limited-Time , News , Popeyes .... Chicken Dairy Queen Del Taco Domino's Dunkin' Donuts El Pollo Loco Hardee's In-N-Out Jack in the Box KFC Krispy ..."
p7
aS'May 26, 2015 - For the most complete version of this story, log in or subscribe to MyMonitorNews.com. Discuss; Print. Posted in Local News on Tuesday, May 26, 2015 8:35 pm.'
p8
aS'May 26, 2015 - El pollo loco. Obviously the answer is el pollo loco! permalink; save; give gold. []schmearcampain 3 points4 points5 points 10 months ago (0 children). Si senor!'
p9
aS'May 25, 2015 - The student news site of Animo Jefferson Charter Middle School. ... El Pollo Loco is an example of of a fast food restaurant that serves chicken with much grease.'
p10
a.