(lp0
S'May 27, 2015 - Mexican-style chicken chain El Pollo Loco is bringing seven restaurants to North ... Afternoon Edition newsletters for the latest news on North Texas businesses.'
p1
aS'May 26, 2015 - CONTACT: Media Contact: Christine Beggan , ICR LOCO@icrinc.com 203.682.8200. El Pollo Loco. Source: El Pollo Loco. News Provided by Acquire Media.'
p2
aS'May 26, 2015 - El Pollo Loco Holdings, Inc. (LOCO), the Californian chicken chain, is looking to aggressively expand in the Texas ... Zacks News for ( BJRI, RT, ZOES, LOCO ) ...'
p3
aS"May 26, 2015 - COSTA MESA, Calif., May 26, 2015 (GLOBE NEWSWIRE) -- El Pollo Loco ... El Pollo Loco's New Hand-Carved Chicken Salads ... other news releases in. Food"
p4
aS'May 26, 2015 - El Pollo Loco Holdings, Inc. (LOCO), the Californian chicken chain, is looking to aggressively expand in the Texas region. The company has collaborated with ...'
p5
aS"May 27, 2015 - There's a Taco Bell next door and an El Pollo Loco directly across the street, yet the restaurant that's really doing business is Melody's Mexican Kitchen, which is ..."
p6
aS"May 27, 2015 - News in Focus .... Denny's franchisee in California), 4 Sizzler's, 5 Corner Bakery and 6 El Pollo Loco restaurants. ... The news you need, when you need it."
p7
aS'May 26, 2015 - Updated El Pollo Loco reports higher profit; sales slide. 5:20 P.M. ET. Bojangles profit dips, but results .... More News from MarketWatch. Top Stories. Trending.'
p8
aS"May 27, 2015 - May 27, 2015 HKA Texas News. Share ... Valley Ranch Town Center adds Chickfila, Chili's, El Pollo Loco, Freebirds, Subway, T. Jin's Asian Caf and others."
p9
aS'May 26, 2015 - Chicago, IL (Restaurant News Release) According to research from Starfleet Media, 23% of ..... El Pollo Loco Continues Texas Expansion into Dallas Market.'
p10
a.