(lp0
S"May 28, 2015 - Even after an initial decline, shares of El Pollo Loco have continued to fall, losing around 23% of the company's market value.To be truthful, I think that the."
p1
aS"May 28, 2015 - Latest silver news .... To wit, Shake Shack has become the Yahoo! of 2015  whilst other, assorted c-p like El Pollo Loco, Buffalo Wild Wings, Popeye's ..."
p2
aS"May 29, 2015 - news reports on the chain or the companies' previous quarter's performance. ..... El Pollo Loco Holdings Inc. is experimenting with a multi-protein platform that it ..."
p3
aS'May 28, 2015 - restaurant 6 el pollo loco food. 0. SHARES. Share On FacebookPin It  Jennifer. Jennifer is the Alabama and Nevada staff writer for Only In Your State.'
p4
aS"May 29, 2015 - ... Weekly Ads  Fry's Digital Coupons  Fry's Promotions. Breaking news: Wildcats given No. 6 seed in NCAA tournament, will play Thursday night  Home/; News ..."
p5
aS'May 29, 2015 - ... Mexican Grill Bad review of El Pollo Loco Funny review of Rays chicken and Ribs Bad ... Stay in the know with our weekly blog posts and social media news.'
p6
aS'May 29, 2015 - Fast-growing Wingstop and Fogo de Cho are the newest Dallas restaurant concepts looking to go public  an important ingredient in growing their local fan ...'
p7
aS'May 29, 2015 - Article. Market News  Alibaba (NYSE: BABA). 23 Jun, 2015. 3599. Article. Market News  XOMA Corporation (NA ... Article. Market News  El Pollo LoCo Holdin.'
p8
aS'May 28, 2015 - Recent News | Recent Reviews | Current Deals & Specials .... (i.e. soda) and co-branded items (such as the Doritos Locos Taco and Cinnabon Delights).'
p9
aS"May 29, 2015 - Donate to support Real News in Ventura County .... Erica has worked at El Pollo Loco, Its a Grind and also read to pre-school students. ... and Ed's Pizza, Banana Republic, Animal Shelter (at Camarillo Airport), Fresh 'n Easy and El Pollo Loco,."
p10
a.