(lp0
S"May 4, 2015 - October 27, 2014 Canyon Lakes, HKA Texas News ... Valley Ranch Town Center adds Chickfila, Chili's, El Pollo Loco, Freebirds, Subway, T. Jin's Asian Caf ..."
p1
aS"May 4, 2015 - February 10, 2015 Canyon Lakes, Fall Creek, HKA Texas News ... Valley Ranch Town Center adds Chickfila, Chili's, El Pollo Loco, Freebirds, Subway, T. Jin's ..."
p2
aS"May 4, 2015 - ... Weekly Wrap-up to stay informed about What's NEW and NEWS in Humble, ... Valley Ranch Town Center adds Chickfila, Chili's, El Pollo Loco, Freebirds, ..."
p3
aS"May 5, 2015 - Mexican cuisine restaurant El Pollo LoCo Holdings Inc LOCO 1.7%'s shares surged 60 percent ... A tool used by the Benzinga News Desk each trading day --"
p4
aS'May 5, 2015 - ... Greyhound, El Pollo Loco, Sunrun and others. Adweek named BSSP Small Agency of the Decade, and Outside magazine recognized the agency by putting it ...'
p5
aS'Re: [DISCUSSION THREAD] Battle Nations 4.8.  koolRanch  504, 2015 11:32 pm. ElPolloLoco : This is amazing news! Thank you koolranch.'
p6
aS"May 4, 2015 - Shares of El Pollo Loco Holdings Inc. (Nasdaq: LOCO) leaped 60.2% on its opening day in October. Here's a look at the Bojangles' IPO and the rest of the ..."
p7
aS'May 5, 2015 - County supervisors approved a $22 million package of contracts Tuesday to buy solar power that is expected to save $4.5 million over 20 years.'
p8
aS"May 4, 2015 - DOW JONES, A NEWS CORP COMPANY .... Similar companies seen eating larger chains' lunch, include El Pollo Loco Holdings Inc., LOCO 1.70 % Panera ..."
p9
aS'May 4, 2015 - Recent Financial News. During their first quarter of fiscal 2015, Chipotle saw revenues surge 20.4% to $1.09 billion driven by new restaurants and positive ...'
p10
a.