(lp0
S'May 6, 2015 - Area residents will soon be able to "eat loco" and go crazy for citrus-marinated chicken. El Pollo Loco, a restaurant that specializes in serving up freshly grilled ...'
p1
aS'May 6, 2015 - Restaurant chain El Pollo Loco posted solid profit growth in FY2014, aided by higher customer traffic volumes that sparked greater productivity in its store net.'
p2
aS'May 6, 2015 - These include several prominent restaurant chains, such as Shake Shack Inc (NYSE:SHAK), El Pollo LoCo Holdings Inc (NASDAQ:LOCO). Now Wingstop is ...'
p3
aS"May 5, 2015 - May 5, 2015 Childcare, HKA Texas News, Kingwood ... Valley Ranch Town Center adds Chickfila, Chili's, El Pollo Loco, Freebirds, Subway, T. Jin's Asian Caf ..."
p4
aS"May 6, 2015 - The buildings were occupied by the Rally's drive-thru restaurant, the Wells Fargo Bank kiosk at 1531, an El Pollo Loco restaurant at 1535, and a Parts Plus auto ..."
p5
aS"May 6, 2015 - You can access more in-depth stories and analysis, as well as news not found on ... on IPO  El Pollo Loco files for $100M IPO  Papa Murphy's files for $70M IPO."
p6
aS"May 6, 2015 - 3/9/2016 9:39:55 AM - NASDAQ.com News; Will Comps Growth Aid El Pollo Loco's (LOCO) Q4 Earnings? 3/7/2016 11:40:00 AM - Zacks.com; 5 Restaurant ..."
p7
aS"May 6, 2015 - El Pollo Loco Holdings Inc. and sandwich maker Potbelly Corp. went public last year. Those IPOs followed those of Mediterranean-style restaurant chain Zoe's ..."
p8
aS"May 6, 2015 - All mothers who visit participating Pollo Campero restaurants on Sunday, May 10 will receive a FREE flan and a fresh flower. ... Houston; News ... Pollo Campero Celebrates Mother's Day by Giving Away Flan and Flowers ... of National Family Meals Month  Latin Flavors to the Bone  Watch out KFC: El Pollo Loco is sizzling."
p9
aS'May 5, 2015 - ... Greyhound, El Pollo Loco, Sunrun and others. Adweek named BSSP Small Agency of the Decade, and Outside magazine recognized the agency by putting it ...'
p10
a.