(lp0
S'Jun 10, 2015 - Get reviews, hours, directions, coupons and more for El Pollo Loco at 4528 Hwy 6 South, Sugar Land, TX. Search for other Fast Food Restaurants in Sugar Land ...'
p1
aS'Jun 10, 2015 - News  Contact Us  For more ... Dr R Armendariz 16 Hr Clinic, El Paso, $ 140,000.00, More detail ...... El Pollo Loco Restaurant, Katy, $ 400,000.00, More detail.'
p2
aS"Jun 10, 2015 - ... joined the ranks of restaurants like Shake Shack (SHAK) and El Pollo Loco (LOCO) looking to ... Look at the recent struggles of LOCO stock, down 13% over the past year. ... Access to Jim Cramer's daily blog; Intraday commentary and news ..."
p3
aS"Jun 9, 2015 - June 9, 2015 Atascocita, HKA Texas News ... Valley Ranch Town Center adds Chickfila, Chili's, El Pollo Loco, Freebirds, Subway, T. Jin's Asian Caf and others."
p4
aS'Jun 10, 2015 - El Pollo Loco Holdings, Inc. 2014-Present. Chief Executive Officer, President, Director and Member of Compensation Committee. LRI Holdings, Inc.'
p5
aS"Jun 9, 2015 - So the good news from this report? ... And the bad news? .... BevMo!, Big Lots, Dunkin' Donuts, El Pollo Loco, Express, Forever 21, J.C. Penney, Johnny Rockets ..."
p6
aS"Jun 9, 2015 - They are taking over the old Hungry Bull next to El Pollo Loco in the Sam's Club shopping center on the South Side of Murrieta Hot Springs right past the 215."
p7
aS'Jun 10, 2015 - Likes playing basketball  Once played a high school game in Dodger Stadium, his favorite sports moment  Likes include El Pollo Loco, homemade Rice ...'
p8
aS"Jun 10, 2015 - Labels: McDonald's , News .... Jr. Chick-fil-A Chipotle Church's Chicken Dairy Queen Del Taco Domino's Dunkin' Donuts El Pollo Loco Hardee's In-N-Out Jack in ..."
p9
aS'Jun 10, 2015 - Current, Independent Board Member at Harte-Hanks, Inc., CEO at Red Robin Gourmet Burgers. Past, CEO at El Pollo Loco, President and COO at Universal ...'
p10
a.