(lp0
S"Jun 10, 2015 - ... joined the ranks of restaurants like Shake Shack (SHAK) and El Pollo Loco (LOCO) looking to ... Look at the recent struggles of LOCO stock, down 13% over the past year. ... Access to Jim Cramer's daily blog; Intraday commentary and news ..."
p1
aS'Jun 10, 2015 - El Pollo Loco Holdings, Inc. 2014-Present. Chief Executive Officer, President, Director and Member of Compensation Committee. LRI Holdings, Inc.'
p2
aS'Jun 11, 2015 - Most Dangerous Small Cap stock and 3/23/15 Danger Zone pick El Pollo Loco Holdings (LOCO) fell by 20% and Most Dangerous Large Cap Stock Manitowoc ...'
p3
aS"Jun 11, 2015 - Join LinkedIn to get the latest news, insights, and opportunities from over 3 million ... Weinerschnitzel  Rubio's Restaurants, Inc. El Pollo Loco  CiCi's Pizza  Del ..."
p4
aS"Jun 11, 2015 - ... taken into custody and arrested on suspicion to entice a person for prostitution, a misdemeanor, according to a Yavapai County Sheriff's Office news release."
p5
aS"Jun 11, 2015 - Save Money. Fry's Weekly Ads  Fry's Digital Coupons  Fry's Promotions. Breaking news: Wildcats given No. 6 seed in NCAA tournament, will play Thursday ..."
p6
aS'Jun 11, 2015 - News  Contact Us  For more ... Ps From Aeropostale Store 3281 Imperial Valley Mall, El Centro, $ 900,000.00, More detail. American Eagle Outfitters ..... El Pollo Loco Tenant Improvement, Santa Clara, $ 500,000.00, More detail. Royal Vista ...'
p7
aS'Jun 11, 2015 - Steve Sather, CEO & President El Pollo Loco. Jarrod Dogan, CEO & President ... In the news. June 11, 2015  Orange County award recipients announced.'
p8
aS"Jun 10, 2015 - Labels: McDonald's , News .... Jr. Chick-fil-A Chipotle Church's Chicken Dairy Queen Del Taco Domino's Dunkin' Donuts El Pollo Loco Hardee's In-N-Out Jack in ..."
p9
aS'Jun 10, 2015 - Likes playing basketball  Once played a high school game in Dodger Stadium, his favorite sports moment  Likes include El Pollo Loco, homemade Rice ...'
p10
a.