(lp0
S'Jun 14, 2015 - They found that Boston Market gets higher scores on menu variety than other chicken joints such as El Pollo Loco, Chick-fil-A and Wingstop. But it scores low ...'
p1
aS'Jun 15, 2015 - You can access more in-depth stories and analysis, as well as news not found on any other website or any other media outlet. You also get free eNewsletters, ...'
p2
aS'Jun 15, 2015 - The latest news and updates on Target Corporation (TGT) mergers and acquisitions. ... The Zacks Analyst Blog Highlights: El Pollo Loco Holdings, Habit ...'
p3
aS'Jun 15, 2015 - 1002 S WALL ST 90015, AL WEISS CLOTHING, Small buildings, 145 ... 101 E MANCHESTER AV 90003, EL POLLO LOCO "THE CRAZY CHICKEN", Small ...'
p4
aS'Jun 14, 2015 - ... in their debuts, while chicken chain El Pollo Loco Holdings Inc. climbed about 60 percent and chicken and biscuits maker Bojangles Inc. advanced 25 percent.'
p5
aS"Jun 14, 2015 - Labels: News , Taco Bell .... Chick-fil-A Chipotle Church's Chicken Dairy Queen Del Taco Domino's Dunkin' Donuts El Pollo Loco Hardee's In-N-Out Jack in the ..."
p6
aS"Jun 15, 2015 - Recent News | Recent Reviews | Current Deals & Specials ..... Chicken Dairy Queen Del Taco Domino's Dunkin' Donuts El Pollo Loco Hardee's In-N-Out Jack in ..."
p7
aS'Jun 15, 2015 - ... Drury Hotels (1)  El Pollo Loco (4)  Eurest (35)  Firehouse Subs (4)  Flik (1) ... Pizza Hut (221)  Pollo Tropical (32)  Potbelly Sandwich Shop (10) ..... Careers  Our story  Giving back  Life at Snagajob  News  Affiliate ...'
p8
aS"Jun 15, 2015 - ... Dickey's Barbecue Pit (2)  Domino's Pizza (28)  El Pollo Loco (1) ... Pollo Tropical (1)  Potbelly Sandwich Shop (6)  Pretzelmaker (2) ..."
p9
aS'Jun 14, 2015 - From Business: Founded in 1975, El Pollo Loco is a chain of quick-service restaurants that specializes in serving flame-grilled chicken.'
p10
a.