(lp0
S'Jun 16, 2015 - CONTACT: Media Contact: Alecia Pulman ICR Inc. 203-682-8200 LOCO@icrinc.com. El Pollo Loco. Source: El Pollo Loco. News Provided by Acquire Media.'
p1
aS"Jun 16, 2015 - El Pollo LoCo Holdings Inc (NASDAQ:LOCO), the nation's leading fire-grilled chicken chain, opened its ... Receive news and analyst ratings updates for LOCO."
p2
aS"Jun 16, 2015 - COSTA MESA, Calif., June 16, 2015 (GLOBE NEWSWIRE) -- El Pollo Loco (Nasdaq:LOCO), the nation's leading fire-grilled chicken chain, ... The new location is the first El Pollo Loco restaurant in Napa County. ... other news releases in"
p3
aS'Jun 15, 2015 - You can access more in-depth stories and analysis, as well as news not found on any other website or any other media outlet. You also get free eNewsletters, ...'
p4
aS"Jun 16, 2015 - But what if KFC or El Pollo Loco had the power to quash Chick-fil-A's Nevada plans on the premise that the new competition might be bad for the bottom line?"
p5
aS'Jun 15, 2015 - 1002 S WALL ST 90015, AL WEISS CLOTHING, Small buildings, 145 ... 101 E MANCHESTER AV 90003, EL POLLO LOCO "THE CRAZY CHICKEN", Small ...'
p6
aS'Jun 15, 2015 - The latest news and updates on Target Corporation (TGT) mergers and acquisitions. ... The Zacks Analyst Blog Highlights: El Pollo Loco Holdings, Habit ...'
p7
aS'Jun 16, 2015 - Cheryl Fry - Senior Manager, Real Estate. El Pollo Loco, Inc, Costa Mesa, CA, United States Retailer/Tenant. Lisa Walker - Director, Real Estate. El Pollo Loco ...'
p8
aS'Jun 16, 2015 - Supervisors blame state cost shifts for tax increase.'
p9
aS'Jun 16, 2015 - El Pollo Loco. Where: 390 S. Mason, Katy; 9540 FM 1960. Oporto Fooding House & WineWhere: 125 W. GrayCost: $$-$$. Weights ...... Restaurants & Bars News ...'
p10
a.