(lp0
S"Jun 16, 2015 - El Pollo LoCo Holdings Inc (NASDAQ:LOCO), the nation's leading fire-grilled chicken chain, opened its ... Receive news and analyst ratings updates for LOCO."
p1
aS'Jun 16, 2015 - CONTACT: Media Contact: Alecia Pulman ICR Inc. 203-682-8200 LOCO@icrinc.com. El Pollo Loco. Source: El Pollo Loco. News Provided by Acquire Media.'
p2
aS"Jun 16, 2015 - COSTA MESA, Calif., June 16, 2015 (GLOBE NEWSWIRE) -- El Pollo Loco (Nasdaq:LOCO), the nation's leading fire-grilled chicken chain, ... The new location is the first El Pollo Loco restaurant in Napa County. ... other news releases in"
p3
aS"Jun 16, 2015 - But what if KFC or El Pollo Loco had the power to quash Chick-fil-A's Nevada plans on the premise that the new competition might be bad for the bottom line?"
p4
aS'Jun 16, 2015 - Cheryl Fry - Senior Manager, Real Estate. El Pollo Loco, Inc, Costa Mesa, CA, United States Retailer/Tenant. Lisa Walker - Director, Real Estate. El Pollo Loco ...'
p5
aS"Jun 17, 2015 - EL POLLO LOCO Jun 17 @ 7:02pm. stuttering at 60 FPS. I'm using an EVGA GTX 780 6GB. But GTA5 still stutters even though I'm at a high frame rate."
p6
aS'Jun 16, 2015 - Supervisors blame state cost shifts for tax increase.'
p7
aS'Jun 16, 2015 - News ltd and the pro coalition media has got a propaganda video on .... ElPolloLoco thefinnigans1 ... News ltd newspoll , had to do one final propaganda poll.'
p8
aS'Jun 16, 2015 - El Pollo Loco. Where: 390 S. Mason, Katy; 9540 FM 1960. Oporto Fooding House & WineWhere: 125 W. GrayCost: $$-$$. Weights ...... Restaurants & Bars News ...'
p9
aS'Jun 17, 2015 - Twin Cities News ... El Taco Riendo ... A Dinkytown staple, Burrito Loco has delivered many a late night burrito to ... El Burrito Mercado on Facebook ... Their tinga de pollo spicy chicken burrito is especially tasty for those who like a little kick.'
p10
a.