(lp0
S'Jun 18, 2015 - The mural graces the side of El Pollo Loco Los Pandas, a Mexican restaurant. ... The purpose of the mural at El Pollo Loco Los Pandas is written on the wall: ...'
p1
aS"Jun 18, 2015 - ... manager at Rally's Hamburgers for about five years, and also as a general/products training manager at an El Pollo Loco restaurant for more than 10 years."
p2
aS"Jun 18, 2015 - June 18, 2015 Atascocita, HKA Texas News, ShopHKA ... Valley Ranch Town Center adds Chickfila, Chili's, El Pollo Loco, Freebirds, Subway, T. Jin's Asian ..."
p3
aS"Jun 18, 2015 - ... the pop star's expenses for 2014 were just obtained by E! News and it lo... ... El Pollo Loco and - because we all love eating breakfast for dinner - IHOP!"
p4
aS'Jun 17, 2015 - Twin Cities News ... El Taco Riendo ... A Dinkytown staple, Burrito Loco has delivered many a late night burrito to ... El Burrito Mercado on Facebook ... Their tinga de pollo spicy chicken burrito is especially tasty for those who like a little kick.'
p5
aS"Jun 17, 2015 - EL POLLO LOCO Jun 17 @ 7:02pm. stuttering at 60 FPS. I'm using an EVGA GTX 780 6GB. But GTA5 still stutters even though I'm at a high frame rate."
p6
aS'Jun 18, 2015 - Michael William Corey of Oro Valley died during an Army training exercise in South Korea.'
p7
aS"Jun 18, 2015 - Marcio Jose Sanchez Georganne Moline, left, and T'Erea Brown celebrate making it to the Olympic team after finishing the women's 400 meter hurdles at the ..."
p8
aS'Jun 18, 2015 - El Pollo Loco (Green Room). MEDIA TRADE PARTNERS. KCRW. Artist: Official Website: www.judycollins.com. Social Media: Facebook. Venue: Macarthur ...'
p9
aS'Jun 17, 2015 - El Pollo Loco (Green Room). MEDIA TRADE PARTNERS. Artist: Official Website: mitre-music.com Social Media: Facebook. Venue: Macarthur Park, Los Angeles ...'
p10
a.