(lp0
S'Jun 1, 2015 - Watch KCRA/KQCA News ... Citrus Heights El Pollo Loco shooting ... Sunday evening when shots were fired near an El Pollo Loco restaurant in Citrus Heights.'
p1
aS'Jun 1, 2015 - RANCHO CUCAMONGA: Riverside man dies in jail cell. News .... Clark came to Farmer Boys from El Pollo Loco in 2006 to spur company expansion. Havadjias ...'
p2
aS'Jun 1, 2015 - Eadon has held various senior executive positions with El Pollo Loco, Taco Bell, ARCO Products Company, ... The news you need, when you need it. Journalists ...'
p3
aS"Jun 1, 2015 - Home > News > People > Farmer Boys names Karen Eadon president, COO ... with such restaurants as Applebee's Neighborhood Bar & Grill, El Pollo Loco, ..."
p4
aS"Jun 1, 2015 - This news was a disappointment after the 0.5% advance the Commerce ..... El Pollo Loco, Jack in the Box, Kohl's, Nordstrom, Perry Ellis and Symantec. Friday ..."
p5
aS'Jun 1, 2015 - Carniceria El Potrero, 624 W Broadway Rd Suite 205, Mesa, 85210, 5/6/15, 3. Chennai Fusion Grill, 4929 W Chandler Blvd Suite 1, Chandler, 85226, 5/20/15, 3.'
p6
aS'May 31, 2015 - Last night on the local news I watched a young reporter standing in front of our .... Memoir Stories: My First Meal In America at the El Pollo Loco  Welcome to LA ...'
p7
aS'Jun 1, 2015 - 4 Kroger Marketplace News. 8 Camp Forbing ... 27 Central Texas Development News ..... Bob Conwell and David Meyers leased 32,777 SF to El Pollo Loco.'
p8
aS"Jun 1, 2015 - The secret to El Pollo Loco's success is our great-tasting food. Our menu has a broad and deep consumer acceptance across a wide span of demographic and ..."
p9
aS"Jun 1, 2015 - Labels: KFC, News ... Church's Chicken (4); East Coast Wings & Grill (1); El Pollo Loco (8); Hooters (14); Hurricane Grill & Wings (4); Kenny Rogers Roasters (9) ..."
p10
a.