(lp0
S'Jun 23, 2015 - El Pollo Loco Holdings Inc (LOCO) or El Pollo Loco, pronounced L Po-yo Lo-co in ... WKS Restaurant Corporation is expanding its commitment to El Pollo Loco with plans to open six new restaurants in Salt Lake City, Utah. ... Guru News ...'
p1
aS'Jun 22, 2015 - June 22, 2015 HKA Texas News, Restaurants. Share ... The 2,900 square-foot Humble El Pollo Loco restaurant has seating for 72 guests in the dining room and ...'
p2
aS'Jun 22, 2015 - Critical Alerts For Seadrill, Intrexon, bluebird bio Inc., El Pollo Loco and ... While many other market reports only provide stock news and opinion, we offer ...'
p3
aS'Jun 22, 2015 - DOW JONES, A NEWS CORP COMPANY. News Corp is a .... A Sonic Corp. drive-in restaurant in Normal, Ill. Photo: DANIEL ACKER/BLOOMBERG NEWS. By.'
p4
aS'Jun 22, 2015 - You can access more in-depth stories and analysis, as well as news not found ... Carley leaving El Pollo Loco for Red Robin  Noodles & Company executive VP ...'
p5
aS"Jun 22, 2015 - Nation's Restaurant News. Search: Events/MUFSO  Digital Edition  Subscribe .... Nation's Restaurant News Corporate. About Us  Advertise  Contact  Terms of ..."
p6
aS'Jun 23, 2015 - The result is Pollo Picante BBQ Grill Chicken, which opened last month on Country ... what separate Pollo Picante from national chains like El Pollo Loco, Nunez says. ... Keep up to date on local food & drink news: Click here to receive a daily ...'
p7
aS"Jun 22, 2015 - Save Money. Fry's Weekly Ads  Fry's Digital Coupons  Fry's Promotions  Home/; News/; Blogs/; Blog: Latest Tucson crime news ..."
p8
aS'Jun 22, 2015 - El Pollo Loco serves fresh avocados in numerous items, including sliced in a line of Avocado Tostadas and chopped in several chicken burritos. It gives a fresh, ...'
p9
aS"Jun 22, 2015 - Television's longest-running evening business news broadcast, NBR features in-depth coverage and analysis of ... LOCO, El Pollo Loco Holdings Inc, -8.20%."
p10
a.