(lp0
S'Jun 23, 2015 - El Pollo Loco Holdings Inc (LOCO) or El Pollo Loco, pronounced L Po-yo Lo-co in ... WKS Restaurant Corporation is expanding its commitment to El Pollo Loco with plans to open six new restaurants in Salt Lake City, Utah. ... Guru News ...'
p1
aS'Jun 24, 2015 - Last summer an El Pollo Loco opened on Martin Luther King Boulevard. Today ground is being broken on future Starbucks.'
p2
aS"Jun 24, 2015 - And Amy's last week put out a news release saying the restaurant will start ... strip that features Taco Bell, Burger King, Arbys, In-N-Out Burger and El Pollo Loco."
p3
aS'Jun 25, 2015 - News, financial information for Krispy Kreme Doughnuts restaurant chain.'
p4
aS'Jun 25, 2015 - News, financial information for LongHorn Steakhouse restaurant chain.'
p5
aS'Jun 23, 2015 - The result is Pollo Picante BBQ Grill Chicken, which opened last month on Country ... what separate Pollo Picante from national chains like El Pollo Loco, Nunez says. ... Keep up to date on local food & drink news: Click here to receive a daily ...'
p6
aS'Jun 23, 2015 - Blaze Pizza will occupy 3,120-square-foot space at the Decatur 215 commercial center and join fellow fast food purveyors El Pollo Loco, Teriyaki Madness, ...'
p7
aS'Jun 24, 2015 - Rainfall totals are expected to be less than 0.25 inches.'
p8
aS'Jun 24, 2015 - Current, CFO at El Pollo Loco ... Summary, Chief Financial Officer for El Pollo Loco, a publicly traded, 400 unit restaurant chain ... Discover news and ideas.'
p9
aS'Jun 23, 2015 - Market News  Delta Air Line Acqui. 27 Jul, 2015. 3345. Article. Market News  UPS (NYSE: UPS) Acqu ... Market News  El Pollo LoCo Holdin. 14 Aug, 2015.'
p10
a.