(lp0
S"Jun 25, 2015 - El Pollo Loco, the nation's leading fire-grilled chicken chain, today opened its newest location in Humble."
p1
aS'Jun 25, 2015 - El Pollo Loco  Spanish for The Crazy Chicken  hopes to open a location at 224 W. Kettleman .... Posted in News on Thursday, June 25, 2015 11:59 pm.'
p2
aS"Jun 25, 2015 - COSTA MESA, Calif., June 25, 2015 (GLOBE NEWSWIRE) -- El Pollo Loco (Nasdaq:LOCO), the nation's leading fire-grilled chicken ... El Pollo Loco Keeps the Fire Going in Houston With New Humble Restaurant ... other news releases in"
p3
aS'Jun 24, 2015 - Last summer an El Pollo Loco opened on Martin Luther King Boulevard. Today ground is being broken on future Starbucks.'
p4
aS"Jun 24, 2015 - And Amy's last week put out a news release saying the restaurant will start ... strip that features Taco Bell, Burger King, Arbys, In-N-Out Burger and El Pollo Loco."
p5
aS"Jun 25, 2015 - ... deep-fried treat is getting some love in Fresno with news that Krispy Kreme is ... owns several other Krispy Kreme, Denny's, El Pollo Loco and Corner Bakery ..."
p6
aS"Jun 25, 2015 - ... Deli Jason's Deli Starbucks In-N-Out Burgers Chick-fil-A Five Guys Burgers & Fries Dunkin' Donuts Boston Market EL Pollo Loco Jimmy John's Panda Express ..."
p7
aS'Jun 25, 2015 - News, financial information for Krispy Kreme Doughnuts restaurant chain.'
p8
aS"Jun 25, 2015 - News and information on Subway from Nation's Restaurant News."
p9
aS'Jun 25, 2015 - News, financial information for LongHorn Steakhouse restaurant chain.'
p10
a.