(lp0
S'Jun 25, 2015 - El Pollo Loco  Spanish for The Crazy Chicken  hopes to open a location at 224 W. Kettleman .... Posted in News on Thursday, June 25, 2015 11:59 pm.'
p1
aS'Jun 25, 2015 - CONTACT: Media Contact: Alecia Pulman ICR Inc. 203-682-8200 LOCO@icrinc.com. El Pollo Loco. Source: El Pollo Loco. News Provided by Acquire Media.'
p2
aS"Jun 25, 2015 - COSTA MESA, Calif., June 25, 2015 (GLOBE NEWSWIRE) -- El Pollo Loco (Nasdaq:LOCO), the nation's leading fire-grilled chicken ... El Pollo Loco Keeps the Fire Going in Houston With New Humble Restaurant ... other news releases in"
p3
aS'Jun 26, 2015 - Lodi News-Sentinel .... El Pollo Loco plans to open Lodi location http://www.lodinews.com/news/article_dc3d8650-1bd0-11e5-8d93-8f5c9ef0399d.html '
p4
aS"Jun 26, 2015 - News, financial information for Sheetz. ... Skip to Navigation Skip to Content. Nation's Restaurant News. Search: Events/MUFSO  Digital Edition  Subscribe ..."
p5
aS"Jun 26, 2015 - Nation's Restaurant News. Search: Events/MUFSO  Digital Edition  Subscribe .... Nation's Restaurant News Corporate. About Us  Advertise  Contact  Terms of ..."
p6
aS"Jun 27, 2015 - News and information on Wingstop from Nation's Restaurant News."
p7
aS"Jun 25, 2015 - ... Deli Jason's Deli Starbucks In-N-Out Burgers Chick-fil-A Five Guys Burgers & Fries Dunkin' Donuts Boston Market EL Pollo Loco Jimmy John's Panda Express ..."
p8
aS"Jun 25, 2015 - ... deep-fried treat is getting some love in Fresno with news that Krispy Kreme is ... owns several other Krispy Kreme, Denny's, El Pollo Loco and Corner Bakery ..."
p9
aS'Jun 26, 2015 - Breaking news for greater Los Angeles and Orange County ... City News Service. Geocode ... Fire causes major damage to El Pollo Loco restaurant in Agoura ...'
p10
a.