(lp0
S'Jun 30, 2015 - ... Media Contact: Alecia Pulman , ICR 203-682-8200 LOCO@icrinc.com. El Pollo Loco. Source: El Pollo Loco. News Provided by Acquire Media.'
p1
aS'Jun 30, 2015 - COSTA MESA, Calif., June 30, 2015 (GLOBE NEWSWIRE) -- El Pollo Loco Holdings, Inc. ("El Pollo Loco" and the "Company") ... El Pollo Loco Holdings, Inc. Appoints Mark Buller to Its Board of Directors ... other news releases in. Directors and ...'
p2
aS'Jun 29, 2015 - TACO and LOCO are both primarily Mexican chains in California.Both describe themselves as QSR+.Both trade at similar valuations but one has a clear edge.'
p3
aS"Jun 30, 2015 - News and information on Texas Roadhouse from Nation's Restaurant News."
p4
aS"Jun 30, 2015 - After all, even Phoenix decided it was time to adopt El Guero Canelo and we can't ... Most of their sites have been taken over by El Pollo Loco, but last I checked, ..."
p5
aS'Jun 30, 2015 - News & Events ... From January 2009 to February 2011, Mr. Stein was the Senior Vice President of Strategy & Innovation for El Pollo Loco, Inc., a restaurant ...'
p6
aS'Jun 30, 2015 - Correlation is Bad News for US Equity Investors ... For example: El Pollo Loco Holdings ($LOCO), with no restaurants outside of the United States and minimal ...'
p7
aS'Jun 29, 2015 - John Kromko, coordinator of Tucson Traffic Justice, and other volunteers carry bins filled with petitions to the Tucson City Clerk Election Services Office. To get a ...'
p8
aS"Jun 29, 2015 - Save Money. Fry's Weekly Ads  Fry's Digital Coupons  Fry's Promotions  Home/; News/; Blogs/; Blog: Latest Tucson crime news ..."
p9
aS'Jun 29, 2015 - News  Videos  Radio  Reviews ... a superstar, Brad Pitt used to dress up as the chicken mascot for the restaurant chain El Pollo Loco to make ends meet.'
p10
a.