(lp0
S'Jun 3, 2015 - El Pollo Loco is offering new Hand-Carved Chicken Salads with 50% more chicken in comparison to their normal salads for a limited time.'
p1
aS'Jun 3, 2015 - The news service noted that with shares already trading near its price targets, there ... (NASDAQ:PLKI) and El Pollo Loco (NASDAQ:LOCO) all vying for dollars.'
p2
aS"Jun 2, 2015 - ... Bojangles (BOJA) and El Pollo Loco (LOCO), Boston Market's backers may be seeking to ... Access to Jim Cramer's daily blog; Intraday commentary and news ..."
p3
aS"ET Giveaway at McDonald's 48. Ford Aerostar 49. El Pollo Loco 50. Buick 51. KABC City View promo: Latino ..."
p4
aS"Jun 3, 2015 - Save Money. Fry's Weekly Ads  Fry's Digital Coupons  Fry's Promotions  Home/; News/; Blogs/; Blog: Latest Tucson crime news ..."
p5
aS"Jun 3, 2015 - N) and El Pollo Loco Holdings Inc (LOCO. ... Thomson Reuters is the world's largest international multimedia news agency, providing investing news, world ..."
p6
aS"Jun 2, 2015 - Economic News This Week. Real Gross Domestic ... Growth Chains: El Pollo Loco will open seven locations in North Texas in the next four years. Fuzzy's Taco ..."
p7
aS"Jun 2, 2015 - Brazilian steakhouse chain Fogo de Chao Inc., Habit Restaurants Inc., El Pollo Loco Inc., Zoe's Kitchen Inc. and Dave & Buster's Inc. all priced IPOs last year."
p8
aS'Jun 3, 2015 - ... including real-time stock quotes, historical charts & financial news, all for free! ... Business Finance News - Sep 10, 2015 .... LOCO  El Pollo LoCo Hol.'
p9
aS'Jun 3, 2015 - (Source: El Pollo Loco Holdings Inc ) EL POLLO LOCO UNVEILS NEW LINE OF CRAVE-WORTHY SALADS ... Avocado Lovers Rejoice as El Pollo Loco Launches New Line of Tostadas (El Pollo Loco Holdings Inc) .... Popular News Stories ...'
p10
a.