(lp0
S'Jun 3, 2015 - El Pollo Loco is offering new Hand-Carved Chicken Salads with 50% more chicken in comparison to their normal salads for a limited time.'
p1
aS"Jun 4, 2015 - It is a member of IBD's Retail-Restaurants industry group, joined by fellow recent IPOs Shake Shack (SHAK), El Pollo Loco (LOCO) and Habit Restaurants ..."
p2
aS'Jun 3, 2015 - The news service noted that with shares already trading near its price targets, there ... (NASDAQ:PLKI) and El Pollo Loco (NASDAQ:LOCO) all vying for dollars.'
p3
aS"Jun 4, 2015 - Shake Shack's IPO valuation outperforms the industry  El Pollo Loco gets strong ... give their points of view on news happening in the restaurant business."
p4
aS'Jun 5, 2015 - ... including real-time stock quotes, historical charts & financial news, all for free! ... Financial Market News - Apr 6, 2016 .... LOCO  El Pollo LoCo Hol... 14.38, + ...'
p5
aS'Jun 4, 2015 - ... including real-time stock quotes, historical charts & financial news, all for free! ... Financial Market News - Apr 5, 2016. Wingstop .... LOCO  El Pollo LoCo Hol.'
p6
aS"Jun 4, 2015 - El Pollo Loco's COO to leave company. 8:07 A.M. ET ... El Pollo Loco COO Kay Bogeajis to leave company. 8:02 A.M. ET .... More News from MarketWatch."
p7
aS"Jun 3, 2015 - Save Money. Fry's Weekly Ads  Fry's Digital Coupons  Fry's Promotions  Home/; News/; Blogs/; Blog: Latest Tucson crime news ..."
p8
aS"Jun 3, 2015 - N) and El Pollo Loco Holdings Inc (LOCO. ... Thomson Reuters is the world's largest international multimedia news agency, providing investing news, world ..."
p9
aS'Jun 4, 2015 - El Pollo Loco  a restaurant chain that specializes in Mexican-style grilled chicken. 4.) El Pollo Loco - a restaurant chain that specializes in Mexican-style.'
p10
a.