(lp0
S"Jun 7, 2015 - More like a 'Pollos Hermanos' than the Chipotle media comparison it is currently getting.20+ years of failed domestic expansion track record.Two-year comp ..."
p1
aS"Jun 8, 2015 - ... Big Lots, Dunkin' Donuts, El Pollo Loco, EXPRESS, Forever 21, JCPenney, ... Apple Info  Site Map  Hot News  RSS Feeds  Contact Us  Choose your ..."
p2
aS'Jun 8, 2015 - Share Trading News - 15 hours ago .... LOCO  El Pollo LoCo Hol... 14.14, - ... Pollo Tropical is a fast-casual restaurant brand offering a range of Caribbean food.'
p3
aS"Jun 8, 2015 - ... Joes, Baskin Robbins, and El Pollo Loco being just a few of the new additions. ... For the latest news from Apple's WWDC 2015 keynote, visit our WWDC 2015 ..."
p4
aS"Jun 7, 2015 - Mmmmmmmmmmmmmmmm El Pollo Loco... it's been so long. Since I dont really have a question for you about the job specifically... how do you like it?"
p5
aS"Jun 8, 2015 - He was responsible for the original expansion of El Pollo Loco in Los Angeles' metropolitan areas in the 1980s. Through his .... Top News and Analysis"
p6
aS"Jun 8, 2015 - Some of the new merchants accepting Apple Pay in stores this year include Baskin Robbins, Best Buy, BevMo!, Big Lots, Dunkin' Donuts, El Pollo Loco, Express, ..."
p7
aS"Jun 8, 2015 - Just a few of the newest merchants accepting Apple Pay in stores this year include Baskin Robbins, Best Buy, BevMo!, Big Lots, Dunkin' Donuts, El Pollo Loco, ..."
p8
aS'Jun 8, 2015 - The deceased are from Tucson unless otherwise noted. Bazner, Peggy Ann, 60, accounting, June 6, Adair Avalon. Bishop, Patricia I., 86, homemaker, May 30, ...'
p9
aS"Jun 7, 2015 - 6) El Pollo Loco. Facebook. If you've spent any amount of time dining in Mexicantown in Detroit, you've likely experienced flame-broiled chicken like this. So why ..."
p10
a.