(lp0
S"Jun 8, 2015 - ... Big Lots, Dunkin' Donuts, El Pollo Loco, EXPRESS, Forever 21, JCPenney, ... Apple Info  Site Map  Hot News  RSS Feeds  Contact Us  Choose your ..."
p1
aS'Jun 8, 2015 - Share Trading News - 15 hours ago .... LOCO  El Pollo LoCo Hol... 14.14, - ... Pollo Tropical is a fast-casual restaurant brand offering a range of Caribbean food.'
p2
aS'Jun 10, 2015 - Get reviews, hours, directions, coupons and more for El Pollo Loco at 4528 Hwy 6 South, Sugar Land, TX. Search for other Fast Food Restaurants in Sugar Land ...'
p3
aS"Jun 8, 2015 - ... Joes, Baskin Robbins, and El Pollo Loco being just a few of the new additions. ... For the latest news from Apple's WWDC 2015 keynote, visit our WWDC 2015 ..."
p4
aS'Jun 10, 2015 - News  Contact Us  For more ... Dr R Armendariz 16 Hr Clinic, El Paso, $ 140,000.00, More detail ...... El Pollo Loco Restaurant, Katy, $ 400,000.00, More detail.'
p5
aS"Jun 8, 2015 - Some of the new merchants accepting Apple Pay in stores this year include Baskin Robbins, Best Buy, BevMo!, Big Lots, Dunkin' Donuts, El Pollo Loco, Express, ..."
p6
aS"Jun 9, 2015 - June 9, 2015 Atascocita, HKA Texas News ... Valley Ranch Town Center adds Chickfila, Chili's, El Pollo Loco, Freebirds, Subway, T. Jin's Asian Caf and others."
p7
aS"Jun 8, 2015 - Just a few of the newest merchants accepting Apple Pay in stores this year include Baskin Robbins, Best Buy, BevMo!, Big Lots, Dunkin' Donuts, El Pollo Loco, ..."
p8
aS'Jun 8, 2015 - The deceased are from Tucson unless otherwise noted. Bazner, Peggy Ann, 60, accounting, June 6, Adair Avalon. Bishop, Patricia I., 86, homemaker, May 30, ...'
p9
aS"Jun 8, 2015 - He was responsible for the original expansion of El Pollo Loco in Los Angeles' metropolitan areas in the 1980s. Through his .... Top News and Analysis"
p10
a.