(lp0
S"Jul 13, 2015 - The 3,500-square foot restaurant, coming to the Milwaukee Avenue space formerly occupied by El Pollo Loco and Mr. G's Beef, will seat 99 people. 2715 N."
p1
aS'Jul 14, 2015 - News. Sign Up for Our Mailing List. Sign Up > ... and El Pollo Loco Holdings Inc. (LOCO), sponsored by Trimaran Capital Partners, several recreational products ...'
p2
aS'Jul 13, 2015 - 74 ORANGE COUNTY BUSINESS JOURNAL Local breaking news: ... Sather has brought former Yum and Taco Bell alumni to El Pollo Loco: I Chief Operating ...'
p3
aS'Jul 14, 2015 - Mariscos El Cochorit, 5037 W Thomas Rd, Phoenix, 85031, 6/2/15, 4. Amaro Italiano Ristorante, 28234 N Tatum Blvd, Cave Creek, 85331, 6/3/15, 4.'
p4
aS"Jul 14, 2015 - Save Money. Fry's Weekly Ads  Fry's Digital Coupons  Fry's Promotions  Home/; News/; Blogs/; Blog: Latest Tucson crime news ..."
p5
aS"Jul 13, 2015 - Save Money. Fry's Weekly Ads  Fry's Digital Coupons  Fry's Promotions. Breaking news: Wildcats given No. 6 seed in NCAA tournament, will play Thursday ..."
p6
aS"Jul 14, 2015 - El Pollo Loco: Sign up for Loco Rewards emails. What your rewards get you: Freebies when you sign up, on your birthday, and randomly at the restaurant's whim."
p7
aS'Jul 13, 2015 - of Costa Mesa-based El Pollo Loco Holdings. Inc.;. I Stephanie Lambrecht, vice president ... Local breaking news: wwwncbinom. ORANGE COUNTY BUSINESS ...'
p8
aS"Jul 14, 2015 - ... Drury Hotels (3)  Dunkin Donuts (1)  Dunkin' Donuts - Franchisee of Dunkin Donuts (4)  El Pollo Loco (4)  Eurest (23)  Firehouse Subs ..."
p9
aS'Jul 14, 2015 - ... El Pollo Loco Holdings Inc. for rotisserie chicken, The Habit Restaurants for ... Tops Estimates on North American Snack Gains, Bloomberg News, July 9, 2015.'
p10
a.