(lp0
S'Jul 16, 2015 - El Pollo Loco gives us four new takes on their signature Pollo Bowl with new $5 Pollo Bowl Combos. ... - Original Pollo Bowl - Chopped flame-grilled chicken breast, pinto beans, rice, pico de gallo, onions, and cilantro. - New Shrimp & Chicken Bowl - Chopped flame-grilled chicken ...'
p1
aS'Jul 16, 2015 - Visit NatureMade.com for the latest news and offerings. ... Priceline, MINI Cooper, Blue Shield of California, Greyhound, El Pollo Loco, Sunrun and others.'
p2
aS"Jul 15, 2015 - El Charro restaurants and sister eateries are offering a ganga BOGO  buy a $100 gift card and get a second $100 gift card free. It's available for just two days ..."
p3
aS"Jul 16, 2015 - October 14, 2015 Business Spotlight, Crosby, HKA Texas News ... Valley Ranch Town Center adds Chickfila, Chili's, El Pollo Loco, Freebirds, Subway, T. Jin's ..."
p4
aS'Jul 15, 2015 - By City News Service. Published July 15 ... Fyad said Peterson is accused of telling the officer to meet him at an El Pollo Loco restaurant in Long Beach. He was ...'
p5
aS'Jul 16, 2015 - ... the first sitting president to visit a prison  a federal institution in Oklahoma called El Reno. .... The best SoCal news in your inbox, daily. ... 3 men arrested in connection to El Pollo Loco thefts Article  In Newark, Obama to call for breaking ...'
p6
aS'Jul 16, 2015 - Anyone who downloads the free app knows about that fight at El Pollo Loco, or any other crime in the city. "If you\'re curious what\'s going on it will show exactly ...'
p7
aS'Jul 15, 2015 - ECONOMIC NEWS. July 2015 ... RETAIL NEWS (openings, closings, growth, popular stores, most visited stores).  ON-LINE ..... El Pollo Loco Holdings: 5.1%.'
p8
aS'Jul 15, 2015 - El Pollo Loco focuses on value. Outlining the stark difference between its past designs with its new hacienda-centric look, CEO Stephen Sather said its new ...'
p9
aS"Jul 15, 2015 - Why is that when ever news comes about something that will improve the ... Okay, here's something to replace the El Pollo Loco that closed years ago and ..."
p10
a.