(lp0
S'Jun 30, 2015 - ... Media Contact: Alecia Pulman , ICR 203-682-8200 LOCO@icrinc.com. El Pollo Loco. Source: El Pollo Loco. News Provided by Acquire Media.'
p1
aS'Jun 30, 2015 - COSTA MESA, Calif., June 30, 2015 (GLOBE NEWSWIRE) -- El Pollo Loco Holdings, Inc. ("El Pollo Loco" and the "Company") ... El Pollo Loco Holdings, Inc. Appoints Mark Buller to Its Board of Directors ... other news releases in. Directors and ...'
p2
aS'Jul 1, 2015 - El Pollo Loco Holdings, Inc. (LOCO) Competitors - View direct and indirect business competitors for El Pollo Loco Holdings, Inc. and all the companies you ...'
p3
aS'Jul 1, 2015 - The most reliable source for Las Vegas news ... Several businesses in the area, including Panda Express and El Pollo Loco, self-evacuated as a precaution ...'
p4
aS'Jul 1, 2015 - French said nearby El Pollo Loco and Panda Express restaurants were ... pictures or videos of breaking news, email them to ReportIt@fox5vegas.com or upload ...'
p5
aS"Jun 30, 2015 - After all, even Phoenix decided it was time to adopt El Guero Canelo and we can't ... Most of their sites have been taken over by El Pollo Loco, but last I checked, ..."
p6
aS'Jul 1, 2015 - ... including real-time stock quotes, historical charts & financial news, all for free! ... All news for Del Taco Restaurants Inc  ... LOCO  El Pollo LoCo Hol.'
p7
aS"Jun 30, 2015 - News and information on Texas Roadhouse from Nation's Restaurant News."
p8
aS"Jul 1, 2015 - Friday is the last day for downtown Tucson's lone sushi restaurant."
p9
aS'Jun 30, 2015 - News & Events ... From January 2009 to February 2011, Mr. Stein was the Senior Vice President of Strategy & Innovation for El Pollo Loco, Inc., a restaurant ...'
p10
a.