(lp0
S'Jul 20, 2015 - DOW JONES, A NEWS CORP COMPANY ... companies in the worlds of diversified media, news, education, and information services. .... BREAKING NEWS ...'
p1
aS'Jul 19, 2015 - El Pollo Loco unveiled four Hand-Carved Chicken Salads. All are topped with sliced, fire-grilled, citrus-marinated chicken. They are: Southwest Bacon with ...'
p2
aS"Jul 19, 2015 - Posted in News on Sunday, July 19, 2015 8:00 pm. ... facility in Humble  El Pollo Loco celebrates growing presence in Houston by hosting 'Loco Fun Day' ..."
p3
aS'Jul 20, 2015 - While many other market reports only provide stock news and opinion, we ... El Pollo Loco, First Solar, Dollar Tree and hundreds of other stocks Released By ...'
p4
aS'Jul 20, 2015 - Home > News > People > Subway CMO Tony Pace to step down ... USA chief marketing officer to step down  El Pollo Loco CEO Steve Carley to step down ...'
p5
aS'Jul 20, 2015 - Since 2012, Wells Fargo has donated more than 250 properties to veterans, Albuquerque branch sales manager Jeff Payne said in a news release. Since the ...'
p6
aS'Jul 19, 2015 - Subway, El Pollo Loco.... what else? =[? KFC or El Pollo Loco? Is El Pollo Loco chicken REALLY healthy? More questions. Are BRC burritos from El Pollo Loco ...'
p7
aS'Jul 19, 2015 - Apparently he had Loco motives. ... He might be the restaurant robber. He had El Pollo Loco motives. permalink; save; give gold. []Ducreux4U -2 points-1 ...'
p8
aS'Jul 19, 2015 - Home  News .... plans for a second Pollo Loco across from ValleyRegionalMedicalCenter on Alton Gloor Boulevard are under review, according to the report.'
p9
aS"Jul 20, 2015 - Labels: Limited-Time , News , Papa John's .... Chipotle Church's Chicken Dairy Queen Del Taco Domino's Dunkin' Donuts El Pollo Loco Hardee's In-N-Out Jack ..."
p10
a.