(lp0
S'Jul 21, 2015 - News: Remembering those late-night Naugles run | anaheim, naugles, food, location, movies, taco, night, late, name, ... That building is now an El Pollo Loco.'
p1
aS'Jul 20, 2015 - DOW JONES, A NEWS CORP COMPANY ... companies in the worlds of diversified media, news, education, and information services. .... BREAKING NEWS ...'
p2
aS'Jul 20, 2015 - Home > News > People > Subway CMO Tony Pace to step down ... USA chief marketing officer to step down  El Pollo Loco CEO Steve Carley to step down ...'
p3
aS'Jul 20, 2015 - While many other market reports only provide stock news and opinion, we ... El Pollo Loco, First Solar, Dollar Tree and hundreds of other stocks Released By ...'
p4
aS'Jul 20, 2015 - Since 2012, Wells Fargo has donated more than 250 properties to veterans, Albuquerque branch sales manager Jeff Payne said in a news release. Since the ...'
p5
aS"Jul 21, 2015 - Money: The Ask Matt column regarding El Pollo Loco that ran Sept. 5 misstated the company's second-quarter revenue. The company reported revenue of $86 ..."
p6
aS'Jul 20, 2015 - weather rain storm storm damage apartment orange county news Orange County Huntington Beach. (Copyright ... As El Nino moves out, look out for La Nina.'
p7
aS"Jul 21, 2015 - Labels: Limited-Time , News , Red Lobster .... Chipotle Church's Chicken Dairy Queen Del Taco Domino's Dunkin' Donuts El Pollo Loco Hardee's In-N-Out Jack ..."
p8
aS"Jul 20, 2015 - Labels: Cinnabon , News .... Chick-fil-A Chipotle Church's Chicken Dairy Queen Del Taco Domino's Dunkin' Donuts El Pollo Loco Hardee's In-N-Out Jack in the ..."
p9
aS'Jul 21, 2015 - Off-price retailer, Ross Stores Inc. (ROST) is moving on the right track with its store expansion plans as it opened 27 new stores in July.'
p10
a.