(lp0
S'Jul 21, 2015 - News: Remembering those late-night Naugles run | anaheim, naugles, food, location, movies, taco, night, late, name, ... That building is now an El Pollo Loco.'
p1
aS'Jul 22, 2015 - News about Carmel Mountain Ranch Town Center. ... Boto by Sushiya, Dairy Queen, Delhi Kitchen, El Pollo Loco, Greek Corner Caf, Jalapenos Mexican Food, ...'
p2
aS'Jul 22, 2015 - El Pollo Loco (LOCO) went public a few weeks after GoPro last summer and the fast-food chain specializing in citrus-marinated grilled chicken with 415 locations ...'
p3
aS'Jul 22, 2015 - A El Pollo Loco Prep Cook annual salary is about $22000, based on salary and pay scale data from 1 real El Pollo Loco employees.'
p4
aS'Jul 22, 2015 - Sign Up For Breaking News Alerts ..... Thousands of companies now voluntarily use the E-Verify program with success -- for example, FedEx and El Pollo Loco.'
p5
aS"Jul 22, 2015 - Industry News ... Spongberg's WKS, based in Lakewood, Calif., owns 110 Denny's, El Pollo Loco, Krispy Kreme and Corner Bakery Caf restaurants throughout ..."
p6
aS'Jul 22, 2015 - Nandi, at about 925 pounds, makes trainers nervous that she will be squashed when she wallows with dad or swims with all six elephants.'
p7
aS"Jul 21, 2015 - Money: The Ask Matt column regarding El Pollo Loco that ran Sept. 5 misstated the company's second-quarter revenue. The company reported revenue of $86 ..."
p8
aS'Jul 21, 2015 - Off-price retailer, Ross Stores Inc. (ROST) is moving on the right track with its store expansion plans as it opened 27 new stores in July.'
p9
aS"Jul 22, 2015 - Nation's Restaurant News. Search: Events/MUFSO  Digital Edition  Subscribe .... Nation's Restaurant News Corporate. About Us  Advertise  Contact  Terms of ..."
p10
a.