(lp0
S'Jul 23, 2015 - CHICAGO, July 23, 2015 /PRNewswire/ -- Critical Alerts For Disney, El Pollo Loco, ... While many other market reports only provide stock news and opinion, we ...'
p1
aS"Jul 24, 2015 - The euphoria around El Pollo Loco being the next Chipotle has finally died down. The company's underlying fundamentals are at best average and the ..."
p2
aS'Jul 22, 2015 - El Pollo Loco (LOCO) went public a few weeks after GoPro last summer and the fast-food chain specializing in citrus-marinated grilled chicken with 415 locations ...'
p3
aS'Jul 22, 2015 - News about Carmel Mountain Ranch Town Center. ... Boto by Sushiya, Dairy Queen, Delhi Kitchen, El Pollo Loco, Greek Corner Caf, Jalapenos Mexican Food, ...'
p4
aS'Jul 22, 2015 - A El Pollo Loco Prep Cook annual salary is about $22000, based on salary and pay scale data from 1 real El Pollo Loco employees.'
p5
aS'Jul 22, 2015 - Sign Up For Breaking News Alerts ..... Thousands of companies now voluntarily use the E-Verify program with success -- for example, FedEx and El Pollo Loco.'
p6
aS"Jul 22, 2015 - Industry News ... Spongberg's WKS, based in Lakewood, Calif., owns 110 Denny's, El Pollo Loco, Krispy Kreme and Corner Bakery Caf restaurants throughout ..."
p7
aS'Jul 22, 2015 - Nandi, at about 925 pounds, makes trainers nervous that she will be squashed when she wallows with dad or swims with all six elephants.'
p8
aS'Jul 23, 2015 - The best SoCal news in your inbox, daily. .... Given what "making tortillas" means in Mexican slang, one could construct a killer El Pollo Loco campaign.'
p9
aS"Jul 24, 2015 - Fill out a FREE EL POLLO LOCO ONLINE JOB APPLICATION, empleo en el pollo loco. ... El Pollo Loco, or The Crazy Chicken, got it's start in Guasave, Mexico, in 1975. It started out as a roadside stand and it's ... Latest News  Leonardo ..."
p10
a.