(lp0
S'Jul 23, 2015 - CHICAGO, July 23, 2015 /PRNewswire/ -- Critical Alerts For Disney, El Pollo Loco, ... While many other market reports only provide stock news and opinion, we ...'
p1
aS"Jul 24, 2015 - The euphoria around El Pollo Loco being the next Chipotle has finally died down. The company's underlying fundamentals are at best average and the ..."
p2
aS"Jul 24, 2015 - El Pollo Loco  Restaurant; 55+ receive a 10 percent discount. Friendly's - Restaurant and ice cream; 60+ are eligible for a discounted price on any order."
p3
aS'Jul 24, 2015 - Volunteers interact with trail users, watch out for problems.'
p4
aS'Jul 23, 2015 - The best SoCal news in your inbox, daily. .... Given what "making tortillas" means in Mexican slang, one could construct a killer El Pollo Loco campaign.'
p5
aS"Jul 24, 2015 - Fill out a FREE EL POLLO LOCO ONLINE JOB APPLICATION, empleo en el pollo loco. ... El Pollo Loco, or The Crazy Chicken, got it's start in Guasave, Mexico, in 1975. It started out as a roadside stand and it's ... Latest News  Leonardo ..."
p6
aS"Jul 24, 2015 - Labels: Deals , Limited-Time , News , The Cheesecake Factory .... Domino's Dunkin' Donuts El Pollo Loco Hardee's In-N-Out Jack in the Box KFC Krispy Kreme ..."
p7
aS'Jul 23, 2015 - Recent News | Recent Reviews | Current Deals & Specials .... Pollo Asado with Avocado Bowl - grilled chicken, fresh sliced avocado, seasoned black beans, ...'
p8
aS'Jul 23, 2015 - Brewbound  Craft Beer News, Events & Jobs  News  Featured Stories  Videos  Press Releases  Supplier News  Submit News to Brewbound ... Latest News ...'
p9
aS'Jul 23, 2015 - Now, is this good news or bad news for both taco lovers and Taco Bell? Taco lovers all over the world can be assured that Taco Bell will apply the good healthy ...'
p10
a.