(lp0
S'Jul 27, 2015 - El Pollo Loco is making another run at Houston. The Los Angeles-born chain of company-owned and franchise chicken grills will open a store at 4528 Highway ...'
p1
aS"Jul 27, 2015 - Valley Ranch Town Center adds Chickfila, Chili's, El Pollo Loco, Freebirds, Subway, T. Jin's Asian Caf and others ... What's NEW and NEWS in HKA Texas!"
p2
aS"Jul 27, 2015 - Shares are up 34% and warrants (TACOW) up 84% (based on the previous day's close) versus the S&P, which is flat, and El Pollo Loco (NASDAQ:LOCO), which ..."
p3
aS'Jul 27, 2015 - Luma Antonio  5 starla mesera muy amable , el platillo muy rico y el lugar esta como para estar con tu pareja ... que estbamos ah, y nos nos pelaron, mejor me fui, al pollo loco. en 1 min me cobraron y me dieron mi pollo. ... News Feed ...'
p4
aS'Jul 27, 2015 - ... follow Sea Life Arizona & stay up-to-date with upcoming events, photos & news. ... Bus and car parking is free in the lot east of SEA LIFE, next to El Pollo Loco.'
p5
aS"Jul 27, 2015 - Labels: Limited-Time , News , Papa John's .... Chipotle Church's Chicken Dairy Queen Del Taco Domino's Dunkin' Donuts El Pollo Loco Hardee's In-N-Out Jack ..."
p6
aS"Jul 27, 2015 - Wednesday news what's trending in social media ... except Sonic, Subway, In and Out, El Pollo Loco, which are all the things that the offices will not want to eat."
p7
aS'Jul 28, 2015 - Learn more about how SiteSage works for multi-unit residential property managers, cell tower tenants, municipal facility managers, and others. el-pollo-loco.'
p8
aS'Jul 26, 2015 - The day before James Richard Wilson went into hospice care last week, the Tucson native stepped into his garage for the final time, chatting with the owl family ...'
p9
aS'Jul 27, 2015 - Tagged:food, baja fresh, burritos, chipotle, del taco, el pollo loco, fast food, junk food, mexican, mexican food, taco bell, ..... Download the BuzzFeed News app.'
p10
a.