(lp0
S'Jul 27, 2015 - El Pollo Loco is making another run at Houston. The Los Angeles-born chain of company-owned and franchise chicken grills will open a store at 4528 Highway ...'
p1
aS'Jul 28, 2015 - Where: El pollo loco Symptoms: Diarrhea, Nausea, Fever, Vomiting... ... Search. Facebook Twitter  About  Reports  News  FAQ  Contact  Got Food Poisoning?'
p2
aS"Jul 28, 2015 - Posted in News on Tuesday, July 28, 2015 4:08 pm. Similar Stories. El Pollo Loco celebrates growing presence in Houston by hosting 'Loco Fun Day'  Sullivan ..."
p3
aS"Jul 27, 2015 - Valley Ranch Town Center adds Chickfila, Chili's, El Pollo Loco, Freebirds, Subway, T. Jin's Asian Caf and others ... What's NEW and NEWS in HKA Texas!"
p4
aS"Jul 27, 2015 - Shares are up 34% and warrants (TACOW) up 84% (based on the previous day's close) versus the S&P, which is flat, and El Pollo Loco (NASDAQ:LOCO), which ..."
p5
aS'Jul 27, 2015 - ... follow Sea Life Arizona & stay up-to-date with upcoming events, photos & news. ... Bus and car parking is free in the lot east of SEA LIFE, next to El Pollo Loco.'
p6
aS"Jul 28, 2015 - Recent News | Recent Reviews | Current Deals & Specials ..... Chicken Dairy Queen Del Taco Domino's Dunkin' Donuts El Pollo Loco Hardee's In-N-Out Jack in ..."
p7
aS"Jul 27, 2015 - Labels: Limited-Time , News , Papa John's .... Chipotle Church's Chicken Dairy Queen Del Taco Domino's Dunkin' Donuts El Pollo Loco Hardee's In-N-Out Jack ..."
p8
aS"Jul 28, 2015 - Labels: Limited-Time , News , Popeyes .... Chicken Dairy Queen Del Taco Domino's Dunkin' Donuts El Pollo Loco Hardee's In-N-Out Jack in the Box KFC Krispy ..."
p9
aS'Jul 27, 2015 - Luma Antonio  5 starla mesera muy amable , el platillo muy rico y el lugar esta como para estar con tu pareja ... que estbamos ah, y nos nos pelaron, mejor me fui, al pollo loco. en 1 min me cobraron y me dieron mi pollo. ... News Feed ...'
p10
a.