(lp0
S'Jul 1, 2015 - El Pollo Loco Holdings, Inc. (LOCO) Competitors - View direct and indirect business competitors for El Pollo Loco Holdings, Inc. and all the companies you ...'
p1
aS"Jul 1, 2015 - News and information on T.G.I. Friday's from Nation's Restaurant News."
p2
aS'Jul 2, 2015 - A blog about fast food news and reviews. ... Labels: News ..... El Pollo Loco Mexican Caesar Bowl features chopped chicken breast, rice, lettuce, tortilla strips, ...'
p3
aS"Jul 2, 2015 - Community News & Activity Guide. Online registration .... newsletter) to receive Menifee e-news, the city's ... El Pollo Loco and other retail shops and restaurants."
p4
aS'Jul 1, 2015 - ... including real-time stock quotes, historical charts & financial news, all for free! ... All news for Del Taco Restaurants Inc  ... LOCO  El Pollo LoCo Hol.'
p5
aS'Jul 1, 2015 - The most reliable source for Las Vegas news ... Several businesses in the area, including Panda Express and El Pollo Loco, self-evacuated as a precaution ...'
p6
aS"Jul 2, 2015 - Posted in Atascocita News on Thursday, July 2, 2015 10:26 am. ... in Humble  El Pollo Loco celebrates growing presence in Houston by hosting 'Loco Fun Day' ..."
p7
aS'Jul 1, 2015 - French said nearby El Pollo Loco and Panda Express restaurants were ... pictures or videos of breaking news, email them to ReportIt@fox5vegas.com or upload ...'
p8
aS"Jul 1, 2015 - Friday is the last day for downtown Tucson's lone sushi restaurant."
p9
aS'Jul 2, 2015 - El Pollo Loco Brings the Heat to Temecula With New Restaurant .... $CAKE The Cheesecake Factory Opens in Sarasota, FL From our Stock News Alerts App.'
p10
a.