(lp0
S'Jul 30, 2015 - Home ; News ; Urban renewal ... entering town from the 110 Freeway has been shuttered, while new plans to build an El Pollo Loco are being launched.'
p1
aS'Jul 29, 2015 - It\'s fitting that one of the first outcomes of the acquisition is signing a deal with Subway, Paydiant said in a news release. "We look ... El Pollo Loco COO resigns.'
p2
aS'Jul 30, 2015 - Find 26 listings related to El Pollo Loco in Santee on YP.com. See reviews, photos, directions, phone numbers and more for El Pollo Loco ...'
p3
aS'Jul 29, 2015 - news. print; email ... Buys Again  Irvine Restaurant Operator Buys Again  Recent Restaurant Closing No Surprise, Another Sad  El Pollo Loco Sets Dallas Plan ...'
p4
aS"Jul 29, 2015 - July 29, 2015 HKA Texas News, Kingwood ... Valley Ranch Town Center adds Chickfila, Chili's, El Pollo Loco, Freebirds, Subway, T. Jin's Asian Caf and others."
p5
aS'Jul 30, 2015 - Get the latest news, analysis and video updates on Lobsters from MarketWatch. ... El Pollo Loco COO Kay Bogeajis to leave company. 8:03a. Westlake Chemical ...'
p6
aS'Jul 30, 2015 - News & Information ... multiunit franchising company that owns and operates nine El Pollo Loco restaurants in the greater Phoenix area, as well as four El Pollo ...'
p7
aS'Jul 29, 2015 - News. ANZA: Hemet man pleads not guilty in homicide case ... Resort & Casino. Find Tickets  La Original Banda El Limon at Morongo Casino, Resort & Spa ...'
p8
aS'Jul 29, 2015 - Members of the Parks and Recreation Board are reviewing designs and finalizing development plans for several new or updated Allen parks. Chairperson Tricia ...'
p9
aS'Jul 29, 2015 - Latest Horror Movie Headlines  Horror Movie News ... Heck, Brad Pitt used to wear a chicken suit to promote El Pollo Loco. But those stories have all been ...'
p10
a.