(lp0
S"Jul 8, 2015 - Baskin-Robbins, Blimpie, Bruster's Real Ice Cream, others also introduce new menu items."
p1
aS"Jul 7, 2015 - Award-winning local news and cultural programming alongside the best of NPR. ... El Pollo Loco's Mendelsohn said they'll have to cut employee hours by 20 ..."
p2
aS"Jul 7, 2015 - News in Focus .... Denny's franchisee in California), 4 Sizzler's, 5 Corner Bakery and 6 El Pollo Loco restaurants. ... The news you need, when you need it."
p3
aS'Jul 8, 2015 - Breaking news for greater Los Angeles and Orange County ... of telling the officer on Thursday to meet him at an El Pollo Loco restaurant in Long Beach. He was ...'
p4
aS"Jul 8, 2015 - ... Report that a group of QSR-Plus brandsChick-fil-A, Culver's, El Pollo Loco, ... The Golden Arches has made news the past few weeks for trying and testing ..."
p5
aS"Jul 8, 2015 - ... the Southeastern U.S., including brands such as Jack in the Box, Denny's, Sizzler, Corner Bakery Cafe and El Pollo Loco. Newsletter. Subscribe. Latest News."
p6
aS"Jul 9, 2015 - ... the list was noticeably different than the annual list of fastest-growing chains put out by Nation's Restaurant News (NRN). ... El Pollo Loco: 5.1 percent. 14."
p7
aS'Jul 7, 2015 - NEWS: Minimum wage: The future of the hourly worker in LA (#AT30) ... Michaela Mendelsohn, Owner of El Pollo Loco franchise locations with over 33 years of ...'
p8
aS"Jul 8, 2015 - Top news. Business .... But a bulk of these services work with casual and fast-casual restaurant partners such as Rubio's, El Pollo Loco, El Torito, BJ's ..."
p9
aS"Jul 7, 2015 - Tucson's giant Great Dane George makes an appearance in the video."
p10
a.