(lp0
S'Aug 12, 2015 - LOCO is set to announce Q2 Fy15 results on Thursday, August 13, after the close.The Street is looking for EPS of $0.18 on revenues of $92.96 million.'
p1
aS'Aug 11, 2015 - Mexican-themed fire-grilled chicken chain El Pollo Loco (LOCO) is slated to report Q2 ... You will find the latest news, market analysis, and education to help you ...'
p2
aS'Aug 12, 2015 - In-N-Out Burger; Wienerschnitzel; Jack in the Box; El Pollo Loco; White Castle ... Sarah Palin is taking Fox News to task for its treatment of Donald Trump.'
p3
aS'Aug 11, 2015 - "This news is negative for exporters (such as automakers) and luxury goods makers ... Nordstrom, Applied Materials, Flowers Foods, El Pollo Loco, King Digital, ...'
p4
aS"Aug 11, 2015 - Is this bad news or good news for the markets? .... Earnings: Nestle, Kohl's, Nordstrom, Applied Materials, Flowers Foods, El Pollo Loco, King Digital, Party City."
p5
aS"Aug 12, 2015 - Not that bad of a quarter, though all the headline news around China isn't ... Nordstrom, Applied Materials, Flowers Foods, El Pollo Loco, King Digital, Party City."
p6
aS'Aug 12, 2015 - At El Pollo Loco, we go to crazy lengths for our signature citrus-marinated, fire-grilled chicken and handcraft our entrees using fresh ingredients inspired by ...'
p7
aS"Aug 11, 2015 - Better news emerged from the manufacturing sector, however: the ... Parts, Applied Materials, Dillard's, El Pollo Loco, Kohl's, Nordstrom, and Tribune Media."
p8
aS'Aug 12, 2015 - Perfume maker Coty Inc made news in July, entering an agreement with Procter ... El Pollo LoCo Holdings Inc is expected to report a second-quarter profit below ...'
p9
aS"Aug 11, 2015 - ... Fry's Digital Coupons  Fry's Promotions. Breaking news: Wildcats given No. 6 seed in NCAA tournament, to face play-in winner  Home/; News/; Local news ..."
p10
a.