(lp0
S"Aug 13, 2015 - El Pollo Loco (LOCO) shares are lower after the company guided below analysts' ... El Pollo Loco (LOCO) Stock Falls in After-Hours Trading on Revenue Miss ... Access to Jim Cramer's daily blog; Intraday commentary and news; Real-time ..."
p1
aS"Aug 13, 2015 - El Pollo Loco share tumble 12% as revenue, same-store sales fall short. By Trey ... El Pollo Loco's adjusted earnings per share were 19 cents, ahead of the FactSet consensus of 18 cents. The company posted ... More News from MarketWatch."
p2
aS'Aug 13, 2015 - Shares of restaurant operator El Pollo Loco tanked as much as 14 percent after it posted adjusted earnings of 19 cents a share ... Karma AllenNews Associate ...'
p3
aS'Aug 13, 2015 - El Pollo Loco Holdings Inc. (NASDAQ: LOCO) is scheduled to report its second-quarter financial results after the markets close on Thursday. Consensus ...'
p4
aS'Aug 13, 2015 - El Pollo Loco shares fell 18% in afternoon trading on Friday after the company reported quarterly results that missed on revenues. On Thursday evening, the ...'
p5
aS"Aug 13, 2015 - Aug 13 Restaurant chain operator El Pollo Loco Holdings Inc's quarterly comparable sales fell ... El Pollo Loco reported a 3.9 percent fall in customer traffic to ... Thomson Reuters is the world's largest international multimedia news agency, ..."
p6
aS'Aug 12, 2015 - LOCO is set to announce Q2 Fy15 results on Thursday, August 13, after the close.The Street is looking for EPS of $0.18 on revenues of $92.96 million.'
p7
aS'Aug 13, 2015 - El Pollo Loco Holdings Inc., a chain of chicken restaurants, tumbled the most since its 2014 trading debut after saying sales this year would rise at the low end of ...'
p8
aS'Aug 13, 2015 - CONTACT: Investor Contact: Fitzhugh Taylor , ICR fitzhugh.taylor@icrinc.com 714-599-5200. El Pollo Loco. Source: El Pollo Loco. News Provided by Acquire ...'
p9
aS'Aug 13, 2015 - El Pollo Loco Holdings Inc. lowered its sales-growth forecast for the year, ... in the worlds of diversified media, news, education, and information services.'
p10
a.