(lp0
S"Aug 18, 2015 - El Pollo LoCo (LOCO) price target was lowered to $19 from $27 at Jefferies, which ... Access to Jim Cramer's daily blog; Intraday commentary and news ..."
p1
aS'Aug 18, 2015 - Zeldes Haeggquist & Eck, LLP is investigating El Pollo Loco (NASDAQ: LOCO) regarding a potential securities class action lawsuit for violations of.'
p2
aS'Aug 18, 2015 - Critical Alerts For Disney, Isis Pharmaceuticals, El Pollo Loco, Under Armour and ... While many other market reports only provide stock news and opinion, we ...'
p3
aS'Aug 17, 2015 - El Pollo Loco (NASDAQ:LOCO) fell 20.7% on Friday after lowering their annual growth forecast to 3%. In just over a year since the $15 a share IPO last July the ...'
p4
aS'Aug 17, 2015 - Shares of chicken restaurant chain El Pollo Loco traded down 21 percent on ... El Pollo Loco is one of many recent initial public offering high fliers down .... Global Business and Financial News, Stock Quotes, and Market Data and Analysis.'
p5
aS'ABC 7 Eyewitness News this Morning promo - El Pollo Loco pollo bowls (repeat) - Southern California Toyota ...'
p6
aS'Aug 17, 2015 - ... Marketing Officer at EL POLLO LOCO HOLDINGS INC. How much did Ed Valle make as Chief Marketing Officer of EL POLLO LOCO HOLDINGS INC in 2014.'
p7
aS'Aug 17, 2015 - More Latest News. Education board denies Hope ... The losers ended up as the El Pollo Loco special at the taqueria the following day. ( permalink | suggest ...'
p8
aS"Aug 18, 2015 - Restaurant and Bar Sales Increase, More Sysco News, A Look at Subway's Growth .... Comparable Store Sales Reports: El Pollo Loco (systemwide sales up 1.3 ..."
p9
aS'Aug 18, 2015 - Costa Mesa, CA-based EL POLLO LOCO (founded 1975) has increased by 11 units, from 407 to 418 (3% growth). The restaurants are fast casual, open for ...'
p10
a.