(lp0
S"Aug 18, 2015 - El Pollo LoCo (LOCO) price target was lowered to $19 from $27 at Jefferies, which ... Access to Jim Cramer's daily blog; Intraday commentary and news ..."
p1
aS'Aug 18, 2015 - Zeldes Haeggquist & Eck, LLP is investigating El Pollo Loco (NASDAQ: LOCO) regarding a potential securities class action lawsuit for violations of.'
p2
aS'Aug 18, 2015 - Critical Alerts For Disney, Isis Pharmaceuticals, El Pollo Loco, Under Armour and ... While many other market reports only provide stock news and opinion, we ...'
p3
aS'ABC 7 Eyewitness News this Morning promo - El Pollo Loco pollo bowls (repeat) - Southern California Toyota ...'
p4
aS"Aug 19, 2015 - Subscription Manage Account  Local News ... provided dinner for everyone. El Pollo Loco was finger-lickin' good, and the music flowed from 5:45 until 9 p.m.."
p5
aS'Aug 19, 2015 - El Pollo Loco: "El Pollo Loco is el pollo bad-o. What\'s the matter ... Global Business and Financial News, Stock Quotes, and Market Data and Analysis. Data also ...'
p6
aS"Aug 19, 2015 - See what employees say it's like to work at El Pollo Loco. Salaries, reviews, and more - all posted by employees working at El Pollo Loco. ... Latest News See All."
p7
aS"Aug 18, 2015 - Restaurant and Bar Sales Increase, More Sysco News, A Look at Subway's Growth .... Comparable Store Sales Reports: El Pollo Loco (systemwide sales up 1.3 ..."
p8
aS'Aug 19, 2015 - Stocks in the News ... El Pollo Loco (LOCO) ... by some of the weaker stocks, including Noodles and Company and newly public Mexican chain El Pollo Loco.'
p9
aS'Aug 18, 2015 - Costa Mesa, CA-based EL POLLO LOCO (founded 1975) has increased by 11 units, from 407 to 418 (3% growth). The restaurants are fast casual, open for ...'
p10
a.