(lp0
S'Aug 20, 2015 - El Pollo Loco (LOCO): "Step up to the big time and go with Chipotle Mexican Grill (CMG)." ... Access to Jim Cramer\'s daily blog; Intraday commentary and news ...'
p1
aS'Aug 20, 2015 - Warrior Trading News Articles ... On Thursday after the close El Pollo Loco (LOCO) reported second quarter earnings that sent the shares into a nosedive in ... El Pollo Loco CEO Steve Sather said in a statement with the release of earnings:.'
p2
aS'Aug 19, 2015 - Levi & Korsinsky has commenced an investigation on behalf of shareholders of El Pollo Loco Holdings, Inc.'
p3
aS"Aug 19, 2015 - Subscription Manage Account  Local News ... provided dinner for everyone. El Pollo Loco was finger-lickin' good, and the music flowed from 5:45 until 9 p.m.."
p4
aS'Aug 19, 2015 - El Pollo Loco: "El Pollo Loco is el pollo bad-o. What\'s the matter ... Global Business and Financial News, Stock Quotes, and Market Data and Analysis. Data also ...'
p5
aS"Aug 19, 2015 - See what employees say it's like to work at El Pollo Loco. Salaries, reviews, and more - all posted by employees working at El Pollo Loco. ... Latest News See All."
p6
aS'Aug 19, 2015 - Stocks in the News ... El Pollo Loco (LOCO) ... by some of the weaker stocks, including Noodles and Company and newly public Mexican chain El Pollo Loco.'
p7
aS"Aug 19, 2015 - For those with access and business across El Segundo Blvd. from Los Angeles AFB, the Aerospace ... Fish Grill, Chipotle Mexican Grill, Five Guys, El Pollo Loco, Tony's, IHOP, Frijoles and The Habit among others. ... News Media Queries."
p8
aS'Aug 20, 2015 - Updated El Pollo Loco reports higher profit; sales slide  Log In  Home  News Viewer  Video  Radio, ... More News from MarketWatch. Top Stories. Trending.'
p9
aS"Aug 20, 2015 - Pollo Campero, home of Authentic Latin Chicken, will celebrate National Family Meals Month by offering guests a ... Houston; News ... Mothers a Sweet Treat on Mother's Day  Latin Flavors to the Bone  Watch out KFC: El Pollo Loco is sizzling."
p10
a.