(lp0
S"Aug 24, 2015 - On this news, the price of El Pollo Loco's shares declined by 20% from its closing price of $18.36 per share on August 13, 2015, to $14.56 per share on August ..."
p1
aS'Aug 24, 2015 - 13 stock of El Pollo Loco between May 15, 2015 and August 13, 2015, inclusive (the ..... (g) Unexpected material news about El Pollo Loco was rapidly.'
p2
aS"Aug 24, 2015 - Plaintiff Daniel Turocy purchased El Pollo Loco common stock during the Class Period ... also signed El Pollo Loco's filings with the SEC during the Class Period. 10. ..... (g) Unexpected material news about El Pollo Loco was rapidly reflected ..."
p3
aS'Aug 24, 2015 - Here is a look at the performance of Wingstop Inc verses the performance of Bojangles Inc, Popeyes Louisiana Kitchen Inc and El Pollo LoCo Holdings Inc:.'
p4
aS'Aug 25, 2015 - El Pollo Loco Logo.  Flame Broiled Chicken  Chicken Tortilla Soup  Chicken Avocado Salad  Skinny Chicken Quesadilla  Whole Wheat Avocado Burrito ...'
p5
aS"Aug 24, 2015 - Latest News. Starbucks pulls back plans for boozy units in San Francisco  It's a wrap for this McDonald's menu item  Burger King's olive branch to McDonald's ..."
p6
aS'Aug 24, 2015 - Each Tuesday, historical writer David Leighton shares the story behind Tucson street names. Contact him at streetsmarts@tucson.com ...'
p7
aS'Aug 23, 2015 - Mary Jan Bancroft, right, founder of Make Way for Books, uses a rabbit puppet to say hello to 2-year-old Emma Allen and her mom, Nicole Allen. The nonprofit ...'
p8
aS"Aug 23, 2015 - Labels: Limited-Time , News , Wetzel's Pretzels .... Chipotle Church's Chicken Dairy Queen Del Taco Domino's Dunkin' Donuts El Pollo Loco Hardee's In-N-Out ..."
p9
aS"Aug 24, 2015 - Labels: News , Taco Bell , Test .... Chick-fil-A Chipotle Church's Chicken Dairy Queen Del Taco Domino's Dunkin' Donuts El Pollo Loco Hardee's In-N-Out Jack ..."
p10
a.