(lp0
S'Aug 26, 2015 - Top news. Food ... View slideshow. Costa Mesa-based El Pollo Loco is being sued for securities violations. SAM GANGWER , SAM GANGWER, STAFF.'
p1
aS'Aug 26, 2015 - Courthouse News Service ... Lead plaintiff Daniel Turocy sued El Pollo Loco Holdings, CEO Stephen J. Sather and other controlling ... Though none of the defendants had sold any El Pollo Loco shares since November 2014, immediately after ...'
p2
aS'Aug 25, 2015 - El Pollo Loco Holdings Inc. was slapped with a putative shareholder class action Monday alleging key executives knowingly made misleading statements that ...'
p3
aS"Aug 26, 2015 - On this news, the price of El Pollo Loco's shares declined by 20% from its closing price of $18.36 per share on August 13, 2015, to $14.56 per share on August ..."
p4
aS"Aug 26, 2015 - Chipotle has been the envy of every business owner for the last 20 years or sonothing's changed there. Pancheros is still expanding. El Pollo Loco got a lot of ..."
p5
aS'Aug 27, 2015 - News & Views .... He even cooked for me and always had a hearty laugh when I asked for a meal from El Pollo Loco, a fast food restaurant whose healthy food ...'
p6
aS'Aug 25, 2015 - Ask Matt: Is it crazy to buy El Pollo Loco? Columnist | 2 hours ago 0 Views  Travel liars, pants on fire. Advice | 33 minutes ago 8 Views  Apollo Global to buy ...'
p7
aS'Aug 26, 2015 - Restaurant Industry Insight, News and Analysis. Sections About Us ... well off their 52-week highs. El Pollo Loco has been the worst performer of the recent IPOs.'
p8
aS'Aug 26, 2015 - You can access more in-depth stories and analysis, as well as news not found on ... More restaurants testing delivery service  El Pollo Loco test drives electric ...'
p9
aS"Aug 25, 2015 - El Pollo Loco Extreme Brandz Group of Companies Fazoli's Restaurant Group Inc. Fire CZ Inc. Firkin Group of Pubs, The First Class Seats Focus Brands Inc."
p10
a.