(lp0
S'Aug 5, 2015 - Critical Alerts For Rite Aid, Salesforce.com, El Pollo Loco, Whiting Petroleum and ... While many other market reports only provide stock news and opinion, we ...'
p1
aS'Aug 5, 2015 - Home News Two Glendale, AZ Shopping Centers Sold for $38.6 Million ... Lina Home Furnishings, Floor & Dcor, Hi-Health, T-Mobile, & El Pollo Loco among ...'
p2
aS'Aug 5, 2015 - El Pollo Loco ... Ray Stern A A News reporters were banned from the floor of the Arizona House of Representatives on Thursday in a move that many considered ...'
p3
aS"Aug 4, 2015 - Posted in News on Tuesday, August 4, 2015 12:12 pm. ... facility in Humble  El Pollo Loco celebrates growing presence in Houston by hosting 'Loco Fun Day' ..."
p4
aS"Aug 5, 2015 - Trading at 23 times its 2016 earnings per share (EPS) and a price/earnings growth (PEG) ratio of 1.74, El Pollo Loco is cheaper than both Chuy's and Chipotle."
p5
aS"Aug 5, 2015 - ... Opinion  Sun Life  Home Surprise General News Results of the Surprise retail survey ... Texas Roadhouse (Great news! A Texas ... Mimi's Caf. El Pollo Loco."
p6
aS"Aug 5, 2015 - El Pollo Loco, Dairy Queen, others also introduce new menu items. ... Skip to Navigation Skip to Content. Nation's Restaurant News. Search: Events/MUFSO ..."
p7
aS"Aug 4, 2015 - You can access more in-depth stories and analysis, as well as news not found on any ... Hardee's brings back Six Dollar Burger  El Pollo Loco brings back BBQ ..."
p8
aS"Aug 5, 2015 - Save Money. Fry's Weekly Ads  Fry's Digital Coupons  Fry's Promotions  Home/; News/; Blogs/; Blog: Latest Tucson crime news ..."
p9
aS'Aug 5, 2015 - Habit Restaurants, operator of popular California-based burger chain Habit Burger Grill, misses its 2015 Q2 earnings but beats on revenue.'
p10
a.