(lp0
S'Aug 5, 2015 - Critical Alerts For Rite Aid, Salesforce.com, El Pollo Loco, Whiting Petroleum and ... While many other market reports only provide stock news and opinion, we ...'
p1
aS"Aug 7, 2015 - Five Delicious New Dishes Available for a Limited Time Costa Mesa, CA (RestaurantNews.com) El Pollo Loco (Nasdaq:LOCO), the nation's leading fire-grilled."
p2
aS'Aug 6, 2015 - Another poultry-focused eatery, El Pollo Loco (LOCO), is scheduled to report Q2 ... You will find the latest news, market analysis, and education to help you ...'
p3
aS"Aug 5, 2015 - El Pollo Loco, Dairy Queen, others also introduce new menu items. ... Skip to Navigation Skip to Content. Nation's Restaurant News. Search: Events/MUFSO ..."
p4
aS'Aug 5, 2015 - Home News Two Glendale, AZ Shopping Centers Sold for $38.6 Million ... Lina Home Furnishings, Floor & Dcor, Hi-Health, T-Mobile, & El Pollo Loco among ...'
p5
aS'Aug 5, 2015 - El Pollo Loco ... Ray Stern A A News reporters were banned from the floor of the Arizona House of Representatives on Thursday in a move that many considered ...'
p6
aS"Aug 5, 2015 - ... Opinion  Sun Life  Home Surprise General News Results of the Surprise retail survey ... Texas Roadhouse (Great news! A Texas ... Mimi's Caf. El Pollo Loco."
p7
aS"Aug 5, 2015 - Trading at 23 times its 2016 earnings per share (EPS) and a price/earnings growth (PEG) ratio of 1.74, El Pollo Loco is cheaper than both Chuy's and Chipotle."
p8
aS"Aug 6, 2015 - Melissa will walk us through her journey as a news anchor, mother and care ... El Pollo Loco celebrates growing presence in Houston by hosting 'Loco Fun Day' ..."
p9
aS"Aug 5, 2015 - Save Money. Fry's Weekly Ads  Fry's Digital Coupons  Fry's Promotions  Home/; News/; Blogs/; Blog: Latest Tucson crime news ..."
p10
a.