(lp0
S'Sep 11, 2015 - What: Shares of El Pollo Loco (NASDAQ:LOCO) fell 31% in August, according to data from S&P Capital IQ. The fast-casual chicken chain got fried following a ...'
p1
aS'Sep 11, 2015 - PHARR  The California-based company El Pollo Loco opened a new location Friday near the Pharr Town Center, according to a news release.'
p2
aS'Sep 11, 2015 - CONTACT: Media Contact: Kellie Duffy ICR Inc. 203-682-8200 LOCO@icrinc.com. El Pollo Loco. Source: El Pollo Loco. News Provided by Acquire Media.'
p3
aS"Sep 11, 2015 - 11, 2015 (GLOBE NEWSWIRE) -- El Pollo Loco (Nasdaq:LOCO), the nation's leading fire-grilled chicken chain, today opened its newest location in Pharr, TX."
p4
aS"Sep 10, 2015 - Four New Handcrafted Tostadas Available for a Limited Time Costa Mesa, CA (RestaurantNews.com) El Pollo Loco (Nasdaq:LOCO), the nation's leading fire."
p5
aS"Sep 11, 2015 - Nation's Restaurant News. Search: ... investor community that has pounded chains that disappoint, like Noodles & Co., Potbelly, Del Frisco's and El Pollo Loco."
p6
aS'Sep 11, 2015 - Updated El Pollo Loco reports higher profit; sales slide. 5:20 P.M. ET. Bojangles profit dips, but results .... More News from MarketWatch. Top Stories. Trending.'
p7
aS'Sep 11, 2015 - El Pollo Loco - Agoura Hills Now Hiring ... To bring important news and information to residents, Nextdoor has partnered with these Calabasas agencies.'
p8
aS"Sep 11, 2015 - When he's not in school or running a trail, he's handling orders in the drive-thru window at El Pollo Loco in Camarillo. ROAD WARRIORS&mdash;The Rio Mesa ..."
p9
aS'Sep 10, 2015 - Related Topics: news flash flooding flooding storm damage school rain weather Costa Mesa Orange County. (Copyright 2016 KABC-TV. All Rights Reserved.) ...'
p10
a.