(lp0
S"Sep 14, 2015 - 14, 2015 (GLOBE NEWSWIRE) -- El Pollo Loco (Nasdaq:LOCO), the nation's leading fire-grilled chicken chain, today opened its newest location in Folsom, CA."
p1
aS'Sep 13, 2015 - Lebanon Daily News ..... "We have El Pollo Loco, that\'s a chicken breast with shrimp, mushrooms, cheese dip on top, rice on the side and a flour wrap.".'
p2
aS'Sep 13, 2015 - Witnesses told Action 7 News that they heard 5 to 10 shots in rapid succession. Stay with KOAT-TV and KOAT.com for ... ElPolloLoco. Quack, quack, quack!'
p3
aS"Sep 15, 2015 - Atlanta, GA (Restaurant News Release) Tin Drum Asiacafe, a fast casual concept ...... El Pollo Loco is the nation's leading fire-grilled chicken restaurant chain ..."
p4
aS'Sep 14, 2015 - While many other market reports only provide stock news and opinion, we offer ... Alerts For Celldex Therapeutics, Anavex Life Sciences Corp, El Pollo Loco, ...'
p5
aS'Sep 13, 2015 - Non-Profit Organization. Liked by This Page. Victor Valley News  Victor Valley Pets. English (US)  Espaol  Franais (France)  Portugus (Brasil) ... News Feed ...'
p6
aS'Sep 13, 2015 - Remove. Tell people what you think. People Also Like. El Pollo Loco (2671 W La Palma Ave, Anaheim, CA)  Mexican Restaurant  The Source. ... News Feed ...'
p7
aS'Sep 14, 2015 - El Pollo Loco Holdings, Inc. (LOCO) has depreciated 66.29% over the past year. .... Subscribe to News To Use for the latest insights and analysis ...'
p8
aS'Sep 14, 2015 - (Source: El Pollo Loco Holdings Inc ) Microsoft Word - EPL M3 2015 Press Release FINAL Avocado Lovers Rejoice as El Pollo Loco Launches New Line of ...'
p9
aS'Sep 14, 2015 - Reese Witherspoon. In case Reese Witherspoon\'s acting career doesn\'t pan out, the 39-year-old can turn to her secret talent. "I am a bit of a hip-hop dancer," ...'
p10
a.