(lp0
S'Sep 16, 2015 - (SCHW), fell by 18% and Most Dangerous Small Cap Stock, El Pollo Loco Holdings, Inc. (LOCO), fell by 35%. Overall, 18 out of the 40 Most Dangerous stocks ...'
p1
aS'Sep 15, 2015 - http://www.locoforzero.com/ http://10minutemail.com/10MinuteMail/index.html Now when you enjoy the taste of El Pollo Loco fire-grilled chicken, you can wash ...'
p2
aS"Sep 16, 2015 - Noodles & Co., Potbelly, Del Frisco's and El Pollo Loco. Who could ..... news that Chief Marketing Officer Bob Kraut was out after less than two years in the job."
p3
aS"Sep 16, 2015 - Tenants announced to date include Sam's Club, Kroger Marketplace, Academy Sports & Outdoors, Chili's, Chick-Fil-A and El Pollo Loco. The Town Center ..."
p4
aS'Sep 16, 2015 - For information on The Baltimore Library Project, click here.For information on Phases 1 & 2 of the Washington National Cathedral restoration, click here.'
p5
aS"Sep 15, 2015 - Watch KOAT Action 7 News On Demand  Home; / New Mexico News. By Nancy Laflin  Bio .... ElPolloLoco. Really, didn't know he was a pedophile? Maybe we ..."
p6
aS'Sep 16, 2015 - ... in common with Megan Fox. Years ago, he worked at El Pollo Loco restaurant on Sunset Boulevard, dressing as a giant chicken for the chicken joint. For real!'
p7
aS'Sep 16, 2015 - El Pollo Loco #3518. Point (-121.267239 38.619368). 2281 Sunrise Blvd Gold .... Connect with Sacramento County  Metro Cable. Sign-up for news updates!'
p8
aS'Sep 16, 2015 - April 15 at 11:32am. 1130am....Any new news on the fire and road closers? .... Read the full news release here: http://bit.ly/1SgsVKV  CHP to assist Edison with ...'
p9
aS'Sep 15, 2015 - ... the agency back in October of 2011 as an associate creative director and has worked with such clients as Google, MINI, Priceline,T-Mobile and El Pollo Loco.'
p10
a.