(lp0
S'Sep 1, 2015 - El Pollo Loco Holdings, Inc. Shareholder Alert: Former SEC Attorney Willie Briscoe and Powers Taylor Investigate Possible Breaches of Fiduciary Duty by ...'
p1
aS"Aug 31, 2015 - If you purchased El Pollo Loco common stock during the Class Period, you may, ... Following this news, the price of El Pollo Loco's shares declined by 20% from ..."
p2
aS'Sep 1, 2015 - Artesia\'s El Pollo Loco serving up "Crazy You Can Taste" ... When Elvir heard the news that Artesia was recognizing his restaurant, he said everyone was very ...'
p3
aS"Aug 31, 2015 - TN Republican Sues El Pollo Loco To Change Name To 'Crazy Chicken' .... Mixing news and satire willy nilly is going to make some people look like fools."
p4
aS'Aug 31, 2015 - TN Republican Sues El Pollo Loco To Change Name to Crazy Chicken ... Mexican name on your American business, Clem told The Political Garbage Chute as he picketed outside the local El Pollo Loco establishment, which .... Good news.'
p5
aS'Sep 2, 2015 - El Pollo Loco Franchise Opportunity. El Pollo Loco. The secret to El Pollo Loco is great-tasting food. Our menu has a broad and deep consumer acceptance ...'
p6
aS'Sep 1, 2015 - While many other market reports only provide stock news and opinion, we offer ... Alerts For Celldex Therapeutics, Anavex Life Sciences Corp, El Pollo Loco, ...'
p7
aS"Sep 1, 2015 - ... Chick-Fil-A and El Pollo Loco are the next round of tenants to join Sam's Club and Kroger Marketplace at the much anticipated Valley Ranch Town Center, ..."
p8
aS'Aug 31, 2015 - December 29, 2008 | Posted in Breaking news | Read More  ... recovering in hospital today from severe injuries after being attacked by the El Pollo Loco Crew ...'
p9
aS'Sep 1, 2015 - Find 2 listings related to El Pollo Loco in Garland on YP.com. See reviews, photos, directions, phone numbers and more for El Pollo Loco locations in Garland, ...'
p10
a.