(lp0
S'Sep 24, 2015 - Critical Alerts For Facebook, Imperva Inc, TASER International, El Pollo Loco and ... While many other market reports only provide stock news and opinion, we ...'
p1
aS'Sep 23, 2015 - (Photo by Keith Durflinger/Whittier Daily News). By Stephanie K. Baer, LA Daily News. Posted: 09/23/15, 4:16 PM ... El Pollo Loco. Location: 7851 Foothill Blvd., ...'
p2
aS"Sep 24, 2015 - June 22, 2015 HKA Texas News, Restaurants. If you see a line of cars at El Pollo Loco in Humble, that's because the company has given away Facebook ..."
p3
aS"Sep 24, 2015 - June 22, 2015 HKA Texas News, Restaurants. If you see a line of cars at El Pollo Loco in Humble, that's because the company has given away Facebook ..."
p4
aS'Sep 25, 2015 - Where would you like next for a Del Taco to open? Are you, like me, still waiting for a return of El Pollo Loco? Are you a fan of the new Taco Bell breakfast menu?'
p5
aS"Sep 24, 2015 - Posted in Atascocita News on Thursday, September 24, 2015 3:40 pm. ... El Pollo Loco celebrates growing presence in Houston by hosting 'Loco Fun Day' ..."
p6
aS'Sep 23, 2015 - When the first owner of El Pollo Loco wanted to open up here he had to convince corporate that the weekend numbers were high enough (to make it profitable) ...'
p7
aS'Sep 24, 2015 - News  Media Coverage. Events Calendar. Keynote Lecture Series  Archives & Publications  Press Releases ... FREE EL POLLO LOCO!!! RSVP here: FB Event.'
p8
aS"Sep 24, 2015 - Alongside the fresh new San Francisco font and the News app that replaces ... JCPenney, Jonny Rockets, Kohl's, LEGO, Dunkin' Donuts, El Pollo Loco, Express, ..."
p9
aS'Sep 24, 2015 - In the News  2016  2015  2014  2013 ... He has served as a Director of El Pollo Loco, BB Liquidating, EPL Intermediate, Yum! Restaurants International and ...'
p10
a.