(lp0
S'Sep 24, 2015 - Critical Alerts For Facebook, Imperva Inc, TASER International, El Pollo Loco and ... While many other market reports only provide stock news and opinion, we ...'
p1
aS"Sep 24, 2015 - June 22, 2015 HKA Texas News, Restaurants. If you see a line of cars at El Pollo Loco in Humble, that's because the company has given away Facebook ..."
p2
aS"Sep 24, 2015 - June 22, 2015 HKA Texas News, Restaurants. If you see a line of cars at El Pollo Loco in Humble, that's because the company has given away Facebook ..."
p3
aS'Sep 25, 2015 - Where would you like next for a Del Taco to open? Are you, like me, still waiting for a return of El Pollo Loco? Are you a fan of the new Taco Bell breakfast menu?'
p4
aS"Sep 24, 2015 - Posted in Atascocita News on Thursday, September 24, 2015 3:40 pm. ... El Pollo Loco celebrates growing presence in Houston by hosting 'Loco Fun Day' ..."
p5
aS"Sep 25, 2015 - The new Denny's location is owned and operated by WKS Restaurant Group, a franchisee company of El Pollo Loco, Denny's, Krispy Kreme Doughnuts, and ..."
p6
aS"Sep 24, 2015 - Alongside the fresh new San Francisco font and the News app that replaces ... JCPenney, Jonny Rockets, Kohl's, LEGO, Dunkin' Donuts, El Pollo Loco, Express, ..."
p7
aS'Sep 25, 2015 - PHOENIX  Republican legislative leaders are crafting a plan to ask voters to let them reduce the amount of inflation help schools could get each year.'
p8
aS"Sep 25, 2015 - Zacks News for ( BOJA ) ... Company News for March 14, 2016. 03/14/16-9:10AM EST Zacks ... El Pollo Loco, Bojangles' Prospects Bright: Take Your Pick."
p9
aS'Sep 24, 2015 - In the News  2016  2015  2014  2013 ... He has served as a Director of El Pollo Loco, BB Liquidating, EPL Intermediate, Yum! Restaurants International and ...'
p10
a.