(lp0
S'Sep 28, 2015 - news. print; email ... Pollo Campero, a Guatemala-based chain similar to Costa Mesa-based El Pollo Loco Holdings Inc., whose U.S. headquarters is in Dallas.'
p1
aS"Sep 27, 2015 - News Feed .... Un rico pollo del Pollos Locos Los Pollos Locos ya que. Maria C Rodriguez's ... Rafa Rodriguez RomanAybar estava bueno el chilito de nopales?"
p2
aS'Sep 28, 2015 - Updated El Pollo Loco reports higher profit; sales slide. 5:20 P.M. .... Miners are sensitive to news out of China, as the country is one of the biggest importers of ...'
p3
aS'Sep 28, 2015 - ... Marcel, Superica, St. Cecilia, King + Duke, the Optimist, and Jct. Kitchen & Bar in Atlanta, the El Felix in Alpharetta, Ga., and No. ... Restaurants & Bars News ...'
p4
aS'Sep 27, 2015 - El Pollo Loco. Shared publicly - Feb 8, 2016. Good news, San Diego! Buy One Burrito and Get One Free - TODAY ONLY. Click for Coupon.'
p5
aS'Sep 27, 2015 - The Mexican Cobb Salad El Pollo Loco has hand sliced avocados, slow simmered black beans, jack cheese, crisp lettuce or hand-chopped pico de gallo, and ...'
p6
aS'Sep 28, 2015 - ... freebie lists." - Dallas Morning News ... Free Small Coke Zero  Grab yourself a FREE small Coke Zero at El Pollo Loco by simply entering your email address!'
p7
aS"Sep 28, 2015 - Labels: Limited-Time , News , Sonic .... Chick-fil-A Chipotle Church's Chicken Dairy Queen Del Taco Domino's Dunkin' Donuts El Pollo Loco Hardee's In-N-Out ..."
p8
aS"Sep 28, 2015 - Recent News | Recent Reviews | Current Deals & Specials ..... Chicken Dairy Queen Del Taco Domino's Dunkin' Donuts El Pollo Loco Hardee's In-N-Out Jack in ..."
p9
aS'Sep 27, 2015 - I first met Kristy after she had been working for a month at one of my El Pollo Loco restaurants in Thousand Oaks, California. Kristy is a tall dark haired Latina, ...'
p10
a.