(lp0
S'Sep 28, 2015 - news. print; email ... Pollo Campero, a Guatemala-based chain similar to Costa Mesa-based El Pollo Loco Holdings Inc., whose U.S. headquarters is in Dallas.'
p1
aS"Sep 29, 2015 - News Room ... including Nature Made, MINI Cooper, HTC, Blue Shield of California, Greyhound, El Pollo Loco, Sunrun, Logan's Roadhouse and others. Adweek ..."
p2
aS'Sep 29, 2015 - While many other market reports only provide stock news and opinion, we offer ... Alerts For Celldex Therapeutics, Anavex Life Sciences Corp, El Pollo Loco, ...'
p3
aS'Sep 29, 2015 - Find 2 listings related to El Pollo Loco in San Luis Obispo on YP.com. See reviews, photos, directions, phone numbers and more for El Pollo Loco locations in ...'
p4
aS'Sep 28, 2015 - ... Marcel, Superica, St. Cecilia, King + Duke, the Optimist, and Jct. Kitchen & Bar in Atlanta, the El Felix in Alpharetta, Ga., and No. ... Restaurants & Bars News ...'
p5
aS'Sep 29, 2015 - Looking for a New Restaurant Opening All Crew Positions (Cashier, Cook And Food Prep) job? El Pollo Loco is currently hiring for a New Restaurant Opening ...'
p6
aS'Sep 28, 2015 - Updated El Pollo Loco reports higher profit; sales slide. 5:20 P.M. .... Miners are sensitive to news out of China, as the country is one of the biggest importers of ...'
p7
aS"Sep 29, 2015 - ... Shield of California, Greyhound, El Pollo Loco, Sunrun, Logan's Roadhouse and others. .... All the news releases provided by Marketwired are copyrighted."
p8
aS"Sep 29, 2015 - Posted in News on Tuesday, September 29, 2015 9:37 am. ... El Pollo Loco celebrates growing presence in Houston by hosting 'Loco Fun Day'  Huffman ISD ..."
p9
aS'Sep 29, 2015 - An Oro Valley police officer shot and injured a man at a house Tuesday evening. Police said they had been searching for the man, whom they said fled a traffic ...'
p10
a.