(lp0
S'Sep 1, 2015 - El Pollo Loco Holdings, Inc. Shareholder Alert: Former SEC Attorney Willie Briscoe and Powers Taylor Investigate Possible Breaches of Fiduciary Duty by ...'
p1
aS'Sep 1, 2015 - Artesia\'s El Pollo Loco serving up "Crazy You Can Taste" ... When Elvir heard the news that Artesia was recognizing his restaurant, he said everyone was very ...'
p2
aS'Sep 2, 2015 - El Pollo Loco Franchise Opportunity. El Pollo Loco. The secret to El Pollo Loco is great-tasting food. Our menu has a broad and deep consumer acceptance ...'
p3
aS"Sep 1, 2015 - ... Chick-Fil-A and El Pollo Loco are the next round of tenants to join Sam's Club and Kroger Marketplace at the much anticipated Valley Ranch Town Center, ..."
p4
aS'Sep 1, 2015 - While many other market reports only provide stock news and opinion, we offer ... Alerts For Celldex Therapeutics, Anavex Life Sciences Corp, El Pollo Loco, ...'
p5
aS'Sep 1, 2015 - Find 2 listings related to El Pollo Loco in Garland on YP.com. See reviews, photos, directions, phone numbers and more for El Pollo Loco locations in Garland, ...'
p6
aS'Sep 2, 2015 - This image appeared on my news feed. ...... I live in LA and a couple weeks ago I was in El Pollo Loco eating my meal, and just as I was about to start, some ...'
p7
aS"Sep 2, 2015 - The news is currently generally neutral for RRGB. Based on ... Yahoo! Finance News for RRGB ... What's in Store for El Pollo Loco (LOCO) in Q2 Earnings?"
p8
aS"Sep 2, 2015 - September 2, 2015 HKA Texas News, Humble ... Valley Ranch Town Center adds Chickfila, Chili's, El Pollo Loco, Freebirds, Subway, T. Jin's Asian Caf and ..."
p9
aS'Sep 1, 2015 - Those efforts led to the other things that have kept Douglas in the news  and in court  including her effort to fire two employees of the state Board of ...'
p10
a.