(lp0
S'Sep 3, 2015 - El Pollo Loco was first founded in 1975 in Mexico by Juan Francisco Ochoa. In just the first four years of business the Crazy Chicken restaurant became wildly ...'
p1
aS"Sep 2, 2015 - September 2, 2015 HKA Texas News, Humble ... Valley Ranch Town Center adds Chickfila, Chili's, El Pollo Loco, Freebirds, Subway, T. Jin's Asian Caf and ..."
p2
aS'Sep 2, 2015 - This image appeared on my news feed. ...... I live in LA and a couple weeks ago I was in El Pollo Loco eating my meal, and just as I was about to start, some ...'
p3
aS"Sep 3, 2015 - I think that's because the fast-casual dining segment is an overstuffed burrito holding a lot of stocks -- Shake Shack, El Pollo Loco Holdings, Wingstop, etc."
p4
aS"Sep 2, 2015 - The news is currently generally neutral for RRGB. Based on ... Yahoo! Finance News for RRGB ... What's in Store for El Pollo Loco (LOCO) in Q2 Earnings?"
p5
aS"Sep 2, 2015 - ... sure all of these formerly highly-paid roughnecks, engineers, and technicians will find jobs flipping chicken burgers at their local recently IPO'ed El Pollo Loco."
p6
aS"Sep 2, 2015 - Ol toppled El Gero Canelo to land in the championship round while Zivaz defeated west-side favorite St. Mary's Tortilla Factory. Both Ol owner Ernesto ..."
p7
aS'Sep 3, 2015 - ... we highly recommend the Poblano Pollo Loco and liked the burgers for the most part. ... El Tipico Restaurant, 1444 South Ave., was one of the first Mexican ...'
p8
aS'Sep 2, 2015 - Their first restaurants in Wichita, Kansas, were a success, and the company branched out into other Midwestern markets, starting in 1922 with El Dorado, Kansas ...'
p9
aS'Sep 2, 2015 - ... Beverages, Insalate, Pizza Your Way, Pizzas Carne, Pizzas Verdura, Pizzas Pollo, Pasta, Wings, Side Orders .... Greek Al Forno Pizza ... El Pollo Loco Pizza ...'
p10
a.