(lp0
S"Sep 8, 2015 - September 08, 2015 08:00 ET | Source: El Pollo Loco, Inc. ... The delicious tostadas start with El Pollo Loco's signature tostada shells ... other news releases in"
p1
aS'Sep 8, 2015 - A new El Pollo Loco is planned for the North Side at 151 West Bitters Road. ... S.A. Shop Talk will highlight breaking news, interactive data and shopping trends ...'
p2
aS'Sep 7, 2015 - Orphaned in Vietnam and adopted by an American church, Phong Huynh grew up in the El Pollo Loco company, rising from night porter to corporate director ...'
p3
aS'Sep 8, 2015 - News Feed. Valerie Gonzales added a new photo  at Pollo Asado. September 8, 2015 ... Ryan Sowers Do you remember El Pollo Loco? July 18, 2015 at 3: ...'
p4
aS'Sep 8, 2015 - ListingsProperties Available  TenantsWho We Represent  NewsCommunity & ... Outback Steak House, Red Lobster, El Pollo Loco, Del Taco, Panda Express, ...'
p5
aS"Sep 8, 2015 - ... California Pizza Kitchen; Ross Dress For Less; P.F. Changs; Colony Theatre Company; Burlington Coat Factory; In & Out Burger; Jersey Mike's; El Pollo Loco."
p6
aS'Sep 8, 2015 - S7 Airlines; Baderie; McGraw Hill Financial; El Pollo loco; Standard & Poors; Kansas.gov; Royal Bank of Canada; Viaprinto; Arqiva; OpenEnglish; Thomson ...'
p7
aS'Sep 8, 2015 - Saved under News, Ventura,/Santa Paula/Ojai ... Ford F100 pickup, El Pollo Loco, Ventura County Wolfpack, Magic Touch Car Club, State Senator Hanna-Beth ...'
p8
aS'Sep 7, 2015 - Donations accepted year-round to help send kids to camp.'
p9
aS"Sep 7, 2015 - Recent News | Recent Reviews | Current Deals & Specials ..... Chicken Dairy Queen Del Taco Domino's Dunkin' Donuts El Pollo Loco Hardee's In-N-Out Jack in ..."
p10
a.