(lp0
S'Sep 9, 2015 - El Pollo Loco Holdings, Inc. (LOCO) recently launched a few variations of its traditional handcrafted tostada. ... Zacks News for ( BJRI, BOBE, TAST, LOCO ) ...'
p1
aS'Sep 9, 2015 - Fast casual chain El Pollo Loco (NASDAQ:LOCO) has had a rough go of it since coming public about a year ago. The stock once traded up near $40 but in the ...'
p2
aS"Sep 8, 2015 - September 08, 2015 08:00 ET | Source: El Pollo Loco, Inc. ... The delicious tostadas start with El Pollo Loco's signature tostada shells ... other news releases in"
p3
aS'Sep 8, 2015 - A new El Pollo Loco is planned for the North Side at 151 West Bitters Road. ... S.A. Shop Talk will highlight breaking news, interactive data and shopping trends ...'
p4
aS'Sep 9, 2015 - Buffalo Wings & Rings, Fogo de Cho, Panera Bread, others also introduce new menu items.'
p5
aS"Sep 9, 2015 - Nation's Restaurant News ... Zoe's Kitchen, Fogo de Cho, Bojangles, El Pollo Loco and Dave & Buster's Inc.  and investors are gobbling up their shares."
p6
aS"Sep 9, 2015 - Watch 'Behind The Kitchen Door' on KSAT 12 News ... perfect score; El Pollo Loco, 2403 Babcock Rd., perfect score; Jimmy John's, 5851 N.W. Loop 410, perfect ..."
p7
aS'Sep 9, 2015 - Find 8 listings related to El Pollo Loco in Longmont on YP.com. See reviews, photos, directions, phone numbers and more for El Pollo Loco ...'
p8
aS'Sep 8, 2015 - News Feed. Valerie Gonzales added a new photo  at Pollo Asado. September 8, 2015 ... Ryan Sowers Do you remember El Pollo Loco? July 18, 2015 at 3: ...'
p9
aS"Sep 9, 2015 - El Pollo Loco's COO to leave company. 8:07 A.M. ET ... El Pollo Loco COO Kay Bogeajis to leave company. 8:02 A.M. ET .... More News from MarketWatch."
p10
a.