(lp0
S'Oct 12, 2010 - This paper argues that the BP Oil Spill is, potentially, a cultural anomaly for ..... British Petroleum by the Economist magazine showed a correspondence of the ..... As head of the National Response Team he held regular news conferences, ...'
p1
aS'Oct 11, 2010 - The company was privatised when the British government sold its holdings in the ... that is vertically integrated to find, extract and supply oil, natural gas and petroleum. .... 2016 Guardian News and Media Limited or its affiliated companies.'
p2
aS"Oct 12, 2010 - British customers won't have noticed because the change had yet to be implemented in the UK. ... In 2000, BP unveiled a new greener logo, replacing the shield with a green, white ... At the same time, it adopted the slogan Beyond Petroleum."
p3
aS'Oct 11, 2010 - It may not be the scariest Halloween costume ever, but the BP oil spill outfit is ... In this case, BP stands for bad planning for legal reasons. ... MORE NEWS.'
p4
aS"Oct 12, 2010 - British Petroleum to use Idaho National Laboratory's technology in gulf oil spill: BP PLC's effort to cleanup millions of gallons of oil in the Gulf of Mexico is turning ..."
p5
aS'Oct 13, 2010 - By Petrobras News Agency. Petrobras is ... British Petroleum currently considers it as the second biggest discovery made in the Gulf of Mexico. Near that great ...'
p6
aS'Oct 11, 2010 - Din ce n ce mai mult se are n vedere rolul jucat de activitatea de lobby a BP i a industriei ... O firm care se numea cndva British Petroleum. BP se .... News ...'
p7
aS'Oct 12, 2010 - For starters, BP employs 22,000 residents along the Gulf coast and is a major ... Even if America wanted to boycott British Petroleum, and wanted to change from ...'
p8
aS'Oct 13, 2010 - Bosasa, 23. Britehouse SSD, 34. British American Tobacco South Africa, 28. British Petroleum (BP), 30 .... PRESS. Press Releases  PayScale in the News.'
p9
aS'Oct 12, 2010 - Palo Petroleum, Inc. (Palo) was established in 1976 for the exploration and ... including Texaco, Boeing, ConocoPhillips and Amoco (now British Petroleum).'
p10
a.