(lp0
S'Oct 15, 2010 - Keywords: Crisis management, British petroleum, Deepwater horizon, ..... These crisis messages should include statements by top management, news releases ...'
p1
aS'Oct 15, 2010 - On a blistering June day in Houma, Louisiana, the local offices of BPnow the Deepwater Horizon Incident Command Centerwere swarming with serious ...'
p2
aS'Oct 14, 2010 - In 1998, British Petroleum merged with ... 5/13/10  BP : the oil spill is relatively tiny in comparison with the size of the ocean .... NBC News/ Wall Street Survey.'
p3
aS'Oct 15, 2010 - The BP oil spill is undoubtedly an environmental and ecological disaster of ... and British Petroleum must accept some portion of the blame for their errors. ... On this occasion it appears that the mainstream news coverage was taken at face ...'
p4
aS"Oct 14, 2010 - ... between the British oil giant BP PLC and three major U.S. taxpayer-financed research institutions: ... BP continues to spend less on energy R&D than either ExxonMobil or Shell. Despite dubbing itself BP or Beyond Petroleum in 2000, BP's aggregate spending on all ...... Subscribe to Energy and Environment News Alerts ..."
p5
aS'Oct 16, 2010 - Alghanim Industries is the exclusive distributor for British Petroleum (BP) lubricants in Kuwait.'
p6
aS"Oct 15, 2010 - The Shah Deniz (SD) field was discovered in 1999. It is one of the world's largest gas-condensate fields, with 40 trillion cubic feet - over 1 trillion cubic metres - of ..."
p7
aS"Oct 15, 2010 - BREAKING NEWS Jennifer Washburn, perhaps the nation's best writer on the ... research pact between UC Berkeley and BP [formerly British Petroleum, and ..."
p8
aS"Oct 15, 2010 - Steve Smith, president of Universities U.K., which represents Britain's ... the former chairman of British Petroleum, proposed lifting the cap and giving universities ..."
p9
aS"Oct 15, 2010 - The toxic coal ash spill in Tennessee in December of 2009; the satellite images of British Petroleum's Gulf of Mexico oil blowout. The photos of the dead zone off ..."
p10
a.