(lp0
S'Oct 19, 2010 - 15, 2012, BP, the British company that operated the rig, announced it will pay $1.3 ... An exhausted, oil-covered brown pelican sits in a pool of petroleum along ...'
p1
aS"Oct 19, 2010 - BP Plc told a court it was committed to waiving the legal cap on its liability from ... A British Petroleum (BP) logo is seen at a petrol station in south London April 27, 2010. .... Thomson Reuters is the world's largest international multimedia news ..."
p2
aS"Oct 19, 2010 - BP's new boss Bob Dudley tells the company's 80000 employees safety will be the sole ... A spokesman for BP said the majority of staff usually received bonuses, although there was a big disparity in the amount paid. ... Mapping Britain."
p3
aS'Oct 19, 2010 - U.S. government-enforced news blackout and quarantine of events in the Gulf related to the British Petroleum Deepwater Horizon oil rig explosion.'
p4
aS"Oct 18, 2010 - If you really want to know the FULL story about British Petroleum (BP) you must ... TEDGlobal's theme And Now the Good News and join the Global Breakfast ..."
p5
aS"Oct 18, 2010 - The BP spill in the Gulf of Mexico caused a public outcry and savaged BP's share price ... of the United States, BP is no longer monopolizing the top spot on the news agenda ... Not for the first time, a petroleum giant has run into an oil-spill disaster. ... In recent years, the British oil giant had grown to be the largest producer in ..."
p6
aS'Oct 18, 2010 - Breaking news ... Angola, where British oil companies have substantial interests, does not feature on the ... Foreign governments and oil companies, BP in particular, know well that if they .... British Petroleum was renamed BP for a reason.'
p7
aS'Oct 19, 2010 - BP said in an internal memo that safety would be the sole criterion for rewarding ... in the worlds of diversified media, news, education, and information services.'
p8
aS'Oct 19, 2010 - After months of watching the news coverage on the blowout and subsequent oil spill .... her parents lived inside the British Petroleum compound in Saudi Arabia.'
p9
aS'Oct 19, 2010 - A), Chevron (CVX) and of course, British Petroleum (BP) are the big names in oil today, but in looking for the absolute biggest, none of these companies even ...'
p10
a.