(lp0
S'Oct 12, 2010 - This paper argues that the BP Oil Spill is, potentially, a cultural anomaly for ..... British Petroleum by the Economist magazine showed a correspondence of the ..... As head of the National Response Team he held regular news conferences, ...'
p1
aS"Oct 14, 2010 - The British Petroleum (BP) offshore drilling rig that exploded on April 20 ... After revelations that the Interior Department's Minerals Management Service (MMS) granted BP's Gulf oil drilling operation a ... Defenders News Briefs: Summer 2010 ."
p2
aS"Oct 13, 2010 - Business Digest: Royal Dutch Shell chief says BP could have prevented Gulf spill. ... Voser's remarks came as executives were cheered by news that the White ..."
p3
aS"Oct 13, 2010 - British Petroleum's promise to create a $US100 million compensation fund for oil workers left jobless and $US20 billion for damage claims is unprecedented."
p4
aS"Oct 12, 2010 - British customers won't have noticed because the change had yet to be implemented in the UK. ... In 2000, BP unveiled a new greener logo, replacing the shield with a green, white ... At the same time, it adopted the slogan Beyond Petroleum."
p5
aS'Oct 13, 2010 - YOU ARE HERE: LAT HomeCollectionsNews ... Others oppose ending the suspension amid ongoing inquiries into the BP spill. ... Oil industry representatives such as Erik Milito of the American Petroleum Institute, a trade group, ... The British did not impose a moratorium but scrutinized "high risk" sites before issuing a ...'
p6
aS"Oct 13, 2010 - The government imposed the deepwater drilling freeze in late May after BP's ruptured ... Posted in Alabama Maritime News, BP British Petroleum, Deepwater ..."
p7
aS"Oct 12, 2010 - British Petroleum to use Idaho National Laboratory's technology in gulf oil spill: BP PLC's effort to cleanup millions of gallons of oil in the Gulf of Mexico is turning ..."
p8
aS'Oct 13, 2010 - By Petrobras News Agency. Petrobras is ... British Petroleum currently considers it as the second biggest discovery made in the Gulf of Mexico. Near that great ...'
p9
aS'Oct 13, 2010 - My own website, with publishes ALL news articles about Shell, negative and .... NIKKEI BP (JAPAN) ARTICLE: Gripe sites are becoming more powerful: 13 Nov 2007 .... Bad Publicity plus British Humour puts Shell on the defensive: April 2012 ... to whom he awarded the licence when he was Nigerian Minister of Petroleum.'
p10
a.