(lp0
S"Oct 18, 2010 - If you really want to know the FULL story about British Petroleum (BP) you must ... TEDGlobal's theme And Now the Good News and join the Global Breakfast ..."
p1
aS'Oct 18, 2010 - Breaking news ... Angola, where British oil companies have substantial interests, does not feature on the ... Foreign governments and oil companies, BP in particular, know well that if they .... British Petroleum was renamed BP for a reason.'
p2
aS"Oct 18, 2010 - The BP spill in the Gulf of Mexico caused a public outcry and savaged BP's share price ... of the United States, BP is no longer monopolizing the top spot on the news agenda ... Not for the first time, a petroleum giant has run into an oil-spill disaster. ... In recent years, the British oil giant had grown to be the largest producer in ..."
p3
aS'Oct 19, 2010 - After months of watching the news coverage on the blowout and subsequent oil spill .... her parents lived inside the British Petroleum compound in Saudi Arabia.'
p4
aS'Oct 18, 2010 - BP announced today that it has reached agreement to sell its upstream businesses and associated interests in Venezuela and Vietnam to TNK-BP for a total of ...'
p5
aS'Oct 19, 2010 - A), Chevron (CVX) and of course, British Petroleum (BP) are the big names in oil today, but in looking for the absolute biggest, none of these companies even ...'
p6
aS'Oct 18, 2010 - Latest news and commentary on Carl J. Barbier including photos, videos, ... This image made from video released by British Petroleum (BP PLC), equipment is ...'
p7
aS'Oct 18, 2010 - The notice, from BP, explains that the owner of the BP gas station is a member of ... Am a British Citizen with proved of my identity and my British Passport. Am a contractor in Oil & Gas Petroleum, presently i have a project of 28 Million Dollars. ..... media: marketing (520), media: news/opinion (25), media: pornography (54) ...'
p8
aS'Oct 17, 2010 - Network News ... In recent weeks, several major oil firms, including British Petroleum, Royal Dutch Shell and Q8, have abruptlycanceled jet fuel delivery ...'
p9
aS'Oct 18, 2010 - Many people have believed that British Petroleum did not respond very effectively to the oil spill in the Gulf of Mexico. The biggest complaint has been that the ...'
p10
a.