(lp0
S"Oct 25, 2010 - The British ambassador in Washington was constantly helpful, and the Prime .... seen over there as British Petroleum: we're part of the American community. ... months fully 30% of the 24 hour news coverage was devoted to the incident."
p1
aS'Oct 24, 2010 - As part of their new logo and corporate image campaign, British Petroleum (BP) .... In a True News radio interview with Rick Wells on June 28, 2010, the late oil ...'
p2
aS'Oct 24, 2010 - U.S. looks to British model to improve offshore drilling safety ... Washington has long sought to head off disasters such as the BP gulf oil spill by ... groups, the International Assn. of Drilling Contractors and the American Petroleum Institute.'
p3
aS'Oct 25, 2010 - As part of their new logo and corporate image campaign, British Petroleum (BP) .... In a True News radio interview with Rick Wells on June 28, 2010, the late oil ...'
p4
aS'Oct 25, 2010 - Check out the new KD Analytical CBRNE Blog for news, views, tips and technology ... in cooperation with British Petroleum (BP) to do analysis of subsurface sea ...'
p5
aS'As part of their new logo and corporate image campaign, British Petroleum (BP) .... BEYOND "Thanks" for ...'
p6
aS'Oct 25, 2010 - De acuerdo con Dudley, la base para mejorar la reputacin de BP son los esfuerzos por frenar los efectos adversos del ... British Petroleum, BP, (en ingls).'
p7
aS'Oct 24, 2010 - ... barrels, following a comprehensive study, a newspaper reported on Thursday. ... Industry newsletter Petroleum Intelligence Weekly (PIW) however said in ... and the semi-official numbers compiled yearly by British Petroleum and the Oil ...'
p8
aS"Oct 25, 2010 - Even though the issue has been out of the news, 56 percent of Americans say ... In Mr. Obama's case, analysts said it's too soon to see any fallout from the BP oil .... British Petroleum was giving the right to drill in our Gulf for what reason when ..."
p9
aS"Oct 25, 2010 - Getting HSE Right (GHSER) is BP's Health, Safety and Environmental Management System Framework and sets out expectations for delivery of health, safety ..."
p10
a.