(lp0
S'Oct 21, 2010 - Three environmental advocacy groups sued BP on Wednesday, alleging the ... the oil spill is in the news," said Gregory Buppert, a Defenders of Wildlife attorney.'
p1
aS"Oct 22, 2010 - BP's (BP.L) Gulf of Mexico oil spill meant it missed out on an industry-wide trend of ... Greenpeace activists place a banner with the British Petroleum (BP) Logo in a .... Thomson Reuters is the world's largest international multimedia news ..."
p2
aS"Oct 21, 2010 - EDU  News Releases ... Adams and his co-investigators Scott Socolofsky S.M. '97, Ph.D. '01 and Stephen Masutani shared the prize with British Petroleum, one ..."
p3
aS'Oct 22, 2010 - News Live StreamWLOX 2016 Senior FairJobsLawCall .... second study coincided with the successful killing of the British Petroleum oil well in mid-September.'
p4
aS"Oct 22, 2010 - What does British Petroleum, one of the most-hated corporate villains in the past twenty years do ... But while there are more than 11000 BP owned gas stations. ... News  Electric Cars. Don't Blink In Disbelief As BP Offers Electric Car Refilling ..."
p5
aS'Oct 21, 2010 - BP PLC will base staff bonuses solely on safety performance in the last three ... could discourage employees from reporting injuries or near-misses is "old news.'
p6
aS'Oct 21, 2010 - On many mornings, we departed from harbors all around the Louisiana coast at the crack of dawn alongside shrimp boats hired by British Petroleum to help ...'
p7
aS"Oct 21, 2010 - ... of his clients were showing up with claims against BP (ne British Petroleum). ... The irony, however, is that in a bankruptcy filing, a debtor's claim against BP is .... Facebook, you will receive excerpts of our posts in your Facebook news feed."
p8
aS'Oct 22, 2010 - About Us Submit Hometown News Submit News ... The second study coincided with the successful killing of the British Petroleum oil well in mid-September.'
p9
aS'Oct 21, 2010 - ... biggest names in America remaining Royal Dutch/Shell and British Petroleum. ... have major influence over what constitutes "health news" in the mainstream.'
p10
a.