(lp0
S'Oct 28, 2010 - Halliburton knew before the blast on a BP rig in the Gulf of Mexico that the ... of the 1988 Piper Alpha blowout in the North Sea off Britain that killed 167 workers, ...'
p1
aS'Oct 28, 2010 - The nation looks to another hero to get them through the BP disaster and dissent ... Petroleum" to "Dependable Petroleum" (DP) and in addition to the campaign, ... Captain Hindsight (Jack Brolin)  A former news reporter that has gained the ...'
p2
aS'Oct 28, 2010 - To receive news ... This case shows the strategy followed by BP during the period 1997  2008 when John Browne ... the last decades, the effort by British Petroleum (BP) to reposition itself as an environmentally-conscious global energy giant.'
p3
aS"A description for this result is not available because of this site's robots.txt  learn more."
p4
aS"Oct 27, 2010 - Greenpeace satirise 'Beyond Petroleum' at the site of the Gulf spill. BP has been accused by rival energy giant Shell of presenting a dishonest brand position, ..."
p5
aS'Oct 28, 2010 - A new superhero named "Captain Hindsight" emerges to help with a new BP oil spill, and The Coon tries to make sure that he joins his union of superheroes.'
p6
aS'Oct 28, 2010 - ... to DP (Dependable Petroleum) but then promptly drills another hole into the Gulf. ... Tony Hayward, BP, Tom Cruise, Courtney Love, Brett Favre, the news media ... weird how they showed BP as.. well English ... rather than British (4 countries ...'
p7
aS'Oct 28, 2010 - Dana Petroleum, 3.6m. Anglo Pacific Group ... 2.2m. BP, 2m. Standard Life, 1.8m. Royal Dutch Shell, 1.8m. Prudential, 1.8m ... Business Latest News  ...'
p8
aS'Oct 28, 2010 - "My dad read a newspaper article that mentioned how baby boomers were going ... oil companies whose image took a horrible hit when the British Petroleum oil ...'
p9
aS'Oct 28, 2010 - ... the gulf, these dispersants contain petroleum distillates and 2-butoxyethanol, known ... Hugh Kaufman, a BP whistle-blower, has also spoken against dispersant, noting ... The study is intended to span one year and BP has footed part of the bill, ... British Indian Ocean Territory, Brunei Darussalam, Bulgaria, Burkina Faso ...'
p10
a.