(lp0
S'Oct 19, 2010 - 15, 2012, BP, the British company that operated the rig, announced it will pay $1.3 ... An exhausted, oil-covered brown pelican sits in a pool of petroleum along ...'
p1
aS"Oct 19, 2010 - BP Plc told a court it was committed to waiving the legal cap on its liability from ... A British Petroleum (BP) logo is seen at a petrol station in south London April 27, 2010. .... Thomson Reuters is the world's largest international multimedia news ..."
p2
aS"Oct 19, 2010 - BP's new boss Bob Dudley tells the company's 80000 employees safety will be the sole ... A spokesman for BP said the majority of staff usually received bonuses, although there was a big disparity in the amount paid. ... Mapping Britain."
p3
aS'Oct 19, 2010 - U.S. government-enforced news blackout and quarantine of events in the Gulf related to the British Petroleum Deepwater Horizon oil rig explosion.'
p4
aS'Oct 20, 2010 - Originally published in the Guardian on 20 October 1970: British Petroleum, in which the Government has a 49 per cent stake, has discovered a big oilfield in the ...'
p5
aS'Oct 20, 2010 - ECO NEWS: An update on the BP Oil Spills Effects on the Environment shows that the Deepwater ... ECO NEWS: British Petroleum Gets $10 Billion Tax Break.'
p6
aS'Oct 19, 2010 - BP said in an internal memo that safety would be the sole criterion for rewarding ... in the worlds of diversified media, news, education, and information services.'
p7
aS'Oct 20, 2010 - Six months from the start of the BP oil spill and we now know the answer to the question of how. ... Korean... certainly not English (remember, it was "British Petroleum" who killed the fishes). Picket Japanese auto dealerships. Get on the news.'
p8
aS"Oct 20, 2010 - Published: 00:00 October 20, 2010 Gulf News ... According to Ram Lal Jat, Rajasthan's minister of petroleum, gas has been discovered at ... british petroleum ..."
p9
aS'Oct 20, 2010 - BP Unclear About Trying to Limit Its Liability For Gulf Oil Spill  Judge Rules Oil Drilling ... In a news report at CBC News, they write the following: (U.S. National ...'
p10
a.