(lp0
S'Oct 28, 2010 - Halliburton knew before the blast on a BP rig in the Gulf of Mexico that the ... of the 1988 Piper Alpha blowout in the North Sea off Britain that killed 167 workers, ...'
p1
aS"Oct 29, 2010 - Rated 4.2/5: Buy Drowning in Oil: BP & the Reckless Pursuit of Profit by Loren C. ... the immense semisubmersible drilling platform leased by British Petroleum, .... and he's made numerous appearances on CNBC, FOX News, MSNBC, The ..."
p2
aS"Oct 29, 2010 - Injected with at least 4.9 million barrels of oil during the BP oil disaster of last ... local television station WKRG News 5 took a water sample from his area to test for ... in BP's draconian experiment contain solvents such as petroleum distillates ..."
p3
aS"Oct 29, 2010 - The People's News of Albuquerque -- Formerly the ABQ TRIal Balloon. Agriculture and ... British Petroleum, the third largest supermajor has its origins in Iran."
p4
aS'Oct 28, 2010 - The nation looks to another hero to get them through the BP disaster and dissent ... Petroleum" to "Dependable Petroleum" (DP) and in addition to the campaign, ... Captain Hindsight (Jack Brolin)  A former news reporter that has gained the ...'
p5
aS'Oct 29, 2010 - Full disclosure on the questions put to BP and how the company responded.'
p6
aS'Oct 29, 2010 - Halliburton and BP knew weeks before the fatal explosion of the Macondo well in ... Rand Paul calls White House pressure on British Petroleum un-American, ...'
p7
aS'Oct 29, 2010 - The Louisiana Department of Wildlife and Fisheries (LDWF) is working closely with state and federal agencies and British Petroleum (BP) officials to protect fish ...'
p8
aS'As part of their new logo and corporate image campaign, British Petroleum (BP) ... Could this possibly be linked to the news i heard last week regarding an ...'
p9
aS"A description for this result is not available because of this site's robots.txt  learn more."
p10
a.