(lp0
S'Oct 26, 2010 - Curious for more news, she called her old office in downtown Seattle. But the ... He rebranded the company from British Petroleum to BP and added the Beyond ...'
p1
aS'Oct 26, 2010 - A closer look at BP\'s corporate culture and a number of accidents and spills ... temperature," and he tried to rebrand BP as "Beyond Petroleum" in the early 2000s. ... Greek sun god, and Browne was dubbed the "Sun King" by the news media.'
p2
aS"Oct 26, 2010 - From the refineries to the oil fields to the Gulf of Mexico, BP workers .... I can't tell if BP stands for British Petroleum or Bannished Profits (from stupid decisions). ..... Connect with FRONTLINE for exclusive news, updates, and information."
p3
aS'Oct 27, 2010 - Get information, facts, and pictures about British Petroleum Company PLC at Encyclopedia.com. Make research projects and school reports about British ...'
p4
aS"Oct 26, 2010 - DOW JONES, A NEWS CORP COMPANY. News Corp is a .... BP's Bob Dudley addresses the Confederation of British Industry on Monday in London. ENLARGE."
p5
aS'Oct 27, 2010 - The Petroleum Broadcast System has turned a blind eye to BP perfidy for decades. ... where Chevron\'s logo has sat atop the news as PBS\' top corporate sponsor. ... Warnings of Alaska Tragedy" 1999, and "British Petroleum\'s Smart Pig" 2006 ...'
p6
aS'Oct 28, 2010 - To receive news ... This case shows the strategy followed by BP during the period 1997  2008 when John Browne ... the last decades, the effort by British Petroleum (BP) to reposition itself as an environmentally-conscious global energy giant.'
p7
aS"Oct 27, 2010 - Greenpeace satirise 'Beyond Petroleum' at the site of the Gulf spill. BP has been accused by rival energy giant Shell of presenting a dishonest brand position, ..."
p8
aS'Oct 26, 2010 - Okay, the good news: British Petroleum, in compliance with Judge Barbier has given their official decision on whether they will or will not seek to use the $75 ...'
p9
aS'Oct 26, 2010 - The news and views of businessmen and politicians at the CBI annual conference. ... Denies that BP is seen as British Petroleum in American and states that BP ...'
p10
a.