(lp0
S'Oct 3, 2010 - BP Oil Gusher Declared Extinguished  Lessons Learned. Posted on 03 October 2010 by South-Gate-News ... owned by Transocean Ltd. and the well was being drilled and operated by British Petroleum, both international corporate giants.'
p1
aS"Oct 4, 2010 - Investigators at the GAO claim that BP sold the petroleum between January 1, 2009 and ... from a field in Britain's North Sea in a 50-50 joint venture with Iran, worth $1 million a day at June 15, 2010 spot prices. ... Part of HuffPost on HPMG News."
p2
aS'Oct 4, 2010 - EcoTone: news and views on ecological science ... during the most recent hearing of the National Commission on the British Petroleum Deepwater Horizon Oil ...'
p3
aS'Oct 4, 2010 - ... of the U.S. auto industry; and even this year\'s BP oil disaster in the Gulf of Mexico. ... For a century after petroleum (Latin for "rock oil") became widely used as an ... have Earth\'s greatest oil richeswas made by the British in Persia (now Iran) ...'
p4
aS"Oct 4, 2010 - Home; News ... of Earth Day this past April was marked by the blowout of British Petroleum's Macondo oil well and followed by the largest oil spill in history."
p5
aS'Oct 4, 2010 - ... that depends on the decisions of the Coast Guard and British Petroleum officials ... LANDSCAPE ARCHITECTURE IN THE NEWS HIGHLIGHTS APRIL 1 - 15 ...'
p6
aS'Oct 4, 2010 - Then I was contacted by a reporter for a large newspaper in Kenya who told .... As Media Matters noted, Obama didn\'t once use the term "British Petroleum" in ...'
p7
aS"Oct 4, 2010 - NWO's British Petroleum Ruin America's Gulf ~ But Drills 15 New Oil & Gasoline Projects In Obama's Indonesia To Be Online In 2012. Weekend Reflections: ..."
p8
aS"Oct 4, 2010 - A Chemist's Selection of Science News and Resources ... Stephen Masutani of the University of Hawaii, and BP [British Petroleum], for disproving the old belief ..."
p9
aS'Oct 3, 2010 - greenwashing business social responsibilities BP. 1. British Petroleum (BP) ... Shortly after the spill, a flurry of new BP logo designs started circulating .... fashion, entertainment, home, health + fitness and travel news sent straight to your inbox.'
p10
a.