(lp0
S'Latest Videos,News and Livestream: http://bit.ly/Ryders-Cup 1. Click on the Link 2. Fill a Free Survey 3 ...'
p1
aS'Oct 5, 2010 - Posted In Gulf Oil Catastrophe, News ... a new CEO on Friday, the first American ever to lead the British company. Erik Milito, director of upstream and industry operations for the industry group American Petroleum Institute, acknowledged room for improvement. But he insisted that the industry learned from the BP disaster.'
p2
aS'Oct 4, 2010 - EcoTone: news and views on ecological science ... during the most recent hearing of the National Commission on the British Petroleum Deepwater Horizon Oil ...'
p3
aS"Oct 4, 2010 - Investigators at the GAO claim that BP sold the petroleum between January 1, 2009 and ... from a field in Britain's North Sea in a 50-50 joint venture with Iran, worth $1 million a day at June 15, 2010 spot prices. ... Part of HuffPost on HPMG News."
p4
aS"Oct 4, 2010 - Home; News ... of Earth Day this past April was marked by the blowout of British Petroleum's Macondo oil well and followed by the largest oil spill in history."
p5
aS'Oct 6, 2010 - See who you know at BP Systems Solutions, leverage your professional network, ... Join LinkedIn to get the latest news, insights, and opportunities from over 3 ...'
p6
aS'Oct 4, 2010 - ... that depends on the decisions of the Coast Guard and British Petroleum officials ... LANDSCAPE ARCHITECTURE IN THE NEWS HIGHLIGHTS APRIL 1 - 15 ...'
p7
aS'Oct 4, 2010 - ... of the U.S. auto industry; and even this year\'s BP oil disaster in the Gulf of Mexico. ... For a century after petroleum (Latin for "rock oil") became widely used as an ... have Earth\'s greatest oil richeswas made by the British in Persia (now Iran) ...'
p8
aS'Oct 4, 2010 - Then I was contacted by a reporter for a large newspaper in Kenya who told .... As Media Matters noted, Obama didn\'t once use the term "British Petroleum" in ...'
p9
aS"Oct 4, 2010 - A Chemist's Selection of Science News and Resources ... Stephen Masutani of the University of Hawaii, and BP [British Petroleum], for disproving the old belief ..."
p10
a.