(lp0
S'Latest Videos,News and Livestream: http://bit.ly/Ryders-Cup 1. Click on the Link 2. Fill a Free Survey 3 ...'
p1
aS'Oct 5, 2010 - Posted In Gulf Oil Catastrophe, News ... a new CEO on Friday, the first American ever to lead the British company. Erik Milito, director of upstream and industry operations for the industry group American Petroleum Institute, acknowledged room for improvement. But he insisted that the industry learned from the BP disaster.'
p2
aS"Oct 7, 2010 - A chemical leak at BP's Texas City refinery lasted 40 days from April to May 2010, ... for Brent Coon & Associates on the corporate greed of British Petroleum?"
p3
aS"Oct 6, 2010 - NEWS CORP ..... BP didn't immediately respond to a request for comment. ... Industries; Royal Dutch Shell; Total; Trafigura; Tupras; Vitol; British Petroleum."
p4
aS'Oct 6, 2010 - DOW JONES, A NEWS CORP COMPANY .... potentially, most expensive  accidental marine oil spill in the history of the petroleum industry. ... The BP oil disaster sparked a flurry of letters from more than 50 global investors to oil ... of gas and oil from North Sea platforms operating in British waters has increased from 61 to ...'
p5
aS'Oct 6, 2010 - See who you know at BP Systems Solutions, leverage your professional network, ... Join LinkedIn to get the latest news, insights, and opportunities from over 3 ...'
p6
aS'Oct 6, 2010 - News Story ... welcomes Professor Michael Ohadi back to the UMD campus after his eight years of service at the Petroleum Institute (PI) in Abu Dhabi, UAE.'
p7
aS"Oct 6, 2010 - So when the crew of British Petroleum's semi-submersible rig Sea Quest drilled ... Any news leaking out about an oil strike would have affected the world's stock ..."
p8
aS"Oct 5, 2010 - ... was preceded by an ad from British Petroleum Making it Right campaign. ... watching the latest news from around the world (I can't stand the ads myself, and ..."
p9
aS'Oct 6, 2010 - News and information on Royal Dutch Shell Plc. .... The strategic nuclear forces of the US Navy and the British Royal Navy essentially .... NIKKEI BP (JAPAN) ARTICLE: Gripe sites are becoming more powerful: 13 Nov 2007 .... clear that Shell knew that the ultimate beneficiary was Dan Etete, the former minister of petroleum.'
p10
a.