(lp0
S"Oct 7, 2010 - ... on the BP Andrew Alliance results from a new behavior within British Petroleum's integration ... BP and Brown & Root then proceeded with the selection of other alliance .... Get All the Offshore Magazine News Delivered to Your Inbox for free."
p1
aS"Oct 7, 2010 - ... caused by the explosion of British Petroleum's (BP) oil rig had on U.S. consumers. ... of May 2010 (right after the oil spill and when the first negative news hit)."
p2
aS"Oct 7, 2010 - A chemical leak at BP's Texas City refinery lasted 40 days from April to May 2010, ... for Brent Coon & Associates on the corporate greed of British Petroleum?"
p3
aS"Oct 6, 2010 - NEWS CORP ..... BP didn't immediately respond to a request for comment. ... Industries; Royal Dutch Shell; Total; Trafigura; Tupras; Vitol; British Petroleum."
p4
aS'Oct 6, 2010 - DOW JONES, A NEWS CORP COMPANY .... potentially, most expensive  accidental marine oil spill in the history of the petroleum industry. ... The BP oil disaster sparked a flurry of letters from more than 50 global investors to oil ... of gas and oil from North Sea platforms operating in British waters has increased from 61 to ...'
p5
aS"Oct 6, 2010 - So when the crew of British Petroleum's semi-submersible rig Sea Quest drilled ... Any news leaking out about an oil strike would have affected the world's stock ..."
p6
aS'Oct 7, 2010 - Join LinkedIn to get the latest news, insights, and opportunities from over 3 million ... Trata-se de uma joint venture entre a BP British Petroleum, LDC-SEV Louis ...'
p7
aS'Oct 7, 2010 - Middle east Oil & Gas News Portal  Arabianoilandgas.com ... Russian-British Petroleum group TNK-BP aims to buyout British Petroleum assets in Algeria, said ...'
p8
aS'Oct 6, 2010 - News Story ... welcomes Professor Michael Ohadi back to the UMD campus after his eight years of service at the Petroleum Institute (PI) in Abu Dhabi, UAE.'
p9
aS'Oct 7, 2010 - Home  BP Oil Gusher Widget  About eKos ..... Photos (55); Learning (54); british petroleum (53); clean energy (51); green (49); Climate (45) ... Republicans (24); State of the World (24); Birds (23); climate change news roundup (23); BP Oil ...'
p10
a.