(lp0
S"Oct 7, 2010 - ... on the BP Andrew Alliance results from a new behavior within British Petroleum's integration ... BP and Brown & Root then proceeded with the selection of other alliance .... Get All the Offshore Magazine News Delivered to Your Inbox for free."
p1
aS"Oct 8, 2010 - A BP petrol station is reflected in a car, in London April 28, 2009. ... A BP spokesman confirmed the company was reviewing the structure of the .... Follow all the latest developments as Britain counts down to the June 23 referendum on EU membership. ... Thomson Reuters is the world's largest international multimedia news ..."
p2
aS"Oct 7, 2010 - ... caused by the explosion of British Petroleum's (BP) oil rig had on U.S. consumers. ... of May 2010 (right after the oil spill and when the first negative news hit)."
p3
aS'Oct 7, 2010 - Join LinkedIn to get the latest news, insights, and opportunities from over 3 million ... Trata-se de uma joint venture entre a BP British Petroleum, LDC-SEV Louis ...'
p4
aS'Oct 7, 2010 - Middle east Oil & Gas News Portal  Arabianoilandgas.com ... Russian-British Petroleum group TNK-BP aims to buyout British Petroleum assets in Algeria, said ...'
p5
aS'Oct 8, 2010 - Aberdeen University\'s professor of petroleum economics Alexander Kemp said: "The discovery of ... "One of the most famous quotations came from a senior BP person who said he would drink every barrel ... "There was equipment they couldn\'t get in Britain so they would charter planes to bring it over. .... Most Read in News ...'
p6
aS'Oct 8, 2010 - Climate Change News Roundup by Patriot Daily News Clearinghouse .... Edger, 10/4/2010 11:54:15 AM, british petroleum, BP, Deepwater Horizon, Gulf of ...'
p7
aS'Oct 7, 2010 - Home  BP Oil Gusher Widget  About eKos ..... Photos (55); Learning (54); british petroleum (53); clean energy (51); green (49); Climate (45) ... Republicans (24); State of the World (24); Birds (23); climate change news roundup (23); BP Oil ...'
p8
aS'Oct 7, 2010 - Pakistan Petroleum Ltd (PPL) plans to issue dollar bonds ... PPL is also known to be a potential contestant for British Petroleum (BP) assets, when .... Newspaper.'
p9
aS"Oct 8, 2010 - JA Solar Holdings and BP Solar have signed agreements for the BP company ... With the recent news of Google's enormous investment to bring solar power into ..."
p10
a.