(lp0
S'Nov 16, 2010 - British Petroleum recently announced that it will be selling its fuel marketing business to Puma energy in Africa. ... Latest and Most Read Business News ...'
p1
aS'Nov 17, 2010 - Finden Sie alle Daten, Nachrichten und Unternehmensmeldungen fr BP ... Brse Frankfurt-News: Gefragte lkonzerne (Auslandsaktien) Finanzen.net(Do., 26.'
p2
aS'Nov 16, 2010 - Archives. Last Updated. Thursday 21 April 2016, 11:23 am. Advertising  Contact Us  Home  News  Business ... News/Media Website  Gaborone. 294,341 likes.'
p3
aS'Nov 16, 2010 - more news from this source ... the U.S. Environmental Protection Agency, Alcoa Foundation, British Petroleum and some charitable foundations strengthened the ...'
p4
aS'Nov 17, 2010 - Bringing you the important headlines of local Anna Maria Island news. ... called for a fulltime, Gulf-wide response organization - paid for by British Petroleum - to ...'
p5
aS"Nov 16, 2010 - The news comes as it is revealed that top U.S. executives saw their pay and ... Last year's top earner was Ray Irani, head of Occidental Petroleum who ...... in Star Wars: Episode VIII British comedian; The school principal reprimands Hannah. ..... Judge approves $20BILLION settlement over 2010 BP oil spill in the biggest ..."
p6
aS"Nov 17, 2010 - In April BP began oil production from the U.K. North Sea's Harding field, using a .... field tied back to a new platform in Heimdal field, where Elf Petroleum Norge AS is operator. ... However, Britain's low gas prices following gas market liberalization have meant ..... Get All the Oil and Gas Journal News Delivered to Your Inbox."
p7
aS'Nov 17, 2010 - LILITH NEWS. American, Canadian & International News Commentary: Spreading Freedom in the Face of Tyranny ...... British Petroleum may go bankrupt'
p8
aS'Nov 17, 2010 - BP Consultancy Services Team has extensive experience in high-profile, industry ... now known as the British Petroleum Company and Chevron Corporation.'
p9
aS'Nov 17, 2010 - Two advertising geniuses come to help the Chevron executives plot to trick you into thinking they are going green when they are doing the exact opposite.'
p10
a.