(lp0
S'Nov 15, 2010 - The exit of multinational British Petroleum from the Tanzania market faces stiff opposition from its workers who want to know their fate before any.'
p1
aS"Nov 15, 2010 - BP-British Petroleum - The Unfinished Crimes and Plunder of ... Cheney, Rothschild, and Fox News' Murdoch to Drill for Oil in Syria, Violating International Law."
p2
aS'Nov 16, 2010 - British Petroleum recently announced that it will be selling its fuel marketing business to Puma energy in Africa. ... Latest and Most Read Business News ...'
p3
aS"Nov 15, 2010 - BP has agreed the 296m sale of stakes in its refining and marketing operations in ... Business Latest News  ... A worker of Gujarat State Petroleum Corporation checks oil flow of well PK-2 during ... From a rare pair of Gucci shoes, to spending 110,000 releasing an album, Britain's wealthiest are pulling out all the stops ..."
p4
aS'Nov 17, 2010 - Finden Sie alle Daten, Nachrichten und Unternehmensmeldungen fr BP ... Brse Frankfurt-News: Gefragte lkonzerne (Auslandsaktien) Finanzen.net(Do., 26.'
p5
aS'Nov 15, 2010 - 60 Track and field British Olympic hopeful William Sharman talks about why the Cultural ... 04 For the record A snapshot of BP news and statistics from around the world. 19 The Big ..... National Agency of Petroleum (ANP)  approved a deal ...'
p6
aS'Nov 15, 2010 - And then, suddenly, it disappearedfrom the 24-hour news cycle and, ... As part of its Operation Deep Clean, British Petroleum is digging deep into the sand to ...'
p7
aS'Nov 16, 2010 - Archives. Last Updated. Thursday 21 April 2016, 11:23 am. Advertising  Contact Us  Home  News  Business ... News/Media Website  Gaborone. 294,341 likes.'
p8
aS'Nov 15, 2010 - Middle east Oil & Gas News Portal  Arabianoilandgas.com ... BP announced on Monday it has agreed to sell its fuels marketing businesses in Namibia, ...'
p9
aS"Nov 16, 2010 - The news comes as it is revealed that top U.S. executives saw their pay and ... Last year's top earner was Ray Irani, head of Occidental Petroleum who ...... in Star Wars: Episode VIII British comedian; The school principal reprimands Hannah. ..... Judge approves $20BILLION settlement over 2010 BP oil spill in the biggest ..."
p10
a.