(lp0
S'Nov 12, 2010 - Bob Dudley, BP CEO, Blames Media For Creating "Climate Of Fear" In Gulf ... Read More: Video, British Petroleum Oil Spill, British Petroleum Reporters, British ...'
p1
aS'Nov 11, 2010 - This entry was posted in General and tagged Animation, BP oil spill, Cesar ...... Persian Gulf than just a Gulf: British Petroleum (BP) and the consequences of its ...'
p2
aS'Nov 11, 2010 - Horizon drilling rig operated by British Petroleum (BP) and developments ... The analysis does not attempt to assign fault or blame for the BP accident to BP ...... Work, Environment Reporter, 41 ER 1893 (2010); and News Release, U.S. Dept.'
p3
aS'Nov 11, 2010 - The news was downplayed by big media, but the following is the report: ..... Oddly, the Chinese and British Petroleum (BP) were willing to accept less than a few ...'
p4
aS"Nov 11, 2010 - Protei in NRC Dutch Newspaper .... Or BP et Washington affirment que la seule chance solide d'arrter la fuite rside dsormais dans le forage d'un puits de secours, pas ... British Petroleum rebouche [un instant] sa fuite et creuse son trou."
p5
aS"Nov 11, 2010 - BP Tony Hayward Tony Hayward: Public saw us as 'fumbling and incompetent' Ex-BP boss says ... Gulf of Mexico Oil Spill News of Oil Spill Jobs, New Business, Oil Spill ... by oil rivals who have tried to distance themselves from the behaviour of the British oil group. ..... British Petroleum Stock Price (5); Tony Hayward (2)."
p6
aS"Nov 13, 2010 - With Roger Vielvoye from London BHP Petroleum's decision to acquire the remaining ... Hamilton purchase was the ability to even the load on British and Australian engineers. ... Get All the Oil and Gas Journal News Delivered to Your Inbox .... BP offers a progressive working environment with the chance to move internally ..."
p7
aS'Nov 12, 2010 - ... including positions with BP, Paladin Resources plc and Clyde Petroleum plc. ... In 2004, he was awarded an OBE (Order of the British Empire) for his work for ...'
p8
aS'Nov 12, 2010 - NIKKEI BP (JAPAN) ARTICLE: Gripe sites are becoming more powerful: 13 Nov 2007 ... MANCHESTER EVENING NEWS ARTICLE: Fears for Shell: 30 Dec 2007 .... Bad Publicity plus British Humour puts Shell on the defensive: April 2012 ... to whom he awarded the licence when he was Nigerian Minister of Petroleum.'
p9
aS'Nov 12, 2010 - Home /; News /; Nation .... ring out of massage studio in Lawrence http://t.co/iahQXu2u9D 1041 days ago; Breaking news: Judge rejects defense request to delay ...'
p10
a.