(lp0
S'Nov 19, 2010 - As reported in a Morgan Keegan/CSP Daily News Flash yesterday, BP is ... the former British Petroleum, Amoco, Atlantic Richfield (ARCO) and Burmah Castrol.'
p1
aS'Nov 19, 2010 - Home  News  City crew accidentally rips open underground diesel pipeline; ... The damaged pipeline is owned by British Petroleum, which has hired private ...'
p2
aS"Nov 19, 2010 - BP Plc's former head of fuel oil trading Quek Chin Thean and four other ex-employees won a Singapore ... Brightoil hired the six to help set up a competing business to trade petroleum products, crude oil and to provide ... Bloomberg News."
p3
aS'Nov 19, 2010 - Oil giant BP \'failed to respond to alarms\' and had suffered burst pipelines since 2001 ... and reliability," BP spokesman Steve Rinehart told the Anchorage Daily News. ... Still, the ruling will only increase scrutiny of the British firm, which recently ...'
p4
aS'Nov 19, 2010 - THE SOURCE OF THE GULF BLUE PLAGUE (BP) ... particular grant is exclusively funded by a USD $500 million 10-year grant from British Petroleum? .... http://newscenter.lbl.gov/news-releases/2010/08/24/deepwater-oil-plume-microbes/'
p5
aS'Nov 18, 2010 - Families raised $22,346, an amount matched by British Petroleum for a grand ... Visit OC Moms for deals, events, features, contests, and news & information just ...'
p6
aS"Nov 18, 2010 - Colorado Breaking News, Sports, Weather, Traffic. Scrooge: You gotta .... It's a tie between British Petroleum and subprime lending institutions. All that damage ..."
p7
aS'Nov 20, 2010 - If you talk to the locals you will soon discover the media affected their tourism far greater than the British Petroleum (BP) oil spill of April 2010 ever did. There was ...'
p8
aS'Nov 18, 2010 - Company News  CSR Events ... Intent: viewer will associate BP with warm and fuzzy solar panels instead of oil spills. 4. ... Example: BP (formerly known as British Petroleum) redefined as Beyond Petroleum, presumably following linguistic ...'
p9
aS'Nov 19, 2010 - He retired as a unit operator from British Petroleum (BP), Whiting, Ind. He was a member of Sacred Heart Catholic Church, a Viet Nam veteran with the U.S. Army ...'
p10
a.