(lp0
S'Nov 9, 2010 - Tony Hayward: BP not prepared for fallout, was on financial brink ... to the company as "British Petroleum" rather than as "BP," underscoring that a foreign-based company was at fault for the disaster. "I don\'t .... Explore the news with NewsPulse '
p1
aS"Nov 9, 2010 - Commission identifies 'incredible failures' at BP, Halliburton and Transocean ahead of ... BP and the other companies involved in the Gulf of Mexico oil disaster were operating ... More news ... I guess all the fuss about British Petroleum was a smokescreen dreamed up by the BP PR department to get back at the Americans."
p2
aS'Nov 10, 2010 - But then I saw several times that smug toad Hofmeister dumping on BP in ... MANCHESTER EVENING NEWS ARTICLE: Fears for Shell: 30 Dec 2007 .... April Fool - Bad Publicity plus British Humour puts Shell on the defensive: April 2012 ... knew that the ultimate beneficiary was Dan Etete, the former minister of petroleum.'
p3
aS'Nov 10, 2010 - BP, Corporate R&amp;D, and the University; Russ Lea. ... I felt it was my duty to stay connected with emerging news, briefings, and meetings related to the spill.'
p4
aS"Nov 10, 2010 - to Beach Bum's, The Island Sun newspaper, and Wagner Realty. ... Claims Facility (GCCF), which took over the claims process from British Petroleum in August."
p5
aS'Nov 9, 2010 - In the UK, there was anger at the American press and news outlets for the misuse of the term "British Petroleum" for the company  a name which has not been ...'
p6
aS'Nov 9, 2010 - ... Compensation and benefits  Profiles. M. Norway  Media  Press releases and News  2010; Naming ceremony Skarv FPSO. Press releases and News.'
p7
aS'Nov 10, 2010 - While the nation decried the effects of pollution as it watched the Gulf of Mexico swell with crude oil from a leaking offshore British Petroleum oil well, ...'
p8
aS'Nov 10, 2010 - bp-logo-dripping-oil-business-ethics-assignment-report- ... Here I also post for download the Business Ethics report on British Petroleum in a PDF ....     Linux Weekly News  Online Computer Museum  Hackles Computer Comics ...'
p9
aS'Nov 9, 2010 - Pela primeira vez, cientistas encontraram corais e outras formas de vida marinha danificadas no fundo do mar, a vrias milhas do poo da British Petroleum que ...'
p10
a.