(lp0
S'This video covers many environmental results of the BP Oil Spill, which ... is still an ongoing issue, despite ...'
p1
aS'Nov 23, 2010 - The disaster caused by an explosion of a British Petroleum oil rig killed eleven platform workers, injured 17 others and caused the largest accidental marine oil ...'
p2
aS'Nov 22, 2010 - Fortunately, BP is the exception and not the rule. The 50000-plus wells other firms have successfully drilled in federal waters of the Gulf offer further evidence of ...'
p3
aS"Nov 23, 2010 - To date, BP Egypt, in collaboration with the Gulf of Suez Petroleum Company, BP's JV Company with the Egyptian General Petroleum Company, has been ..."
p4
aS'Nov 22, 2010 - BRITISH Petroleum (BP) is on its way out of Namibia. Early this week Puma Energy signed a deal to acquire BPs fuel marketing businesses in the country.'
p5
aS'Nov 23, 2010 - Support Indie News! ... With Pomp and Plays, British Town Celebrates Shakespeare Anniversary April 21, 2016 ... A BP diagram included in the report depicts early containment and collection efforts. ... government develop and maintain additional in-house expertise in petroleum engineering, as well as formalize procedures ...'
p6
aS'Nov 23, 2010 - "Starting with the CIA\'s 1953 covert overthrow of the government of Iran for the sake of the British Petroleum Company, American policy in the Middle East ...'
p7
aS"Nov 22, 2010 - When I was with British Petroleum (BP), our retail business wanted to enter the ... challenge on their company's intranet or electronic news facility. This enables ..."
p8
aS"Nov 23, 2010 - In April 2001, Deborah Sherman of Boston's Fox News station undertook her ..... Changing its name from British Petroleum to just BP, the company adopted a ..."
p9
aS'Nov 23, 2010 - REGIONAL NEWS ... We are very pleased that Centrica Resources, in conjunction with BP, has chosen for Seafox 1 to ... The Norwegian Petroleum Directorate (NPD) has granted Centrica Resources (Norge) .... Centrica plc, the parent company of British Gas, today announced it has entered into a 4  year LNG supply .'
p10
a.