(lp0
S'Nov 2, 2010 - BP Plc said profit fell 66 percent after taking a further charge of $7.7 billion related to ... That beat the $4.6 billion mean estimate of 16 estimates in a Bloomberg News survey. ... BP said it has billed Anadarko Petroleum Corp. and Mitsui & Co.'
p1
aS'Nov 2, 2010 - BP said today it expects the cost of the Deepwater Horizon oil disaster to be $7.7bn (4.8bn) ... owning the remainder  Anadarko Petroleum with 25%, and Mitsui with 10%. ... 2016 Guardian News and Media Limited or its affiliated companies.'
p2
aS"Nov 2, 2010 - BP offered investors tentative signs of recovery on Tuesday, with a modest rise in ... a 29 percent hike in U.S. natural gas prices and a doubling in British gas prices. ... Anadarko Petroleum and Japan's Mitsui own 35 percent of the blown out well and .... Thomson Reuters is the world's largest international multimedia news ..."
p3
aS'Nov 1, 2010 - News. On April 21, 2010, rescue vessels in the Gulf of Mexico battle an inferno on the ... April 20 was a triumphant evening for British Petroleum and the crew of ...'
p4
aS'Nov 1, 2010 - andy-hopwood-bp.jpg. Executive team tenure: appointed 1 November 2010 Outside interests: No external appointments Age: 58 Nationality: British ...'
p5
aS'Nov 2, 2010 - The latest government report counts over 6000 birds, over 600 sea turtles and 100 mammals potentially killed by the BP oil spill.'
p6
aS"Nov 1, 2010 - Other News & Articles ... British Petroleum's Deepwater Horizon oil well blowout in the Gulf of Mexico is claimed to be the worst oil spill into an ocean in history."
p7
aS'Nov 1, 2010 - News and Video > All News > GA Serves America: Above the spill ... All of the bills eventually found their way back to British Petroleum (BP). In July, BP was ...'
p8
aS'Nov 2, 2010 - About Us  News; Browse Journals .... This article documents a landmark dispute between British Petroleum (BP) and the Nigerian tax authorities that occurred ...'
p9
aS'Nov 1, 2010 - ... to other issues. See. Michael J. Evans, Oil Spill Pictures and the Media Blackout, BP Oil News, June ... (British Petroleum has thrown a media blackout over ...'
p10
a.