(lp0
S'Nov 2, 2010 - BP Plc said profit fell 66 percent after taking a further charge of $7.7 billion related to ... That beat the $4.6 billion mean estimate of 16 estimates in a Bloomberg News survey. ... BP said it has billed Anadarko Petroleum Corp. and Mitsui & Co.'
p1
aS'Nov 2, 2010 - BP said today it expects the cost of the Deepwater Horizon oil disaster to be $7.7bn (4.8bn) ... owning the remainder  Anadarko Petroleum with 25%, and Mitsui with 10%. ... 2016 Guardian News and Media Limited or its affiliated companies.'
p2
aS"Nov 2, 2010 - BP offered investors tentative signs of recovery on Tuesday, with a modest rise in ... a 29 percent hike in U.S. natural gas prices and a doubling in British gas prices. ... Anadarko Petroleum and Japan's Mitsui own 35 percent of the blown out well and .... Thomson Reuters is the world's largest international multimedia news ..."
p3
aS'Nov 2, 2010 - The latest government report counts over 6000 birds, over 600 sea turtles and 100 mammals potentially killed by the BP oil spill.'
p4
aS'Nov 3, 2010 - BP (British Petroleum) has set the end of 2010 as the target for full ... of the oil spill are no longer clearly visible in the sand or headlined in the evening news.'
p5
aS'Nov 4, 2010 - Not to be outdone, British Petroleum has come up with a new recipe that blackens the fish ... WBRZ-TV News Video: http://www.wbrz.com/player/?video_id=4523'
p6
aS'Nov 2, 2010 - About Us  News; Browse Journals .... This article documents a landmark dispute between British Petroleum (BP) and the Nigerian tax authorities that occurred ...'
p7
aS'BP - Tony Hayward: profit vs safety - quotes from 2009 vs. 2010. tinerotiman ... taken from: "Entrepreneurial ...'
p8
aS'Nov 3, 2010 - The following is a news release from The Port of Lake Charles: ... The project, undertaken by the Port, in conjunction with British Petroleum (BP) and Dynamic ...'
p9
aS"Nov 2, 2010 - Whilst, in the main, the British independents were initially non-operators, the skill bases they built in ... More headlines All oil news ... BP and China National Petroleum Corporation sign BP's first shale gas production sharing contract in China ..."
p10
a.