(lp0
S'Nov 4, 2010 - BP Plc is headquartered at St. James\'s Square in London, but the energy company\'s fate ... and even President Barack Obama referred to BP as "British Petroleum," the .... Thomson Reuters is the world\'s largest international multimedia news ...'
p1
aS'Nov 5, 2010 - ... data from a surface current mapping radar on the British Petroleum-operated oil platform Atlantis in the Gulf of Mexico. ... NEWS RELEASES ... Scripps deploys surface current mapping radar on BP platform Atlantis in the Gulf of Mexico. Nov.'
p2
aS'Nov 4, 2010 - Not to be outdone, British Petroleum has come up with a new recipe that blackens the fish ... WBRZ-TV News Video: http://www.wbrz.com/player/?video_id=4523'
p3
aS'Nov 3, 2010 - The following is a news release from The Port of Lake Charles: ... The project, undertaken by the Port, in conjunction with British Petroleum (BP) and Dynamic ...'
p4
aS'Nov 3, 2010 - BP (British Petroleum) has set the end of 2010 as the target for full ... of the oil spill are no longer clearly visible in the sand or headlined in the evening news.'
p5
aS"Nov 4, 2010 - BP Amoco Analysis: Post-spill, Gulf of Mexico key to BP's fortunes By Chris Baltimore ... Gulf of Mexico Oil Spill News of Oil Spill Jobs, New Business, Oil Spill ... and even President Barack Obama referred to BP as British Petroleum, the ..."
p6
aS'Nov 4, 2010 - The fact that BP and Halliburton knew this cement job could fail only ... in a news briefing but was not permitted to give his name, went a little further. Had the .... drill hole, as well as the possible failure of equipment leased to British Petroleum.'
p7
aS'BP - Tony Hayward: profit vs safety - quotes from 2009 vs. 2010. tinerotiman ... taken from: "Entrepreneurial ...'
p8
aS'Nov 4, 2010 - Apache Completes Acquisition of BP Assets in Egypt\'s Western Desert ... a natural gas processing plant, a liquefied petroleum gas plant and oil and gas export ... all of BP\'s upstream natural gas business in western Alberta and British Columbia . ... This news release contains certain "forward-looking statements" within the ...'
p9
aS'Nov 4, 2010 - McMahon was also done in by his own ham-handed campaign tactics, including mailings that sought to link Grimm to school bus cuts and British Petroleum, ...'
p10
a.