(lp0
S'Dec 10, 2010 - Stemming from a sea-floor oil gusher, the rig, operated by British Petroleum ..... Gulf Oil Spill Containment Attempt Fails Environment News Service, May 10, ...'
p1
aS'Dec 10, 2010 - Oil and Gas Development Co Ltd (OGDCL) said Friday that it was bidding for the acquisition of assets of British Petroleum (BP) Pakistan. In a communique to ...'
p2
aS"Dec 9, 2010 - The BP (BP) oil spill in the Gulf of Mexico did that market no favors. ... With British Petroleum stepping up to the plate and oil no longer spilling into ... Access to Jim Cramer's daily blog; Intraday commentary and news; Real-time trading forums."
p3
aS"Dec 10, 2010 - WikiLeaks Shell 'revelations' are old news in Nigeria ... Incessant wrangling over the now watered-down petroleum industry bill, which was to have radically ..."
p4
aS'Not one to normally disrespect people I cannot respect anyone affiliated with the current Administration because ...'
p5
aS"Dec 10, 2010 - 879 BP Job vacancies available on Indeed.co.uk. one search. all jobs. ... of the world's biggest businesses (Ford, BP, Visa, Unilever, News UK, ..."
p6
aS'Dec 9, 2010 - News and Views from the Global South. Africa  Asia-Pacific  Europe ... BOLIVIA: Madidi National Park and the Curse of Petroleum. By Franz Chvez Reprint ...'
p7
aS'Dec 9, 2010 - Mexico Sues BP Mexico Expected to Sue BP Over Oil Spill in Gulf of Mexico Sept. ... Gulf of Mexico Oil Spill News of Oil Spill Jobs, New Business, Oil Spill Specials/Benefits, Personal ..... British Petroleum Stock Price (5); Tony Hayward (2).'
p8
aS"Dec 9, 2010 - ... watched the low-quality videos of the oil spill released by British Petroleum. .... While BP's deepwater spill in the Gulf of Mexico was worldwide news for ..."
p9
aS"Dec 9, 2010 - British Airways Plc told a London court that a group of 16 Hong Kong-based former ... Gadfly  Bloomberg Television  Bloomberg Radio  Bloomberg Mobile Apps  News Bureaus ..... He holds a long position in BP Plc, according to the report. ... PetroChina Co., and Asia's biggest refiner, China Petroleum & Chemical Corp."
p10
a.