(lp0
S"Dec 13, 2010 - All eyes were on British Petroleum this year for its role in the protracted oil spill ... issue and called for cuts to NPR's budget while FOX News capitalized on the ..."
p1
aS'Dec 12, 2010 - Conspiracy Theory With Jesse Ventura: BP Oil Spill  (full length) ... Breaking News - Another Oil Rig "Explodes" In The Gulf Of MexicoIn "Big Brother" ... I live in America, and all it took was some British Petroleum, to flip my world upside down.'
p2
aS'Dec 12, 2010 - Laidlaw became a managing director of British Petroleum in 1972, and was deputy chairman in 1980-81. ... Anglo-Iranian Oil Co  which became British Petroleum following the forced nationalisation .... Catch up on all the latest football news.'
p3
aS"Dec 13, 2010 - http://www.businessweek.com/news/2010-05-12/bp-tells-congress-gulf-well- .... Jim Hackett, CEO of Anadarko Petroleum Corporation, BP's partner company in the ..... coast of Britain, the first such permission to be granted since the Gulf of ..."
p4
aS'Dec 12, 2010 - The nationalization of oil supplies refers to the process of confiscation of oil production ... Five of the companies were American (Chevron, Exxon, Gulf, Mobil, and Texaco), one was British (British Petroleum), and one ..... Info News (in Spanish).'
p5
aS"Dec 13, 2010 - April 20, 2010  British Petroleum's Deepwater Horizon, a semi-submersible drilling rig, suffered an explosion and fire, sinking on April 22. Eleven people were ..."
p6
aS'Dec 13, 2010 - By 1954, Anglo-Iranian Oil was renamed British Petroleum and resumed oil production in Iran. BP continued its Iranian operations until 1979, when the regime of ...'
p7
aS"Dec 12, 2010 - BP's stake in Pan American Energy, while money-making, was seen as peripheral to the British company's operations for this reason. ... This year has seen a series of energy deals, including last week's decision by Sinochem to buy Occidental Petroleum Corp's operations in Argentina for $2.45bn. ... NEWS BY EMAIL."
p8
aS'Dec 13, 2010 - British Petroleum Helps Teacher Surprise Students with Radios  7 Replies ..... Longview News Journal Article posted July 1, 2010. By Jimmy Alford ...'
p9
aS"Dec 12, 2010 - During this 2010 International Year of Biodiversity, the news is not good. In May the third edition ..... It became simply 'BP' rather than the old 'British Petroleum'."
p10
a.