(lp0
S'Dec 21, 2010 - BP has signed a $400m (258m) five-year outsourcing services deal with HP. ... Latest News. Mobile operators are overstating 4G coverage, claims Which?'
p1
aS'Dec 21, 2010 - Latest News ... "By establishing a standardised global operating model, BP will realise ... HP will also give BP the platform to roll out enterprise private and public ... A report from the Confederation of British Industry and tech giant IBM paints a ...'
p2
aS'Dec 21, 2010 - PALO ALTO, Calif. -- HP Enterprise Services UK Limited today announced BP International Limited has signed a five-year outsourcing services agreement ...'
p3
aS'Dec 21, 2010 - Yesterday, Louisiana Department of Wildlife and Fisheries (LDWF) Secretary Robert Barham and state officials finalized plans with British Petroleum to pay ...'
p4
aS'Dec 20, 2010 - On May 25, 2010, the online arm of Upstream, a newspaper for the international oil and gas industry, reported that British Petroleum had started top-kill ...'
p5
aS'Dec 20, 2010 - When the blowout of the British Petroleum (BP) Macondo well destroyed the Deepwater Horizon oil rig in the Gulf of Mexico in April of 2010, it touched off the ...'
p6
aS'Dec 22, 2010 - BP shares crashed by 2% this morning on the news that the USA is planning to sue British Petroleum BP. Even though BP has already committed huge funds to ...'
p7
aS'Dec 21, 2010 - Richard Frederick Paynter Hardman, CBE (born 1936) is a British geologist and the doyen of applied petroleum geologists. ... Starting his career with British Petroleum (BP), where after working for ten years, he joined Amoco in ... Jump up to: "UK: Richard Hardman to sure up Regal Petroleum". energy-pedia general news.'
p8
aS"Dec 21, 2010 - t.h.g. Palast Arrested Busted by BP in Azerbaijan by Greg Palast Monday, December ... The colonel said, British Petroleum drives this country, and as a British ..... is labeled news or a candidates' debate, that characterization still applies."
p9
aS'Dec 20, 2010 - Alabama Attorney General Troy King announced Thursday that a lawsuit is forthcoming against British Petroleum (BP), Transocean, and others in response to ...'
p10
a.