(lp0
S'Dec 28, 2010 - British Petroleum received strong public criticism for its role in the disaster and quickly ... from British Petroleum in the initial aftermath of the Deepwater Horizon spill. .... The framesetting effects of news: An experimental test of advocacy versus ...'
p1
aS'Dec 27, 2010 - British Petroleum (BP) was leasing the oil rig from Transocean at the time of ... When news of the complaint by the Chemical Safety Board reached the head of ...'
p2
aS"Dec 28, 2010 - The major oil company British Petroleum tested OSEI Corporation's product ... and the TV news program in which Retired Rear Admiral Lively drank some of it"
p3
aS'Dec 28, 2010 - British Petroleum, Toyota and National Public Radio Top 2010 PR Blunders ... Bill O\'Reilly of FOX News\' "The O\'Reilly Factor" that flying on airplanes with overt ...'
p4
aS'Dec 27, 2010 - The massive Gulf oil spill dominated much of the news cycle. ..... Just as the news for British Petroleum was getting brighter, with stocks soaring 6 percent higher ...'
p5
aS'Dec 27, 2010 - (Boston Globe); 11/10/2010: British Petroleum (BP) stated that it intended to close its project, the Rhum gas field in the North Sea, which the National Iranian Oil ...'
p6
aS'Dec 27, 2010 - MEDIA COVERAGE (OVER 100 NEWS STORIES) AND BOOKS (NEARLY 40) ... NIKKEI BP (JAPAN) ARTICLE: Gripe sites are becoming more powerful: 13 Nov 2007 .... Bad Publicity plus British Humour puts Shell on the defensive: April 2012 ... that the ultimate beneficiary was Dan Etete, the former minister of petroleum.'
p7
aS'Dec 27, 2010 - 16To have the BP spill happen you know, was almostI hate to say ... and filming, the British Petroleum oil spill dominated the news and gulf ecosystem.'
p8
aS'Dec 27, 2010 - Some scientists attributed this to the BP oil spill in the Gulf of Mexico. I have not been able ... Phys.org - latest science and technology news stories on Phys.org.'
p9
aS'Dec 28, 2010 - One of the toxicologists on Smith\'s litigation team pursuing BP was Dr. William Sawyer, ... we tested a good number of seafood samples and in 100 percent we found petroleum." ... Latest News ... Beware of \'What British Muslims really think?'
p10
a.