(lp0
S'Dec 22, 2010 - ECO NEWS: Obama Sues BP For Oil Pollution caused by the Deepwater Horizon ... Pingback: ECO NEWS: British Petroleum Gets $10 Billion Tax BreakGreen ...'
p1
aS"Dec 23, 2010 - BP's Response to the Gulf Oil Spill was quick to the news that one of its oil rigs ... between Amoco Corporation of the United States and British Petroleum p.l.c. of ..."
p2
aS'Dec 23, 2010 - Saw you on Fox News this morning and was very impressed, especially with that oil ... Even when the Gulf Oil disaster occurred, BP were slow to respond to ...'
p3
aS'Dec 23, 2010 - BP and the government famously declared that most of the oil had ... Tests now have started to link some oil in the sediment to the BP well could add to the ... Signs and Portents: Two-headed snake found in Kansas  Petroleum ... Latest News ... Revelation from British intelligence archives - Alexei Navalny is an MI6 & CIA ...'
p4
aS"Dec 22, 2010 - BP's April 20th oil rig explosion in the Gulf of Mexico killed eleven people and ... ignite a social media fire that's easily fanned into a prime time news debacle."
p5
aS'Dec 23, 2010 - News Briefs: Government Oils its Legal Gears | Islam Course to be Taught ... a lawsuit against British Petroleum and eight other companies associated with the ...'
p6
aS"Dec 23, 2010 - Safety Board's findings related to British. Petroleum's (BP) 005 Texas City Refinery. Explosion, serious ... news, Cost-cutting at BP was brutal. At the Texas City ..."
p7
aS'Dec 23, 2010 - Former BP oil boss Lord Browne is said to be considering buying assets from his old ... Lord Browne, given the royal epithet by an adoring business newspaper ... a sharp commercial eye turned a middleweight British oil group into a global titan ... announced plans to take BP Beyond Petroleum, rebranding the oil group in ...'
p8
aS'Dec 23, 2010 - The BP disaster in the Gulf of Mexico that began on April 20, 2010, was a wakeup ... the rest of the spill floating around in the Gulf (Science News, August 19, 2010). .... oil anymore, but for petroleum that lies beneath the Beaufort and Chukchi Seas. .... British Indian Ocean Territory, Brunei Darussalam, Bulgaria, Burkina Faso ...'
p9
aS"Dec 22, 2010 - Home  News .... including those that supplied oil from BP's and Occidental Petroleum's fields in the .... Open Society Foundations; AU; IDRC; British Embassy."
p10
a.