(lp0
S'Dec 29, 2010 - As the Gulf oil spill gushed out of control, BP\'s financial liabilities seemed big ... Only months later, though, the British oil giant has pulled itself back from the brink. ... "It could have been a lot worse," says Tyler Priest, a University of Houston petroleum historian who serves on President Obama\'s .... Your Regional News Pages.'
p1
aS'Dec 29, 2010 -  Commercial fishermen have lined up since summer to be compensated for wages lost due to the BP oil spill and now, thousands of recreational fishermen are trying to do the same. ... Oh, were waiting in line for some BP money, said fisherman Josh Zelaya. ... This is yet another ...'
p2
aS'Dec 30, 2010 - News l Site map l Contact us l Home ... MB Petroleum Services LLC, together with its parent company MB Holding ..... Exxon, Occidental, Saudi Aramco, Gas de France, British Petroleum, British Gas, Nexen, Qatar petroleum, ONGC India etc.'
p3
aS"Dec 30, 2010 - British Petroleum's 2010 blowout in the Gulf of Mexico will go down as the worst disaster in offshore oil exploration history (to date) and because of it we are ..."
p4
aS"Dec 30, 2010 - In News by DJ Pangburn / December 30, 2010 ... No other corporate scandal approaches the level of BP's operational negligence and bungled clean-up ..."
p5
aS'Dec 30, 2010 - Texas oil refineries and other facilities are operated by: BP Amoco, Chevron, .... American Oil; Amoco Gas Production Plant; British Petroleum; Pan American Oil ...'
p6
aS"Dec 30, 2010 - News and Views for Making and Saving Money in New Energy and Fuel ... project is from Energy Biosciences that's backed by funding from British Petroleum."
p7
aS'Dec 29, 2010 - That Obami & Sons i.e. British Petroleum slewed life on earth thru blinding .... While the actions of BP were absolutely appalling and harmful to the planet, we ...'
p8
aS'Dec 29, 2010 - Risk of Global Climate Change By BP Oil Spill by Dr. Gianluigi Zangari ~ link ... Big Freeze Hits Britain - video (with Lord Stirling and Dr. Bill Deagle talking - late ...... Desire Petroleum - So far is finding no oil in the Falkland Islands area ~ link ...'
p9
aS'Dec 30, 2010 - The Shell Petroleum Development Company of Nigeria (SPDC) has rounded off .... at three top British institutions - Imperial College, London, University College, ...'
p10
a.