(lp0
S'Dec 31, 2010 - BP (British Petroleum) pays tax to British government. BBC (British Broadcasting Corporation)(Horizon) receives money from the British government. Conflict of .... The international news media have been preoccupied by a new financial.'
p1
aS'Dec 31, 2010 - ... a deepwater drilling rig operated by British Petroleum exploded releasing 4.9 ... While many nonprofits helped with relief and clean up efforts, the news was ...'
p2
aS'Dec 31, 2010 - Media impact in the table (column 5) refers to the number of news received ... The company most affected by Wikileaks in Europe is BP, British Petroleum.'
p3
aS'Dec 31, 2010 - Notice I spelled out the full name of this global company as British Petroleum. .... Lindsay continued to be a tragic story in the news with alleged drug use, ...'
p4
aS'Jan 1, 2011 - (later, British Petroleum and then BP PLC). .... Get All the Oil and Gas Journal News Delivered to Your Inbox ... International news for oil and gas professionals ...'
p5
aS'Dec 31, 2010 - News and Events 2010. December 31, 2010 .... Sacramento, CA. May 19, 2010 Review of GCCC groundwater studies at British Petroleum (BP) America offices.'
p6
aS"Dec 31, 2010 - ... owned consortium, renamed? British Petroleum. ... I meet young people every day who say they've simply given up watching the news. It's all too depressing."
p7
aS"Dec 30, 2010 - In News by DJ Pangburn / December 30, 2010 ... No other corporate scandal approaches the level of BP's operational negligence and bungled clean-up ..."
p8
aS'Dec 30, 2010 - Texas oil refineries and other facilities are operated by: BP Amoco, Chevron, .... American Oil; Amoco Gas Production Plant; British Petroleum; Pan American Oil ...'
p9
aS'Dec 30, 2010 - The Shell Petroleum Development Company of Nigeria (SPDC) has rounded off .... at three top British institutions - Imperial College, London, University College, ...'
p10
a.