(lp0
S'Dec 6, 2010 - BP avoided many of the conspicuous communications failures of the Exxon Valdez .... BP began to bring more news people to the offshore Macondo wellsite. ..... crude and natural and the downstream marketing supply of petroleum products.'
p1
aS"Dec 6, 2010 - The British Petroleum oil spill that captured the world's attention last spring may have stopped months ago, but coping with the aftereffects of the disaster."
p2
aS"Dec 8, 2010 - Peak Oil News and Message Boards is a community and collaboration portal about ... Especially that the BP narrative is nothing but a corporate-created illusion  a ..... Here's a link to the American Petroleum Institute website that will partially ..... the date on the Oceaneering ROV is on dd-mm-yy British not American format."
p3
aS'Dec 8, 2010 - Pictures, Videos, and Reports on the British Petroleum (BP) Deepwater Horizon Accident ... on the Deepwater Horizon. Part 1. Watch CBS News Videos Online ...'
p4
aS'Dec 6, 2010 - ... the metamorphosis of British Petroleum into BP. The matter was put up to Bharti Airtel Chairman Sunil Mittal. Top Bharti Airtel executives enjoy great autonomy ...'
p5
aS'Dec 7, 2010 - Lady Gaga, with the British Petroleum corporate logo at her feet, is depicted as a nude modern-day Saint Francis of Assisi as she embraces ailing octopi limply ...'
p6
aS'Dec 7, 2010 - Lady Gaga, with the British Petroleum corporate logo at her feet, is depicted as a nude modern-day Saint Francis of Assisi as she embraces ailing octopi limply ...'
p7
aS"Dec 6, 2010 - Add petroleum reserves to the mix and, as the National Intelligence Council ... of the Deepwater Horizon oil disaster in the Gulf of Mexico was not BP's sloppy ..."
p8
aS"Dec 8, 2010 - He also spent 10 years at British Petroleum's Crude & Products Pipelines and Chemicals divisions in a number of business development, marketing, operations ..."
p9
aS'Dec 8, 2010 - NIGERIA MASTERWEB CITIZEN NEWS ... We are all know how British Petroleum, BP attempted to sell off some of its pipeline assets in Russia in other to pay for ...'
p10
a.