(lp0
S"Jan 11, 2010 - Best Answer: It's a scam. There is no job and you will never get a visa to work in the UK if you are a non EU national without at least a degree. BP has been used ..."
p1
aS'Jan 10, 2010 - According to the AFP news agency: "600 workers, mostly Indian, went on .... McDermott constructs pipelines and builds oil rigs for British Petroleum (BP), the ...'
p2
aS'Jan 10, 2010 - This is a news blurb in a publication of the American Chemical Society. ..... BP, (headquartered in London, but formed by the merger of British Petroleum and the ...'
p3
aS'Jan 10, 2010 - ... fixing by British Petroleum Products of North America (BP) of the propane market contains audio ... BP paid the $303 million fine with the interest on the interest of what they were able to steal ..... I look forward to your news conference today.'
p4
aS'Jan 11, 2010 - Keith Makinson and Keith Nicholls from British Antarctic Survey hot water drilling the ... The findings, a rare bit of good news after worrying signs in recent years of polar .... It is amusing that there are British Petroleum barrels in the photo above.'
p5
aS'Jan 11, 2010 - News and information on Royal Dutch Shell Plc. ... the Chairman of Brunei Shell Petroleum, concerning the unexplained absence from Brunei of Mr. ... NIKKEI BP (JAPAN) ARTICLE: Gripe sites are becoming more powerful: 13 Nov 2007 .... April Fool - Bad Publicity plus British Humour puts Shell on the defensive: April 2012'
p6
aS'Jan 10, 2010 - A British woman who claims she was raped in a Dubai hotel bathroom and went to report the incident to police has found herself and her ... BP-British Petroleum history and making messy with middle east ... TomoNews - Animated News'
p7
aS'Jan 11, 2010 - It is in the eastern part of the National Petroleum Reserve of Alaska (NPR-A) about 220 ... by Anadarko Petroleum Corp., Petro-Canada (now Suncor), and BG Group (British Gas) ..... Get All the Oil and Gas Journal News Delivered to Your Inbox .... Other Oil & Gas Industry Jobs. Credit Senior Executive BP Country: Malaysia'
p8
aS'Jan 11, 2010 - My News  My Clippings  My Comments ... But the extent of their links to the disgraced British broker Pacific Continental ... The emblem of Zetland Financial Group, a British Virgin Islands company, ... PPP - PAN PACIFIC PETROLEUM NL.'
p9
aS'Jan 11, 2010 - Trade: Exports--oil, liquefied natural gas, petroleum products, garments. ... In 1888, Brunei became a protectorate of the British Government, retaining internal ...'
p10
a.