(lp0
S"Jan 11, 2010 - Best Answer: It's a scam. There is no job and you will never get a visa to work in the UK if you are a non EU national without at least a degree. BP has been used ..."
p1
aS'Jan 13, 2010 - Three British oil workers were kidnapped by gunmen yesterday in the oil-rich .... NIKKEI BP (JAPAN) ARTICLE: Gripe sites are becoming more powerful: 13 Nov 2007 ... MANCHESTER EVENING NEWS ARTICLE: Fears for Shell: 30 Dec 2007 .... to whom he awarded the licence when he was Nigerian Minister of Petroleum.'
p2
aS'Jan 12, 2010 - BNE is Belize\'s only petroleum-producing company and is pumping 5,000 ... "I am not necessarily a better geologist than Shell or BP, it was a belief that I ... The British Retail Consortium has previously said that retailers will have to find 3 billion ... Sean Quinn\'s son \'paid 80,000 a year by coffin supplier\' Business News.'
p3
aS'Jan 12, 2010 - All the news that matters and nothing more - in our free daily iPhone app ... Britain is within seven days of running out of gas if the cold spell continues and fresh ... In the words of Alex Kemp, professor of petroleum economics at Aberdeen ...'
p4
aS'Jan 11, 2010 - Keith Makinson and Keith Nicholls from British Antarctic Survey hot water drilling the ... The findings, a rare bit of good news after worrying signs in recent years of polar .... It is amusing that there are British Petroleum barrels in the photo above.'
p5
aS'Jan 13, 2010 - When British Petroleum and Amoco merged, going full force with BP and the ... logo became the identity of corporate evil as news of its debt-hiding schemes ...'
p6
aS'Jan 12, 2010 - Gunmen in Nigeria kidnapped three British workers and one Colombian on Tuesday in an ... "SPDC (Shell Petroleum Development Company) is cooperating with the ... Thomson Reuters is the world\'s largest international multimedia news ...'
p7
aS'Jan 11, 2010 - It is in the eastern part of the National Petroleum Reserve of Alaska (NPR-A) about 220 ... by Anadarko Petroleum Corp., Petro-Canada (now Suncor), and BG Group (British Gas) ..... Get All the Oil and Gas Journal News Delivered to Your Inbox .... Other Oil & Gas Industry Jobs. Credit Senior Executive BP Country: Malaysia'
p8
aS'Jan 11, 2010 - Trade: Exports--oil, liquefied natural gas, petroleum products, garments. ... In 1888, Brunei became a protectorate of the British Government, retaining internal ...'
p9
aS'Jan 11, 2010 - competition and tortious interference in the market for newspaper coupon inserts. ... requirement that it share incremental profits with British Petroleum violated ...'
p10
a.