(lp0
S'Jan 12, 2010 - BNE is Belize\'s only petroleum-producing company and is pumping 5,000 ... "I am not necessarily a better geologist than Shell or BP, it was a belief that I ... The British Retail Consortium has previously said that retailers will have to find 3 billion ... Sean Quinn\'s son \'paid 80,000 a year by coffin supplier\' Business News.'
p1
aS'Jan 13, 2010 - Three British oil workers were kidnapped by gunmen yesterday in the oil-rich .... NIKKEI BP (JAPAN) ARTICLE: Gripe sites are becoming more powerful: 13 Nov 2007 ... MANCHESTER EVENING NEWS ARTICLE: Fears for Shell: 30 Dec 2007 .... to whom he awarded the licence when he was Nigerian Minister of Petroleum.'
p2
aS'Jan 12, 2010 - All the news that matters and nothing more - in our free daily iPhone app ... Britain is within seven days of running out of gas if the cold spell continues and fresh ... In the words of Alex Kemp, professor of petroleum economics at Aberdeen ...'
p3
aS'Jan 12, 2010 - Gunmen in Nigeria kidnapped three British workers and one Colombian on Tuesday in an ... "SPDC (Shell Petroleum Development Company) is cooperating with the ... Thomson Reuters is the world\'s largest international multimedia news ...'
p4
aS'Jan 13, 2010 - When British Petroleum and Amoco merged, going full force with BP and the ... logo became the identity of corporate evil as news of its debt-hiding schemes ...'
p5
aS"Jan 13, 2010 - ... Gateway homepage : Archive : Archived News : Sir Robert Wilson appointed patron of ... Opportunity does this create for British Oil and Gas Company, BG Group? ... first Patron of the University's Centre for Energy, Petroleum and Mineral Law and ... of Diageo plc, BP plc and The Boots Company PLC (now Alliance Boots)."
p6
aS'Jan 13, 2010 - Taking space at CIPPE (China International Petroleum & Petrochemical. Technology ... This is really positive news and I am .... The EIC supported by the British Consulate in Perth, ...... Stingray Geophysical Limited has been contracted by BP.'
p7
aS'Jan 13, 2010 - home  news  comments  reports  press  documents  maps ... Sudan and the state firm China National Petroleum Corp (CNPC) signed on November 17, ... The Archbishops later expressed their concerns in a meeting with the British Prime ...'
p8
aS'Jan 13, 2010 - Russia comes to the rescue as Norwegian gas supplies to Britain falter ... (Bloomberg) -- Woodside Petroleum Ltd. said Australia, East Timor and partners of the ... Minister Hossein Noghrehkar Shirazi, as cited by the RIA Novosti news agency. ... CAIRO (Reuters) - BP Plc will spend $10 billion in Egypt on gas and oil ...'
p9
aS'Jan 13, 2010 - The nature of the contract with British Petroleum  one that charged by the equipment on site as oposed to an hourly rate for workers  creates a system whereby ...'
p10
a.