(lp0
S"Jan 15, 2010 - The BP Foundation, based in Lisle, Ill., has a matching fund that matches employees' personal donations, volunteer time, and fund-raising, and it has donated to ..."
p1
aS'Jan 15, 2010 - British intelligence group Hakluyt & Company warned today of a drop in revenues this ... Therefore news reports of cover-up, deception and intrigue at Shell ..... to whom he awarded the licence when he was Nigerian Minister of Petroleum.'
p2
aS'Jan 14, 2010 - He said: "British Petroleum is a major global oil and energy provider. ... Killik & Co, said: "While the recent cold snap is bad news for companies such as retailers ...'
p3
aS'Jan 15, 2010 - British Petroleum, which is also known as BP plc, is the third largest energy ... from BBC NEWS: http://news.bbc.co.uk/go/pr/fr//1/hi/business/6257149.stm.'
p4
aS'Jan 15, 2010 - Environmental, Compliance & Regulatory Advisor vacancy in Amman, Jordan with British Petroleum (BP). Search for more Environmental, Compliance ...'
p5
aS'Jan 15, 2010 - RIGZONE News - leading source for the latest news and information for the oil and gas industry.'
p6
aS'Jan 16, 2010 - WMI Outdoor News Bulletin Baucus Announces Retirement of Leases on ... XTO Energy Inc., and British Petroleum were returned to the U.S. Bureau of Land ...'
p7
aS'Jan 15, 2010 - He currently represents clients against British Petroleum arising from the oil spill ... Manager of the campus radio station and City Editor of the daily newspaper.'
p8
aS'Jan 15, 2010 - Ray Davies, front man for the British rock band The Kinks, sang in 1974: "I can ... same as BPs [British Petroleum] Macondo well flooded the Gulf of Mexico with oil. ... Seen any CorpoMedia news about what is going on under the Macondo ...'
p9
aS'Jan 14, 2010 - News ... There are several types of synthetic, petroleum-based plastics on the market today including polyethylene ... David Barnes, a lead author and researcher for the British Antarctic Survey, said that, One of the most ubiquitous and ...'
p10
a.