(lp0
S'Jan 19, 2010 - BP plans to simplify its global supply chain and reduce IT spending by 20m by cutting the more than 540 hardware and software suppliers it ... Latest News.'
p1
aS'Jan 19, 2010 - AS Cadbury - one of the nation\'s best-loved British brands - prepares to sign ... heritage and people," the news is a blow to British industry - as yet another ... BP - or British Petroleum - is the third largest global energy company in the world.'
p2
aS'Jan 18, 2010 - Educated at the Polytechnic University of Valencia, he also trained at the British Petroleum refinery in Castellon and the Ford Motor Company Factory in ...'
p3
aS'Jan 18, 2010 - IO TIMES, MULTTIFOLDES @ CMP, (100% authentic news from sources). ... oil refinery after accounting for the products committed to British Petroleum (BP) and ...'
p4
aS'Jan 19, 2010 - BP p.l.c. Fundamental Analysis: Share Information, Balance Sheet, Income Statement, Cash Flow Statement, and Holdings.'
p5
aS'Jan 18, 2010 - Moreover, British taxpayers find themselves unwittingly complicit in this unfolding disaster. The World Development Movement, along with PLATFORM and ...'
p6
aS'Jan 18, 2010 - Get a Free BP Oil Case Review from a lawyer & attorney. ... This advertisement is not affiliated with British Petroleum, the Oil Pollution Act (OPA), the Oil Spill ...'
p7
aS'Jan 18, 2010 - Is The Country Still Attractive For The International Petroleum Investments? A Look ... Opportunity does this create for British Oil and Gas Company, BG Group?'
p8
aS'Jan 19, 2010 - ... and consisted of an overview of the BP (British Petroleum) Solar Project. .... and announced some extremely good news on site to the laboratory employees.'
p9
aS'Jan 19, 2010 - Published online 19 January 2010 | Nature | doi:10.1038/news.2010.18. News ... Less than a year later, the British pharmaceutical giant GlaxoSmithKline bought Sirtris for US$720 million. .... King Fahd University of Petroleum & Minerals ...'
p10
a.