(lp0
S'Jan 19, 2010 - BP plans to simplify its global supply chain and reduce IT spending by 20m by cutting the more than 540 hardware and software suppliers it ... Latest News.'
p1
aS'Jan 19, 2010 - AS Cadbury - one of the nation\'s best-loved British brands - prepares to sign ... heritage and people," the news is a blow to British industry - as yet another ... BP - or British Petroleum - is the third largest global energy company in the world.'
p2
aS"Jan 20, 2010 - If you really want to know the FULL story about British Petroleum (BP) you must ... TEDGlobal's theme And Now the Good News and join the Global Breakfast ..."
p3
aS'Jan 19, 2010 - ... and consisted of an overview of the BP (British Petroleum) Solar Project. .... and announced some extremely good news on site to the laboratory employees.'
p4
aS'Jan 19, 2010 - ... and consisted of an overview of the BP (British Petroleum) Solar Project. ..... and announced some extremely good news on site to the laboratory employees.'
p5
aS'Jan 20, 2010 - DOW JONES, A NEWS CORP COMPANY .... English is the official language used by the Organisation of the Petroleum Exporting ... In two centuries, French may have to be protected as a linguistic curio, like Britain does with Cornish or Manx.'
p6
aS'Jan 19, 2010 - DOW JONES, A NEWS CORP COMPANY. News Corp is a network of ..... Is it a British version of The Office or an American version? In other words, is it an ...'
p7
aS'Jan 19, 2010 - Published online 19 January 2010 | Nature | doi:10.1038/news.2010.18. News ... Less than a year later, the British pharmaceutical giant GlaxoSmithKline bought Sirtris for US$720 million. .... King Fahd University of Petroleum & Minerals ...'
p8
aS'Jan 19, 2010 - Director Morgan Spurlock (FX 30 Days, Super Size Me) talks about radioactive uranium mines on reservations in New Mexico. We tell him about the Martha ...'
p9
aS'Jan 20, 2010 - Therefore I paid more attention to the news that was frantically repeated over and over on my small living room TV. ... Fuelling controversy : British Petroleum.'
p10
a.