(lp0
S'Jan 21, 2010 - BP PLC has signed an agreement under which KBR will offer licensing and engineering ... Get All the Oil and Gas Journal News Delivered to Your Inbox .... of crude and natural and the downstream marketing supply of petroleum products.'
p1
aS'Jan 21, 2010 - In November, British giant BP and China National Petroleum Corp. won the first oil contract of the post-Saddam era to redevelop Rumaila. Located on the border ...'
p2
aS'Jan 21, 2010 - In November, British giant BP and China National Petroleum won the first oil contract of the post-Saddam era to redevelop Rumaila. Located on the border with ...'
p3
aS"Jan 21, 2010 - 6.6 The dynamics of British Petroleum' news announcements . . 72. 6.7 The rolling mean of the number of British Petroleum' news announcements ..."
p4
aS'Jan 21, 2010 - emergency response associated with the BP oil spill response off the Gulf Coast. ..... British Petroleum ... Environmental News Network http://www.enn.com/.'
p5
aS"Jan 20, 2010 - If you really want to know the FULL story about British Petroleum (BP) you must ... TEDGlobal's theme And Now the Good News and join the Global Breakfast ..."
p6
aS'Jan 20, 2010 - DOW JONES, A NEWS CORP COMPANY .... English is the official language used by the Organisation of the Petroleum Exporting ... In two centuries, French may have to be protected as a linguistic curio, like Britain does with Cornish or Manx.'
p7
aS'Jan 21, 2010 - BNamericas develops thousands of news articles, analyses and features ... Up-to-the-minute and field-proven industry news in English and Spanish; Insight'
p8
aS'Jan 21, 2010 - Murray Hogarth is, quite literally, a pioneer in the petroleum industry. ... After leaving university he worked for British American Oil, the forerunner of Gulf, first in ... price war in the past with the big retailers of the day, such as Esso, Gulf, Shell and BP. ... News. Three high rise development one step closer to reality in Oakville.'
p9
aS"Jan 21, 2010 - Britain's public spending is set to exceed 50% of GDP (see chart 1). .... Malaysia's Petronas and China's National Petroleum Corporation run businesses in .... Subscribe to The Economist and get the week's most relevant news and analysis."
p10
a.