(lp0
S'Jan 28, 2010 - RIGZONE News - leading source for the latest news and information for the oil and gas industry. ... Petroleum Inspector II, Corpus Christi, Apr 12. Wood Group ...'
p1
aS'Jan 27, 2010 - Documents obtained by US newspaper the Christian Science Monitor show ... to appoint a new head of cybersecurity last month, while the British government is ...'
p2
aS'Jan 28, 2010 - BP PRODUCTS NORTH AMERICA INC specializes in: Crude Petroleum and ... BP civil settlement with U.S. government over 2010 spill Reuters - U.S. News; BP ...'
p3
aS'Jan 28, 2010 - BP. British Petroleum. BCM. Billion Cubic Metres. EU. European Union. ECJ .... atwww.guardian.co.uk/business/2006/march/14/oilandpetrol.news last visited on ...'
p4
aS'Jan 27, 2010 - January 27, 2010 News  Cover Story ... Additionally, three refineries have changed ownership in that time: the British Petroleum refinery became Tesoro, Inland ...'
p5
aS"Jan 27, 2010 - Georgia Straight, Vancouver's News and Entertainment Weekly ... The Oil and Gas Commission, British Columbia's decade-old one-stop shop for gas and oil ... A B.C. Energy, Mines, and Petroleum Resources Web site offers this comforting ..."
p6
aS'Jan 29, 2010 - British Petroleum. British Petroleum. Latest News. ----, Benzene. Login. Username: Password: Lost Password? Register now! F. Gerald Maples. 365 Canal Street ...'
p7
aS"Jan 28, 2010 - Shell UK is a British company with no operations outside the UK.'44 .... DAVOS-Shale gas is U.S. energy game changer -BP CEO ... MANCHESTER EVENING NEWS ARTICLE: Fears for Shell: 30 Dec 2007 .... it was clear that Shell knew that the ultimate beneficiary was Dan Etete, the former minister of petroleum. Etete is ..."
p8
aS'Jan 27, 2010 - News and information on Royal Dutch Shell Plc. .... NIKKEI BP (JAPAN) ARTICLE: Gripe sites are becoming more powerful: 13 Nov 2007 .... April Fool - Bad Publicity plus British Humour puts Shell on the defensive: April 2012 ... that Shell knew that the ultimate beneficiary was Dan Etete, the former minister of petroleum.'
p9
aS'Jan 28, 2010 - In fact, it sometimes feels nearly as British-influenced as New York, but in a ... Blame British Petroleum, and the energy biz at large, we guess  whatever, if it ...'
p10
a.