(lp0
S'Jan 6, 2010 - Search for cheap gas prices in bp gas stations, Indiana; find local bp gas stations gas prices & gas stations with the best fuel prices.'
p1
aS'Jan 6, 2010 - Search for cheap gas prices in bp gas stations, New York; find local bp gas stations gas prices & gas stations with the best fuel prices.'
p2
aS'Jan 6, 2010 - Search for cheap gas prices in bp gas stations, Florida; find local bp gas stations gas prices & gas stations with the best fuel prices.'
p3
aS'Jan 6, 2010 - Many of these are listed with original and credible news clips on the matter, as ..... Those oil fields were under the control of British Petroleum, but unfortunately ...'
p4
aS'Jan 7, 2010 - NIKKEI BP (JAPAN) ARTICLE: Gripe sites are becoming more powerful: 13 Nov 2007 ... MANCHESTER EVENING NEWS ARTICLE: Fears for Shell: 30 Dec 2007 .... Fool - Bad Publicity plus British Humour puts Shell on the defensive: April 2012 ... that the ultimate beneficiary was Dan Etete, the former minister of petroleum.'
p5
aS'Jan 6, 2010 - ... management and design for organisations like the UN FAO, the UK Department of Health, the National Health Service, BP (formerly British Petroleum), GSK, ...'
p6
aS'Jan 7, 2010 - ... state visit to Algeria in January (Xinhua News Agency, December 31, 2009). ... of international blue chip energy giants such as Statoil, Shell, British Petroleum, ...'
p7
aS'Jan 8, 2010 - Even the oil companies know renewable energy is the future. British Petroleum has become Beyond Petroleum, and is investing $500 million in new biofuels.'
p8
aS'Jan 8, 2010 - ... Policy and Practice Series, an essential resource including more than 70 accounting Portfolios and the latest news and developments. .... D. British Petroleum.'
p9
aS'Jan 6, 2010 - British economists Barbara Mary Ward and Kenneth Boulding independently ..... An early example of this direction was undertaken by British Petroleum (BP) in the late ..... online: http://usnews.rankingsandreviews.com/cars-trucks/daily-news/ ...'
p10
a.