(lp0
S'Jan 8, 2010 - This year, recipients include: Walter Neil of British Petroleum; Pastor Wayne Chaney Jr. of Antioch Church Long Beach; and the PeaceBuilders Program founded ...'
p1
aS'Jan 8, 2010 - 192x BRITISH TOILER, British Petroleum Company (ON 146645). 1932 transferred to Shell-Mex & B.P. Ltd., London. 1938 re-engined with 4cyl. by Crossley ...'
p2
aS'Jan 8, 2010 - Latest news, videos, images of Dubai. ... Related Photos. The British Petroleum logo is seen near a petrol station in Dubai with the Burj Khalifa. MSNBC ...'
p3
aS'Jan 7, 2010 - NIKKEI BP (JAPAN) ARTICLE: Gripe sites are becoming more powerful: 13 Nov 2007 ... MANCHESTER EVENING NEWS ARTICLE: Fears for Shell: 30 Dec 2007 .... Fool - Bad Publicity plus British Humour puts Shell on the defensive: April 2012 ... that the ultimate beneficiary was Dan Etete, the former minister of petroleum.'
p4
aS"Jan 7, 2010 - News Year's greetings to you and good day, I hope you are doing well. .... NIKKEI BP (JAPAN) ARTICLE: Gripe sites are becoming more powerful: 13 Nov 2007 .... Fool - Bad Publicity plus British Humour puts Shell on the defensive: April 2012 ... to whom he awarded the licence when he was Nigerian Minister of Petroleum."
p5
aS'Jan 8, 2010 - Join LinkedIn to get the latest news, insights, and opportunities from over 3 ... SAPREF is a joint venture between Shell SA Refining and BP Southern Africa.'
p6
aS'Jan 8, 2010 - Other brands in Spain that lead in their CLEI categories and also have a U.S. presence include British Petroleum, Vodafone, and clothing lines Zara and Mango.'
p7
aS'Jan 7, 2010 - ... state visit to Algeria in January (Xinhua News Agency, December 31, 2009). ... of international blue chip energy giants such as Statoil, Shell, British Petroleum, ...'
p8
aS'Jan 8, 2010 - ... Policy and Practice Series, an essential resource including more than 70 accounting Portfolios and the latest news and developments. .... D. British Petroleum.'
p9
aS'Jan 8, 2010 - Even the oil companies know renewable energy is the future. British Petroleum has become Beyond Petroleum, and is investing $500 million in new biofuels.'
p10
a.