(lp0
S'Feb 10, 2010 - NEWS British Gas steps up campaign to expand international operations. 09/04/1995 .... British Gas is a member of BTB Group, along with BHP Petroleum Pty. Ltd. of Australia and .... It is working with BP Exploration Operating Co. Ltd. to help ...'
p1
aS'Feb 10, 2010 - BP has selected the University of Manchester and the Massachusetts Institute of Technology and as its academic research partners to further investigate ...'
p2
aS'Feb 11, 2010 - From Built to Spill to "Bridge Over Troubled Water": A Playlist for BP ... Velvet Underground, British Petroleum, Elliot Smith, Toad the Wet Sprocket, Gulf Oil Spill, ...'
p3
aS'Feb 10, 2010 - 10 /PRNewswire-FirstCall/ -- Magellan Petroleum Corporation (Nasdaq: MPET) ... and finance experience, and began his career with British Petroleum (BP).'
p4
aS'Feb 10, 2010 - Environment News Service latest environmental news, global warming, water, food, ... British Columbia Bans Mining, Drilling in Flathead River Valley ... BP Canada Energy Company, a subsidiary of British Petroleum, had plans to extract ...'
p5
aS'Feb 10, 2010 - Forget China, petroleum imports are driving the trade deficit. ... Britain | 21 mins ago ... Test your EQ Take our weekly news quiz to stay on top of the headlines.'
p6
aS'Feb 10, 2010 - Want more local news stories like these via email? ... Steven Moore, 25, a former buyer for British Petroleum, was killed when a car being chased by a police van ...'
p7
aS'Feb 9, 2010 - Dana S Deasy, CIO & Group VP, IT & services, BP Plc maintains two marine aquarium with exotic marine fish and live corals. One, a 500 liter tank in London and ...'
p8
aS'Feb 10, 2010 - Visit now for the latest UK news, analysis and opinion - direct from The Scotsman and updated ... Some 97 per cent of transport relies on petroleum products.'
p9
aS'Feb 9, 2010 - http://www.renewableenergyworld.com/rea/news/article/2009/06/is-the-futu. ... British Petroleum 2016 Energy Outlook : Reasonable Base Case Assessment?'
p10
a.