(lp0
S'Feb 10, 2010 - NEWS British Gas steps up campaign to expand international operations. 09/04/1995 .... British Gas is a member of BTB Group, along with BHP Petroleum Pty. Ltd. of Australia and .... It is working with BP Exploration Operating Co. Ltd. to help ...'
p1
aS'Feb 10, 2010 - BP has selected the University of Manchester and the Massachusetts Institute of Technology and as its academic research partners to further investigate ...'
p2
aS'Feb 11, 2010 - Good morning, Ladies and Gentlemen. Emerging markets are an important source of growth for our industry and indeed, the world  from the vantage points of ...'
p3
aS"Feb 11, 2010 - Fatal Attraction in the Boardroom: BP's Former CEO Falls for Former Escort ... John Browne joined British Petroleum (BP) in 1966 as an apprentice and found himself in the CEO's office 28 years later. It was no .... Stay current on financial news,"
p4
aS'Feb 11, 2010 - From Built to Spill to "Bridge Over Troubled Water": A Playlist for BP ... Velvet Underground, British Petroleum, Elliot Smith, Toad the Wet Sprocket, Gulf Oil Spill, ...'
p5
aS'Feb 10, 2010 - 10 /PRNewswire-FirstCall/ -- Magellan Petroleum Corporation (Nasdaq: MPET) ... and finance experience, and began his career with British Petroleum (BP).'
p6
aS'Feb 11, 2010 - DOW JONES, A NEWS CORP COMPANY ..... BP, for instance, has been more optimistic about the prospects for tar sands, although it is also pursuing wind, ...'
p7
aS'Feb 10, 2010 - Environment News Service latest environmental news, global warming, water, food, ... British Columbia Bans Mining, Drilling in Flathead River Valley ... BP Canada Energy Company, a subsidiary of British Petroleum, had plans to extract ...'
p8
aS'Feb 11, 2010 - Massachusetts (Apr. 28, 2010), http://www.doi.gov/news/doinews/Secre- ... ity; BRITISH PETROLEUM, supra note 4, at 5 (noting that wind and solar genera-.'
p9
aS"Feb 11, 2010 - It's fairly clear that Javers is no fan of corporate espionage work like British Petroleum's infiltration of Greenpeace with a hired spy, or Hewlett-Packard's spying ..."
p10
a.