(lp0
S'Feb 17, 2010 - BP, ConocoPhillips and Caterpillar are quitting the U.S. Climate Action ... in the worlds of diversified media, news, education, and information services.'
p1
aS'WTOL 6 pm News Jan 27, 1978, part 2. WTOL 11 ... Sohio was purchased by British Petroleum and became BP ...'
p2
aS'Feb 16, 2010 - ConocoPhillips, Caterpillar Inc. and BP America have left the U.S. Climate Action ... Houston-based ConocoPhillips broke the news in a press release. ... Senate bill must increase free allowances for petroleum refineries, Cavaney underscored. ... Model in Gucci Ad Is Deemed Unhealthily Thin by British Regulator ...'
p3
aS'Feb 17, 2010 - Britain says drilling for hydrocarbons will go ahead despite Argentine moves to ... not try to hide "serious internal problems", the newspaper Clarin said in an editorial. ... A British company, Desire Petroleum, has hired the Ocean Guardian rig to ...'
p4
aS'Feb 17, 2010 - Company clients include PBS, Discovery Channel, NASA, HBO, 20th Century FOX, FOX News, Mitsubishi, Intel, Gillette, British Petroleum (BP), and The ...'
p5
aS"Feb 17, 2010 - Argentina's government protests that Britain's sovereignty over the islands it ... surge in the price of oil prompted Desire Petroleum, a small British company, ... Subscribe to The Economist and get the week's most relevant news and analysis."
p6
aS'Feb 17, 2010 - He was also a consultant for British Petroleum during its early push into the Prudhoe Bay region. Western Geophysical used Bud to orchestrate its first seismic ...'
p7
aS'Feb 17, 2010 - The British military and the Foreign Office are stepping up surveillance of ... the war with the discovery of rich petroleum and gas reserves around the islands.'
p8
aS'Feb 17, 2010 - According to a British Petroleum document, of 54 producing nations only 14 still ... To claim that all of this bad news does not imply an eventual peaking is the ...'
p9
aS'Feb 16, 2010 - MEDIA COVERAGE (OVER 100 NEWS STORIES) AND BOOKS (NEARLY 40) ... NIKKEI BP (JAPAN) ARTICLE: Gripe sites are becoming more powerful: 13 Nov 2007 .... Bad Publicity plus British Humour puts Shell on the defensive: April 2012 ... that the ultimate beneficiary was Dan Etete, the former minister of petroleum.'
p10
a.