(lp0
S'Feb 18, 2010 - Kovykta gas field - Russia to seize gas field from BP venture Photo: REUTERS ... However, the move does represent a tougher line towards the British joint venture, which has endured a torrid few years at the ... Business Latest News  ... A worker of Gujarat State Petroleum Corporation checks oil flow of well PK-2 during ...'
p1
aS'Feb 18, 2010 - Interest owners are British Gas 37.5%, Hamilton Oil Great Britain plc 16%, Lasmo plc 12.5%, ... Its partners are Enterprise Oil plc 19.41%, Lasmo plc unit Watson Petroleum Inc. ... Get All the Oil and Gas Journal News Delivered to Your Inbox.'
p2
aS"Feb 19, 2010 - And up until now there's been very little talk about petroleum and Haiti, but it's not ... large multinational oil companies, US, British oil companies and their allies, ..."
p3
aS"Feb 19, 2010 - But oil exploration firm Desire Petroleum confirmed that the huge drilling platform ... News that the tugs towing the rig had sailed into Britain's 200-mile exclusive ..."
p4
aS'Feb 18, 2010 - Though the Falkland Islands is under British rule, Argentina still claims the islands, including them ... Ben Romney, a Desire Petroleum spokesman said, "With the rise in oil prices and the worldwide ... It would be good news for the oil industry.'
p5
aS'Feb 18, 2010 - The former chief executive officer of a food and pharmaceutical company in the Netherlands and before that a 15-year employee of British Petroleum knows how ...'
p6
aS'Feb 18, 2010 - In interviews with Bloomberg News, however, Firestone for the first time is ... As widely reported, oil giants British Petroleum (BP) and Royal Dutch Shell (RDS.'
p7
aS'Feb 19, 2010 - British Petroleum and Royal Dutch Shell were in there right at the start in 1974. ... Do you see any of these stories on television news after two decades of ...'
p8
aS"Feb 18, 2010 - Hot topics; Britain's house price bubble  EU Referendum  Pensions  Buy-to-let property ... Anyone with money in Falklands oil will watch Desire Petroleum (LSE: DES) in the days ahead. ... If it's good news, the Falklands oil frenzy will begin in earnest. ... In this it has the backing of BP and the evidence from this cold winter."
p9
aS"Feb 18, 2010 - He snared an initial deal with BP last summer, ensuring that its chief competitors, Royal ... with Lukoil of Russia and China National Petroleum Corporation, giving him additional leverage. ... Subscribe to The Economist and get the week's most relevant news and analysis. ..... Britain's EU referendum campaigns are officially."
p10
a.