(lp0
S'Feb 25, 2010 - Just one year later, CNPC and British Petroleum (BP) signed with the Iraq Oil ... a great relationship between CNPC and the Iraq nation, news announcements ...'
p1
aS'Feb 25, 2010 - RIGZONE News - leading source for the latest news and information for the oil and ... Iraq controls the third largest proven petroleum reserves after Saudi Arabia ...'
p2
aS'Feb 24, 2010 - Shell sold their interest in Block 18 (operated by BP) to the Chinese. .... DAILY MAIL NEWSPAPER ARTICLE: Shell shock as Cook is first to go in Voser Cull: 27 May 2009 ... Bad Publicity plus British Humour puts Shell on the defensive: April 2012 ... whom he awarded the licence when he was Nigerian Minister of Petroleum.'
p3
aS'Feb 24, 2010 - Britain has paved the way for negotiations over Falkland Island oil deposits as Argentina took its ... Desire Petroleum PLC said that it has started drilling for oil about 60 miles north of the disputed Falkland Islands Photo: AP ... World News  ...'
p4
aS"Feb 24, 2010 - ... programme that started on Monday as British petroleum companies began to ... at the Scotsman News' website (news.scotsman.com) that somehow asks if a ..."
p5
aS"Feb 24, 2010 - A diplomatic offensive against Britain's oil exploration off the Falkland Islands intensified ... Today's Times newspaper said a resolution was set to be tabled in the UN ... Britain for allowing the owner of the British rig, Desire Petroleum, to begin ..."
p6
aS'Feb 25, 2010 - The British Oil Company, British Petroleum also known as BP, is an example of ... In July of 2006, BP admitted, after the news was leaked to journalists, that it ...'
p7
aS'Feb 24, 2010 - MailOnline US - news, sport, celebrity, science and health stories .... Dispute: Desire Petroleum began drilling for oil near the Falkland Islands on Monday.'
p8
aS'Feb 24, 2010 - The Sakhalin-2 (Russian: -2) project is an oil and gas development in Sakhalin Island, ..... The Guardian (Guardian News and Media Limited). Retrieved 2010-02-24. .... "Britain ignored risk of whale extinction in rush for oil and gas".'
p9
aS"Feb 24, 2010 - Download this waymark: .GPX File .LOC File .KML File (Google Earth). Long Description: BP is British Petroleum.You've seen these gas stations along the road."
p10
a.