(lp0
S'Feb 25, 2010 - RIGZONE News - leading source for the latest news and information for the oil and ... Iraq controls the third largest proven petroleum reserves after Saudi Arabia ...'
p1
aS"Feb 26, 2010 - Respected Argentine newspaper La Nacion quoted State Department sources that ... UK firm Desire Petroleum's decision to drill for oil 60 miles north of the Falklands. ... The row between Argentina and Britain centres on the Ocean Guardian, which ..... as she takes their pet pooches for a walk  Jen Lawrence Preview BP.jpg ..."
p2
aS'Feb 26, 2010 - With tensions heating up over a British firm\'s decision to drill off the coast of the ... "The decision, while feeble, is unsurprising," the newspaper quotes Alan ... Desire Petroleum began drilling for oil 60 miles off the Falklands on Monday on a ...'
p3
aS'Feb 25, 2010 - The British Oil Company, British Petroleum also known as BP, is an example of ... In July of 2006, BP admitted, after the news was leaked to journalists, that it ...'
p4
aS'Feb 25, 2010 - Argentina asks the UN chief Ban Ki-moon to bring Britain into talks over the sovereignty of the Falkland Islands. ... Desire Petroleum  Falkland Islands ...'
p5
aS'Feb 26, 2010 - More News From Greenwire ... "There\'s no useful contribution that the American Petroleum Institute is ... He\'s also the son of an engineer who worked for Amoco, an oil company that later became part of BP PLC. .... Model in Gucci Ad Is Deemed Unhealthily Thin by British Regulator  Ad Agencies Need Young Talent ...'
p6
aS'Feb 26, 2010 - MercoPress - South Atlantic News Agency ... Desire Petroleum, Borders & Southern Petroleum and Rockhopper Exploration, moved up in ... companies because they hold exploration acreage in the British Overseas Territory Falkland Islands.'
p7
aS"Feb 26, 2010 - Download the application RT News .... was looking to build stronger ties with Libya, and British Petroleum was attempting to enter Libya's lucrative oil business."
p8
aS'Feb 25, 2010 - Democracy Now! co-host and Daily News columnist Juan Gonzalez received the ... nation-less oil corporations for: British Petroleum, or BP, Exxon Mobil, Shell, ...'
p9
aS"Feb 26, 2010 - From 1982 to 1984, he worked for British Petroleum as an engineer. ..... Thomson Reuters is the world's largest international multimedia news agency, providing ..."
p10
a.