(lp0
S"Feb 2, 2010 - BP's results compare with lower fourth-quarter earnings at U.S. rivals Exxon ... A British Petroleum petrol station logo is seen at Heathrow in London February 2, 2010. ... Thomson Reuters is the world's largest international multimedia news ..."
p1
aS'Feb 2, 2010 - BP chief Tony Hayward at a news conference in London. BP profit rose in the last quarter but behind predictions. Photograph: Suzanne Plunkett/Reuters.'
p2
aS'Feb 1, 2010 - newspaper are reserved by Egypt Oil and. Gas and no article may be reproduced ...... are nine British E&P companies, led by British Petroleum (BP) and British.'
p3
aS'Feb 1, 2010 - Lic: BP on polyethylene, Mitsui PC on polypropylene, IFP on butene. Contr: Technipetrol. ..... PERTAMINA, BRITISH PETROLEUM, CHEVRON (Gulf Corp.).'
p4
aS'Feb 2, 2010 - More News From Greenwire ... discussion," said Bill Bush, spokesman for the American Petroleum Institute, the trade group for oil and gas companies. "We hope ...'
p5
aS'Feb 3, 2010 - History News Network: The proposed contracts did not, in fact, offer them the kind of ... to erode, however, when the Chinese National Petroleum Corporation (CNPC), a government-owned operation, induced its partner, BP, the huge British oil ...'
p6
aS'Feb 2, 2010 - MEDIA COVERAGE (OVER 100 NEWS STORIES) AND BOOKS (NEARLY 40) ... NIKKEI BP (JAPAN) ARTICLE: Gripe sites are becoming more powerful: 13 Nov 2007 .... Bad Publicity plus British Humour puts Shell on the defensive: April 2012 ... to whom he awarded the licence when he was Nigerian Minister of Petroleum.'
p7
aS"Feb 1, 2010 - The University's Master of Science (MSc) in Petroleum Engineering and Bachelor of Science (BSc) in ... For more UWI News, click http://sta.uwi.edu/news. End."
p8
aS'Feb 2, 2010 - Breaking News - Feb 2 2010 ... stops plans by Dominion and British Petroleum to build a 60-turbine wind energy project along 7.5 miles of East River Mountain.'
p9
aS"Feb 1, 2010 - MailOnline US - news, sport, celebrity, science and health stories .... And whereas on the first journey ever made in Britain by a 'petroleum motor carriage' in ..."
p10
a.