(lp0
S'Feb 8, 2010 - Lord Browne has published his memoirs, charting his 41-year career with BP. ... 2007 after a newspaper revealed he had lied about how he had met his boyfriend, ... to his rebranding of BP as "Beyond Petroleum"  charts his 41-year career with the ... For one of Britain\'s captains of industry, who was on first-name terms with ...'
p1
aS"Feb 8, 2010 - Get News Alerts More Headlines  Will BP plc (BP) Beat Estimates this Earnings Season? Zacks Investment Research - Thu Apr 21, 3:34PM UTC; 'Mad Money' ..."
p2
aS'Feb 8, 2010 - Initially conceived in 1981 as The Sohio Building  before Standard Oil of Ohio (Sohio) was acquired by BP (British Petroleum)  the 45-story BP America ...'
p3
aS'Feb 7, 2010 - The other main British gas/condensate pipelay project nearing completion is the Britannia ... The current medium is the BP-operated Ninian-Sullon Voe system, but Alwyn operator ... Get All the Offshore Magazine News Delivered to Your Inbox for free ... OMV has authorizations from the Norwegian Petroleum Directorate and ...'
p4
aS'Feb 9, 2010 - Marcello Rebora Taurus Petroleum AB London Martin L. Keeley Consulting petroleum ... Cretaceous reef trends on the continental margin southwest of the British Isles, J. Geol. ... Get All the Oil and Gas Journal News Delivered to Your Inbox .... BP offers a progressive working environment with the chance to move internally ...'
p5
aS"Feb 8, 2010 - Whether it's simply companies trying to make the news or actual facts that can support trading decisions is yet to be determined however a look at the ... British expats lure high-street retailers Down . ... PPP - PAN PACIFIC PETROLEUM NL."
p6
aS'Feb 8, 2010 - Pertra AS was founded by Petroleum Geo-Services (PGS) ASA in 2001 as an ... They had their first revenues in 1974 through a shareholding in the British Heather field, ... June 2nd 2014 the news broke, that Det norske oljeselskap had bought ...'
p7
aS'Feb 8, 2010 - Verenium has formed a 50-50 joint venture with British Petroleum to develop and commercialize cellulosic ethanol from nonfood ... Biotechnology News.'
p8
aS'Feb 7, 2010 - Shale Gas is the big news  in the US the Barnett, Haynesville, Fayetteville ... A recent leak of Kuwait Petroleum Company documents showed the actual reserves are only 48Gb (official ... From BP Statistical Review .... higher than before; In 1913, Britain exported 27% of its production, now it imports 74% of the coal it burns.'
p9
aS'Feb 8, 2010 - Leopoldo Espaillat Nanita, Former Head Of The Dominican Petroleum Refinery (Refidomsa), ..... Koonin, Steven E. University of California; DOD; Argonne National Laboratory; CFR; British Petroleum ..... Subscribe to Exopolitics News (Free) ...'
p10
a.