(lp0
S'Feb 8, 2010 - Lord Browne has published his memoirs, charting his 41-year career with BP. ... 2007 after a newspaper revealed he had lied about how he had met his boyfriend, ... to his rebranding of BP as "Beyond Petroleum"  charts his 41-year career with the ... For one of Britain\'s captains of industry, who was on first-name terms with ...'
p1
aS"Feb 8, 2010 - Get News Alerts More Headlines  Will BP plc (BP) Beat Estimates this Earnings Season? Zacks Investment Research - Thu Apr 21, 3:34PM UTC; 'Mad Money' ..."
p2
aS'Feb 8, 2010 - Initially conceived in 1981 as The Sohio Building  before Standard Oil of Ohio (Sohio) was acquired by BP (British Petroleum)  the 45-story BP America ...'
p3
aS'Feb 9, 2010 - Marcello Rebora Taurus Petroleum AB London Martin L. Keeley Consulting petroleum ... Cretaceous reef trends on the continental margin southwest of the British Isles, J. Geol. ... Get All the Oil and Gas Journal News Delivered to Your Inbox .... BP offers a progressive working environment with the chance to move internally ...'
p4
aS'Feb 9, 2010 - Dana S Deasy, CIO & Group VP, IT & services, BP Plc maintains two marine aquarium with exotic marine fish and live corals. One, a 500 liter tank in London and ...'
p5
aS'Feb 9, 2010 - http://www.renewableenergyworld.com/rea/news/article/2009/06/is-the-futu. ... British Petroleum 2016 Energy Outlook : Reasonable Base Case Assessment?'
p6
aS'Feb 9, 2010 - Present U.S. demand for petroleum products is about 20 million barrels per day. If oil shale could be used to meet a quarter of that demand, the estimated 800 ...'
p7
aS'Feb 8, 2010 - Verenium has formed a 50-50 joint venture with British Petroleum to develop and commercialize cellulosic ethanol from nonfood ... Biotechnology News.'
p8
aS'Feb 9, 2010 - Todays (SEGR) Specialist Energy Group share price. All the latest trades, news and charts for SEGR. Add to your free personal watch list for UK Share prices.'
p9
aS'Feb 9, 2010 - Todays (DA2O) Downing Absolute Income VCT 2 share price. All the latest trades, news and charts for DA2O. Add to your free personal watch list for UK Share ...'
p10
a.