(lp0
S'Mar 10, 2010 - British oil giant BP PLC is set to acquire a big swath of oil assets from U.S. ... in the worlds of diversified media, news, education, and information services.'
p1
aS'Mar 9, 2010 - DOW JONES, A NEWS CORP COMPANY .... U.S. regulators fined British oil giant BP PLC $3 million, citing safety problems at its Toledo, ... is already under pressure from plummeting profit margins and weak demand for petroleum products.'
p2
aS'Mar 10, 2010 - Prison Reform: In The News ... that Attorney General Eric Holder had traveled to New Orleans to investigate the massive oil spill caused by British Petroleum.'
p3
aS'Mar 10, 2010 - Prison News and Commentary. ... to New Orleans to investigate the massive oil spill caused by British Petroleum. ... Topics: Legal and Legislative News  Tags: ...'
p4
aS'Mar 10, 2010 - tl_files/sites/ees/Images/news/tt2010-2.jpg, The Caroni ... Sandal burn - British Petroleum guest house, ouch, forgot to apply sunscreen to my feet. Photo credit: ...'
p5
aS'Mar 9, 2010 - Companies like Shell and British Petroleum (BP) were delighted. ... But I had read in the newspaper the day before that the EPA [Environmental Protection ...'
p6
aS'Mar 10, 2010 - News Room .... College, London, funded by BP (previously called British Petroleum)). Dr. Richard Norris is an active member of the Society of Petroleum ...'
p7
aS'Mar 9, 2010 - This is viewer supported news. Donate ..... JOHANN HARI: - British Petroleum, American Electrical Power, PacifiCorp, very dodgy polluters, as you can tell.'
p8
aS'Mar 10, 2010 - However the majority of petroleum scientists in this area of research have .... users to interrogate the British Petroleum Statistical Review and presents the results ...'
p9
aS'OMS - One Management System for BP Azerbaijan. Jeykhun Imanov Studio ... GMA News and Public ...'
p10
a.