(lp0
S"Mar 11, 2010 - BP (BP.L) will pay $7 billion to Devon Energy (DVN.N) for assets that will extend ... A British Petroleum (BP) sign is seen at a petrol station in south London July 29, 2008. .... Thomson Reuters is the world's largest international multimedia news ..."
p1
aS'Mar 10, 2010 - British oil giant BP PLC is set to acquire a big swath of oil assets from U.S. ... in the worlds of diversified media, news, education, and information services.'
p2
aS"Mar 11, 2010 - The big prizes for BP are Devon's assets in Brazil and in the Gulf of Mexico ... The British multinational returned to the oil sands in 2007 after a 20-year ... News. Trudeau gives lesson in quantum computing at Waterloo's Perimeter Institute ..."
p3
aS"Mar 11, 2010 - The group of investors vociferously trying to persuade BP and Shell to ... in the Canada tar sands has now enlisted a group of MPs in Britain to propose an early day .... This is a vast resource, it is only right that investigations into the viability of extraction of Oil thence petroleum from the sands is looked into. .... Today's News."
p4
aS"Mar 11, 2010 - In 1929, C. M. Brabham opened a small wholesale petroleum business as a ... In the 1980's, the business added British Petroleum, Shell, and Chevron as ..."
p5
aS'Mar 12, 2010 - Home  News  Row over Environmental Commission, Sunday, April 10 2016 ... The appointment of an alleged employee of British Petroleum (Trinidad and ...'
p6
aS'Mar 10, 2010 - tl_files/sites/ees/Images/news/tt2010-2.jpg, The Caroni ... Sandal burn - British Petroleum guest house, ouch, forgot to apply sunscreen to my feet. Photo credit: ...'
p7
aS'Mar 10, 2010 - Prison Reform: In The News ... that Attorney General Eric Holder had traveled to New Orleans to investigate the massive oil spill caused by British Petroleum.'
p8
aS'Mar 10, 2010 - Prison News and Commentary. ... to New Orleans to investigate the massive oil spill caused by British Petroleum. ... Topics: Legal and Legislative News  Tags: ...'
p9
aS'Mar 10, 2010 - News Room .... College, London, funded by BP (previously called British Petroleum)). Dr. Richard Norris is an active member of the Society of Petroleum ...'
p10
a.