(lp0
S"Mar 11, 2010 - BP (BP.L) will pay $7 billion to Devon Energy (DVN.N) for assets that will extend ... A British Petroleum (BP) sign is seen at a petrol station in south London July 29, 2008. .... Thomson Reuters is the world's largest international multimedia news ..."
p1
aS"Mar 11, 2010 - The big prizes for BP are Devon's assets in Brazil and in the Gulf of Mexico ... The British multinational returned to the oil sands in 2007 after a 20-year ... News. Trudeau gives lesson in quantum computing at Waterloo's Perimeter Institute ..."
p2
aS"Mar 11, 2010 - The group of investors vociferously trying to persuade BP and Shell to ... in the Canada tar sands has now enlisted a group of MPs in Britain to propose an early day .... This is a vast resource, it is only right that investigations into the viability of extraction of Oil thence petroleum from the sands is looked into. .... Today's News."
p3
aS"Mar 12, 2010 - It is therefore no surprise that BP's chief executive, Tony Hayward, has ... Focus at that point was on whether the super-major would pick up some fields from Repsol or even make a play for British explorer BG Group, which ... A worker of Gujarat State Petroleum Corporation checks oil flow of well PK-2 during .... Retail News."
p4
aS"Mar 11, 2010 - In 1929, C. M. Brabham opened a small wholesale petroleum business as a ... In the 1980's, the business added British Petroleum, Shell, and Chevron as ..."
p5
aS'Mar 12, 2010 - Home  News  Row over Environmental Commission, Sunday, April 10 2016 ... The appointment of an alleged employee of British Petroleum (Trinidad and ...'
p6
aS"Mar 12, 2010 - ... companies as Apache, Enron, Newfield-is old news now, but still an amazing ... business relationships in Colombia that are on a par with British Petroleum's."
p7
aS"Mar 11, 2010 - Most of the Phillips Petroleum workers were from Norway, although a few were American and British. ... The Royal Air Force of Great Britain and Norwegian military both immediately ... BP CEO Denies Responsibility for Deepwater Horizon Oil Spill ... news. History's Worst Nuclear Disasters  Fukushima Dai-ichi, march 2011, ..."
p8
aS'Mar 12, 2010 - Britain. BP, in a 2009 filing with the Securities and Exchange Commission, said ... for the development of petroleum resources, which is what landed Daelim on a .... percent share of the Bahman Group, according to Iranian newspaper reports.'
p9
aS"Mar 11, 2010 - Qatar also made a killing in shares of British banking group Barclays (BCS), netting ... Weill Cornell operates a medical school, Texas A&M churns out petroleum .... Qatar's Energy Minister Mohammed Al Sada said at a news conference after ..."
p10
a.