(lp0
S'Mar 15, 2010 - experienced operators in offshore projects, BP is aiming a successful market entry .... British Petroleum (BP) is one of the biggest energy companies in the world, dealing ..... http://news.bbc.co.uk/1/hi/8561427.stm [last visited on 20 April 2010].'
p1
aS'Mar 15, 2010 - Richard de Caux, Oil Demand Analyst with BP was welcomed to CEPMLP on ... Richard has worked with BP for 11 years and is currently working in the role of ...'
p2
aS"Mar 15, 2010 - Rigs Working in Egypt British Gas's & Amoco's Nile Delta concessions. ... Get All the Offshore Magazine News Delivered to Your Inbox for free ... 50% interest held by Alpha Petroleum Resources in blocks 48/22b and 48/23a in the UK southern North Sea. ... BP Country: Malaysia Finance Sub-category Financial Accounting ..."
p3
aS'Mar 14, 2010 - Frontier developments have always been challenging for petroleum ... But all has not been bad news for BP West of Shetland. ... The study will be called Aurora project, funded by Conoco (U.K.) Ltd., Texaco Britain Ltd. and Total Oil Marine plc.'
p4
aS"Mar 15, 2010 - BP is one of the world's leading international oil and gas companies. ... The Association of British Independent Oil Exploration Companies seeks to promote the ... with news about the major projects and development with government policy."
p5
aS'Mar 14, 2010 - Liquefied petroleum gas (LPG) is the cooking fuel most preferred, but at Rs 330 ... when dry they are stored in deep and wide baskets lined with old newspaper. .... British Petroleum 2016 Energy Outlook : Reasonable Base Case Assessment?'
p6
aS"Mar 15, 2010 - 1991 to a low of USD 12.72 in 1998 (BP 2008). ... the British firm PLATFORM obtained a copy (Muttitt 2007). Their analysis ... ble player in the international petroleum and energy marketsby ..... 'Threat to Investors in Kazakhstan', BBC News."
p7
aS'Mar 15, 2010 - News & offers ... latest virtual issues of the Journal of European Public Policy  Development Studies Open Access  Access the Geography subject news pages ...'
p8
aS'Mar 15, 2010 - News. 2011-07-26. Fridman Mikhail. Israel chairity programmes compromised .... the federal program for the export of petroleum and petroleum products for ... of Great Britain on Michael Friedman in connection with the performance of the ... According to Greenberg, Friedman bribedthe Minister of the country for BP interests.'
p9
aS"Mar 15, 2010 - News ... and wide ranging, including for the environment, for the petroleum industry and the Australian system of regulation of offshore petroleum operations.''"
p10
a.