(lp0
S'Mar 15, 2010 - experienced operators in offshore projects, BP is aiming a successful market entry .... British Petroleum (BP) is one of the biggest energy companies in the world, dealing ..... http://news.bbc.co.uk/1/hi/8561427.stm [last visited on 20 April 2010].'
p1
aS"Mar 16, 2010 - London based oil giant BP Oil expands investments to Brazil, photo by ... As the world's petroleum supplies become more difficult and more expensive to access, ..."
p2
aS"Mar 15, 2010 - Rigs Working in Egypt British Gas's & Amoco's Nile Delta concessions. ... Get All the Offshore Magazine News Delivered to Your Inbox for free ... 50% interest held by Alpha Petroleum Resources in blocks 48/22b and 48/23a in the UK southern North Sea. ... BP Country: Malaysia Finance Sub-category Financial Accounting ..."
p3
aS"Mar 15, 2010 - BP is one of the world's leading international oil and gas companies. ... The Association of British Independent Oil Exploration Companies seeks to promote the ... with news about the major projects and development with government policy."
p4
aS'Mar 15, 2010 - ... DSM Energy (U.K.) Ltd. 20%, British-Borneo Petroleum Syndicate plc 18.5%, and Seafield .... Get All the Oil and Gas Journal News Delivered to Your Inbox.'
p5
aS"Mar 15, 2010 - News ... and wide ranging, including for the environment, for the petroleum industry and the Australian system of regulation of offshore petroleum operations.''"
p6
aS"Mar 15, 2010 - 'Threat to Investors in Kazakhstan', BBC News. Available online: http://news.bbc.co.uk/2/hi/7015361.stm (accessed. 18 December 2009). British Petroleum (BP)."
p7
aS'Mar 15, 2010 - News. 2011-07-26. Fridman Mikhail. Israel chairity programmes compromised .... the federal program for the export of petroleum and petroleum products for ... of Great Britain on Michael Friedman in connection with the performance of the ... According to Greenberg, Friedman bribedthe Minister of the country for BP interests.'
p8
aS'Mar 15, 2010 - News & offers ... latest virtual issues of the Journal of European Public Policy  Development Studies Open Access  Access the Geography subject news pages ...'
p9
aS'Mar 16, 2010 - Latin petroleum, i.e. rock oil) was used as an ointment and in curative preparations for eye ..... This news reached New York just two weeks later and was ..... Company (the future British Petroleum), Royal Dutch-Shell and Deutsche Bank ...'
p10
a.