(lp0
S'Mar 18, 2010 - ... estate market in 1995 which ultimately resulted in Giant becoming a multi-branded, multi-state petroleum jobber. In 1997 Giant acquired our first group of sites and at that time became a distributor for British Petroleum (BP). ... Recent News.'
p1
aS'Mar 17, 2010 - ... century or more. The latest new find in the news today, .... The British Petroleum Statistical Review is hardly a left-wing, enviro-kook publication. Rather, it is a ...'
p2
aS'Mar 17, 2010 - British Petroleum, in its 2007 report, estimated at 2006 end, there were 909,064 million ... Bad News For Floating Storage As The Supply Glut Appears To Ease.'
p3
aS'Mar 17, 2010 - MailOnline US - news, sport, celebrity, science and health stories .... shareholder of British firm Desire Petroleum which is currently drilling for oil in the Falklands.'
p4
aS"Mar 18, 2010 - DOW JONES, A NEWS CORP COMPANY ..... with the American Petroleum Institute, an industry lobby group, the only other major weekly source. ... which depends on banks providing the British Bankers' Association with their borrowing rates."
p5
aS"Mar 18, 2010 - UK News  ... Described as the most dangerous men in Britain, the Krays were never shy ... Previously unseen photographs of Britain's most notorious twins."
p6
aS'Mar 19, 2010 - Writing in the Moscow newspaper Argumenty i Fakty (Arguments and Facts), Isayev also ... Among U.S. geologists specializing in C.I.S. petroleum research, estimates of ... The British publication believes Soviet proved plus probable reserves held ..... BP offers a progressive working environment with the chance to move ...'
p7
aS"Mar 17, 2010 - Apologies to those who still regard it as the standard-bearer of British cool, but average customers ... (Jason H. Harper writes about autos for Bloomberg News. ... He holds a long position in BP Plc, according to the report. ... oil and gas producer, PetroChina Co., and Asia's biggest refiner, China Petroleum & Chemical Corp."
p8
aS"Mar 17, 2010 - The Costs and Risks of Dependence on the Petroleum Sector . ...... 11 Saadallah al Fathi, Major Bottlenecks in Iraq's Oil Refinery Sector, Gulf News, April 5, 2009. .... firms including Royal Dutch Shell, Eni, British Petroleum, and Statoil were ..."
p9
aS'Mar 19, 2010 - She was most recently an executive in the petrochemical industry and has held a variety of leadership positions at British Petroleum and Amoco Corporation in ...'
p10
a.