(lp0
S'Mar 26, 2010 - MEDIA COVERAGE (OVER 100 NEWS STORIES) AND BOOKS (NEARLY 40) ... NIKKEI BP (JAPAN) ARTICLE: Gripe sites are becoming more powerful: 13 Nov 2007 .... Bad Publicity plus British Humour puts Shell on the defensive: April 2012 ... to whom he awarded the licence when he was Nigerian Minister of Petroleum.'
p1
aS'Mar 26, 2010 - Companies like Shell and British Petroleum (BP) were delighted. ... But I had read in the newspaper the day before that the EPA [Environmental Protection ...'
p2
aS'Mar 26, 2010 - ... and the Director of Ghana National Petroleum Corporation, both key players in ... We are guilty already  notes from the BP AGM 2016  Edinburgh Festival ...'
p3
aS"Mar 25, 2010 - with regards to the discovery as we have no intention to hide any news, ..... as Conoco Phillips, British Petroleum (BP), Petronas, Petrobras, Land O' Lakes, ..."
p4
aS"Mar 25, 2010 - Some of the bidders were identified as Norway's Petroleum Geo-Services, the Netherlands's Fugro and Britain's WesternGeco. Aramco has been preparing to ..."
p5
aS'Mar 27, 2010 - In October, Stellar told Petroleum News it was seeking new funding for its exploration program. Buccaneer estimates the acreage holds between 53 million and ...'
p6
aS'Mar 25, 2010 - In 1720, for example, a financial crisis hit Great Britain when executives from the ..... Mesa Petroleum Co., the Delaware Supreme Court held that directors could ..... available at http://www.villagevoice. com/2003-09-30/news/strange-fruit/1.'
p7
aS"Mar 26, 2010 - Some were in Norwegian waters, some in British waters. It really gave me a sense of the size and power of the petroleum industry. After we'd landed, the platform ... tries to swindle top tax-crime fighter  Explore the news with NewsPulse "
p8
aS"Mar 26, 2010 - 40,000 Hookers at the World Cup: News Trafficking in Horse Manure .... SEO on The American Family in the White House  Newton on British Petroleum's Hands."
p9
aS'Mar 26, 2010 - Get News Alerts More Headlines  Lighthouse Petroleum, Inc. Announces Name and Symbol Change to Supurva Healthcare ... BP Earnings Hit by Oil Rout.'
p10
a.