(lp0
S'Mar 29, 2010 - Desire Petroleum shares tumbled following a poor drilling update from its Liz well in the ... Nearly 30 years after the two countries fought a war over control over the British-ruled islands, Argentina is furious that British companies ... UK News  ...'
p1
aS"Mar 29, 2010 - BP Amoco, BHP, Amerada Hess, Enron, and British Gas were among the first. In fact, the ... Brazil's coastline is not as calm as it used to be, at least in the petroleum sector. ... Get All the Offshore Magazine News Delivered to Your Inbox for free."
p2
aS'Mar 29, 2010 - Petrofac Wins Qatar Petroleum Contract Worth More Than US$600 Million. Petrofac, the international oil ... British Ambassador visits Petrofac. 14 February 2016 ...'
p3
aS'Mar 29, 2010 - Desire Petroleum tells stock market of poor results from exploratory well in South Atlantic. ... The bad news sent its shares tumbling more than 50%, and hit other ... Argentinian ports to seek a permit if they enter or leave British-controlled waters ...'
p4
aS"Mar 29, 2010 - On the northern coast of the British Channel, onshore Wytch Farm oil field is now producing .... Hydrocarbon and Petroleum Geology of France, special publication of the EAPG No. ... Get All the Oil and Gas Journal News Delivered to Your Inbox .... No About BP BP is one of the world's leading international and companies."
p5
aS"Mar 29, 2010 - Cairn's stock rose nearly 11.5% intraday as the markets greeted the news with much ... London on Monday, Desire Petroleum  one of the British companies prospecting for ... Oil major BP has swooped for assets in Brazil, Azerbaijan and U.S. ..."
p6
aS'Mar 29, 2010 - British Petroleum 2016 Energy Outlook : Reasonable Base Case Assessment? ... A weekly roundup of peak oil news, including: -Quote of the Week -Oil '
p7
aS'Baghdad Iraq Great Britain & The United States of America The geopolitical goals of the ... BP-British ...'
p8
aS"Mar 30, 2010 - News & Community ... Most of the interest, however, lay in the Faeroe-Shetland Channel near BP Amoco's Atlantic Frontier fields. ... of an agreement by Prime Minister Anfinn Kallsberg with British and Danish foreign ministers. ... This agreement enabled the Minister of Petroleum, last December, to table a bill on the First ..."
p9
aS'Mar 30, 2010 - The article was titled, "The Fisherman and the Tax Man." It\'s about British Petroleum (BP) requesting tax records from fisherman seeking compensation .'
p10
a.