(lp0
S"Mar 1, 2010 - News, MarketPlace, Jobs ... Industry representatives report that BP paid Lewis Energy (Lewis Petroleum ... BP has made a joint- venture deal with privately held Lewis Energy Group that will expand the British oil giant's position in the U.S. ..."
p1
aS'Mar 2, 2010 - British Petroleum (BP) has announced that it will sell its businesses in Zambia. ... The Zambian is simply cryng empowerment with the Post newspaper in his ...'
p2
aS'Mar 2, 2010 - It was snapped up at the oil auction by British giant BP PLC teaming up with the China National Petroleum Corp. Their consortium plans to drill 56 wells and ...'
p3
aS"Mar 1, 2010 - The toughest contract was the consortium bid by British Petroleum, Amoco, and Maxus for the G'Piche Block .... International news for oil and gas professionals ..."
p4
aS'Mar 2, 2010 - General News 3/2/2010 at 22:26:24 ... SAPREF is a business combination of Shell and British Petroleum (these days BP markets itself as "Beyond Petroleum").'
p5
aS'Mar 2, 2010 - Hillary Clinton has said the US is ready to help Argentina and Britain resolve ... Desire Petroleum, a small British company, started drilling about 60 miles north of ...'
p6
aS'Mar 1, 2010 - Before that, Mr. Vargo had a 10-year career at The Standard Oil Company and British Petroleum PLC, where he held several finance and line positions.'
p7
aS'Mar 1, 2010 - An experienced British/Dutch operations manager took care of the ... Includes a TV documentary feature, newspaper and magazine articles, radio ... NIKKEI BP (JAPAN) ARTICLE: Gripe sites are becoming more powerful: 13 Nov 2007 .... knew that the ultimate beneficiary was Dan Etete, the former minister of petroleum.'
p8
aS"Mar 1, 2010 - http://blogs.telegraph.co.uk/news/jamesdelingpole/100020304/climategate-peak-oil-the ... British Council, British Petroleum, Broom's Barn Sugar Beet Research ..."
p9
aS'Mar 1, 2010 - The Organization of the Petroleum Exporting Countries (OPEC) implements what it ... A 1903 Winton touring car. news. The First Great American Road Trip ... an army of 8,000 men south through New York in an effort to join forces with British.'
p10
a.