(lp0
S'Mar 5, 2010 - Stock quote for BP p.l.c. Common Stock (BP) - Get real-time last sale and extended hours stock prices, company news, charts, and company-specific research ...'
p1
aS'Mar 5, 2010 - The top-ranked firm, British Petroleum -- which has in recent months stopped ... and the news article "Sustainability Rankings for ICT Industry Put Vodafone, ...'
p2
aS'Mar 6, 2010 - Join LinkedIn to get the latest news, insights, and opportunities from over 3 million ... Pharaonic Petroleum Company is a British Petroleum and EGAS joint ...'
p3
aS'Mar 4, 2010 - BP CEO Tony Hayward told top managers the company had become a. ... News. 3/4/2010 12:52 PM. Bob Evans Features. 0 comments. Comment Now. Login.'
p4
aS'Mar 5, 2010 -  ()          BP Plc    41-  ...'
p5
aS'Mar 4, 2010 - Top 101 Convenience Stores  CSPnet.com - Convenience Store News .... BP is the single, global brand formed by the combination of the former British Petroleum, Amoco, Atlantic Richfield (ARCO) and Burmah Castrol. In Case You Missed It.'
p6
aS'Mar 6, 2010 - ... British Gas North Sea Holdings Ltd., British Petroleum Exploration Operating Co. ... the plant to operate at the British Gas pipeline pressure (valves fully open) when operating ..... Get All the Oil and Gas Journal News Delivered to Your Inbox.'
p7
aS'Mar 4, 2010 - Companies like Shell and British Petroleum (BP) were delighted. ... But I had read in the newspaper the day before that the EPA [Environmental Protection ...'
p8
aS'Mar 5, 2010 - United Kingdom of Great Britain and. Northern Ireland. US ... petroleum and petrochemicals products and related services. The two business .... were sustained by further positive economic news and signs that the inventory overhang was ...'
p9
aS'Mar 5, 2010 - Companies like Shell and British Petroleum (BP) were delighted, writes Hari. ... But I had read in the newspaper the day before that the EPA [Environmental ...'
p10
a.