(lp0
S"Mar 8, 2010 - BP CEO looks toward the company's future goals over the next couple years. ... BP has outlined plans to further boost efficiency and reduce costs as it plans to ... Enewsletters get you caught up on all the convenience store news you need."
p1
aS'Mar 7, 2010 - BP plans to achieve 1-2% oil and gas production growth through 2015 - can it follow ... BP, Inc (NYSE:BP) will attempt to develop its deep portfolio of oil and gas projects to .... Subscribe to News To Use for the latest insights and analysis ...'
p2
aS'Mar 7, 2010 - BP Amoco-Arco key operating areas [80357 bytes] How BP Amoco-Arco ... bytes] The accelerating consolidation of the petroleum industry has taken another major ... News that the two had reached a definitive merger agreement followed on ...'
p3
aS'Mar 7, 2010 - ... value of the remaining reserves in the North Sea, a respected petroleum academic has warned. ... Britain and Norway took very different paths in the development of the North ... such as the British National Oil Corporation and a partly state-owned BP. ..... 2016 Guardian News and Media Limited or its affiliated companies.'
p4
aS'Mar 8, 2010 - OSHA News Release - Table of Contents. Trade News Release Banner Image ... "OSHA has found that BP often ignored or severely delayed fixing known ...'
p5
aS"Mar 8, 2010 - The good news is that no one is expected to turn green overnight, but brands are expected to be truthful about their ... British Petroleum's tagline is, 'It's a start."
p6
aS'Mar 8, 2010 - Mr. Roy Alexander Franklin, OBE, BSc, PMD, served as the Chief Executive ... He joined Clyde Petroleum Plc in 1991, where he s. ... As of 11:35 AM 04/21/16 All times are local (Market data is delayed by at least 15 minutes). Snapshot  News ... petroleum industry experience, including several positions with British ... oil and ...'
p7
aS'Mar 8, 2010 - IIR is a member of the British Olympic Association Council, promoting and ..... Global refining margins fell from USD6.20 per barrel in 1Q 09 to USD1.49 per barrel in 4Q 09 Source: BP, reflecting ..... Max Petroleum plc .... Key recent news.'
p8
aS'Mar 8, 2010 - Though British and American politicians continue to insist on the Weapons of Mass ... oilfield, and Occidental Petroleum is part of a deal between Eni of Italy and the Iraqi ... The Rumaila oilfield went to BP and CNPC from China; the West Qurna .... News: British newspapers have reported that parents have threatened to pull ...'
p9
aS"Mar 7, 2010 - Malvinas 'army' is more prepared now than in '82, UK newspaper ... Buenos Aires and London have worsened after British oil company Desire Petroleum ..."
p10
a.