(lp0
S"Mar 8, 2010 - BP CEO looks toward the company's future goals over the next couple years. ... BP has outlined plans to further boost efficiency and reduce costs as it plans to ... Enewsletters get you caught up on all the convenience store news you need."
p1
aS'Mar 9, 2010 - DOW JONES, A NEWS CORP COMPANY .... U.S. regulators fined British oil giant BP PLC $3 million, citing safety problems at its Toledo, ... is already under pressure from plummeting profit margins and weak demand for petroleum products.'
p2
aS'Mar 8, 2010 - OSHA News Release - Table of Contents. Trade News Release Banner Image ... "OSHA has found that BP often ignored or severely delayed fixing known ...'
p3
aS'Mar 9, 2010 - Companies like Shell and British Petroleum (BP) were delighted. ... But I had read in the newspaper the day before that the EPA [Environmental Protection ...'
p4
aS'Mar 9, 2010 - This is viewer supported news. Donate ..... JOHANN HARI: - British Petroleum, American Electrical Power, PacifiCorp, very dodgy polluters, as you can tell.'
p5
aS"Mar 8, 2010 - ... trading in the firm's stock. Story continues below Since January 1st 2010 Svanberg has been CEO of British Petroleum. TT/The Local (news@thelocal.se) ..."
p6
aS'Mar 8, 2010 - IIR is a member of the British Olympic Association Council, promoting and ..... Global refining margins fell from USD6.20 per barrel in 1Q 09 to USD1.49 per barrel in 4Q 09 Source: BP, reflecting ..... Max Petroleum plc .... Key recent news.'
p7
aS'Mar 9, 2010 - ... opportunity of working with state-controlled China National Petroleum Corporation. ... Shell and BP have dumped refineries in slow-growing Britain, for instance, but ... Sunday newspaper share tips: Safestay | Travis Perkins and should you ...'
p8
aS'Mar 9, 2010 - Phillips Petroleum Co. ... currently under development by operator BP Exploration Operating Co. Ltd. ... Agip (U.K.) Ltd. 33%, and British Gas Exploration & Production Ltd. 30.5%. ... Get All the Oil and Gas Journal News Delivered to Your Inbox.'
p9
aS"Mar 9, 2010 - Last fiscal year was the first with 100,000 petroleum loads, said Kwik Trip Petroleum Superintendent Marty Fellenz, who supervises drivers. We're 24 hours, .... Today's top pics: British royal couple India visit and more ... News and Features."
p10
a.