(lp0
S"Apr 14, 2010 - BP is used to being targeted by environmental protesters. ... Business News .... Britain's financial services sector will be the worst hit if Britain votes to leave the ..."
p1
aS'Apr 15, 2010 - ... the first announcement from British Petroleum (BP) assured the public that "we ... By mid-April, 2010, the BP Deepwater rig crew had tapped into an oil and .... If you wish to subscribe to receive the Shell to Sea News Updates then click on ...'
p2
aS'Apr 15, 2010 - In April 2010, the explosion on the British Petroleum BP Deepwater Horizon .... BODO, Nigeria  Big oil spills are no longer news in this vast, tropical land. Bp ...'
p3
aS"Apr 15, 2010 - Former BP CEO Tony Hayward found himself in hot water after his response to the ... In 1982, shortly after graduation, British Petroleum's chief geologist recruited ... After an English newspaper threatened to publish private details about Lord ..."
p4
aS"Apr 15, 2010 - NBC (Houston's Ch.2) - Houston Inventor Has Idea For BP .... to his name  and now he wants to take on the oil spill (if only British Petroleum would listen)."
p5
aS'Apr 15, 2010 - BP defeated an AGM resolution today from activist shareholders who wanted a full ... of leading companies in the worlds of diversified media, news, education, and information services. .... Greek Risk Hangs Over British Vote on EU ... burnished its green credentials and claimed to be moving Beyond Petroleum to make an ...'
p6
aS'Apr 15, 2010 - BP PLC is facing a rebellion from major shareholders over a controversial oil sands project in Canada. ... In this file photo, the BP (British Petroleum) logo is seen at a gas station in Washington. AP. ... Get News Delivered To Your Email'
p7
aS"Apr 15, 2010 - News & Publications ... Gas and Petroleum drilling in Israel's Deep Waters ... BP (British Petroleum) developed a fund of 20 billion dollars to cover the economic ..."
p8
aS'Apr 15, 2010 - Case Study: Icaros Assists In BP Oil Spill Recovery ... Customer.  British Petroleum (BP) ... Case Study: Icaros Assists In BP Oil Spill Recovery ...'
p9
aS'Apr 15, 2010 - adopted foreign private ownership over its petroleum sector by selling off its ... Thus, the bad news is that state ownership is a conscious (and, thus far, ..... leadership of British Petroleum (BP), which has received financial as well as moral.'
p10
a.