(lp0
S'Apr 20, 2010 - Director S&OR, Risk Champion vacancy in Iraq with British Petroleum (BP). Search for more Director S&OR, Risk Champion jobs in Iraq and other Middle East ...'
p1
aS'Apr 20, 2010 - 2008 May - up to present. British Petroleum Construction site Field engineer. 2007 January - 2008 May British petroleum (UK)  Saipem (Italy)  International'
p2
aS'Apr 18, 2010 - ... than a direct \'drop-in\' replacement for petroleum-derived diesel," says Sims. "There\'s ... (Martek received a $10-million investment from British oil giant BP .... Global Business and Financial News, Stock Quotes, and Market Data and Analysis.'
p3
aS'Apr 19, 2010 - British Petroleum 2016 Energy Outlook : Reasonable Base Case Assessment? ... A weekly roundup of peak oil news, including: -Quote of the Week -Oil '
p4
aS'Apr 18, 2010 - ... once was seen as the answer to the petroleum-driven car: easy to produce, ... a biofuels expert from the British consultancy group Innovation Observatory.'
p5
aS'Apr 19, 2010 - ... Organization of Petroleum Exporting Countries (OPEC) meeting in Vienna, ... this year in London to 31.5 pence a therm ($4.85 a million British thermal units), ...'
p6
aS'Apr 19, 2010 - "First it was TPD (Trinidad Petroleum Development Co Ltd) then it was bought over by BP (British Petroleum), then Tesoro owned the company until it was sold ...'
p7
aS"Apr 19, 2010 - European regulators planned to start lifting flight bans Tuesday, but news late ... Britain's National Air Traffic Services agency said late Monday that flying ..."
p8
aS'Apr 19, 2010 - The BP Project (not its real name and not affiliated with British Petroleum) received $1.5 million to recruit and educate teachers for bilingual students. The first ...'
p9
aS"Apr 19, 2010 - Warning: Illegal string offset 'id' in /home4/mbdfilms/public_html/toxicsoupmovie.com/wp-content/themes/multiMediaReloaded/header.php on line 26. Warning: ..."
p10
a.