(lp0
S"Apr 2, 2010 - It was last October, and I'd gone with a group of student activists to BP's ... like most people in Britain, seemed largely unaware that the tar sands even existed. ... Why was BP  which had so famously rebranded itself as 'Beyond Petroleum' .... http://www.theglobeandmail.com/news/national/protect-caribou-in-oils-sands- ..."
p1
aS"Apr 1, 2010 - It was last October, and I'd gone with a group of student activists to BP's ... like most people in Britain, seemed largely unaware that the tar sands even existed. ... Why was BP  which had so famously rebranded itself as 'Beyond Petroleum' ..."
p2
aS'Apr 1, 2010 - Argentina to see biggest anti-British protests for years ... Desire Petroleum PLC said that it has started drilling for oil about 60 miles north of the ... World News  ...'
p3
aS'Apr 1, 2010 - The birth of Nigeria was signaled when in 1914 the British colonialists ... In 1956, Shell BP or British Petroleum, which transformed from the Royal Niger Company, ...... google+ twitter facebook linkedin rss feed Mobile Phone Email News Alerts ...'
p4
aS'Apr 1, 2010 - Trading, Lifting, Bunkering of Crude Oil and Petroleum Products, Tanker, Vessels Brokers ( companies) Tubulars & Pipe ... Africa Oil & Gas News. Algeria Oil and ...'
p5
aS'Apr 2, 2010 - Desire Petroleum Plc (AIM:DES) the oil and gas exploration company, wholly focused on the North Falkland Basin, ... MercoPress - South Atlantic News Agency.'
p6
aS'Mar 31, 2010 - LONDON Critics of British Petroleum have told Fox News past cost-cutting by the London-based oil giant helped to contribute to the rig explosion and oil spill ...'
p7
aS"Mar 31, 2010 - News Analysis: Risk Is Clear in Drilling; Payoff Isn't (April 1, 2010) .... Related Searches. Oil (Petroleum) and Gasoline Get E-Mail Alerts  Offshore Exploration ..."
p8
aS'Mar 31, 2010 - Policy|Events|People|Business|Business watch|The week ahead|News maker|Number crunch| ... UK science advice: Science advisers to the British government "should not act to undermine .... King Fahd University of Petroleum & Minerals ...'
p9
aS'Mar 31, 2010 - Daily Kos: We should keep our eye on British Petroleum, re Deepwater Horizon ... A year after the Texas City disaster, BP and Browne were back in the news in ...'
p10
a.