(lp0
S'Apr 22, 2010 - BP today activated an extensive oil spill response in the US Gulf of Mexico following the fire and subsequent sinking of the Transocean Deepwater Horizon drilling rig 130 miles south-east of New Orleans. ... Pre-planned forecasting of 48-hour spill trajectory which indicates spilled ...'
p1
aS'Apr 22, 2010 - Chris Laird of Thibodaux saw a news report about the explosion early ... said David Rainey, a vice president for British Petroleum, which is leasing the rig.'
p2
aS'Apr 21, 2010 - Nightly News | April 21, 2010 ... transocean, was mining for british giant british petroleum , bp and is capable of reaching depths of more than five miles.'
p3
aS'Apr 21, 2010 - BP can learn from other epic corporate mistakes that came before the spill. ... But British Petroleum is drawing the most ire. BP is required to pay for the cleanup, ...'
p4
aS"Apr 22, 2010 - The rig, which was under contract to the oil giant BP, was doing exploratory ... when a catamaran-type drilling barge operated by Pan American Petroleum Corp. ... on the Deepwater Horizon oil rig that exploded in the Gulf of Mexico, read news ..... Princess Margaret claims didn't make it into British TV show about the Queen ..."
p5
aS'Apr 22, 2010 - When the rig caught fire, BP had already finished drilling an 18000-foot ... With the fire doused and the rig submerged, the Coast Guard launched a sweeping effort to clean up petroleum spewed into the ... The British oil giant had discovered an unspecified quantity of oil there and ... Why stocks need more really bad news.'
p6
aS"BP spokesman Darren Beaudo said all BP personnel were safe but he didn't .... we'll use similarly to the petroleum of today -- from otherwise unrelated chemicals. .... British oil giant BP has been using robotic underwater vehicles to try and cap ..."
p7
aS'Apr 22, 2010 - Id. 5. Id. 6. Id. 7. Id.; see also BBC News, Timeline: BP Oil Spill, Sept. 19, 2010 ..... Hayward received "lackluster reviews in the United States and Britain for his ..... Britain\'s lead and created a separate regulator, the National Offshore Petroleum.'
p8
aS'Apr 22, 2010 - Out of 126 employees living and working on the rig leased by British Petroleum, another 17 are reported badly injured. "Based upon reports from crew members ...'
p9
aS'Apr 21, 2010 - BP, formerly British Petroleum, is responsible for financial, physical and economic damages relating to this disaster according to the Oil Pollution Act of 1990 and ...'
p10
a.