(lp0
S'Apr 26, 2010 - Gulf oil rig explosion cleanup news conference planned today at 3 p.m.. Print Email ... The rig is owned by Transocean and leased by British Petroleum. Officials ...'
p1
aS'CNN NEWS was reporting just about 5 minutes ago that the oil was leaking at ..... BP was once known as British Petroleum, but the company changed its name ...'
p2
aS'Apr 25, 2010 - It seems that with each passing moment the news grows more grim coming from ... documents emerged showing British Petroleum downplayed the possibility of ...'
p3
aS'El derrame de petrleo en la plataforma de British Pertroleum, en el Golfo de Mxico, podra ser uno de los ...'
p4
aS"Apr 26, 2010 - L'incendio e il crollo della piattaforma petrolifera della Bp, a 70 chilometri al largo delle coste della Louisiana, nel Golfo del Messico, sta causando un disastro ..."
p5
aS'http://news.bbc.co.uk/2/hi/americas/8643782.stm You have to wonder what ... British oil company BP, which leased the rig, said the "first-of-its-kind" attempt ..... That said, I agree that our use of petroleum-based oil isn\'t going to go away in our ...'
p6
aS'Apr 25, 2010 - petroleum, shipping, and other industries were burgeoning. With its port on the ..... for example, work at Novartis in Switzerland, at BP in Britain, or at a sugar ...'
p7
aS'Apr 26, 2010 - Stock prices are typically driven by financial results, company news and industry .... Examine the return on equity (ROE) for British Petroleum, the slumping ...'
p8
aS'Apr 26, 2010 - Rather than lava, these volcanoes likely spit out petroleum and natural gas, which is made mostly of methane (a greenhouse gas). And now scientists have ...'
p9
aS'Apr 25, 2010 - MEDIA COVERAGE (OVER 100 NEWS STORIES) AND BOOKS (NEARLY 40) ... NIKKEI BP (JAPAN) ARTICLE: Gripe sites are becoming more powerful: 13 Nov 2007 .... Bad Publicity plus British Humour puts Shell on the defensive: April 2012 ... to whom he awarded the licence when he was Nigerian Minister of Petroleum.'
p10
a.