(lp0
S"Apr 29, 2010 - An oil spill caused by last week's deadly explosion on a British Petroleum (BP) ... The April 20 explosion on the BP-contracted rig, Deepwater Horizon, took the ..."
p1
aS'Apr 30, 2010 - BP mobilizes an armada of ships and aircraft to contain the oil slick. ... British Petroleum states a controlled test to burn the leaking oil was successful late ...'
p2
aS'Apr 28, 2010 - As BP defended its handling of the oil spill in the Gulf of Mexico, documents ... News Corp is a network of leading companies in the worlds of diversified media, news, education, and information services. .... Goodrich Petroleum Files for Chapter 11 ... The British oil giant was one of several companies that wrote to the U.S. ...'
p3
aS"Apr 28, 2010 - British petroleum news on DigitalJournal.com. ... British Petroleum's $7.8 billion payout approved by judge. By Can Tran. Just recently, a US District Judge ..."
p4
aS'Apr 29, 2010 - BP CEO Tony Hayward in one well-placed comment tells the world Transocean is responsible for the oil rig explosion and subsequent spill.'
p5
aS'Apr 29, 2010 - An executive for British Petroleum admitted Thursday an oil leak from a sunken rig in the Gulf of Mexico may be larger than the company previously estimated ...'
p6
aS'Apr 29, 2010 - British Petroleum (BP) has broken federal laws and violated its own internal .... Jason Leopold is the author of the Los Angeles Times bestseller, News Junkie, ...'
p7
aS'Apr 29, 2010 - The BP Deepwater Horizon oil spill has now reached the Gulf Coast and will likely eclipse .... British Petroleum, Gulf of Mexico, Problem Resolution, Green News ...'
p8
aS'Apr 30, 2010 - Oil giant BP, which had been leasing the sunken rig, is leading efforts to contain and clean up the 210,000-gallon-a-day spill. .... All clean-up costs will be paid by BP, formerly British Petroleum, which saw its ... Latest news on Saints moves.'
p9
aS'Apr 29, 2010 - And finally, the responsible party, British Petroleum. BP has taken a number of steps, as has been mentioned -- the controlled burns, the skimming, the booming, ...'
p10
a.