(lp0
S'Apr 30, 2010 - British Petroleum (BP) has a 65% ownership stake in a huge underwater oil field in the Gulf of Mexico. BP has partners, both in ownership and in regards to ...'
p1
aS'Apr 30, 2010 - Updated at 11:26 p.m. ET British Petroleum once downplayed the possibility of a catastrophic accident at an offshore rig that exploded, causing the worst U.S. oil ...'
p2
aS'Apr 30, 2010 - MOUTH OF THE MISSISSIPPI RIVER -- British Petroleum downplayed the possibility of a catastrophic accident at an offshore rig that exploded, causing the ...'
p3
aS'Apr 30, 2010 - The petroleum giant operating the Gulf of Mexico oil rig that exploded last week, ... British energy company BP Plc. said it was "unlikely that an accidental surface ...'
p4
aS"Apr 29, 2010 - An oil spill caused by last week's deadly explosion on a British Petroleum (BP) ... The April 20 explosion on the BP-contracted rig, Deepwater Horizon, took the ..."
p5
aS'Apr 30, 2010 - BP mobilizes an armada of ships and aircraft to contain the oil slick. ... British Petroleum states a controlled test to burn the leaking oil was successful late ...'
p6
aS'Apr 29, 2010 - British Petroleum (BP) has broken federal laws and violated its own internal .... Jason Leopold is the author of the Los Angeles Times bestseller, News Junkie, ...'
p7
aS'Apr 30, 2010 - ... offshore Louisiana, Gulf of Mexico, USA, and is owned and operated by British Petroleum (BP).The initial exploration plan for the project was submitted by BP ...'
p8
aS'Apr 30, 2010 - The massive Gulf of Mexico oil spill means large financial costs for BP  and ... since the start of last week, just before news of the April 20 explosion began emerging: ... in a new light: "beyond petroleum," rather than the old British Petroleum.'
p9
aS'Apr 30, 2010 - BP faces biggest oil company public relations challenge since Exxon Valdez ... In this Oct. 25, 2007 file photo, the BP (British Petroleum) logo is seen at a gas ...'
p10
a.