(lp0
S'Apr 7, 2010 - This was also job one on the wish list of the new British government headed by ... The following year the oil company, now renamed British Petroleum (BP), ...'
p1
aS'Apr 7, 2010 - The pipeline is owned by Cypress Pipe Line Company, which is a joint venture between British Petroleum and Chevron Pipeline Co. The Coast Guard is ...'
p2
aS"Apr 7, 2010 - Phillips Petroleum Co. ... seismic data acquisition unit in Foinaven field west of Britain's Shetland Islands. .... BP said its Foinaven field project will be the world's first use of permanent seismic ... International news for oil and gas professionals ..."
p3
aS'Apr 6, 2010 - ... Asian country that borders Afghanistan to the northwest, is rarely in our news. .... Several other countries with troops in Afghanistan  notably Britain, France, .... Bank, Inter-American Development Bank, British Petroleum, Petro-Canada).'
p4
aS"Apr 7, 2010 - Our correspondent says news of Mr Barkindo's sacking from the inefficient Nigerian National Petroleum Corporation (NNPC) took the country by surprise and will ..."
p5
aS'Apr 6, 2010 - News and information on Royal Dutch Shell Plc. .... NIKKEI BP (JAPAN) ARTICLE: Gripe sites are becoming more powerful: 13 Nov 2007 .... April Fool - Bad Publicity plus British Humour puts Shell on the defensive: April 2012 ... that Shell knew that the ultimate beneficiary was Dan Etete, the former minister of petroleum.'
p6
aS'Apr 6, 2010 - A decade later, the British-born engineer adds a new title to her rsum - "pipeline pioneer." ... But the Weyburn project, developed by PanCanadian Petroleum Ltd. (later .... News. Woman pleads not guilty to live-streaming friend\'s rape ...'
p7
aS'Apr 7, 2010 - Get News Alerts More Headlines  Triangle Petroleum Announces the Hiring of Advisors and Changes to Leadership Team PR ... BP Earnings Hit by Oil Rout.'
p8
aS'Apr 6, 2010 - LILITH NEWS. American, Canadian & International News Commentary: Spreading Freedom in the Face of Tyranny ...... British Petroleum may go bankrupt'
p9
aS"Apr 7, 2010 - Oil is traded in dollars, meaning imports of crude cost more for British petrol suppliers. ... What will happen when demand for petroleum returns strongly in the West? ... BP's agreement with Anadarko is a good compromise ..... The rise in petrol prices is fantastic news for those of us with oil price linked investments, long may it ..."
p10
a.