(lp0
S"Apr 9, 2010 - News  Business  Business Analysis & Features ... Britain's onshore hydrocarbons industry is a tiddler compared with its massive ... in the UK, according to Graham Sadler, the managing director of petroleum services at Deloitte. ... The BP facility at Wytch Farm also processes oil trucked from two small fields at nearby ..."
p1
aS'Apr 9, 2010 - If the former chief executive of BP, once widely acknowledged as the greatest ... who had sold the story of their four-year relationship to a newspaper. ... controversial rebranding of BP, from British Petroleum to Beyond Petroleum - starts with a ...'
p2
aS'Apr 8, 2010 - Environment News Service latest environmental news, global warming, water, food, ... CPL, a joint venture between British Petroleum and Chevron Pipe Line ...'
p3
aS"Apr 9, 2010 - MailOnline US - news, sport, celebrity, science and health stories .... But if oil companies get their way, it could soon become the heart of Britain's booming oil industry. ... Since then, the BP-owned 'nodding donkey' oil pump - hidden in the forest ... higher North Sea petroleum province but as working the North Sea becomes ..."
p4
aS"Apr 9, 2010 - Previously, she was a manager in British Petroleum's strategy and M&A group, and was a management consultant with Bain & Company. Ms. Simmons earned a ..."
p5
aS'Apr 9, 2010 - Her father is a doctor, her mother and sister are nurses, one brother is completing his residency and another brother who works for British Petroleum. "I have had ...'
p6
aS'Apr 8, 2010 - The discoveries were made on blocks previously held under risk contracts by British Petroleum Co. plc and a .... International news for oil and gas professionals ...'
p7
aS"Apr 9, 2010 - DOW JONES, A NEWS CORP COMPANY .... Tosco Corp. into the nation's largest independent refiner before selling it to Phillips Petroleum, now ConocoPhillips, ..."
p8
aS'Apr 8, 2010 - Mr. Kanter served as Head of Country, British Petroleum ("BP") Indonesia since 2008. Mr. Kanter oversees all BP business and is responsible for integrating all ...'
p9
aS"Apr 9, 2010 - The amount of offshore drilling for oil and gas on the Britain's Continental Shelf ... US and Australian funds join BP rebellion on oil sands. 09 Apr 2010. Graham Sadler, managing director at Deloitte's Petroleum Services Group, .... Retail News."
p10
a.