(lp0
S'UPDATE: the pipe diameter is 20" (almost two feet) - gives you a sense of scale. The Deepwater Horizon ...'
p1
aS'May 11, 2010 - BP Reveals It Knew About Explosion Risk at the Deepwater Horizon Oil Rig Before. ... Deepwater Horizon British Petroleum BP Rig Explosion Gulf of Mexico Ocean Oil ... News  IKEA launches indoor garden that can grow food all year-round.'
p2
aS'May 12, 2010 - The U.S. Coast Guard working in partnership with BP PLC, local residents, and other ... shut down but have been hired by British Petroleum (BP) to lay oil booms in sensitive areas. ... (AP Photo/The Dallas Morning News, Vernon Bryant) #. 25.'
p3
aS'May 11, 2010 - British Petroleum (BP), the main company leasing the oil rig, is in charge of the clean up, but the on-going efforts to control its possible spread towards the U.S. ...'
p4
aS'May 12, 2010 - BP knew of problems with an offshore well hours before it exploded last month, spilling millions of gallons of oil into the Gulf of Mexico, a House committee ...'
p5
aS'May 11, 2010 - BP and the contractor that carried out drilling for the oil company in the Gulf of Mexico have ... attempted to deflect adverse publicity from the British oil company by setting out the lengths to ... Meanwhile, Professor F. E. Beck, a petroleum engineering specialist, said it appeared that .... Catch up on all the latest football news.'
p6
aS'May 12, 2010 - In addition, an oil industry whistleblower told Huffington Post that BP had been ... to the editor of the Anchorage Daily News to condemn the firm for incorporating ...'
p7
aS'May 12, 2010 - This image released by BP shows the main oil leak of the Deepwater Horizon rig which exploded April 20 and killed 11 workers. ... Photo: British Petroleum.'
p8
aS'May 11, 2010 - By Sara Israelsen-Hartley, Deseret News ... Stuart Johnson, Deseret News ... British Petroleum was drilling 5,000 feet off the coast of New Orleans  where ...'
p9
aS'May 11, 2010 - Nonetheless, British Petroleum gets even more negative ratings for its ... Those following news about the growing oil slick very closely also are more likely to see ...'
p10
a.