(lp0
S'UPDATE: the pipe diameter is 20" (almost two feet) - gives you a sense of scale. The Deepwater Horizon ...'
p1
aS"May 13, 2010 - Ronald Schupp protests against British Petroleum near the company's offices May 12, 2010 in ... BP... Get premium, high resolution news photos at Getty Images."
p2
aS"May 13, 2010 - ... oil leak,... Get premium, high resolution news photos at Getty Images. ... Bill Massey protests against British Petroleum (BP) near the company's offices May 12,."
p3
aS'May 12, 2010 - The U.S. Coast Guard working in partnership with BP PLC, local residents, and other ... shut down but have been hired by British Petroleum (BP) to lay oil booms in sensitive areas. ... (AP Photo/The Dallas Morning News, Vernon Bryant) #. 25.'
p4
aS'May 12, 2010 - In addition, an oil industry whistleblower told Huffington Post that BP had been ... to the editor of the Anchorage Daily News to condemn the firm for incorporating ...'
p5
aS'May 13, 2010 - BP boss Tony Hayward admits early mistakes in Deepwater Horizon Gulf oil spill disaster and ... BP boss admits job on the line over Gulf oil spill .... More news ...'
p6
aS'May 13, 2010 - BP moved hand in hand with the British government. ... re-baptized itself as BP or British Petroleum] had a monopoly over this source of wealth, ... News; Themes.'
p7
aS'May 12, 2010 - BP knew of problems with an offshore well hours before it exploded last month, spilling millions of gallons of oil into the Gulf of Mexico, a House committee ...'
p8
aS"May 13, 2010 - Gulf of Mexico oil spill: James Cameron offers private submarines to help BP clean-up ... World News  ... A worker of Gujarat State Petroleum Corporation checks oil flow of well PK-2 during ... From a rare pair of Gucci shoes, to spending 110,000 releasing an album, Britain's wealthiest are pulling out all the stops ..."
p9
aS'May 12, 2010 - This image released by BP shows the main oil leak of the Deepwater Horizon rig which exploded April 20 and killed 11 workers. ... Photo: British Petroleum.'
p10
a.