(lp0
S"May 19, 2010 - ... Insult One logo that wasn't anywhere near the commercial: British Petroleum's. ... CEO of BP, for answering our call for help and delivering the good news that ..."
p1
aS'May 17, 2010 - BP oil spill, distaster, president, gulf coast, oil, sea. ... NEWS ARCHIVE ... The energy company British Petroleum (BP), has inserted a tube into a well that has ...'
p2
aS"May 19, 2010 - BP, the company in charge of the rig that exploded last month in the Gulf of Mexico, hasn't publicly divulged the results of tests on the extent of workers' exposure ..."
p3
aS"May 18, 2010 - BP is now plugging around a fifth of its leaking well in the Gulf of Mexico, but its ... The vulnerable oil price will be bad news for BP, which is already facing up ... A worker of Gujarat State Petroleum Corporation checks oil flow of well PK-2 during ... 110,000 releasing an album, Britain's wealthiest are pulling out all the stops ..."
p4
aS'May 18, 2010 - Gulf of Mexico oil slick from disastrous BP leak wading closer to East Coast ... Meanwhile, British Petroleum said it had finally managed to start siphoning some ...'
p5
aS'May 17, 2010 - Video on NBCNews.com: More than a year before the Deepwater Horizon oil rig exploded in the Gulf, a veteran oil industry manager began sounding the alarm ...'
p6
aS'May 18, 2010 - The huge oil slick off the Louisiana began April 20 when the Deepwater Horizon oil rig operated by British Petroleum exploded and later sank. The devastating ...'
p7
aS"May 18, 2010 - BP's limited success at squirting some oil to a ship on the surface did not ... The only good news was that now the federal government is allowing transit of .... up the tragedy British Petroleum has created, please watch the video animation:"
p8
aS'May 17, 2010 - News & Events ... Goldman Sachs subsidiary J. Aron & Co. and British Petroleum subsidiary BP Oil Supply Company conspired with SemGroup to defraud them ...'
p9
aS'May 17, 2010 - There is no viable solution insight for the out of control oil gusher in the Gulf of Mexico. The stunning failure of British Petroleum (BP) raises the question - are ...'
p10
a.