(lp0
S"May 19, 2010 - British Petroleum - desperate for ideas - gave the okay to test six of Costner's gizmos this week, said BP Chief Operating Officer Doug Suttles. Costner's ..."
p1
aS"May 19, 2010 - ... Insult One logo that wasn't anywhere near the commercial: British Petroleum's. ... CEO of BP, for answering our call for help and delivering the good news that ..."
p2
aS"May 20, 2010 - The British Petroleum drilling rig that exploded and sank 40 miles off shore, killing eleven workers, .... Previous post: PCG News: What's a Reputation Worth?"
p3
aS"May 19, 2010 - BP, the company in charge of the rig that exploded last month in the Gulf of Mexico, hasn't publicly divulged the results of tests on the extent of workers' exposure ..."
p4
aS"May 18, 2010 - BP is now plugging around a fifth of its leaking well in the Gulf of Mexico, but its ... The vulnerable oil price will be bad news for BP, which is already facing up ... A worker of Gujarat State Petroleum Corporation checks oil flow of well PK-2 during ... 110,000 releasing an album, Britain's wealthiest are pulling out all the stops ..."
p5
aS"May 19, 2010 - BP received some rare good news on Wednesday, after the US Coastguard ... A worker of Gujarat State Petroleum Corporation checks oil flow of well PK-2 during ... 110,000 releasing an album, Britain's wealthiest are pulling out all the stops ..."
p6
aS"May 19, 2010 - The comments from the Obama administration anticipated similar claims put forward by BP CEO Anthony Hayward. On Tuesday Hayward told Britain's SkyNews, ..."
p7
aS"May 18, 2010 - BP's limited success at squirting some oil to a ship on the surface did not ... The only good news was that now the federal government is allowing transit of .... up the tragedy British Petroleum has created, please watch the video animation:"
p8
aS'May 18, 2010 - The huge oil slick off the Louisiana began April 20 when the Deepwater Horizon oil rig operated by British Petroleum exploded and later sank. The devastating ...'
p9
aS'May 18, 2010 - 05.28.10 | SPEARS ISSUES POSITION ON BP OIL SPILL The April 22, 2010 British Petroleum (BP) Oil Spill was the result of a series of failures at BP and within ...'
p10
a.