(lp0
S'May 24, 2010 - British Petroleum  BP  has set up an aggressive public relations effort in the wake of the Deep Horizon disaster, including a Facebook page and Twitter ...'
p1
aS"May 24, 2010 - Nearly a month after the Gulf of Mexico began to be flooded by oil, British Petroleum insists it is ... BP: 'We are doing everything we can' to stop oil spilling into Gulf of Mexico ... Related News: Frustration mounts as oil seeps into Gulf wetlands."
p2
aS"May 24, 2010 - It's Saturday, May 22nd, a month into the BP spill, and I've been trying to get to Elmer's .... Have you read a newspaper/magazine/website in the past few weeks?"
p3
aS'May 24, 2010 - The government piled pressure on BP Plc on Monday to clean up a "massive environmental ... Allen said at a White House news conference. ... The White House has repeatedly said it is the British energy giant\'s responsibility to ... Codepink activists stage a demonstration calling for British Petroleum to clean up the Gulf of ...'
p4
aS'May 24, 2010 - British Petroleum has been steamrolling both the federal government and the ... CBS News tried to reach the beach, covered in oil, a boat of BP contractors with ...'
p5
aS'May 24, 2010 - Mike Yeager  chief executive of BHP Billiton Petroleum  is reported to have ... "Atlantis and Mad Dog [oil fields] are operated by BP and the concern is that ... british currency sterling pound coins piled ... Catch up on all the latest football news.'
p6
aS"May 23, 2010 - It's not British Petroleum. BP is ... In a McClatchy News article by Marisa Taylor, Renee Schoof and Erika Bolstad, they explain the nuance of this utter failure. BP ..."
p7
aS'May 24, 2010 - Oil containment boom placed to protect marshes from BP oil spill ... the Gulf of Mexico is now being captured and the British Petroleum (BP) will restore the gulf ...'
p8
aS"May 24, 2010 - New BP Theme Park SuperPetrolFunland: The Oiliest Place on Earth! ... British Petroleum's first attempt to enter the amusement park arena was the unsuccessful HappyPetrolGoodTimePlace, which was ... Part of HuffPost on HPMG News."
p9
aS"May 24, 2010 - On Sunday's Fox News Sunday, Fox News contributor Sarah Palin ludicrously attempted to tie BP to the Obama administration by suggesting that President ..."
p10
a.