(lp0
S'May 25, 2010 - CBS News Poll analysis by the CBS News Polling Unit: Sarah Dutton, ... Only 18 percent of those polled said they approved of how British Petroleum PLC, which ...'
p1
aS'May 26, 2010 - A shocking memo has revealed that British Petroleum admitted to congressional investigators that their decision to ignore warning signs hours before an oil rig ...'
p2
aS'May 26, 2010 - British Petroleum started critical testing Tuesday of its "top kill" plan to cork the Gulf of Mexico oil spill amid pressure from President Obama to "plug the damn ...'
p3
aS"May 25, 2010 - As if BP didn't have enough to worry about, a new Twitter account making fun of the company's oil spill public relations efforts has gained popularity online."
p4
aS'May 25, 2010 - British Petroleum has been steamrolling both the federal government and the press over this oil catastrophe in the Gulf. For starters, the U.S. Coast Guard is now ...'
p5
aS'May 25, 2010 - A document obtained by The Daily Beast shows that BP, in a previous fatal disaster, increased worker risk ... And British Petroleum. .... Rick Outzen is publisher and editor of Independent News, the alternative newsweekly for Northwest Florida.'
p6
aS'May 26, 2010 - The next few days will be crucial for BP and the wider world, says George Trefgarne. ... Log on to US news sites such as the Huffington Post and you will see the ... deliberately uses the words "British Petroleum", even though the company ...'
p7
aS'May 26, 2010 - This image made from video released by British Petroleum (BP PLC) shows equipment being ... "The longer it goes, maybe the better news that is," Beck said.'
p8
aS'May 25, 2010 - A fake BP Twitter account tweeting its "public relations" response to the oil spill now ... Craig Kanalley Senior Editor, Big News & Live Events, The Huffington Post.'
p9
aS"May 25, 2010 - The oil gushing from BP's Deepwater Horizon rig directly imperils 32 threatened or endangered species such as the sperm whale, gulf sturgeon, manatee and ..."
p10
a.