(lp0
S'May 27, 2010 - As the nation comes to grips with the worst oil disaster in its history, there is evidence BP has one of the worst safety track records of any major oil company ...'
p1
aS"May 27, 2010 - BP's Profits Far Outweigh The Cost Of Cleaning Up Gulf Oil Spill (VIDEO). 05/27/2010 12:18 pm ... The cost per day of the oil spill to BP so far has been $16 million. That number is dwarfed ... All rights reserved. Part of HuffPost on HPMG News."
p2
aS'May 27, 2010 - ... places a call to a lawyer for a defendant in the British Petroleum-Deepwater Horizon rig ... quickly and accurately delivers business and financial information, news and insight ..... Becnel has plenty of competition in the BP litigation stakes.'
p3
aS'May 28, 2010 - BP has moved closer to plugging its leaking well in the Gulf of Mexico, but its shares ... This image made from video released by British Petroleum (BP PLC) early Friday morning .... Going to follow this everyday until it stops being current news.'
p4
aS'May 27, 2010 - Thunder Horse oil field is a large offshore deepwater oil field in the Gulf of Mexico, around 150 ... Originally called Crazy Horse, BP changed the name out of respect to descendants of the Native American warrior of the ... Petroleum News.'
p5
aS"May 28, 2010 - Dealing with the worst oil disaster in U.S. history could be BP Plc's (BP. ... with experts who have investigated and dealt with British Petroleum in other disasters."
p6
aS'May 28, 2010 - ... the 30 acres figure British Petroleum reports has been affected with crude oil is ... consideration in the newspaper, send comments to letters@usatoday.com.'
p7
aS'May 28, 2010 - Associated Press This image made from video released by British Petroleum (BP PLC) ... settings," though BP\'s CEO talked about it on the morning news shows.'
p8
aS'May 28, 2010 - Much has been said about the disastrous BP oil spill in New Orleans. If we use the theory of probability and reliability then have too many different companies ...'
p9
aS'May 28, 2010 - british-petroleum.jpg EPA/CHRISTOPHER BERKEYA new British Petroleum oil relief drilling platform sits in a slick of oil almost a mile above the broken and ...'
p10
a.