(lp0
S'May 3, 2010 - Back in July, 2000, British Petroleum launched a high-profile, $200 million public ... like failed vice presidential candidate-turned-Fox News commentator Sarah ...'
p1
aS'May 3, 2010 - Browne tried to re-brand BP as "Beyond Petroleum," but you can\'t help but think that "Bad Planning" might be more appropriate. Other people have suggested ...'
p2
aS'May 3, 2010 - BP, the oil giant operating the drilling rig that blew up and created a massive oil ... According to federal law, BP is automatically required to pay for much of the da... ... The bad news for Halliburton is that a number of experts think the accident ...'
p3
aS'May 3, 2010 - "Our job is basically to keep the boot on the neck of British Petroleum," ... "British Petroleum needs to get the spill stopped," Napolitano said on "FOX News ...'
p4
aS"May 3, 2010 - The Right Conservative News Site | Right Side News ... Maybe it's just me, but I find the devastating explosion of a BP oil rig, and resulting oil spill, .... Remember all of those green energy commercials British Petroleum was airing last year ..."
p5
aS'May 2, 2010 - The oil major BP spends aggressively to influence US regulatory insight, and many would argue this has bought it leniency. ... Breaking news .... 1. isn?t British Petroleum still under probation for its felony conviction in the Texas City oil refinery ...'
p6
aS"May 2, 2010 - If you Google 'British Petroleum cited violations' you get 192,000 hits. One of the most revealing is MMS Records Show BP Has Previous Deepwater Violations ..."
p7
aS'May 2, 2010 - The U.S. government will keepa "boot on the neck" of BP Plc, as it responds to a huge ... "Our job basically is to keep the boot on the neck of British Petroleum to carry out ... Thomson Reuters is the world\'s largest international multimedia news ...'
p8
aS'May 2, 2010 - News ... Out of work fishermen hired by BP PLC and crew boat workers lay oil booms in preparation for the looming oil spill from ... Eric Dixon, a contracted safety manager for British Petroleum, enlists out of work fishermen to be hired to lay oil ...'
p9
aS"May 3, 2010 - On the day he got news that the Deepwater Horizon drilling rig caught fire in the ... BP will pay 65 percent of these costs; its lease partners Anadarko Petroleum ... a brilliant deal maker and a friend of British Prime Minister Tony Blair's, but BP ..."
p10
a.