(lp0
S'May 3, 2010 - Back in July, 2000, British Petroleum launched a high-profile, $200 million public ... like failed vice presidential candidate-turned-Fox News commentator Sarah ...'
p1
aS'May 3, 2010 - Browne tried to re-brand BP as "Beyond Petroleum," but you can\'t help but think that "Bad Planning" might be more appropriate. Other people have suggested ...'
p2
aS'May 3, 2010 - BP, the oil giant operating the drilling rig that blew up and created a massive oil ... According to federal law, BP is automatically required to pay for much of the da... ... The bad news for Halliburton is that a number of experts think the accident ...'
p3
aS'May 3, 2010 - "Our job is basically to keep the boot on the neck of British Petroleum," ... "British Petroleum needs to get the spill stopped," Napolitano said on "FOX News ...'
p4
aS"May 3, 2010 - The Right Conservative News Site | Right Side News ... Maybe it's just me, but I find the devastating explosion of a BP oil rig, and resulting oil spill, .... Remember all of those green energy commercials British Petroleum was airing last year ..."
p5
aS'May 4, 2010 - Epic, BP. Reuters, BP..L. Google Finance, LON:BP. Share price (p), 0.00. Previous share price (p), 368.60. Shares in issue (m) ... BP: Recent Company News ...'
p6
aS"May 4, 2010 - BP's belching oil well in the Gulf of Mexico comes at the worst possible time and ... up the tragedy British Petroleum has created, please watch the video animation: .... epidemics, or catastrophes are ever as bad as the sensational news stories."
p7
aS'May 4, 2010 - The Deepwater Horizon oil rig, operated by British Petroleum, exploded April 20 and sank more than 50 miles ... FULL COVERAGE: Latest news from Gulf Coast ...'
p8
aS'May 4, 2010 - Changing its name from British Petroleum to BP, the company adopted a new .... In fact, the newspaper reported "last year, the same platform that has now sunk ...'
p9
aS'May 4, 2010 - BP (British Petroleum) already faces class action lawsuits related to the Gulf of .... Deepwater Horizon oil spill may have fallen away from the news headlines, but ...'
p10
a.