(lp0
S'May 5, 2010 - BP made its name synonymous with Beyond Petroleum in 2000, rebranding itself as a company that sees a future past dependence on fossil fuels. ... And as the Gulf of Mexico oil spill emphasizes only too well, there are serious environmental and human concerns when it comes to ...'
p1
aS"May 5, 2010 - We'll also be updating this space as news develops. Tuesday, April 20 News broke that an explosion occurred at 11 p.m. EST on BP's Deepwater Horizon oil rig ..."
p2
aS'May 5, 2010 - Its "Beyond Petroleum" rebranding campaign, first launched in 2000, earned .... Facebook\'s Latest Algorithm Tweak Could Be Good News for Serious Journalism.'
p3
aS'May 6, 2010 - The Deepwater Horizon oil spill in the Gulf of Mexico has created a run on the stock of BP (BP), wiping $40 billion off its market value. The plunge seems ...'
p4
aS"May 6, 2010 - Sarah Palin has fuelled growing anti-British sentiment over the Gulf of ... You're kidding me this is making news in the UK! ... For all you limey douchebags poodling up to beyond petroleum, how many of your own has bp killed in its british ..."
p5
aS"May 5, 2010 - The British oil company BP produced the largest oil spill ever on Alaska's North ... running TV ads highlighting its efforts to move beyond petroleum, and its executives ... Email Newsletter Signup Custom-curated news highlights, delivered ..."
p6
aS'May 6, 2010 - Network News ... The president dubbed it "the BP oil spill," after the company (formerly British Petroleum) that leased the now-damaged drilling platform.'
p7
aS'May 5, 2010 - The Interior Department exempted BP\'s calamitous Gulf of Mexico drilling ... Network News. X Profile .... "The agency\'s oversight role has devolved to little more than rubber-stamping British Petroleum\'s self-serving drilling plans," Suckling said.'
p8
aS'May 5, 2010 - While the BP oil geyser pumps millions of gallons of petroleum into the Gulf of Mexico, President Barack Obama and members of Congress may have to answer ...'
p9
aS"May 5, 2010 - BP's dividend yield, history, payout ratio, proprietary DARS rating & much more! ... Growth; Dividend History; Company Profile; Investor Resources; Read Next; Read BP News ..... BP PLC (BP) is a British multinational oil and gas company."
p10
a.