(lp0
S"May 7, 2010 - An Alaskan pipeline burst, a fatal refinery explosion and now a 210,000-gallon-a-day oil leak in the Gulf of Mexico. And there's BP, right smack dab in the middle ..."
p1
aS'May 6, 2010 - The Deepwater Horizon oil spill in the Gulf of Mexico has created a run on the stock of BP (BP), wiping $40 billion off its market value. The plunge seems ...'
p2
aS"May 7, 2010 - From a PR perspective, if there is one, nothing British Petroleum can say or do ... We here at Everything PR News will not even talk about the what ifs of BP's ..."
p3
aS"May 6, 2010 - Sarah Palin has fuelled growing anti-British sentiment over the Gulf of Mexico oil ... You're kidding me this is making news in the UK! .... BP ceased to be British Petroleum several years ago, I think about the time that they merged with Amoco."
p4
aS'May 6, 2010 - Network News ... The president dubbed it "the BP oil spill," after the company (formerly British Petroleum) that leased the now-damaged drilling platform.'
p5
aS'May 6, 2010 - BP takes a step toward sealing oil leak in gulf ... At a news conference, Suttles and other officials tried to manage expectations, noting that such a recovery ...'
p6
aS'May 6, 2010 - History of BP Includes Role in 1953 Iran Coup After Nationalization of Oil ... This is viewer supported news ... AMY GOODMAN: Called British Petroleum?'
p7
aS"May 7, 2010 - Branding is all about creating alignment of your company's business processes with its corporate culture. British Petroleum (BP) provides a case in point of a ..."
p8
aS'May 6, 2010 - This is no longer hot news, but a number of outlets have reported on how intentionally weak regulation created the conditions in which the disastrous British ...'
p9
aS'May 6, 2010 - The Deepwater Horizon oil spill in the Gulf of Mexico continued spreading May 6. British Petroleum and U.S. federal agencies are continuing with their ...'
p10
a.