(lp0
S'Jun 9, 2010 - By Richard Anderson Business reporter, BBC News ... It began life as the Anglo Persian Oil Company in 1909, before becoming British Petroleum in 1954.'
p1
aS'Jun 9, 2010 - BP (formerly known as "British Petroleum") is a global oil, gas and chemical company ... On June 11, News anchor Scott Walker a reporter for the television news ...'
p2
aS'Jun 10, 2010 - He added that "constructive solutions" were needed, emphasising that people "remember the economic value BP brings to people in Britain and America".'
p3
aS"Jun 10, 2010 - Before the accident on April 20, BP was Britain's biggest company, with a ... Obama, who insists on referring to BP by its former name British Petroleum, .... It just that the market was willing to ignore it until this SPILL showed up on the 24 news ..."
p4
aS'Jun 9, 2010 - Barack Obama has been accused of holding "his boot on the throat" of British pensioners after his ... In the past week, Mr Obama, who insists on referring to BP by its former name British Petroleum, has suggested that its .... Top news galleries ...'
p5
aS'Jun 9, 2010 - U.S. Audit: BP Violated Sanctions, Sold Oil To Iran ... Mossadegh, Bp, BP Iran, BP History, British Petroleum, BP Oil Spill, Mohammed Mossadegh, Green News ...'
p6
aS"Jun 9, 2010 - BP is self-insured, which is another way of saying it isn't insured at all except ... in the worlds of diversified media, news, education, and information services."
p7
aS'Jun 11, 2010 - I feel poetry takes an edge off the hurt of bad news while still delivering it but in a, ... Oil Spill Eater II Testing of OSE II by Dr. Tsao of British Petroleum BioChem ...'
p8
aS'Jun 9, 2010 - Professor Peter Lutz is listed in BP\'s 2009 response plan for a Gulf of Mexico oil spill as a national wildlife expert. He died in 2005. Under the heading "sensitive ...'
p9
aS"Jun 9, 2010 - BP can't control its oil leak, and it's also having a rough time with image control. ... campaigns in earnest until one month after news of the spill broke, says David Binkowski, ... Hayward  whose British accent doesn't seem to pacify Americans as such an accent ... Advertising  bp  british petroleum  gulf of mexico  oil spill."
p10
a.