(lp0
S'Jun 1, 2010 - Fears that BP cannot contain oil spill wipe $23 BILLION off company\'s value ... after pouring mock oil over themselves outside a BP (British Petroleum) gas ... "Although we believe that the market has overreacted to the bad news, we feel that ...'
p1
aS'Jun 1, 2010 - But at times, BP\'s response has made the situation worse. ... and the company is not an environmental organisation, despite attempts to rebrand it as "Beyond Petroleum". ... 2016 Guardian News and Media Limited or its affiliated companies.'
p2
aS'May 31, 2010 - Comment about the BP Deepwater Horizon oil spill in the Gulf of Mexico and ... industry was shut down, and pictures of blackened beaches filled the news.'
p3
aS'Jun 1, 2010 - British Petroleum CEO Tony Hayward apologized to the Gulf Coast residents on ... a personal story during a news conference on the spill, USA TODAY reports.'
p4
aS'May 31, 2010 - When Americans learned at the weekend that British Petroleum (BP) - which drilled the hole in the seabed nearly two kilometres under the sea - had attempted ...'
p5
aS'May 31, 2010 - Mother of all gushers - BP Oil Disaster in Gulf of Mexico - A Timeline ... under contract to British Petroleum Plc. Almost immediately a federal lawsuit was filed on behalf ... Saturday, 1st May - Natural News reports that nearly 50% of the seafood ...'
p6
aS"May 31, 2010 - This image made from video released by British Petroleum (BP PLC) early ... More than a month after the BP PLC spill began, the disaster's dimensions have ..."
p7
aS'May 31, 2010 - BP provides the energy that keeps America moving and helps drive the U.S. economy.'
p8
aS"Jun 1, 2010 - The newest update is that British Petroleum's 'top kill' (animation, description from engineers) and 'junk shot' will join 'top hat' in the list of failed."
p9
aS'Jun 1, 2010 - Once again, the efforts by British Petroleum to bring to an end the disastrous oil spill from the ... MailOnline US - news, sport, celebrity, science and health stories.'
p10
a.