(lp0
S'Jun 21, 2010 - To the British press, the BP chief executive was a defenceless scapegoat at his Congressional hearing on Thursday. .... but expect us to tolerate Obama spitting out the words "British Petroleum" in ...... RECOMMENDED IN NEWS BLOGS.'
p1
aS'Jun 22, 2010 - In 2007, a British Petroleum refinery in Indiana was allowed to continue to dump .... to the corporate office, to the big people," the BP operator told 11 News.'
p2
aS'Jun 21, 2010 - The British oil giant released its latest tally of response costs Monday, including ... BP owned 65 percent of the well, while Anadarko Petroleum Corp. had 25 ...'
p3
aS'BP Oil Worth $100 Trillion The Ruptured Oil Barrel Forum - Vandalism & Eco ... in the mainstream news which have suggested that BP is shortly headed into ... Totaling one and a quarter trillion barrels of petroleum waiting to be sucked out of ...'
p4
aS"Jun 22, 2010 - British Petroleum stopped its shipments to Iran after deciding that the company's ... market, a news release from the Foundation for the Defense of Democracies ..."
p5
aS"Jun 22, 2010 - Get TheStreet Quant Ratings' exclusive 5-page report for (BP) - FREE. ... casings or cement bond logs that have made petroleum engineers of us all, ... is under the watchful eye of companies unlike that reckless British operator. ... Access to Jim Cramer's daily blog; Intraday commentary and news; Real-time trading forums."
p6
aS"Jun 22, 2010 - But British Petroleum didn't give up on trying to subvert and avoid the decisions ... Here is a news report from 1978 where Frank Bough explains the very devious ..."
p7
aS'Jun 21, 2010 - The crisis in the Gulf keeps getting worse. And as senior management at BP struggles to find the solution to the daily discharging of thousands of gallons of oil, ...'
p8
aS"Jun 21, 2010 - BP knew about faulty equipment weeks before explosion, says employee Tyrone Benton ... Professor Tad Patzek, a petroleum expert at the University of Texas, told the British news agency that the Benton's discovery should not have"
p9
aS'Jun 23, 2010 - British Petroleum Planet Bungler. ... British Petroleum Planet Bungler. Rex USA. 519881700-gthmb. Next Gallery: Presidential candidates take on New York.'
p10
a.