(lp0
S'Jun 28, 2010 - Goldman Sachs and BP stand to make trillions through cap and trade. ... News XML ... Some have called "BP" (aka British Petroleum, or "Beyond Petroleum") ...'
p1
aS"Jun 28, 2010 - With all the news these days about the oil spill, one has to wonder if BP will find a way out of the hole that they dug themselves into. It' s difficult."
p2
aS"Jun 28, 2010 - Follow our step-by-step timeline of the BP oil spill, from the construction of ... White House leak reveals Barack Obama's reaction to news of oil spill ... One of BP's partners, Anadarko Petroleum, refuses to accept any responsibility for the ... from 171 artists, critics and writers complaining about BP's sponsorship of Tate Britain."
p3
aS"Jun 28, 2010 - They are a British petroleum outfit, so how come the king and queen of ... I haven't seen anything about them on CNN or FOX, both international and regular news."
p4
aS"Jun 27, 2010 - Brent Coon: tough-talking lawyer going after BP on his Harley ... with lots of other Gulf offices, Coon's big trial law firm will soon go after British Petroleum again."
p5
aS"Jun 27, 2010 - Sign Up For Breaking News Alerts ... Disaster_Accident  Business_Finance  Politics  Steven E. Koonin  British Petroleum ... But because of Mr. Koonin's extensive ties to BP, he can't have anything to do with the most pressing .... a person with actual petroleum industry EXPERIENCE is hired by the Department of Energy?"
p6
aS'Jun 27, 2010 - ... boycotts mostly hurt independently owned businesses, not the British oil giant. ... Station owners and BP gas distributors told BP officials last week they need a break on ... Jim Smith, president and CEO of the Florida Petroleum Marketers & Convenience Store Association, said BP has given .... Your Regional News Pages.'
p7
aS'Jun 29, 2010 - What BP had initially claimed would be a spill with minimal impact, 69 days later now constitutes the largest offshore oil spill in U.S. history. Today the well is ...'
p8
aS'Jun 29, 2010 - News, Links of the Day, Coming Third World War, BP Gulf Oil Disaster, BioWar, ... by one of the biggest Illuminati companies on the planet - British Petroleum.'
p9
aS"Jun 28, 2010 - Photograph: Farah Nayeri/ Bloomberg News. ... This year's summer party at Tate Britain celebrates two decades of BP ... I'd much rather the money be in the hands of the arts than a petroleum company, I can tell you that, Rhodes said."
p10
a.