(lp0
S"Jun 2, 2010 - Boycotts of BP filling stations are popping up all over the country amid the growing frustration over the company's failed efforts to stop a massive oil leak in the ..."
p1
aS"Jun 2, 2010 - BP market plunge wipes billions off UK pension funds as shares in oil giant ... investments and its share fall will inevitably leave Britain's pensioners poorer. ... The news came as the U.S. government launched a criminal probe into the oil spill."
p2
aS'Jun 2, 2010 - Another 2.4bn was wiped off the value of BP when trading began in London ... BP Chief Executive Tony Hayward listens during a news conference in London.'
p3
aS"Jun 2, 2010 - Branding is all about creating alignment of your company's business processes with its corporate culture. British Petroleum (BP) provides a case in point of a ..."
p4
aS'Jun 1, 2010 - Fears that BP cannot contain oil spill wipe $23 BILLION off company\'s value ... after pouring mock oil over themselves outside a BP (British Petroleum) gas ... "Although we believe that the market has overreacted to the bad news, we feel that ...'
p5
aS'Jun 2, 2010 - BP failures mounting as Gulf oil spill worsens, oil giant struggles to find a solution. BY Sean Alfano. DAILY NEWS STAFF WRITER. Wednesday ... British Petroleum is now working on its "cut and cap" solution for the oil spill. An exciting new ...'
p6
aS"Jun 2, 2010 - BP Plc overcame a snag in its latest effort to curb the Gulf of Mexico oil spill as the British energy giant's shares stabilized on Wednesday and parts of the ... The cost of insuring the debt of rig operator Transocean and Anadarko Petroleum Corp, which ..... Thomson Reuters is the world's largest international multimedia news ..."
p7
aS"Jun 2, 2010 - BP is struggling to plug a massive oil leak at the bottom of the Gulf of Mexico, but the flow of investors away ... Anadarko Petroleum Corp. .... Thomson Reuters is the world's largest international multimedia news agency, providing investing ..."
p8
aS'Jun 2, 2010 - A BP spokesman told Reuters news agency on Friday that the company had only ..... Pingback: British Petroleum, You Broke My Heart | Deep Sea News.'
p9
aS"Jun 2, 2010 - As BP's efforts to end the 40-day oil spill still show no signs of success, the company is ... Poor old British Petroleum, opps, after millions of dollars that should be ..."
p10
a.