(lp0
S'Jun 3, 2010 - BP CEO Tony Hayward apologized Wednesday for comments he made about ... about the Gulf of Mexico oil spill in newspaper stories and television shows.'
p1
aS"Jun 2, 2010 - Boycotts of BP filling stations are popping up all over the country amid the growing frustration over the company's failed efforts to stop a massive oil leak in the ..."
p2
aS'Jun 2, 2010 - Another 2.4bn was wiped off the value of BP when trading began in London ... BP Chief Executive Tony Hayward listens during a news conference in London.'
p3
aS"Jun 2, 2010 - BP market plunge wipes billions off UK pension funds as shares in oil giant ... investments and its share fall will inevitably leave Britain's pensioners poorer. ... The news came as the U.S. government launched a criminal probe into the oil spill."
p4
aS"Jun 3, 2010 - ... another reason to hate the company that America hates most--British Petroleum. ... disaster in U.S. history, it's trying to manipulate and control the news."
p5
aS"Jun 2, 2010 - Branding is all about creating alignment of your company's business processes with its corporate culture. British Petroleum (BP) provides a case in point of a ..."
p6
aS"Jun 3, 2010 - The rig was drilling in BP's Macondo project 42 miles (68 km) southeast of Venice, ... wiping $23 billion off its market value, on news the latest attempt to plug the ..."
p7
aS'Jun 2, 2010 - BP failures mounting as Gulf oil spill worsens, oil giant struggles to find a solution. BY Sean Alfano. DAILY NEWS STAFF WRITER. Wednesday ... British Petroleum is now working on its "cut and cap" solution for the oil spill. An exciting new ...'
p8
aS'Jun 2, 2010 - It was the saddest darn thing to look at," said a BP contract worker who took the Daily News on a surreptitious tour of the wildlife disaster unfolding in Louisiana.'
p9
aS'Jun 2, 2010 - A BP spokesman told Reuters news agency on Friday that the company had only ..... Pingback: British Petroleum, You Broke My Heart | Deep Sea News.'
p10
a.