(lp0
S"Jun 7, 2010 - MailOnline US - news, sport, celebrity, science and health stories .... Mr Obama has continually referred to the company as 'British Petroleum' although it ..."
p1
aS'Jun 8, 2010 - The CEO of British Petroleum says he believes the overall environmental impact of this ... The bad news  BP officials are a bunch of lying weasels"  Jay Leno.'
p2
aS'In a new TV commercial, BP CEO Tony Hayward is offering atonement to those affected by the oil spill. ... CBS ...'
p3
aS"Jun 8, 2010 - President Barack Obama would have fired BP's CEO Tony Hayward over ... distance itself from the London-based oil giant, formerly known as British Petroleum."
p4
aS'Jun 8, 2010 - Hours after BP\'s rig sank on April 22nd, a white board in NOAA\'s "war room" ..... That evening, administration officials received news that  to judge from their .... PS BP is not as British as you think look at their ties to Blackrock and JP Morgan.'
p5
aS"Jun 8, 2010 - Anglo-Iranian became British Petroleum. BP's role in Iran's descent into tyranny is no trivial historical coincidence. To this day .... Part of HuffPost on HPMG News."
p6
aS"Jun 7, 2010 - There's no telling when the British Petroleum (BP) spill will stop topping news headlines. In the meantime, national and regional media outlets have been calling ..."
p7
aS'Jun 8, 2010 - The environmental disaster in the Gulf of Mexico has put offshore drilling operations in the Caspian Sea under fresh scrutiny. Oil giant BP has been heavily ...'
p8
aS'Jun 7, 2010 - Now, analysts and oil industry insiders are wondering just what the future holds for the company. Can BP afford to exist as a standalone company? Could it go ...'
p9
aS'Jun 7, 2010 - Once BP stops this gusher, Obama will be tempted to work with the British ... That is, British taxpayers would pump a limited amount of money into BP for a ...'
p10
a.