(lp0
S'Jun 9, 2010 - By Richard Anderson Business reporter, BBC News ... It began life as the Anglo Persian Oil Company in 1909, before becoming British Petroleum in 1954.'
p1
aS'Jun 9, 2010 - BP (formerly known as "British Petroleum") is a global oil, gas and chemical company ... On June 11, News anchor Scott Walker a reporter for the television news ...'
p2
aS'Jun 9, 2010 - U.S. Audit: BP Violated Sanctions, Sold Oil To Iran ... Mossadegh, Bp, BP Iran, BP History, British Petroleum, BP Oil Spill, Mohammed Mossadegh, Green News ...'
p3
aS"Jun 9, 2010 - BP is self-insured, which is another way of saying it isn't insured at all except ... in the worlds of diversified media, news, education, and information services."
p4
aS"Jun 8, 2010 - President Barack Obama would have fired BP's CEO Tony Hayward over ... distance itself from the London-based oil giant, formerly known as British Petroleum."
p5
aS'Jun 8, 2010 - Hours after BP\'s rig sank on April 22nd, a white board in NOAA\'s "war room" ..... That evening, administration officials received news that  to judge from their .... PS BP is not as British as you think look at their ties to Blackrock and JP Morgan.'
p6
aS'Jun 9, 2010 - Barack Obama has been accused of holding "his boot on the throat" of British pensioners after his ... In the past week, Mr Obama, who insists on referring to BP by its former name British Petroleum, has suggested that its .... Top news galleries ...'
p7
aS'Jun 9, 2010 - Professor Peter Lutz is listed in BP\'s 2009 response plan for a Gulf of Mexico oil spill as a national wildlife expert. He died in 2005. Under the heading "sensitive ...'
p8
aS"Jun 9, 2010 - BP can't control its oil leak, and it's also having a rough time with image control. ... campaigns in earnest until one month after news of the spill broke, says David Binkowski, ... Hayward  whose British accent doesn't seem to pacify Americans as such an accent ... Advertising  bp  british petroleum  gulf of mexico  oil spill."
p9
aS'Jun 10, 2010 - Faking News ... the over-reaction of the US administration and citizens over the oil spill in the Gulf of Mexico, oil major British Petroleum (BP) has announced that ...'
p10
a.