(lp0
S'Jul 12, 2010 - The problems at Thunder Horse were not an anomaly, but a warning that BP was .... British Petroleum, as it later became known, was forced to retreat and find ...'
p1
aS'Jul 12, 2010 - Fast forward to the early 1970s. After a few name changes and several acquisitions, British Petroleum was primarily an oil producing company with most of its ...'
p2
aS"Jul 13, 2010 - Should it be unable to cap the leaking well soon, the British oil giant may be forced to ... BP's global earnings appeared safe, its cash and petroleum reserves ..."
p3
aS'Jul 12, 2010 - BP is gearing up to unveil a $40bn (26.5bn) defence strategy in the teeth of growing speculation that US predators have been given the green light by Washington to swoop on the British company. ... A worker of Gujarat State Petroleum Corporation checks oil flow of well PK-2 .... Catch up on all the latest football news.'
p4
aS'Jul 13, 2010 - With the oil giant back in the news, senators are calling for a full investigation into .... way the Anglo-Iranian Oil Company changed its name to - British Petroleum.'
p5
aS"Jul 13, 2010 - Abu Dhabi's crown prince, a member of the board of one of the world's largest sovereign wealth funds, said the emirate is considering an investment in BP Plc ..."
p6
aS"Jul 13, 2010 - An oil-like substance is poured around one of the British Museum's statues by activists urging it to stop its sponsorship by BP."
p7
aS'Jul 12, 2010 - This image from video provided by BP PLC late Saturday night, July 10, 2010 shows oil continuing to BP ... British Petroleum has come up with another one of their great schemes to contain the oil leaking into the Gulf of .... News highlights.'
p8
aS"Jul 13, 2010 - ... Gulf for six months in the aftermath of British Petroleum's Deepwater Horizon rig explosion April 20. ... Minarovic said the company had 40 drills in the Gulf of Mexico prior to the BP spill. ... Posted in News on Tuesday, July 13, 2010 12:00 am."
p9
aS"Jul 13, 2010 - BP (BP.L), which unveiled plans last month for about $10 billion in asset sales to help ... A British Petroleum (BP) logo is seen reflected in a car mirror at a petrol station in ... Thomson Reuters is the world's largest international multimedia news ..."
p10
a.