(lp0
S"Jul 13, 2010 - Should it be unable to cap the leaking well soon, the British oil giant may be forced to ... BP's global earnings appeared safe, its cash and petroleum reserves ..."
p1
aS'Jul 14, 2010 - Brown, former head of research for Sohio and then BP America, and former ... Many local investors received BP stock in 1987 when then-British Petroleum .... HQs at Public Square and folded the company into British Petroleum: news obituary ...'
p2
aS"Jul 15, 2010 - BP Return on Equity (TTM) (BP) charts, historical data, comparisons and more. ... BP News. Reuters' Kemp: Global refining margins help lift crude oil prices"
p3
aS"Jul 15, 2010 - BP PE Ratio (TTM) (BP) charts, historical data, comparisons and more. ... BP News. Reuters' Kemp: Global refining margins help lift crude oil prices. SA Breaking ..."
p4
aS'Jul 13, 2010 - With the oil giant back in the news, senators are calling for a full investigation into .... way the Anglo-Iranian Oil Company changed its name to - British Petroleum.'
p5
aS'Jul 13, 2010 - News and information on Royal Dutch Shell Plc. .... began nationalizing their oil fields, British Petroleum, as it later became known, was forced to retreat and find ...'
p6
aS"Jul 14, 2010 - Don't worry about that pesky oil spill in the Gulf of Mexico, BP CEO Tony Hayward says: It's relatively tiny compared to the very big ocean. Hayward launched ..."
p7
aS"Jul 13, 2010 - Abu Dhabi's crown prince, a member of the board of one of the world's largest sovereign wealth funds, said the emirate is considering an investment in BP Plc ..."
p8
aS'Jul 14, 2010 - BP is facing a ban on getting any new offshore licences to produce oil and gas in the US for a number of years. ... "British Petroleum has a flagrant history of taking risks to boost profits that has resulted in deaths of workers, ... World News  ...'
p9
aS"Jul 14, 2010 - Recent News: U.S. nuclear advocates try to limit political impact of Japa. ... The consortium's controlling partner was British Petroleum. British Petroleum also ..."
p10
a.