(lp0
S'Jul 15, 2010 - A US Congressional committee has agreed measures that would ban BP from new offshore drilling for seven years. The House committee on natural resources ...'
p1
aS'Jul 16, 2010 - But the petroleum giant claims it never specifically asked about Pan Am ... deal with Libya, BP executives admitted Thursday the company did lobby the British ... Dr. Sikora said he was "misquoted completely" in a newspaper about his 10 year ...'
p2
aS'Jul 14, 2010 - Brown, former head of research for Sohio and then BP America, and former ... Many local investors received BP stock in 1987 when then-British Petroleum .... HQs at Public Square and folded the company into British Petroleum: news obituary ...'
p3
aS"Jul 15, 2010 - News //    'british petroleum'. BP Gulf of Mexico oil disaster shows that the company didn't learned from its past mistakes. Hurricane Dennis had ..."
p4
aS'Jul 15, 2010 - The New York Times published that, according to British Petroleum, 20% of Gulf spill ... for its Gulf of Mexico oil spill workers, BP PLC is reporting potentially hazardous exposures. .... We thank you for covering the issue in your news letters.'
p5
aS'Jul 16, 2010 - British scientists have also revealed that the oil spill in the Gulf of Mexico is .... http://www.medindia.net/news/Concerns-Over-Health-Effects-Of-BP-Oil-Spill- ...'
p6
aS'Jul 14, 2010 - BP is facing a ban on getting any new offshore licences to produce oil and gas in the US for a number of years. ... "British Petroleum has a flagrant history of taking risks to boost profits that has resulted in deaths of workers, ... World News  ...'
p7
aS'Jul 15, 2010 - An anonymous plumber provided sketches of a flange and seal design six weeks ago that is almost identical to the containment cap lowered onto the Macondo ...'
p8
aS"Jul 15, 2010 - BP Return on Equity (TTM) (BP) charts, historical data, comparisons and more. ... BP News. Reuters' Kemp: Global refining margins help lift crude oil prices"
p9
aS"Jul 14, 2010 - Don't worry about that pesky oil spill in the Gulf of Mexico, BP CEO Tony Hayward says: It's relatively tiny compared to the very big ocean. Hayward launched ..."
p10
a.