(lp0
S'Jul 16, 2010 - A timeline of events since the 20 April start of the BP oil leak in the Gulf of Mexico. ... Responding to complaints in the British media of an anti-British tone to his ...'
p1
aS'Jul 15, 2010 - A US Congressional committee has agreed measures that would ban BP from new offshore drilling for seven years. The House committee on natural resources ...'
p2
aS'Jul 16, 2010 - But the petroleum giant claims it never specifically asked about Pan Am ... deal with Libya, BP executives admitted Thursday the company did lobby the British ... Dr. Sikora said he was "misquoted completely" in a newspaper about his 10 year ...'
p3
aS"Jul 16, 2010 - An Insider's Guide to Travel: News, Tips, Information & Inspiration. SIGN UP for more news, tips and ... Formerly British Petroleum, now BP, Logo The Obama ..."
p4
aS"Jul 15, 2010 - News //    'british petroleum'. BP Gulf of Mexico oil disaster shows that the company didn't learned from its past mistakes. Hurricane Dennis had ..."
p5
aS'Jul 15, 2010 - The New York Times published that, according to British Petroleum, 20% of Gulf spill ... for its Gulf of Mexico oil spill workers, BP PLC is reporting potentially hazardous exposures. .... We thank you for covering the issue in your news letters.'
p6
aS'Jul 16, 2010 - British scientists have also revealed that the oil spill in the Gulf of Mexico is .... http://www.medindia.net/news/Concerns-Over-Health-Effects-Of-BP-Oil-Spill- ...'
p7
aS'Jul 15, 2010 - An anonymous plumber provided sketches of a flange and seal design six weeks ago that is almost identical to the containment cap lowered onto the Macondo ...'
p8
aS'Jul 16, 2010 - The most important of the three commercial organisations involved in the oil drilling is BP. This company, formerly known as British Petroleum, was shaken by ...'
p9
aS'Jul 15, 2010 - As oil continues to spill in the Gulf of Mexico, BP is looking towards ... their name to "Beyond Petroleum" quite a while ago... the "British" thing is a bit old hat ...'
p10
a.