(lp0
S'Jul 18, 2010 - The Sunday Times of London reported that directors at the oil giant once known as British Petroleum had been discussing a dramatic restructuring of the ...'
p1
aS'Jul 18, 2010 - Network News ... Humor me and picture what would happen if BP were owned by the British government. ... These petroleum-rich countries are placing more importance on their nationalized oil companies as a way to ensure a steady supply ...'
p2
aS'Jul 19, 2010 - News navigation ... He ordered BP to submit a plan to reopen the capped well if the seepage was confirmed, so that oil could be funnelled to the surface. But BP ... and BP - formerly British Petroleum - is expected to be a key topic of discussion.'
p3
aS"Jul 19, 2010 - Consider BP's Beyond Petroleum campaign. ... Forgetting that core goal  which the CSR culture can tempt us to do  is bad news for business leaders."
p4
aS'Jul 20, 2010 - Home News BP photoshops fake photo of oil spill crisis command center to make it look ... UPDATE 12:08PM Eastern 7/20/10: BP has faked yet another oil crisis ...'
p5
aS'Jul 19, 2010 - On April 27, a week after the Deepwater Horizon exploded, BP released its earnings statement for the first quarter of 2010, with news of the disaster stuffed into ...'
p6
aS'Jul 19, 2010 - Oil sheen is seen among vessels assisting near the source of the BP oil spill in the Gulf of Mexico. ... The US government will allow BP to keep the cap on its damaged Gulf of Mexico well closed for another day, despite the ... More news ...'
p7
aS"Jul 19, 2010 - News of Mr Hayward's hefty payoff caused outrage yesterday among ... since the oil-producing giant changed its name from British Petroleum to BP, better to ..."
p8
aS"Jul 19, 2010 - BP shares in London fell 5 per cent on Monday morning as news of fresh ... A worker of Gujarat State Petroleum Corporation checks oil flow of well PK-2 during ... to spending 110,000 releasing an album, Britain's wealthiest are pulling out all ..."
p9
aS'Jul 20, 2010 - The Size and Scale of the BP Deepwater Horizon Oil Spill ... with BP, BP-Oil, BP-Oil-Disaster, British-Petroleum, Deepwater-Horizon, ... The movies at the NASA Science News site are simply incredible, and well-worth the download time!'
p10
a.