(lp0
S'Jul 21, 2010 - BP has admitted it "photoshopped" an image of its Gulf Coast oil spill command centre, which indicated that staff were busier than they actually were. Here\'s a compilation of all the blunders and bad news surrounding the company since the catastrophic oil spill. ... On 19 May BP claims ...'
p1
aS"Jul 21, 2010 - Photo on BP's website showed workers monitoring underwater images on video ... BP Deepwater Horizon oil spill command center in Houston ... More news ..."
p2
aS'Jul 21, 2010 - British Prime Minister Tells U.S. Legislators Not To Single Out BP Over Oil ... to make BP uniquely responsible for the Gulf oil spill, so pushing compensatio.'
p3
aS'Jul 20, 2010 - How did BP do vs. Exxon Mobil? Stock Performance - Monday, July 19, 2010. British Petroleum (BP) DOWN 3.64% ExxonMobil (XOM) UP 0.81% Vanguard ...'
p4
aS"Jul 21, 2010 - It's the biggest environmental disaster in American history  and BP is making it worse. ... As soon as oil began erupting out of BP's well and into the water, the ..... it up into thousands of smaller slicks that don't look so bad on the nightly news."
p5
aS'Jul 21, 2010 - As oil continued to pour into the Gulf, the BP disaster is a stunning example of ... Join 100,000+ subscribers who gain a competitive advantage with our news ...'
p6
aS'Jul 20, 2010 - Oil giant BP PLC was Monday considering yet another method to kill its ruptured ... in the worlds of diversified media, news, education, and information services.'
p7
aS'Jul 20, 2010 - BP said Tuesday it is selling $7 billion worth of oil and gas assets to oil firm Apache Corp as it continues its search for cash in the wake of the Gulf oil spill.'
p8
aS'Jul 22, 2010 - than three months ago, an explosion on an oil drilling platform in the Gulf of. Mexico set off what scientists .... You have probably heard news reports about many ...'
p9
aS"Jul 21, 2010 - The tragic accident at British Petroleum's Deepwater Horizon drilling platform in the Gulf of Mexico precipitated a major economic and environmental disaster ..."
p10
a.