(lp0
S"Jul 23, 2010 - BNET's best have provided coverage and insight into the Deepwater Horizon oil rig explosion and the subsequent BP oil spill in the Gulf of Mexico since it all ..."
p1
aS'Jul 23, 2010 - As millions of barrels of oil began pouring into the Gulf of Mexico in April 2010, Democratic ... BP, Big Oil Slightly Increase Lobbying Spending In Wake Of Spill.'
p2
aS"Jul 22, 2010 - BP admits it 'Photoshopped' official images as oil spill 'cut and paste' row .... 2010, was first identified by Gizmodo, a technology news website, which posted the ..."
p3
aS"Jul 23, 2010 - Oil seeps detected near the Deepwater Horizon wellhead aren't natural, yet highlight difficulties in teasing ... By Christine Dell'Amore, National Geographic News ... What makes the BP spill exceptional is that it accounts for a volume of oil that's ..."
p4
aS"Jul 23, 2010 - News & Features ... into Louisiana's fragile wetlands. AVIRIS Image of the Deepwater Horizon BP Oil Rig Site ... NASA Satellites' View of Gulf Oil Spill Over Time."
p5
aS"Jul 22, 2010 - With BP PLC's blown-out Gulf of Mexico oil well now effectively capped, some experts are questioning why the company didn't attempt a similar procedure ..."
p6
aS"Jul 22, 2010 - DOW JONES, A NEWS CORP COMPANY .... Four of the world's largest oil companies are creating a strike force to stanch oil spills in ... BP's Deepwater Horizon well had been leaking up to 60,000 barrels per day 5,000 feet below the surface."
p7
aS"Jul 22, 2010 - You don't have to go far to hear someone criticize BP for the catastrophic impact of their oil spoil. The news media have chronicled every misstep. Psychologists ..."
p8
aS'Jul 23, 2010 - Oil giant says it is just keeping company data confidential, as it faces 200 federal civil ... BP clean-up workers collect tar balls and other oil debris. ... More news ...'
p9
aS'Jul 22, 2010 - On April 19, 2010, BP began to drill for oil over a mile below the Gulf of Mexico off the Louisiana coast. A problem was found that day in one of the pipes, even so ...'
p10
a.