(lp0
S'Jul 27, 2010 - Updated at 7:54 a.m. Eastern. British oil giant BP announced Tuesday morning that embattled CEO Tony Hayward would step down from his position on October ...'
p1
aS'Jul 27, 2010 - Jump to photos Month 4. photos. x. AP interactive graphic BP executives Gulf oil spill. Jump to data A look at British Petroleum. data.'
p2
aS'Jul 27, 2010 - Members of the British Petroleum executive, from left, outgoing CEO Tony Hayward, Chairman Carl-Henric Svanberg, and incoming CEO Bob Dudley, pose for ...'
p3
aS'Jul 26, 2010 - The man overseeing the much-maligned response by BP PLC to the Gulf oil spill crisis is the likely choice to replace ... Jump to data A look at British Petroleum.'
p4
aS'Jul 27, 2010 - Controversial BP CEO Tony Hayward was ousted from the executive suite yesterday and replaced by an American, Bob Dudley. Hayward is being sent to ...'
p5
aS'Jul 27, 2010 - He is a Member of the Board of Fellows of the Thunderbird School of Global Management, and a Member of the Society of Petroleum Engineers. He was ...'
p6
aS"Jul 27, 2010 - Management experts say BP's Tony Hayward should have shown more ... In the world of social media, where news is viral, a statement --whether true or false ..."
p7
aS"Jul 27, 2010 - Tony Hayward has resigned as chief executive of BP for the good of the ... A worker of Gujarat State Petroleum Corporation checks oil flow of well PK-2 ... From a rare pair of Gucci shoes, to spending 110,000 releasing an album, Britain's wealthiest are pulling out all the stops .... Catch up on all the latest football news."
p8
aS"Jul 27, 2010 - Tony Hayward has resigned as chief executive of BP, after the energy giant ... A worker of Gujarat State Petroleum Corporation checks oil flow of well PK-2 ... From a rare pair of Gucci shoes, to spending 110,000 releasing an album, Britain's wealthiest are pulling out all the stops .... Catch up on all the latest football news."
p9
aS'Jul 27, 2010 - Deepwater Horizon Oil Spill : British Petroleum Chief Executive Officer Tony ... In an interview with Sky News, Hayward says that the environmental impact of the ...'
p10
a.