(lp0
S"Jul 30, 2010 - British Petroleum (BP) Continues to Reveal Mistakes and Poor Decisions in the ..... BREAKING NEWS: I've just heard that those enormous plumes floating just ..."
p1
aS"Jul 28, 2010 - Announcing his resignation on July 27, BP's sad and weary chief executive ... quickly and accurately delivers business and financial information, news and ..."
p2
aS'Jul 28, 2010 - Members of the British Petroleum executive, from left, outgoing CEO Tony Hayward, .... A recurring theme in newspaper editorials and discussions among many ...'
p3
aS'Jul 29, 2010 - The BP Spill: Has the Damage Been Exaggerated? ... while CBS, Fox and MSNBC are all slapping "Disaster in the Gulf" chyrons on their spill-related news.'
p4
aS'Jul 28, 2010 - It changed its name, KFC-style, from British Petroleum to BP to de-emphasize its claim to fame: hydrocarbons. The company adopted a stylized green sun as its ...'
p5
aS'Jul 28, 2010 - BP Plc is in talks with Reliance Industries and Essar Group to sell its African retail assets that ... A British Petroleum (BP) logo is seen at a petrol station in south London April 27, 2010. ... (For more news on Reuters India click in.reuters.com) ...'
p6
aS'Jul 28, 2010 - We cannot and should not avoid blaming British Petroleum. ..... I recall seeing the photo\'s of the initial fire-fighting efforts on Fox News - "Coast Guard responds ...'
p7
aS'CNN British Petroleum Installing Capping Stack Deep Water Drilling Animation ... Breaking news from CNN.com ...'
p8
aS'Jul 28, 2010 - Robert Dudley has worked for BP since it was British Petroleum and now replaces ... Recent News: U.S. nuclear advocates try to limit political impact of Japa.'
p9
aS'Jul 29, 2010 - Contact Info. News and Events. News ... The agent could potentially be used to recover oil lost in the British Petroleum (BP) spill in the Gulf of Mexico. The project ...'
p10
a.