(lp0
S'Jul 30, 2010 - The disgraced BP boss enraged Americans when he played down the effects ... BP  referring to it, persistently and anachronistically, as "British Petroleum"  and ..... and this news will put Britain in sole possession of the moral high horse that ...'
p1
aS'Jul 30, 2010 - British Petroleum - BP (and other appellations) CIA - British Government - State ... According to the official BP/British Petroleum history, upon hearing the news ...'
p2
aS"Jul 30, 2010 - Like the 1989 Exxon Valdez disaster in Alaska, British Petroleum's calamity in the Gulf of Mexico has turned into a lucrative business opportunity for many locals ..."
p3
aS"Jul 30, 2010 - Oil is no longer spewing into the Gulf of Mexico as BP choked off the flow .... on the spill, sees shares gain on news of the progress in containing the leak but ... June 11  Supportive comments from Britain lift BP's shares in London by 6.4 percent. ... June 18  Anadarko Petroleum , part owner of the gushing well, says BP's ..."
p4
aS"Jul 30, 2010 - British Petroleum (BP) Continues to Reveal Mistakes and Poor Decisions in the ..... BREAKING NEWS: I've just heard that those enormous plumes floating just ..."
p5
aS'Jul 30, 2010 - Facing a $32 billion knockback due to the gigantic oil spill in the Gulf of Mexico, British Petroleum is weighing venturing out of long-gestation projects.'
p6
aS'Jul 30, 2010 - British Petroleum. Charles Dharapak / AP. The BP logo is seen at a gas station in Washington. BP gas station owners across the country are divided over ...'
p7
aS'Jul 30, 2010 - BP gas station owners across the country are divided over whether the oil giant ... View full sizeAssociated Press file The BP (British Petroleum) logo is seen at a gas station in Washington. BP gas ... Northeast Ohio commercial real estate news.'
p8
aS'Jul 29, 2010 - The BP Spill: Has the Damage Been Exaggerated? ... while CBS, Fox and MSNBC are all slapping "Disaster in the Gulf" chyrons on their spill-related news.'
p9
aS'Jul 30, 2010 - News media coverage of the blowout displayed a lack of awareness of the Act or the ... The blowout of British Petroleums (BP) Macondo well in the deep water.'
p10
a.