(lp0
S"Jul 7, 2010 - According to Britain's Metro newspaper, a rare board game from the 1970s ... company Printabox, is adorned with an old British Petroleum logo and allows four ..."
p1
aS'Jul 6, 2010 - By Laurence Knight Business reporter, BBC News ... with the company ever since the UK government sold British Petroleum on the stock exchange in 1987.'
p2
aS"Jul 6, 2010 - BP and Toyota: Leadership Lessons in Disaster Recovery ... As I implied in BP's Gulf Oil Spill: The Perils of Cutting Corners, it certainly should ... change the way ..."
p3
aS"Jul 6, 2010 - Even as British Petroleum (BP) announced that it would deploy the world's biggest skimmer to mop up oil from the Gulf of Mexico  an ... Keywords: BP oil spill, A-Whale, oil spill mop up, Deepwater Horizon rig, tar balls. RELATED NEWS ..."
p4
aS'Jul 7, 2010 - This is viewer supported news. Donate. As the BP oil spill enters its seventy-eighth day, cleanup crews across the Gulf Coast are working to try and remove what ...'
p5
aS'Jul 7, 2010 - ... life along the Gulf Coast has been affected by the British Petroleum oil spill. ... Visit msnbc.com for breaking news, world news, and news about the economy.'
p6
aS'Jul 6, 2010 - A logo on a British Petroleum petrol station is seen in London April 30, 2010. ... BP executives have held talks with a number of sovereign wealth funds (SWFs) including Abu Dhabi, Kuwait, Qatar and ... Our top news photography last month.'
p7
aS"Jul 7, 2010 - Sir Bill Castell is BP's senior non-executive director and has been busy hearing the ... He has become a prominent spokesman for corporate Britain, recently criticising the UK for being no longer the natural ... Business Latest News  ... A worker of Gujarat State Petroleum Corporation checks oil flow of well PK-2 during ..."
p8
aS'Jul 7, 2010 - who defected from FOX News, Los Angeles, for ethical reasons. ... in the Gulf is a Transocean/Halliburton/British Petroleum/Goldman-Sachs attack... the latest in ...'
p9
aS'Jul 6, 2010 - Fake News by Andy Borowitz  ... While British Petroleum and federal regulators are certainly at fault for their reckless behavior, every American who uses ...'
p10
a.