(lp0
S'Jul 8, 2010 - BP execs were celebrating safety on the Deepwater Horizon at the exact ... Morgan City, LA, is celebrating the 75th annual Louisiana Shrimp and Petroleum Festival, even ... According to the newspaper Pravda, the Soviet Union used nuclear ...'
p1
aS'Jul 8, 2010 - We can all agree the oil spill in the Gulf is an extreme case of business gone bad. Even though most companies are not at risk of creating a catastrophe that will ...'
p2
aS'Jul 9, 2010 - British Petroleum, commonly known as BP, is one of the oldest companies in the ... refining and marketing of petroleum products, bio-fuels, and green energy. ..... by Doug Eberhardt; Weighing The Week Ahead: Time To Sell The News? by Jeff ...'
p3
aS'Jul 9, 2010 - British Petroleum, commonly known as BP, is one of the oldest companies in the .... with the latest news on global markets, and view our updated model portfolio ...'
p4
aS"Jul 9, 2010 - News that doesn't bode well for the environment? Rich Libyan oil barons are vying for a controlling stake in British Petroleum (BP) the UK oil company leaking ..."
p5
aS"Jul 8, 2010 - A stake in BP may seem like a curious purchase for sovereign wealth funds looking to ... The British Petroleum logo is seen near a petrol station in Dubai with the Burj .... Thomson Reuters is the world's largest international multimedia news ..."
p6
aS'Jul 8, 2010 - Posts about british petroleum written by blair. ... Posted in democracy in action with tags british petroleum, deepwater horizon, democrats, gulf coast, news, ...'
p7
aS"Jul 9, 2010 - Anadarko Petroleum Corp. says it won't help BP pay for the worst oil spill in U.S. history. ... Anadarko argues it's the British company's execution of those decisions that are at fault. ... 2 inmates found dead in Angola cells, news station reports."
p8
aS'Jul 8, 2010 - 2) The news and network "programming" is mind-controlling propaganda issued ... oil rig that exploded is the property of Transocean, not British Petroleum (BP); ...'
p9
aS"Jul 8, 2010 - Besieged British energy giant BP aims to fix its leaking Gulf oil well by July 27 ... the head of BP's Gulf Coast restoration unit Bob Dudley told the newspaper. ... A worker of Gujarat State Petroleum Corporation checks oil flow of well PK-2 during ..."
p10
a.