(lp0
S'Aug 11, 2010 - For British Petroleum (BP), 2010 has been marked by the unfortunate ... The oil leak has caused BP to lose a noticeable number of its American customers, ... Through data-driven insights, news articles and thought pieces, our experts share ...'
p1
aS"Aug 12, 2010 - One of BP's British shareholders has thrown its sizeable weight behind the ... The share price was also affected by news that BP is delaying off-shore drilling ... A worker of Gujarat State Petroleum Corporation checks oil flow of well PK-2 during ..."
p2
aS"Aug 12, 2010 - British Petroleum is taking care of Gainey's father, Joe, to the tune of $5,000 a ... The day's important news, including local and national headlines, delivered ..."
p3
aS"Aug 11, 2010 - Posts tagged 'British Petroleum'. The US Dept. of Labor appears to have targeted BP gas stations: Why & at what cost? After reading ... Daily News on Flipboard ..."
p4
aS'Aug 12, 2010 - piattaformapetrolifera La BP (British Petroleum), compagnia petrolifera famosa per essere stata la responsabile della marea nera che dal 20 Aprile 2010 ha ...'
p5
aS"Aug 12, 2010 - Static Kill: Taking Stock of the BP Oil Spill In the Gulf of Mexico ... with Below the Surface's Jared Criscuolo, British Petroleum and other oil companies are ... posted on Thursday, August 12th, 2010 at 10:37 pm and is filed under Recent News."
p6
aS'Aug 11, 2010 - Photo source: 1Funny.com Discussing the BP oil spill is not exactly cutting-edge, fresh news at this point. However, now that the 5 million barrel gaping gusher of ...'
p7
aS'Aug 12, 2010 - Mark Streeter, Savannah Morning News, Buy this cartoon. :: :: 3. ... Lowe thinks that British Petroleum bid farewell to its CEO Tony Hayward for obvious reasons.'
p8
aS"Aug 11, 2010 - In Washington's Blog: 2 Years After the BP Oil Spill, Is the Gulf Ecosystem Collapsing? ... With: British Petroleum (BP), corruption, Deepwater, Democrat, fraud, gulf oil, ... From BBC News, excerpt: BP boss Hayward to get immediate 600,000 ..."
p9
aS"Aug 11, 2010 - If you've turned on, tuned in, or opened up to the news any day since April 20 you know that there was an explosion and a fire on the British Petroleum-licensed ..."
p10
a.