(lp0
S'Aug 13, 2010 - Labor News > BP admits guilt in Texas City safety violations ... (PAI) - After years of foot-dragging and contesting federal findings, British Petroleum agreed Aug.'
p1
aS"Aug 12, 2010 - One of BP's British shareholders has thrown its sizeable weight behind the ... The share price was also affected by news that BP is delaying off-shore drilling ... A worker of Gujarat State Petroleum Corporation checks oil flow of well PK-2 during ..."
p2
aS'Aug 12, 2010 - piattaformapetrolifera La BP (British Petroleum), compagnia petrolifera famosa per essere stata la responsabile della marea nera che dal 20 Aprile 2010 ha ...'
p3
aS'Aug 12, 2010 - Mark Streeter, Savannah Morning News, Buy this cartoon. :: :: 3. ... Lowe thinks that British Petroleum bid farewell to its CEO Tony Hayward for obvious reasons.'
p4
aS"Aug 12, 2010 - Static Kill: Taking Stock of the BP Oil Spill In the Gulf of Mexico ... with Below the Surface's Jared Criscuolo, British Petroleum and other oil companies are ... posted on Thursday, August 12th, 2010 at 10:37 pm and is filed under Recent News."
p5
aS'Aug 13, 2010 - British Petroleum\'s Milne Point Central Facilities Pad on the North Slope of Alaska, ... of Arctic drilling, the British Columbia Investment Management Corp. says oil ... But in a letter to the NEB, Mr. Pearce argues that after BP\'s disaster, "for ... News. Trudeau gives lesson in quantum computing at Waterloo\'s Perimeter Institute ...'
p6
aS'Aug 13, 2010 - Should We Believe the Good News About BP? ... However, residents in these areas are concerned that the petroleum sludge will seep into groundwater and ...'
p7
aS'Aug 14, 2010 - News & events ... As a major integrated energy company, BP is investing in cost-effective pathways to a lower-carbon future, ... BP captures and stores up to one million tonnes of CO2 a year at its In Salah demonstration plant in Algeria; and ...'
p8
aS'Aug 13, 2010 - "I have some good news for our Canadian friends. ... with Ecopetrol to purchase all of British Petroleum\'s operations in Colombia for a total of CDN$1.9 billion.'
p9
aS'Aug 13, 2010 - The American Petroleum Institute, the trade group for oil and natural gas companies, ... damages at $75 million, an amount that is a fraction of the damages in the BP spill. ... We have a 24/7, very picture-driven cable news cycle," Segal said. .... to Its Woes  Model in Gucci Ad Is Deemed \'Unhealthily Thin\' by British Regulator.'
p10
a.