(lp0
S'Aug 17, 2010 - Latest news, videos, images of BP. ... LONDON (Reuters) - British oil company BP &lt;BP.L&gt; has decided to keep its U.S. wind farm business, one of the ...'
p1
aS'Aug 17, 2010 - Business In The News: Business, Sixth Canadian Edition ... In fact, BP was facing the biggest public relations crisis ever faced by an oil company. .... The Canada-Newfoundland and Labrador Offshore Petroleum Board (C-NLOPB) has two ...'
p2
aS"Aug 17, 2010 - British SIS Hit Team Kills Top US Oil Expert For Breaking Gulf Oil Spill News Blackout ... Britain's top business leaders who warned that the continued sinking of BP's ... National Petroleum Council and the Council on Foreign Relations (CFR)."
p3
aS'Aug 16, 2010 - BP has raised $5bn in new loans by pledging revenues from oil sales for the first time in a bid to bolster its liquidity in the wake of the Gulf of Mexico spill.'
p4
aS'Aug 17, 2010 - Environmental Health Insights into the 2010 Deepwater Horizon (BP) Oil Blowout ... Unit (MODU), leased to BP (previously British Petroleum, now simply BP, with ... July 15 (http://www.doi.gov/news/pressreleases/Flow-Rate-Group-Provides- ...'
p5
aS'Aug 17, 2010 - Simon Jenkins: From the BP leak to terror or ash clouds, politics has spurned its most ... without the president castigating BP, the hated "British Petroleum"  never its ..... 2016 Guardian News and Media Limited or its affiliated companies.'
p6
aS"Aug 17, 2010 - Long before BP's blowout menaced the Gulf of Mexico, an oil ... needs, counting petroleum from imports and offshore wells, according to data from the state's ... as $100,000 a month in royalties, according to a newspaper report at the time. ... were kicked off their lands in Canada's Acadian provinces by the British in 1755."
p7
aS'Aug 17, 2010 - BP shares rise on cap news, Cameron ready to talk Libya ..... gulf oil spill site | Tagged: BP, BP oil disaster, BP oil spill, British Petroleum | Leave a Comment  ...'
p8
aS'Aug 17, 2010 - The Deepwater Horizon semi-submersible drilling rig, which was operated in the Gulf of Mexico by British Petroleum, exploded on April 20, and then sunk on ...'
p9
aS'Aug 17, 2010 - The findings of the (NIH) report are being widely reported in the news media as suggesting .... When the Coast Guard and in turn, British Petroleum was granted ...'
p10
a.