(lp0
S'Aug 19, 2010 - Recent News: U.S. nuclear advocates try to limit political impact of Japa. ... After it bought Amoco in 1998, the company British Petroleum to become BP Amoco, ...'
p1
aS'Aug 19, 2010 - BP is the single, global brand formed by the combination of the former British Petroleum, Amoco Corporation, Atlantic Richfield (ARCO) and Burmah Castrol. BP is a global producer, ... The news you need, when you need it. Journalists and ...'
p2
aS'Aug 20, 2010 - CEG is going to have a round table talk with Gardiner Hill, Director of BP ... and petroleum engineering and then joined the British National Oil Company which ...'
p3
aS'Aug 19, 2010 - More than a month after BP capped its broken oil well in the Gulf of Mexico, experts ... that petroleum-eating microbes were not significantly breaking down the oil. ... Newspaper, one of most prominent in US, publishes page of fake news .... DC Volunteers Build Affordable Housing Spotlight Falls on London as British PM ...'
p4
aS"Aug 20, 2010 - Contrary to reports that we see in mainstream media that British Petroleum has ... of the Exxon Valdez Oil Spill Workers are Dead', by Tim King Salem-News.com"
p5
aS'Aug 20, 2010 - Bid for Dana Petroleum implies North Sea oil exploration projects still viable ... snapped up the Chinese and even BG  formerly part of British Gas and with a wide range ... But generally the oil majors such as Shell and BP have been in retreat from their ... 2016 Guardian News and Media Limited or its affiliated companies.'
p6
aS'Aug 21, 2010 - The price of crude oil has hit a 2.5 year high this week on news that the Libyan ... BP (British Petroleum) is under fire for creating the biggest ecological disaster ...'
p7
aS"Aug 19, 2010 - Petroleum hydrocarbons did not fuel appreciable microbial respiration on the temporal scales of our study, wrote the researchers in Science. ... Tracked From Space: Gulf Oil Slick Approaches Land  BP's 'Nightmare' Well: Internal ... Skip to: Latest News. ... How British Scientists Got Inside North Korea to Study a Volcano."
p8
aS"Aug 20, 2010 - In all respects a disaster for British Petroleum (NYSE: BP)  eleven lives lost, ... Here's the daily chart of BP stock since the Gulf oil spill occurred, with the TD ..."
p9
aS"Aug 20, 2010 - Download this stock image: British Petroleum BP Petrol Station Signs with prices for fuel - CR9BN3 from Alamy's library of millions of high resolution stock ..."
p10
a.