(lp0
S'Aug 23, 2010 - ... new Gulf Coast Claims Facility handling the British Petroleum (BP) Oil Spill Fund, ... "This is great news for Realtors and real estate professionals in Florida, ...'
p1
aS'Aug 22, 2010 - But in Planet BP -- a BP online, in-house magazine -- a "BP reporter" ... More: Gulf Oil Spill British Petroleum Gulf Recovery ... Part of HuffPost on HPMG News.'
p2
aS'Aug 23, 2010 - Most relevant sources agree that 40% of the shares of BP are held in the United Kingdom, ... Too many sites fail to mention who owns a whopping 28.34% of BPmore than the other 9 out of the top 10 together. .... Latest News / Top Stories.'
p3
aS'Aug 23, 2010 - Brad Pitt wants those behind the BP oil spill to pay in a very big way -- namely, via the death penalty. ... I hate when celebrities chime on news, politics  if only we were so wise as them, then we would truly be in a better ..... British Petroleum.'
p4
aS"Aug 23, 2010 - Oil giant BP reaches sweetheart settlement over 2010 Gulf disaster ... With the company's profits declining, British Petroleum is attempting to avoid compensating ..."
p5
aS'Aug 24, 2010 - Nathan Hultman examines the effects of the Bp oil spill in the Gulf of Mexico that reach ... Books; Multimedia; Testimony; In The News; Jobs and Internships; Courses ... Beyond Petroleum: The Broader Effects of the Deepwater Horizon Oil Spill .... Euro, Hong Kong dollar, U.S. dollar, Japanese yen, British pound and Chinese.'
p6
aS'Aug 23, 2010 - British Petroleum (BP) has claimed responsibility for this environmental disaster, but has blamed Transocean Ltd. and Halliburton for their hand in building the ...'
p7
aS"Aug 23, 2010 - According to the Twitter account's bio: This page exists to get BP's message and ... The New York Times, ABC News and countless blogs, as well as speaking gigs ... which temporarily read: We are not associated with Beyond Petroleum, the ..."
p8
aS"Aug 23, 2010 - This weekly diary takes a look at the past week's important news stories from the .... actions by British Petroleum; the disgraceful attitude displayed by BP's ..."
p9
aS'Aug 23, 2010 - In many respects this is good news. ... Everyone, including British Petroleum, and it turns out the person who rigged this game is none other than Kenneth ...'
p10
a.