(lp0
S'Aug 23, 2010 - ... new Gulf Coast Claims Facility handling the British Petroleum (BP) Oil Spill Fund, ... "This is great news for Realtors and real estate professionals in Florida, ...'
p1
aS'Aug 24, 2010 - Deepwater Horizon (BP) Oil-Spill Fraud ... Federal officials have identified BP as one of the responsible parties, and BP has begun to ... Oil-Spill Fraud News ...'
p2
aS'Aug 23, 2010 - Brad Pitt wants those behind the BP oil spill to pay in a very big way -- namely, via the death penalty. ... I hate when celebrities chime on news, politics  if only we were so wise as them, then we would truly be in a better ..... British Petroleum.'
p3
aS'Aug 24, 2010 - ... that it is British Petroleum (BP) who will ultimately be held responsible for the spill. .... Despite this gloomy news for CEOs looking to cut costs and focus core ...'
p4
aS"Aug 23, 2010 - Oil giant BP reaches sweetheart settlement over 2010 Gulf disaster ... With the company's profits declining, British Petroleum is attempting to avoid compensating ..."
p5
aS'Aug 24, 2010 - Nathan Hultman examines the effects of the Bp oil spill in the Gulf of Mexico that reach ... Books; Multimedia; Testimony; In The News; Jobs and Internships; Courses ... Beyond Petroleum: The Broader Effects of the Deepwater Horizon Oil Spill .... Euro, Hong Kong dollar, U.S. dollar, Japanese yen, British pound and Chinese.'
p6
aS'Aug 23, 2010 - British Petroleum (BP) has claimed responsibility for this environmental disaster, but has blamed Transocean Ltd. and Halliburton for their hand in building the ...'
p7
aS"Aug 23, 2010 - According to the Twitter account's bio: This page exists to get BP's message and ... The New York Times, ABC News and countless blogs, as well as speaking gigs ... which temporarily read: We are not associated with Beyond Petroleum, the ..."
p8
aS'Aug 24, 2010 - Tar balls have been appearing on beaches along the Gulf of Mexico since oil companies first began drilling there. The recent British Petroleum oil spill, however, ...'
p9
aS'Aug 24, 2010 - stated: BP, a large oil and gas company, ... In this image made from video released by British Petroleum, a saw ... and relayed the news to Bettenberg in a.'
p10
a.