(lp0
S'Aug 25, 2010 - UPDATE: VIRUS WARNING FROM OCTOPUS: Do not open any BP News notices from G-Mail or Twitter. There is an attached virus that will prevent your ...'
p1
aS"Aug 26, 2010 - Sixty one percent of the British Petroleum oil-spill waste - that's 24,071 tons out of ... For the last three months most of the news coverage on the oil spill has been ..."
p2
aS'Aug 25, 2010 - British energy giant BP forced to abandon hopes of Greenland exploration ... Today the bureau of minerals and petroleum in Nuuk, the capital of ... More news ...'
p3
aS"Aug 26, 2010 - In the News. ... To give credit where credit is due, as we discussed the BP massacre one ... On July 4th 1776, it was the oppression of King George; on July 4th 2010, it's the oppression of another, and no better, British king, British Petroleum."
p4
aS"Aug 26, 2010 - Since the hearings began in May, three BP officials with intimate knowledge of ... Harry Thierens, who testified that he had not been following news accounts of ... he couldn't recall details of the 1988 explosion of the Occidental Petroleum Corp. ... and the British government made major changes in the way the gas and oil ..."
p5
aS'I personally will never Purchase any product British Petroleum provides. NEVER! I urge all Americans to do the ...'
p6
aS"Aug 25, 2010 - Fischer Oil's relationship with the British Petroleum-Amoco-Standard Oil ... More News .... Amoco later sold the diesel and gas part of its company to BP and its ..."
p7
aS'Aug 26, 2010 - News; Opinion; Business; Money; Sport; Life; Arts; Puzzles; Papers; Irish news ... The British Petroleum logo is seen near a petrol station in Dubai with the Burj ...'
p8
aS"Aug 26, 2010 - But this week's revelations of the real story of BP and the Gulf of Mexico reminded me of ... This essay, written on July 10, is prescient, as the recent news stories, .... may be in the process of triggering a credit event by British Petroleum (BP) that ..."
p9
aS'Aug 26, 2010 - A new study published in the journal Science says petroleum-degrading bacteria are ... British oil company BP has used dispersants, burns and skimming ...'
p10
a.