(lp0
S'Aug 2, 2010 - BP and its partners on the Deepwater Horizon oil rig do not have enough insurance to cover the potential damages sought in litigation so far, according to an analysis by insurance information provider Advisen. ... BP is self insured, with its own dedicated captive insurance company ...'
p1
aS'Aug 1, 2010 - ... breadth as the busted British Petroleum (BP) well spewed as much as 60000 barrels ... tags: BP oil disaster, environmental racism, Robert Bullard .... Two Years after the BP Drilling Disaster, Gulf Residents Fear for the FutureIn "Indy News".'
p2
aS'Aug 2, 2010 - BP has announced they are going to start permanently plugging their leaky well as early as today. ... bp, british petroleum, bp gulf oil spill, oil spill, gulf spill,.'
p3
aS'Aug 1, 2010 - A Google News search for "Loop Current" Stalled came up null. Nada ... Nalco Holding Company, which is associated with British Petroleum (BP) and Exxon.'
p4
aS'Aug 2, 2010 - BP has announced that its embattled chief executive Tony Hayward is leaving. ... oil leak, is resigning as the British-based company strives to rebuild its US image.'
p5
aS"Aug 2, 2010 - Religious leaders and scholars are clamoring for more corporate accountability in the wake of what they call the destruction of God's creation in the Gulf of ..."
p6
aS'Aug 1, 2010 - This could be the most significant man-caused Earth Changes news thus far in my .... Nalco Holding Company, which is associated with British Petroleum (BP) ...'
p7
aS"Aug 2, 2010 - In a different world BP could be socially responsible, in these 30 ways ... Company News  CSR Events  Upcoming Events  Submit an ... What follows is a partial list of what BP could've done differently to be socially responsible. BP could ..."
p8
aS'Aug 1, 2010 - BP Oil Disaster Brings Fabulous Riches to Rothschild, Israel, and China ... released a bombshell intelligence report entitled Planet Petroleum (Available on Tape or CD). .... With the knowledge of the Obama administration, a British Royal Navy ...'
p9
aS"Aug 2, 2010 - BP response workers are reporting that working conditions are poor and morale is low. (Photo: ... The GAC employee warned others who are thinking of working as a BP oil disaster response employee. It's not ... Latest News / Top Stories."
p10
a.