(lp0
S'Aug 30, 2010 - ... stopped spilling into the Gulf of Mexico, according to British Petroleum (BP), but the ... every available resource (including the military), according to News.'
p1
aS'Aug 30, 2010 - News This content is my own and does not necessarily represent the views or ... In 1908 Anglo-Persian Oil Company, the predecessor of British Petroleum (BP), ...'
p2
aS"Aug 30, 2010 - BP Plc's internal investigation of the Deepwater Horizon rig disaster pins some of the ... Bloomberg Television  Bloomberg Radio  Bloomberg Mobile Apps  News Bureaus .... Drill pipes operate at the drilling head of an oil derrick in the Salym Petroleum Development .... There is no trading today because of a British holiday."
p3
aS'Aug 30, 2010 - LONDON, UK - (The Comedy News) - British Petroleum has patented the phrase they have used to defend their negligent management of their Deepwater ...'
p4
aS'Aug 30, 2010 - According to news reports as well as experts interviewed by staff, the oil ... Clean Seas, trade associations like the American Petroleum Institute (API), and ...... 111 Neela Banerjee, U.S. Looks to British Model to Improve Offshore Drilling Safety, ...'
p5
aS'Aug 30, 2010 - In the aftermath of the BP oil spill and the devastating hurricanes Katrina and Rita, Gulf Coast residents still face violations of their human rights to housing, ...'
p6
aS"Aug 29, 2010 - Seeing how well BP has handled this mess so far, I'm not sure that I would want ..... British Petroleum screws up and I have to read comments about how stupid ..."
p7
aS'Aug 30, 2010 - Before the BP accident, just 1,800 barrels of oil were spilled in blowouts from 1979 .... DAILY MAIL NEWSPAPER ARTICLE: Shell shock as Cook is first to go in Voser ... Bad Publicity plus British Humour puts Shell on the defensive: April 2012 ... to whom he awarded the licence when he was Nigerian Minister of Petroleum.'
p8
aS'Aug 30, 2010 - Oil from the BP spill could spread from the Gulf of Mexico into the Atlantic and up the .... UC San Diego scientist Peter Niiler, in a Discovery News story, said oil "will be ... that could be impacted by the British Petroleum Deepwater Horizon spill.'
p9
aS'Aug 30, 2010 - MailOnline US - news, sport, celebrity, science and health stories .... But Mr Wood is British, and even managed to sign himself on to the electoral roll a ... 55,000 from Abdul-Majid Jafar, 34, executive director of Crescent Petroleum Group.'
p10
a.