(lp0
S'Aug 3, 2010 - The BP spill spewed 4.1m barrels of oll into the Gulf of Mexico over 87 days, making it the biggest unintentional offshore oil spill in the history of the petroleum industry. ... Britain slams US over BP drilling ban proposal ... World News  ...'
p1
aS'Aug 2, 2010 - BP and its partners on the Deepwater Horizon oil rig do not have enough insurance to cover the potential damages sought in litigation so far, according to an analysis by insurance information provider Advisen. ... BP is self insured, with its own dedicated captive insurance company ...'
p2
aS'Aug 3, 2010 - Society News ... British Petroleum, the oil giant that operated the rig, has come under ... Although the BP spill is now the largest ever, the previous holder of this ...'
p3
aS'Aug 3, 2010 - BP, which needs to raise funds to help clean up the worst oil spill in U.S. history, said Tuesday it will sell its operations in Colombia for $1.9 billion to Ecopetrol ...'
p4
aS'Aug 2, 2010 - BP has announced they are going to start permanently plugging their leaky well as early as today. ... bp, british petroleum, bp gulf oil spill, oil spill, gulf spill,.'
p5
aS"Aug 2, 2010 - Religious leaders and scholars are clamoring for more corporate accountability in the wake of what they call the destruction of God's creation in the Gulf of ..."
p6
aS'Aug 2, 2010 - BP has announced that its embattled chief executive Tony Hayward is leaving. ... oil leak, is resigning as the British-based company strives to rebuild its US image.'
p7
aS"Aug 3, 2010 - People around the world have voted for a new BP logo. Now's the ... This was also around the time that British Petroleum CEO Tony Hayward was ... News Feed."
p8
aS'Aug 3, 2010 - New estimates from the US Government and BP reveal that almost five million ... News; Opinion; Business; Money; Sport; Life; Arts; Puzzles; Papers; Irish news ... BP oil spill is largest accidental leak in history ... British Petroleum (BP) sign.'
p9
aS'Aug 3, 2010 - By Richard Black Environment correspondent, BBC News ... Now that BP finally appears to have the flow under control, an important question .... Mapping Britain.'
p10
a.