(lp0
S'Aug 3, 2010 - The BP spill spewed 4.1m barrels of oll into the Gulf of Mexico over 87 days, making it the biggest unintentional offshore oil spill in the history of the petroleum industry. ... Britain slams US over BP drilling ban proposal ... World News  ...'
p1
aS'Aug 3, 2010 - BP, which needs to raise funds to help clean up the worst oil spill in U.S. history, said Tuesday it will sell its operations in Colombia for $1.9 billion to Ecopetrol ...'
p2
aS'Aug 3, 2010 - Society News ... British Petroleum, the oil giant that operated the rig, has come under ... Although the BP spill is now the largest ever, the previous holder of this ...'
p3
aS"Aug 4, 2010 - Bob Dudley, BP's managing director, will be replacing Tony Hayward, the company's Chief Executive Officer on October 1. ... is seen as they close a British Petroleum fuel station in protest as the BP board announce their .... RELATED NEWS ..."
p4
aS"Aug 3, 2010 - People around the world have voted for a new BP logo. Now's the ... This was also around the time that British Petroleum CEO Tony Hayward was ... News Feed."
p5
aS"Aug 4, 2010 - June 11  Supportive comments from Britain lift BP's shares in London by 6.4%. ... June 18  Anadarko Petroleum, part owner of the gushing well, says BP's behavior before the blowout was reckless and likely ... LATEST NEWS VIDEOS."
p6
aS'Aug 3, 2010 - By Richard Black Environment correspondent, BBC News ... Now that BP finally appears to have the flow under control, an important question .... Mapping Britain.'
p7
aS'Aug 3, 2010 - New estimates from the US Government and BP reveal that almost five million ... News; Opinion; Business; Money; Sport; Life; Arts; Puzzles; Papers; Irish news ... BP oil spill is largest accidental leak in history ... British Petroleum (BP) sign.'
p8
aS"Aug 3, 2010 - AOL News | Chanan Tigay and Ernie Smith | Posted 05.25.2011 | Business. Read More: ... Gulf Oil Spill Cost: BP's Profits In Four Days Cover Costs Thus Far."
p9
aS'Aug 4, 2010 - After its merger with Amoco in 1999, the former British Petroleum company .... is little surprise in the news that Tony Hayward is to be removed as CEO of BP.'
p10
a.