(lp0
S"Aug 6, 2010 - MailOnline US - news, sport, celebrity, science and health stories .... that the BP - or, as he preferred, 'British Petroleum' - oil spill was 'the worst environmental ..."
p1
aS"Aug 5, 2010 - Analysis of Environmental and Economic Damages from British Petroleum's ... the containment of the oil spill, and (3) misinformation disseminated by the news media ... Keywords: British Petroleum, Deepwater Horizon oil spill, environmental ..."
p2
aS'Aug 5, 2010 - BP plc, anteriormente British Petroleum, es una compaa de energa, dedicada principalmente .... (5 de junio de 2010). The Galveston County Daily News.'
p3
aS'Aug 5, 2010 - His comments came as the British oil company announced it had reached a ... http://www.bloomberg.com/news/2010-08-05/bp-russia-talks-stoke-rally-for-tnk-bp ...'
p4
aS"Aug 6, 2010 - Bp News Cartoon directory - the world's largest on-line collection of news related cartoons and comics, all searchable in directory form."
p5
aS"Aug 5, 2010 - Attorney Mike Papantonio Says BP Is a Criminal, Sociopathic and Predatory Corporation ... implications of British Petroleum's oil spill, in an effort to hold BP accountable ... as well as to expose the lies that BP continues to feed the news media."
p6
aS'Aug 6, 2010 - A Google News search for Loop Current Stalled came up null. Nada ... Nalco Holding Company, which is associated with British Petroleum (BP) and Exxon.'
p7
aS"Aug 5, 2010 - However, the good news for BP was tempered by a claim by Transocean, the ... A worker of Gujarat State Petroleum Corporation checks oil flow of well PK-2 ... 110,000 releasing an album, Britain's wealthiest are pulling out all the stops ..."
p8
aS'Aug 6, 2010 - A $10 billion toxic tort class action lawsuit has been filed against BP over alleged ... IVC Filter Problems Did Not Stop C.R. Bard From Selling Them, NBC News ... The benzene lawsuit comes just as BP, formerly known as British Petroleum, ...'
p9
aS'Aug 6, 2010 - The corporate monster British Petroleum chose to cover their trail by releasing ..... News should be available this week sometime from his office where to be ...'
p10
a.