(lp0
S"Sep 14, 2010 - BP was subject to an investigation in the North Sea which found new staff were not trained to basic ... News  ... A worker of Gujarat State Petroleum Corporation checks oil flow of well PK-2 during ... From a rare pair of Gucci shoes, to spending 110,000 releasing an album, Britain's wealthiest are pulling out all the stops ..."
p1
aS'Sep 15, 2010 - Find the complete company mission, vision, and values for British Petroleum here along ... Retail Industry Stores and Sales Research - Retail Stats, News, Facts, ...'
p2
aS"Sep 13, 2010 - In the News  Guestbook ... In Italiano: L'altro fallimento della British Petroleum link is to a PDF file ... BP's Communication Response to the Deepwater Horizon Spill (May 3); Communicating about the BP Oil Spill: What to Say; Who Should ..."
p3
aS"Sep 13, 2010 - ... it has delivered multiple Aeryon Scout UAVs to British Petroleum to aid in BP's oil spill clean-up efforts. The Aeryon Scout is a small, lightweight mini-helicopter ..."
p4
aS'Sep 13, 2010 - The scale of the BP oil spill can be hard to take in. Now, five months on, these shocking figures reveal the extent of the devastation. Compiled by Alice-Azania ...'
p5
aS'The British petroleum company, Tullow Oil, last Saturday announced its decision to prospect for oil in the south Omo valley, in southern Ethiopia. Tullow Oil ...'
p6
aS"Sep 13, 2010 - BP, like any other oil company, is in the petroleum game for one reason and one reason only: money. ... Similarly, a Guardian article by British academic Mark Coeckelbergh was ..... Why Are 'News' Media Hiding Them from the Public?"
p7
aS'Sep 13, 2010 - ... shared at the Bureau of Minerals and Petroleum a few blocks away, where Henrik Stendal has ... At around four times the size of Britain, Greenland is the least densely ... of Norway  but not BP  expected to begin frontier-drilling here for the first time. ..... 2016 Guardian News and Media Limited or its affiliated companies.'
p8
aS"Sep 13, 2010 - Other more buried news indicates that vast lakes of oil/water mixtures, perhaps ... Following in the steps of The Dome and Top Hat, British Petroleum's 3rd act, ..."
p9
aS'Sep 14, 2010 - An article in the Sacramento Bee last week raised concerns about the role of British Petroleum scientists in shaping a statewide k-12 science curriculum.'
p10
a.