(lp0
S'Sep 16, 2010 - A Pulitzer Prize-winning, non-profit, non-partisan news organization dedicated to ... "BP highlighted the increased risk profile of the petroleum industry and the ... British government officials voiced fears for pensioners whose income relied on ...'
p1
aS'He also said tests showed that the reservoir already was sealed off from all parts of the Macondo well after ...'
p2
aS"Sep 16, 2010 - Before It's News - Gulf disaster and FEMA evacuation information. ... BP (British Petroleum) Apocalypse Oil Volcano - Excellent collection of videos, maps and ..."
p3
aS'Sep 16, 2010 - BP Amoco Louisiana, an oil refinery with a location in Belle Chasse, Louisiana ... it was acquired by BP at some time after the British Petroleum-Amoco merger. ... Increased pressure from researchers, news media and citizen groups forced the ...'
p4
aS'Sep 17, 2010 - British Petroleum is again in the news after the oil spill issue. This time they stand accused for the failure in the safety provisions in the North Sea. M.'
p5
aS"Sep 16, 2010 - Oil Rig Survivor Blames BP For 'Screwed-Up Plan' That Lead to Gulf Disaster ... Deepwater Horizon, which was leased by British Petroleum, were not at fault. ... In an interview with Boomberg News, Trahan, along with his lawyer, tells his ..."
p6
aS'Sep 17, 2010 - Described as the most dangerous men in Britain, the Krays were never shy about posing ... The Newspaper is excellent - I\'ve read it for many years. ... sneery expresson for John Boehner that he reserved for "British Petroleum" (actually BP).'
p7
aS'Sep 17, 2010 - Discovery in Louisiana has prompted locals to question whether the BP Deepwater Horizon oil spill was responsible for the deaths. ... News; Opinion; Business; Money; Sport; Life; Arts; Puzzles; Papers; Irish news ... British Petroleum (BP) sign.'
p8
aS'Sep 17, 2010 - Cleaning beaches from Louisiana to Florida BP has granted certain media rights ... as a registered media news recipient of the British Petroleum press pool, ...'
p9
aS'Sep 17, 2010 - Information: A catalogue record of this book is available from the British Library. .... another done when British Petroleum (BP) plugged its well (August 9, 2010).'
p10
a.