(lp0
S'Sep 19, 2010 - A timeline of events since the 20 April start of the BP oil leak in the Gulf of Mexico. ... Responding to complaints in the British media of an anti-British tone to his ...'
p1
aS'Sep 20, 2010 - Five months after the start of the Gulf oil spill, BP on Sunday finally killed the ... of the green helio and the phrase "beyond petroleum" to replace British Petroleum. ... expert at the University of Kentucky in Lexington, in a university news story.'
p2
aS'Sep 20, 2010 - Tags : BP, BP oil spill, British Petroleum, Gulf, oil spill ... In the right column is a list of "latest information" links to news items and also PDFs and Word documents ...'
p3
aS"Sep 20, 2010 - In the light of British Petroleum's grotesque crime, as yet unfinished, against ... British imperialism was to reap the benefits of its victory over its imperialist rivals in ..."
p4
aS"Sep 19, 2010 - June 11 - Supportive comments from Britain lift BP's shares in London by 6.4 percent, but ... June 18 - Anadarko Petroleum, part owner of the gushing well, says BP was .... Thomson Reuters is the world's largest international multimedia news ..."
p5
aS'Sep 20, 2010 - I see these BP "Making It Right" campaign commercials on TV all the time. Why are they always black people? Does British Petroleum have a bunch of black ...'
p6
aS"Sep 19, 2010 - Det r det strsta oavsiktliga marina oljeutslppet i petroleum-industrins historia. ... En domstol i USA har fastslagit att projektets gare, BP's ansvar i mlet utgrs av .... http://www.bloomberg.com/news/articles/2015-05-20/transocean-joins- ..."
p7
aS'Sep 20, 2010 - The Coast Guard and British Petroleum have utilized several conventional oil spill .... (http://www.nwf.org/News-and-Magazines/National-Wildlife/Birds/Archives/ ...'
p8
aS'Sep 19, 2010 - La petrolera British Petroleum (BP) sell definitivamente este domingo el pozo situado a ms de cuatro kilmetros bajo el nivel del mar y cort ...'
p9
aS'Sep 20, 2010 - Thatcher authorized "swap" arrangements through British Petroleum (BP) to break the embargo and ensure a supply of oil reached South Africa. Similarly, the ...'
p10
a.