(lp0
S'Sep 21, 2010 - BOLTgroup in the News ... BP Faces Pressure to Change US Brand Name ... In 1998, the British Petroleum (previous name for BP) and Amoco Corp. merger ...'
p1
aS'Sep 21, 2010 - In June, British Petroleum (BP)the company responsible for the spillagreed to ... Scholastic News Online has been tracking the oil spill in the Gulf of Mexico.'
p2
aS'Sep 20, 2010 - Tags : BP, BP oil spill, British Petroleum, Gulf, oil spill ... In the right column is a list of "latest information" links to news items and also PDFs and Word documents ...'
p3
aS'Sep 20, 2010 - Five months after the start of the Gulf oil spill, BP on Sunday finally killed the ... of the green helio and the phrase "beyond petroleum" to replace British Petroleum. ... expert at the University of Kentucky in Lexington, in a university news story.'
p4
aS"Sep 21, 2010 - John Wright - the man who killed BP's Gulf of Mexico oil spill well ... sealed on Sunday, Wright returned to his native Houston and is now planning a break with his British wife Penny in California. ... A worker of Gujarat State Petroleum Corporation checks oil flow of well PK-2 during .... Catch up on all the latest football news."
p5
aS"Sep 21, 2010 - Ken Feinberg is in charge of spending the $20bn BP has set aside for victims of the Gulf of ... A worker of Gujarat State Petroleum Corporation checks oil flow of well PK-2 during ... From a rare pair of Gucci shoes, to spending 110,000 releasing an album, Britain's wealthiest are pulling out all the stops .... Retail News."
p6
aS"Sep 20, 2010 - In the light of British Petroleum's grotesque crime, as yet unfinished, against ... British imperialism was to reap the benefits of its victory over its imperialist rivals in ..."
p7
aS'Sep 22, 2010 - Posts about British Petroleum written by Diane Bushemi. ... But his presence in the news of late throws him into extreme scrutiny, and deservedly so. His decision ...'
p8
aS'Sep 20, 2010 - I see these BP "Making It Right" campaign commercials on TV all the time. Why are they always black people? Does British Petroleum have a bunch of black ...'
p9
aS'Sep 21, 2010 - British Petroleum, however, strongly disagrees with Graves and especially that ... one of the busiest months, I wish we had better news to report, Varone said.'
p10
a.