(lp0
S'Sep 21, 2010 - BOLTgroup in the News ... BP Faces Pressure to Change US Brand Name ... In 1998, the British Petroleum (previous name for BP) and Amoco Corp. merger ...'
p1
aS'Sep 21, 2010 - In June, British Petroleum (BP)the company responsible for the spillagreed to ... Scholastic News Online has been tracking the oil spill in the Gulf of Mexico.'
p2
aS'Sep 22, 2010 - Pensacola, FL The news in recent days about the successful and permanent closure ... by British Petroleum to run the Qualified Community Responder Program.'
p3
aS"Sep 22, 2010 - By now many of us have read of British Petroleum's increased ad spending in ... Every day you get up and see these full-page ads in every newspaper and the"
p4
aS"Sep 21, 2010 - Ken Feinberg is in charge of spending the $20bn BP has set aside for victims of the Gulf of ... A worker of Gujarat State Petroleum Corporation checks oil flow of well PK-2 during ... From a rare pair of Gucci shoes, to spending 110,000 releasing an album, Britain's wealthiest are pulling out all the stops .... Retail News."
p5
aS"Sep 21, 2010 - John Wright - the man who killed BP's Gulf of Mexico oil spill well ... sealed on Sunday, Wright returned to his native Houston and is now planning a break with his British wife Penny in California. ... A worker of Gujarat State Petroleum Corporation checks oil flow of well PK-2 during .... Catch up on all the latest football news."
p6
aS'Sep 22, 2010 - ... light of a dark, oily threat that loomed in the Gulf of Mexico, courtesy of British Petroleum. ... Post image for How has the BP Oil Spill Affected Your Business ... on Panama City Beach and the surrounding areas: news and issues related to our ...'
p7
aS"If the oil spill isn't bad enough for our ecosystem and marine life, they have come up with a way to deliver ..."
p8
aS'Sep 22, 2010 - You are in the current BP disaster ROV number 391; number 390 is here. .... Rigzone for specific disaster news and news about the offshore industry, in general. ... Gas Journal  Offshore Magazine  Petroleum News  Your Oil and Gas News .... British government issued a travel warning for LGBT tourists planning to visit ...'
p9
aS'Sep 22, 2010 - Jim Snyder of Bloomberg News reported late last night that although only .... British Petroleum undoubtedly hopes that something in between dark and light ...'
p10
a.