(lp0
S'Sep 22, 2010 - Pensacola, FL The news in recent days about the successful and permanent closure ... by British Petroleum to run the Qualified Community Responder Program.'
p1
aS"Sep 22, 2010 - By now many of us have read of British Petroleum's increased ad spending in ... Every day you get up and see these full-page ads in every newspaper and the"
p2
aS'Sep 22, 2010 - ... light of a dark, oily threat that loomed in the Gulf of Mexico, courtesy of British Petroleum. ... Post image for How has the BP Oil Spill Affected Your Business ... on Panama City Beach and the surrounding areas: news and issues related to our ...'
p3
aS'Sep 23, 2010 - Company News. EZ-Shop Logo Horizon .... In 1929, C. M. Brabham opened a small wholesale petroleum business as a reseller for Colonial Oil Read more.  ...'
p4
aS'Sep 23, 2010 - Category: News & Reports. .... The Deepwater Horizon oil spill (also referred to as the BP oil spill, the Gulf of Mexico oil spill, the BP oil disaster or the ... The British Petroleum followed four strategies to plug the leak BLOW OUT PREVENTER ...'
p5
aS"If the oil spill isn't bad enough for our ecosystem and marine life, they have come up with a way to deliver ..."
p6
aS'Sep 22, 2010 - You are in the current BP disaster ROV number 391; number 390 is here. .... Rigzone for specific disaster news and news about the offshore industry, in general. ... Gas Journal  Offshore Magazine  Petroleum News  Your Oil and Gas News .... British government issued a travel warning for LGBT tourists planning to visit ...'
p7
aS'Sep 22, 2010 - This shocking news came from Lieutenant General Babaker Zerbari and .... as the front man for British Petroleum, BP, Beyond Pathetic or whatever they are ...'
p8
aS'Sep 22, 2010 - Jim Snyder of Bloomberg News reported late last night that although only .... British Petroleum undoubtedly hopes that something in between dark and light ...'
p9
aS'Sep 23, 2010 - I think BP was the top line news at that time in every country and we can learn ... British Petroleum Build relationships before a crisis Assemble a social media ...'
p10
a.