(lp0
S'Sep 30, 2010 - A recent study shows that the BP oil spill could have been prevented by oversight by the ... bp, bp oil spill, british petroleum, landfills, waste, toxics, trash. BP is ...'
p1
aS'Sep 29, 2010 - BP incoming chief Robert Dudley unveiled big changes designed to improve ... in the worlds of diversified media, news, education, and information services.'
p2
aS'Sep 29, 2010 - In an effort to "rebuild trust in BP," following the aftermath of the Deepwater ... Get All the Oil & Gas Financial Journal News Delivered to Your Inbox for free.'
p3
aS'Sep 29, 2010 - ... an end to oil addiction, and perhaps the British Petroleum (BP) oil spill in the .... The BP spill is no longer front page news and now we are left with a choice: ...'
p4
aS'Sep 29, 2010 - explained that, BP assumes full responsibility for the oil spill. BP chose to adopt a ... The French petroleum group preferred to hide behind its legal umbrella ...'
p5
aS"Sep 30, 2010 - News in Brief  ONE@MIT. ... Ph.D. '01 and Stephen Masutani shared the prize with British Petroleum, one of the funders of a research project completed in 2000 ..."
p6
aS"Sep 29, 2010 - Whereas the Gulf of Mexico accident involving British Petroleum's Deepwater Horizon oil rig and well on April 20, 2010 is the biggest oil release in history, ..."
p7
aS"Sep 29, 2010 - Breaking news. Special report: how ... BP can't afford to be unlucky third time around .... Yeah, yeah, he wanted his life back, British Petroleum is his life. One can ..."
p8
aS'Sep 30, 2010 - Hot girls in bikinis shooting the British Petroleum 2010 swimsuit calender : Oil spill edition. ... NEW PIRATE PARTY News BP oil spill AID groups sick in hospitals ...'
p9
aS'Sep 30, 2010 - Florida Law Firm Fights for Victims of the BP Gulf Coast Disaster in Louisiana, ... A settlement reached between the federal government, British Petroleum and ...'
p10
a.