(lp0
S"Sep 8, 2010 - BP released its report into the oil spill which followed the Deepwater Horizon ... The publication of BP's report is headline news on many US news websites. .... In the 193-page report ... the British oil giant sought to spread some of the blame to ..."
p1
aS"Sep 8, 2010 - News navigation ... Here is a summary of what we know so far about the BP oil spill, and the primary questions that are still being ... This decision was wrong, but did not contribute to the disaster, the BP team said. .... Vote Leave and Britain Stronger in Europe are chosen as official campaigns for June's EU referendum."
p2
aS'Sep 8, 2010 - A long-awaited BP report lists eight reasons for the accident that caused its catastrophic Deepwater Horizon oil spill. ... Daily news. 8 September 2010 ...'
p3
aS"Sep 8, 2010 - A BLOG OF NEWS AND INSIGHT ... Mark Bly, BP's head of safety, summed it up in a series of eight key findings, presented at a press conference Wednesday ..."
p4
aS"Sep 8, 2010 - BP's internal investigation into the explosion of the Deepwater Horizon drilling rig found that the British oil giant bears some responsibility for the disaster ... News Corp is a network of leading companies in the worlds of diversified media, news, education, and information services. .... Goodrich Petroleum Files for Chapter 11."
p5
aS"Sep 8, 2010 - The White House is a 10 minute walk from where BP's top man on safety explained why 21:49pm ... UK News  ... A worker of Gujarat State Petroleum Corporation checks oil flow of well PK-2 during ... From a rare pair of Gucci shoes, to spending 110,000 releasing an album, Britain's wealthiest are pulling out all the stops ..."
p6
aS'Sep 8, 2010 - BP released the results of an internal investigation that heaped some of the blame ... In a news release, Halliburton officials rejected this view. ... Oil (Petroleum) and Gasoline Get E-Mail Alerts ... celebrity threesome  brazil  uk celebrity injunction  trump  threesome couple named  british celeb in threesome  pjs threesome ...'
p7
aS"Sep 7, 2010 - The return of 'Black Gold' is particularly timely, since this year's biggest news story  the British Petroleum oil platform explosion (in which 11 workers died) and ..."
p8
aS'Sep 7, 2010 - bp, bp oil spill, british petroleum, landfills, waste, toxics, trash ... The EPA defends its decision to allow BP to unload at the landfills, saying that it continues to monitor the ... Did Curiosity detect methane on Mars, or j... Plastic Rubbish. news.'
p9
aS'BP has published its internal investigation into the accident on the Deepwater Horizon rig in the Gulf of Mexico ...'
p10
a.