(dp0
(I5
I12
I2010
tp1
F2.191096643545801
s(I3
I31
I2010
tp2
F3.205172250817561
s(I12
I31
I2010
tp3
F2.7162649290313015
s(I5
I24
I2010
tp4
F1.8107483070585466
s(I10
I4
I2010
tp5
F4.0488502268173425
s(I2
I10
I2010
tp6
F2.167122020974372
s(I9
I24
I2010
tp7
F2.3442147033543845
s(I2
I25
I2010
tp8
F2.060766806322601
s(I7
I2
I2010
tp9
F1.3456235715663791
s(I5
I21
I2010
tp10
F2.389352981449288
s(I12
I21
I2010
tp11
F1.8032201118579763
s(I11
I2
I2010
tp12
F3.0705222012298052
s(I2
I4
I2010
tp13
F1.3317089490997236
s(I9
I2
I2010
tp14
F1.5776896916942222
s(I7
I30
I2010
tp15
F1.7272210285771323
s(I12
I10
I2010
tp16
F1.5323789730137376
s(I2
I19
I2010
tp17
F2.3004301237061946
s(I4
I28
I2010
tp18
F2.9755544253064135
s(I11
I22
I2010
tp19
F3.082456345557763
s(I7
I15
I2010
tp20
F1.4143287367510071
s(I9
I13
I2010
tp21
F2.7840988083807265
s(I9
I22
I2010
tp22
F2.5738366989722667
s(I1
I27
I2010
tp23
F2.5410295292885143
s(I4
I14
I2010
tp24
F1.8420380750151295
s(I7
I27
I2010
tp25
F3.029368283912466
s(I6
I2
I2010
tp26
F2.7223627591134205
s(I9
I17
I2010
tp27
F3.1514200095190557
s(I7
I20
I2010
tp28
F1.2348458652779044
s(I8
I4
I2010
tp29
F2.116403574159664
s(I6
I1
I2010
tp30
F2.651067825976348
s(I4
I26
I2010
tp31
F2.6045423503596337
s(I11
I12
I2010
tp32
F2.8407620412879235
s(I12
I28
I2010
tp33
F2.365587532378287
s(I1
I12
I2010
tp34
F2.9132148572472216
s(I4
I5
I2010
tp35
F1.7395637634017367
s(I1
I29
I2010
tp36
F1.5644642947293759
s(I8
I13
I2010
tp37
F1.910296172332397
s(I8
I24
I2010
tp38
F2.8850950473806067
s(I6
I21
I2010
tp39
F2.3890488590725627
s(I11
I11
I2010
tp40
F2.0503194348087366
s(I10
I29
I2010
tp41
F1.7455386893891323
s(I6
I4
I2010
tp42
F2.614730484013855
s(I8
I10
I2010
tp43
F1.8097457588576709
s(I8
I17
I2010
tp44
F2.0942978296554235
s(I1
I6
I2010
tp45
F3.3328197965860964
s(I10
I14
I2010
tp46
F1.3635134482718405
s(I6
I24
I2010
tp47
F1.9621193673996429
s(I5
I3
I2010
tp48
F1.4740567096410686
s(I12
I7
I2010
tp49
F2.85085750876824
s(I8
I30
I2010
tp50
F1.842833799738125
s(I6
I15
I2010
tp51
F1.53618344623734
s(I7
I29
I2010
tp52
F2.5412760854406544
s(I10
I7
I2010
tp53
F3.5008090282375277
s(I2
I18
I2010
tp54
F3.056244266573216
s(I3
I12
I2010
tp55
F2.7887530694241756
s(I5
I28
I2010
tp56
F2.4559728850424083
s(I10
I8
I2010
tp57
F3.582230254492782
s(I10
I19
I2010
tp58
F2.3316796618398175
s(I5
I13
I2010
tp59
F2.1439980054588115
s(I3
I16
I2010
tp60
F2.524723607834902
s(I12
I16
I2010
tp61
F2.077768097749893
s(I10
I20
I2010
tp62
F2.632445677910754
s(I9
I7
I2010
tp63
F2.4716906493656152
s(I7
I6
I2010
tp64
F1.3456235715663791
s(I5
I25
I2010
tp65
F1.8271810148706087
s(I12
I9
I2010
tp66
F2.49154075065538
s(I2
I9
I2010
tp67
F2.7876873070963897
s(I5
I6
I2010
tp68
F2.593436494570338
s(I2
I24
I2010
tp69
F2.5622911543084226
s(I9
I14
I2010
tp70
F2.754040317996386
s(I9
I27
I2010
tp71
F2.393297373571885
s(I12
I14
I2010
tp72
F1.6063177872567962
s(I2
I23
I2010
tp73
F2.41470280733059
s(I4
I16
I2010
tp74
F2.016703214507412
s(I11
I18
I2010
tp75
F2.5675695107779757
s(I5
I18
I2010
tp76
F1.451992788983671
s(I9
I9
I2010
tp77
F1.910116657570108
s(I1
I7
I2010
tp78
F3.4040907104306175
s(I8
I3
I2010
tp79
F2.466331893298091
s(I2
I3
I2010
tp80
F1.636164499456238
s(I11
I1
I2010
tp81
F3.4021046079809314
s(I1
I20
I2010
tp82
F3.148343177175572
s(I6
I14
I2010
tp83
F2.911638569727414
s(I9
I29
I2010
tp84
F2.5051496345036828
s(I7
I8
I2010
tp85
F2.90057212178055
s(I8
I23
I2010
tp86
F2.3345026255228443
s(I4
I30
I2010
tp87
F1.1030132259287406
s(I11
I8
I2010
tp88
F2.8917015511622246
s(I1
I8
I2010
tp89
F3.4499052269603054
s(I4
I9
I2010
tp90
F3.1262411452927457
s(I6
I18
I2010
tp91
F3.0493133093792077
s(I1
I25
I2010
tp92
F2.463814634071437
s(I8
I9
I2010
tp93
F2.1214670343890436
s(I8
I20
I2010
tp94
F1.9302369078221746
s(I6
I17
I2010
tp95
F2.414191697268174
s(I3
I1
I2010
tp96
F2.427563883380637
s(I10
I1
I2010
tp97
F1.9645669954955467
s(I4
I21
I2010
tp98
F1.3639916900584355
s(I3
I2
I2010
tp99
F1.6189935824440085
s(I1
I13
I2010
tp100
F3.0499313712087073
s(I3
I22
I2010
tp101
F2.910743537703794
s(I8
I26
I2010
tp102
F1.5094824598127607
s(I6
I11
I2010
tp103
F1.8907935293742724
s(I10
I11
I2010
tp104
F2.6063094093479733
s(I3
I8
I2010
tp105
F2.8574623527412615
s(I5
I19
I2010
tp106
F1.3612895221788475
s(I12
I23
I2010
tp107
F1.9097103391702432
s(I10
I12
I2010
tp108
F2.085443712772668
s(I2
I2
I2010
tp109
F2.267911540864489
s(I2
I17
I2010
tp110
F1.988703722722498
s(I7
I9
I2010
tp111
F2.7711124594468335
s(I1
I11
I2010
tp112
F2.5724508921006013
s(I9
I20
I2010
tp113
F1.8435266862352544
s(I12
I13
I2010
tp114
F1.8896019309710161
s(I4
I8
I2010
tp115
F2.8002803466168844
s(I5
I10
I2010
tp116
F1.0895370837791067
s(I7
I21
I2010
tp117
F1.874617508528751
s(I9
I10
I2010
tp118
F1.7757637282643395
s(I9
I23
I2010
tp119
F2.8693317387510846
s(I7
I22
I2010
tp120
F1.5255405628101961
s(I12
I2
I2010
tp121
F1.7566538994104517
s(I7
I7
I2010
tp122
F2.90057212178055
s(I4
I7
I2010
tp123
F4.039649751165575
s(I2
I8
I2010
tp124
F1.6216277815398856
s(I9
I30
I2010
tp125
F1.846594362806391
s(I1
I19
I2010
tp126
F2.981531500435526
s(I12
I30
I2010
tp127
F1.2496122914208525
s(I7
I19
I2010
tp128
F2.2849383900717943
s(I4
I19
I2010
tp129
F2.390555361950494
s(I7
I12
I2010
tp130
F2.5123373722650886
s(I8
I12
I2010
tp131
F1.8493277470361142
s(I8
I19
I2010
tp132
F1.946501763821743
s(I11
I4
I2010
tp133
F3.7816594711606255
s(I11
I17
I2010
tp134
F3.1991908897842496
s(I1
I4
I2010
tp135
F2.050264700066186
s(I4
I13
I2010
tp136
F2.8980872196822953
s(I6
I30
I2010
tp137
F1.3456235715663791
s(I1
I21
I2010
tp138
F1.6523376405561379
s(I11
I3
I2010
tp139
F3.168340760177264
s(I11
I24
I2010
tp140
F2.8678299077667337
s(I3
I29
I2010
tp141
F1.7314205442038941
s(I10
I5
I2010
tp142
F4.476735041421076
s(I8
I25
I2010
tp143
F1.9460088375200955
s(I11
I23
I2010
tp144
F3.4472472875787856
s(I6
I16
I2010
tp145
F1.5391776408115505
s(I5
I11
I2010
tp146
F1.7714930601611096
s(I3
I18
I2010
tp147
F2.143842657090728
s(I8
I6
I2010
tp148
F1.9623270417076064
s(I6
I7
I2010
tp149
F3.32426498019549
s(I3
I3
I2010
tp150
F1.8736923087374981
s(I10
I15
I2010
tp151
F1.9419891358103265
s(I10
I18
I2010
tp152
F1.8480358616282324
s(I5
I7
I2010
tp153
F2.175948556591457
s(I5
I4
I2010
tp154
F1.1458441553566232
s(I3
I23
I2010
tp155
F3.1187290174586093
s(I10
I27
I2010
tp156
F1.697759120606021
s(I2
I22
I2010
tp157
F1.8274511039033958
s(I3
I24
I2010
tp158
F3.2574585444133475
s(I12
I8
I2010
tp159
F2.74501824689403
s(I8
I16
I2010
tp160
F2.548857957071547
s(I10
I28
I2010
tp161
F2.5408604422063368
s(I9
I15
I2010
tp162
F2.422321195994119
s(I9
I16
I2010
tp163
F2.9863223550936833
s(I12
I1
I2010
tp164
F1.387919551337835
s(I12
I20
I2010
tp165
F1.6613174528143808
s(I2
I1
I2010
tp166
F1.972983065487414
s(I5
I14
I2010
tp167
F2.0964275523639597
s(I2
I16
I2010
tp168
F2.1767828842746115
s(I9
I3
I2010
tp169
F2.6685563999735495
s(I12
I6
I2010
tp170
F2.0930837978553543
s(I12
I29
I2010
tp171
F1.5463266605982995
s(I11
I10
I2010
tp172
F1.6412396683516461
s(I5
I26
I2010
tp173
F1.5265728711558175
s(I2
I12
I2010
tp174
F2.258675382578508
s(I8
I11
I2010
tp175
F1.6454456917733358
s(I3
I17
I2010
tp176
F2.509644394951969
s(I11
I30
I2010
tp177
F1.505647395163178
s(I7
I23
I2010
tp178
F2.630360108404752
s(I4
I23
I2010
tp179
F3.0334663751072695
s(I8
I31
I2010
tp180
F1.9163185765230155
s(I4
I6
I2010
tp181
F2.723873622303984
s(I11
I29
I2010
tp182
F1.4186228341842506
s(I6
I10
I2010
tp183
F2.622178357157011
s(I7
I28
I2010
tp184
F3.029368283912466
s(I6
I9
I2010
tp185
F3.017925467254395
s(I3
I9
I2010
tp186
F2.260929947404279
s(I4
I29
I2010
tp187
F2.4067101949979257
s(I3
I10
I2010
tp188
F2.2290929870732508
s(I1
I5
I2010
tp189
F2.33334098438287
s(I8
I5
I2010
tp190
F2.2908088495647116
s(I6
I29
I2010
tp191
F1.9333442143398387
s(I11
I19
I2010
tp192
F2.5966170995414313
s(I1
I26
I2010
tp193
F2.298649221547859
s(I10
I21
I2010
tp194
F2.149263901924918
s(I3
I30
I2010
tp195
F2.449425641209694
s(I8
I2
I2010
tp196
F2.8718700193773454
s(I6
I3
I2010
tp197
F2.521443788965864
s(I3
I15
I2010
tp198
F2.7378457954077153
s(I1
I14
I2010
tp199
F1.6972351425399659
s(I10
I6
I2010
tp200
F3.556577997026206
s(I5
I27
I2010
tp201
F1.4120194835633926
s(I12
I15
I2010
tp202
F1.5431057035530067
s(I6
I23
I2010
tp203
F2.2143514761524106
s(I3
I19
I2010
tp204
F2.303258619242218
s(I2
I26
I2010
tp205
F0.9166062330437362
s(I9
I8
I2010
tp206
F1.9609034156995622
s(I3
I4
I2010
tp207
F3.4215135595343384
s(I4
I20
I2010
tp208
F1.148747272421502
s(I12
I27
I2010
tp209
F2.4391053466702544
s(I7
I1
I2010
tp210
F1.3456235715663791
s(I5
I20
I2010
tp211
F1.9738218976243302
s(I9
I28
I2010
tp212
F2.5085963000534135
s(I5
I5
I2010
tp213
F2.635880941284826
s(I2
I5
I2010
tp214
F2.4115877570456763
s(I7
I13
I2010
tp215
F1.9209554435242644
s(I7
I14
I2010
tp216
F2.4694513912495517
s(I5
I17
I2010
tp217
F1.951855593426938
s(I12
I17
I2010
tp218
F2.22223186261331
s(I4
I12
I2010
tp219
F2.1144374792096032
s(I4
I15
I2010
tp220
F1.7788411751882314
s(I10
I22
I2010
tp221
F2.2093527144478995
s(I7
I26
I2010
tp222
F1.9920785406970267
s(I12
I22
I2010
tp223
F1.9520741490131852
s(I11
I5
I2010
tp224
F2.8481799467949016
s(I11
I26
I2010
tp225
F1.976872773866428
s(I4
I27
I2010
tp226
F2.2417423241497754
s(I9
I1
I2010
tp227
F1.47582807662259
s(I1
I15
I2010
tp228
F1.8832189566351858
s(I8
I27
I2010
tp229
F1.6553968522034452
s(I2
I11
I2010
tp230
F2.3744573478060507
s(I11
I9
I2010
tp231
F2.4203311499981948
s(I1
I28
I2010
tp232
F2.0015661891409016
s(I6
I22
I2010
tp233
F1.9352939682247368
s(I9
I21
I2010
tp234
F2.302777211016974
s(I7
I16
I2010
tp235
F1.709977821007901
s(I4
I22
I2010
tp236
F2.7754942320662708
s(I11
I16
I2010
tp237
F2.317667258904427
s(I3
I5
I2010
tp238
F2.8172211184791593
s(I10
I13
I2010
tp239
F1.5008987931280735
s(I4
I1
I2010
tp240
F1.9937304633505375
s(I6
I25
I2010
tp241
F1.9546828405299257
s(I11
I15
I2010
tp242
F2.5864915911653834
s(I1
I22
I2010
tp243
F2.309654543849688
s(I3
I25
I2010
tp244
F2.8136157959905
s(I10
I25
I2010
tp245
F3.124185690415597
s(I6
I8
I2010
tp246
F3.1273839623308075
s(I3
I26
I2010
tp247
F2.992129794647562
s(I3
I11
I2010
tp248
F2.8407416101392737
s(I10
I26
I2010
tp249
F2.052595179152009
s(I6
I28
I2010
tp250
F1.7731126572535911
s(I12
I3
I2010
tp251
F1.9618545994335184
s(I8
I18
I2010
tp252
F2.0194239603561073
s.