(lp0
S'CNN'
p1
aS'The Guardian'
p2
aS'OilPrice'
p3
aS'Discover'
p4
aS'American Association of University Professors'
p5
aS'London Evening Standard'
p6
aS'Emirates 24/7'
p7
aS'The Daily Telegraph'
p8
a.