(lp0
S'OilPrice'
p1
aS'The New York Times'
p2
aS'London Evening Standard'
p3
aS'Discover'
p4
aS'Emirates 24/7'
p5
aS'The Daily Telegraph'
p6
aS'The Daily Telegraph'
p7
aS'Rediff.com'
p8
aS'University of California, San Diego'
p9
a.