(lp0
S'The Wall Street Journal'
p1
aS'Occupational Safety and Health Administration'
p2
aS'Permaculture Research Institute'
p3
aS'Democracy Now!'
p4
aS'The Local'
p5
aS'Bloomberg L.P.'
p6
aS'Oil & Gas Journal'
p7
aS'This is Money'
p8
a.