(lp0
S'BBC'
p1
aS'Salon'
p2
aS'Yale University'
p3
aS'Toronto Star'
p4
aS"Koenig's International News"
p5
aS'Sea Shepherd Conservation Society'
p6
aS'Phys.org'
p7
aS'Daily Mail'
p8
aS'Mother Jones'
p9
aS'Libcom'
p10
a.