(lp0
S'Nov 19, 2010 - As reported in a Morgan Keegan/CSP Daily News Flash yesterday, BP is ... the former British Petroleum, Amoco, Atlantic Richfield (ARCO) and Burmah Castrol.'
p1
aS'Nov 18, 2010 - Families raised $22,346, an amount matched by British Petroleum for a grand ... Visit OC Moms for deals, events, features, contests, and news & information just ...'
p2
aS'Nov 17, 2010 - Bringing you the important headlines of local Anna Maria Island news. ... called for a fulltime, Gulf-wide response organization - paid for by British Petroleum - to ...'
p3
aS'Nov 18, 2010 - Company News  CSR Events ... Intent: viewer will associate BP with warm and fuzzy solar panels instead of oil spills. 4. ... Example: BP (formerly known as British Petroleum) redefined as Beyond Petroleum, presumably following linguistic ...'
p4
aS"Nov 18, 2010 - Colorado Breaking News, Sports, Weather, Traffic. Scrooge: You gotta .... It's a tie between British Petroleum and subprime lending institutions. All that damage ..."
p5
aS"Nov 18, 2010 - BG Group was formed in 1997 as a result of the demerger of British Gas. While Centrica took responsibility of ... Business Latest News  ... Top fund manager Mark Barnett: 'Why I am buying bombed-out BP'  Oil giant Royal ... cuts too deep  A worker of Gujarat State Petroleum Corporation checks oil flow of well PK-2 during ..."
p6
aS"Nov 17, 2010 - In April BP began oil production from the U.K. North Sea's Harding field, using a .... field tied back to a new platform in Heimdal field, where Elf Petroleum Norge AS is operator. ... However, Britain's low gas prices following gas market liberalization have meant ..... Get All the Oil and Gas Journal News Delivered to Your Inbox."
p7
aS'Nov 19, 2010 - Join LinkedIn to get the latest news, insights, and opportunities from over 3 million ... producers. d) British Petroleum & Gastrol : First BP and Gastrol distributor in ...'
p8
aS'Nov 18, 2010 - By Dave Brown  Exclusive to Gas Investing News ... producers PetroChina, Sinopec, CNOOC and Shaanxi Yanchang Petroleum Group Co in an auction to take ...'
p9
aS'Nov 17, 2010 - BP Consultancy Services Team has extensive experience in high-profile, industry ... now known as the British Petroleum Company and Chevron Corporation.'
p10
a.