(lp0
S'Nov 15, 2010 - The exit of multinational British Petroleum from the Tanzania market faces stiff opposition from its workers who want to know their fate before any.'
p1
aS"Nov 15, 2010 - BP-British Petroleum - The Unfinished Crimes and Plunder of ... Cheney, Rothschild, and Fox News' Murdoch to Drill for Oil in Syria, Violating International Law."
p2
aS"Nov 14, 2010 - ... has confirmed that Angola's state-owned petroleum company, Sonangol (Sociedade de Combustveis de Angola), intends to take a ... Notes to News Editors: ..."
p3
aS"Nov 15, 2010 - BP has agreed the 296m sale of stakes in its refining and marketing operations in ... Business Latest News  ... A worker of Gujarat State Petroleum Corporation checks oil flow of well PK-2 during ... From a rare pair of Gucci shoes, to spending 110,000 releasing an album, Britain's wealthiest are pulling out all the stops ..."
p4
aS"Nov 14, 2010 - The MC 252 well has been officially shut since 15 July (BP's press release .... Just as our News media has worked hard to meet the British Petroleum / City of ..."
p5
aS'Nov 15, 2010 - And then, suddenly, it disappearedfrom the 24-hour news cycle and, ... As part of its Operation Deep Clean, British Petroleum is digging deep into the sand to ...'
p6
aS"Nov 14, 2010 - Not to mention multi-national corporations like BP, Transamerica, and Shell Oil .... right, most vociferously from former beauty queen, Fux News' Gretchen Carlson. .... consonant with the company's adoption of the tagline Beyond Petroleum in 2001. ... between President Obama and the British Prime Minister David Cameron."
p7
aS'Nov 14, 2010 - National Commission on the BP Deepwater Horizon Oil Spill and Offshore .... Conoco (later merged with Phillips), British Petroleum (later BP), Mobil (later ...'
p8
aS"Nov 14, 2010 - BP subsequently asked Elf to participate in spring 1996 Sale 157. .... Canyon area, and with Anadarko Petroleum Corp. in a deal covering subsalt OCS acreage. ... Other non-U.S. companies active in the gulf include London's British-Borneo Exploration Inc., ... Get All the Oil and Gas Journal News Delivered to Your Inbox."
p9
aS"Nov 15, 2010 - ... Halliburton and British Petroleum following the Deepwater Horizon oil spill in the ... Karl Rove (the man known as Bush's brain) is now a pundit on Fox News."
p10
a.