(lp0
S'Nov 30, 2010 - News, Analysis and Action ... BP Sued in Ecuador for Violating the Rights of Nature, PDF, Print, E-mail ... They also demand that British Petroleum leaves the same amount of oil spilled in the Gulf of Mexico, underground, unexplored; and that it ...'
p1
aS'Nov 29, 2010 - British Petroleum reached an agreement to sell its 60% stake in an Argentine oil and gas company to its ... MercoPress - South Atlantic News Agency.'
p2
aS"Nov 30, 2010 - Especially that the BP narrative is nothing but a corporate-created illusion ..... Here's a link to the American Petroleum Institute website that will partially ..... The official spin is that we do not need anymore bad news to derail the financial recovery. ... date on the Oceaneering ROV is on dd-mm-yy British not American format."
p3
aS"Nov 30, 2010 - The biggest deception in the BP's Mega Oil Spill disaster has been the existence of .... The official spin is that we do not need anymore bad news to derail the ... Voice of America might not be aware that the date on the Oceaneering ROV is on dd-mm-yy British not American format. .... BP is truly now way beyond petroleum."
p4
aS'Nov 29, 2010 - Consider this: An entire 450-mile-long coastline of Florida was not touched by British Petroleum. Consider further: This coastline -- which abuts the Atlantic ...'
p5
aS'Nov 30, 2010 - (which is incidentally 40% owned by Shell Petroleum). ... NIKKEI BP (JAPAN) ARTICLE: Gripe sites are becoming more powerful: 13 Nov 2007 ... DAILY MAIL NEWSPAPER ARTICLE: Shell shock as Cook is first to go in Voser Cull: 27 May 2009 ... Bad Publicity plus British Humour puts Shell on the defensive: April 2012'
p6
aS'Nov 29, 2010 - News: Residents kept united front for gas leak cleanup | residents, ... British Petroleum had begun work to clean up contaminated soil where vapors from ...'
p7
aS"Nov 30, 2010 - now, the BP oil spill, both of which are very serious from .... Piper Alpha Disaster (1988): Occidental Petroleum's off-shore oil platform explosion; 167 killed; 2 biilion in losses. BhopalGas Tragedy ... report's findings in 1988, the British government moved the ..... ''BP's. Dismal Safety Record,'' ABC News (May 27, 2010). Avail-."
p8
aS'Nov 30, 2010 - British Petroleum has concentrated 100 percent of its oil production and 80 percent ... Branches of American and British petroleum monopolies are among the leading .... Petroleum Monopolies of the Capitalist Countries; Petroleum News Net ...'
p9
aS'He was democratically elected but he threatened to nationalize British Petroleum (BP) and potential U.S. oil firms in Iran. Twenty five years later, the inevitable ...'
p10
a.