(lp0
S'Nov 9, 2010 - Tony Hayward: BP not prepared for fallout, was on financial brink ... to the company as "British Petroleum" rather than as "BP," underscoring that a foreign-based company was at fault for the disaster. "I don\'t .... Explore the news with NewsPulse '
p1
aS"Nov 9, 2010 - Commission identifies 'incredible failures' at BP, Halliburton and Transocean ahead of ... BP and the other companies involved in the Gulf of Mexico oil disaster were operating ... More news ... I guess all the fuss about British Petroleum was a smokescreen dreamed up by the BP PR department to get back at the Americans."
p2
aS"Nov 8, 2010 - A new report from the BP funded Energy Biosciences Institute (EBI) in ... very successful blogs that cover, energy, technology, news and politics. full bio ... Apr 2016; Why Britain's Bespoke Nuclear Program Won't Work - 02 Apr 2016 ... Biofuels aren't a solution to petroleum replacement - by enlarge - biofuels are petroleum."
p3
aS'Nov 8, 2010 - 80beats: Gulf Coast Turtle News: No More Fiery Death; Relocating 70,000 Eggs ... Eliza, DISCOVER online news editor .... We need to fine British Petroleum.'
p4
aS'Nov 10, 2010 - BP, Corporate R&amp;D, and the University; Russ Lea. ... I felt it was my duty to stay connected with emerging news, briefings, and meetings related to the spill.'
p5
aS'Nov 8, 2010 - An IT consultant for BP who has been living in a 815-a-night suite at The Ritz for almost three years today claimed her five-star accommodation was cheaper ...'
p6
aS'Nov 8, 2010 - According to a recent British Petroleum PR piece, gulf seafood is safe and ... Join over one million monthly readers and receive breaking news, strategies, ideas ...'
p7
aS'Nov 9, 2010 - In the UK, there was anger at the American press and news outlets for the misuse of the term "British Petroleum" for the company  a name which has not been ...'
p8
aS"Nov 8, 2010 - ... by Emirates 24/7 at the Abu Dhabi International Petroleum Exhibition which concluded on Thursday. ... worldwide following the massive leakage in British Petroleum's concession in the Gulf of Mexico. .... Don't miss out on the latest news"
p9
aS'Nov 8, 2010 - Rediff News All News ... He is very optimistic about the job scenario in the petroleum sector in the coming years, ... Accenture, Adani, BPCL, British Gas, CRISIL, Deloitte, Essar Oil, GAIL, Gulf Oil, HPCL, Indian Oil, Infosys, Jindal Group, L&T.'
p10
a.