(lp0
S"Dec 2, 2010 - White House report labels BP's safety lapses 'chronic' and says fatal Gulf of Mexico ... Bad management and a communications breakdown by BP and its Macondo well .... 2016 Guardian News and Media Limited or its affiliated companies."
p1
aS'Dec 2, 2010 - WASHINGTON - Staffers for the National Oil Spill Commission said today that the BP disaster was avoidable if the company and its contractors deployed better ...'
p2
aS'Dec 1, 2010 - Last month, BP increased by $8 billion the financial provisions it was taking for the Gulf of ... "It was an unprecedented string of bad news," Simon Hawkins, oil analyst at .... Anadarko Petroleum, 25 percent owner of the blown-out well, and 10 percent .... Follow all the latest developments as Britain counts down to the June 23 ...'
p3
aS'Dec 1, 2010 - under lease to British Petroleum, PLC (BP), for the purpose of .... Say, ASSOCIATED PRESS (May 22, 2010), http://www.nola.com/news/gulf-oil-spill/index.ssf/.'
p4
aS'Dec 2, 2010 - ,     BP   -   ....     ,      (True News) 28  2010  .... 3 - British Petroleum (.'
p5
aS"Dec 1, 2010 - For months, the U.S. government and Deepwater's operator, British Petroleum PLC, dodged questions: How did the explosion happen? Was oil spilling from the ..."
p6
aS'Dec 2, 2010 - This state-owned organization was founded in 1934 by Anglo-Persian Petroleumnow known as the British Petroleum Company and Chevron Corporation.'
p7
aS"Dec 2, 2010 - Vladimir Putin won't be shaken by news that a US diplomat believes he knew ... this wiki leaks stuff, Barak Obama going from calling BP to BRITISH Petroleum."
p8
aS'Dec 1, 2010 - That would value the British company at 805m. ... Shares in Wellstream, which hit a year high of 789p following news of the ... A worker of Gujarat State Petroleum Corporation checks oil flow of well PK-2 during ... A section of the BP ETAP (.'
p9
aS'Dec 2, 2010 - The Asarpotas were transferred by British Petroleum from Bahrain to an area known as the Gulf Trucial States. "Back then, Dubai didn\'t exist. It was just desert ...'
p10
a.