(lp0
S'Dec 6, 2010 - BP avoided many of the conspicuous communications failures of the Exxon Valdez .... BP began to bring more news people to the offshore Macondo wellsite. ..... crude and natural and the downstream marketing supply of petroleum products.'
p1
aS"Dec 6, 2010 - The British Petroleum oil spill that captured the world's attention last spring may have stopped months ago, but coping with the aftereffects of the disaster."
p2
aS"Dec 5, 2010 - Skewed communication lines between BP, Halliburton, and Tranocean, as well as ... BP's estimated total cost from the Deepwater Horizon disaster will total about $40 ... In other news, you should stay tuned this week for Alvin's last stand (until ..."
p3
aS'Dec 5, 2010 - Investigators for the National Commission on the BP Deepwater Horizon Oil Spill ...... then, however, Lord Browne is back in the news, being appointed as the U.K. ... purchased Amoco for $57 billion, and British Petroleum renamed itself BP ...'
p4
aS"Dec 6, 2010 - Add petroleum reserves to the mix and, as the National Intelligence Council ... of the Deepwater Horizon oil disaster in the Gulf of Mexico was not BP's sloppy ..."
p5
aS'Dec 6, 2010 - ... the metamorphosis of British Petroleum into BP. The matter was put up to Bharti Airtel Chairman Sunil Mittal. Top Bharti Airtel executives enjoy great autonomy ...'
p6
aS"Dec 5, 2010 - ... pipelines traverse through Chevron, Castex and British Petroleum's surfaces, ... in Portland. photo by John Ewing / Portland Press Herald via news.cnet After ..."
p7
aS'Dec 6, 2010 - The locomotive has now been kindly donated to the EHR by British Petroleum. It was named Louise on arrival at Elsecar, and is used on the heaviest passenger ...'
p8
aS'Dec 5, 2010 - News Photos -- Dec. 5, 2010 Advance file .... Is slammed for campaign mailings that look to link Grimm to school-bus cuts and Gulf polluter British Petroleum.'
p9
aS'Dec 6, 2010 - Store  Top Stories  Breaking News; Contact .... uses its commercials to oppose cutting down trees and British Petroleum advocates reducing the use of oil. [19].'
p10
a.