(lp0
S'Dec 8, 2010 - Website of the Telegraph Media Group with breaking news, sport, business, latest ... called "British Petroleum" (it has been BP for the past decade, ever since the ...'
p1
aS"Dec 8, 2010 - Peak Oil News and Message Boards is a community and collaboration portal about ... Especially that the BP narrative is nothing but a corporate-created illusion  a ..... Here's a link to the American Petroleum Institute website that will partially ..... the date on the Oceaneering ROV is on dd-mm-yy British not American format."
p2
aS'Dec 8, 2010 - British oil company BP is challenging the government estimate of how much oil spilled into ... Matt Gutman from ABC News takes us down to the ocean floor in a ...'
p3
aS'Dec 8, 2010 - Pictures, Videos, and Reports on the British Petroleum (BP) Deepwater Horizon Accident ... on the Deepwater Horizon. Part 1. Watch CBS News Videos Online ...'
p4
aS'Dec 7, 2010 - Lady Gaga, with the British Petroleum corporate logo at her feet, is depicted as a nude modern-day Saint Francis of Assisi as she embraces ailing octopi limply ...'
p5
aS'Dec 7, 2010 - Lady Gaga, with the British Petroleum corporate logo at her feet, is depicted as a nude modern-day Saint Francis of Assisi as she embraces ailing octopi limply ...'
p6
aS'Dec 8, 2010 - She said the minister of state for petroleum resources, Odein Ajumogobia, had denied the letter had ... Pickard also said Shell had learned from the British government details of Russian energy ... She may be concerned that ... bad news about Shell\'s Nigerian operations will leak out." ..... Shall you face the same fait as BP?'
p7
aS"Dec 8, 2010 - based Unipec trader leaves to join BP in London. ... China International United Petroleum & Chemical Corp. ... crude out of the company's Beijing office, will take up a trading role with British oil giant BP Plc (BP. ... Thomson Reuters is the world's largest international multimedia news agency, providing investing news, world ..."
p8
aS"Dec 8, 2010 - He also spent 10 years at British Petroleum's Crude & Products Pipelines and Chemicals divisions in a number of business development, marketing, operations ..."
p9
aS'Dec 8, 2010 - NIGERIA MASTERWEB CITIZEN NEWS ... We are all know how British Petroleum, BP attempted to sell off some of its pipeline assets in Russia in other to pay for ...'
p10
a.