(lp0
S'Dec 8, 2010 - Website of the Telegraph Media Group with breaking news, sport, business, latest ... called "British Petroleum" (it has been BP for the past decade, ever since the ...'
p1
aS"Dec 9, 2010 - The BP (BP) oil spill in the Gulf of Mexico did that market no favors. ... With British Petroleum stepping up to the plate and oil no longer spilling into ... Access to Jim Cramer's daily blog; Intraday commentary and news; Real-time trading forums."
p2
aS'Dec 8, 2010 - British oil company BP is challenging the government estimate of how much oil spilled into ... Matt Gutman from ABC News takes us down to the ocean floor in a ...'
p3
aS'Dec 8, 2010 - She said the minister of state for petroleum resources, Odein Ajumogobia, had denied the letter had ... Pickard also said Shell had learned from the British government details of Russian energy ... She may be concerned that ... bad news about Shell\'s Nigerian operations will leak out." ..... Shall you face the same fait as BP?'
p4
aS"Dec 8, 2010 - based Unipec trader leaves to join BP in London. ... China International United Petroleum & Chemical Corp. ... crude out of the company's Beijing office, will take up a trading role with British oil giant BP Plc (BP. ... Thomson Reuters is the world's largest international multimedia news agency, providing investing news, world ..."
p5
aS"Dec 10, 2010 - 879 BP Job vacancies available on Indeed.co.uk. one search. all jobs. ... of the world's biggest businesses (Ford, BP, Visa, Unilever, News UK, ..."
p6
aS'Dec 9, 2010 - News and Views from the Global South. Africa  Asia-Pacific  Europe ... BOLIVIA: Madidi National Park and the Curse of Petroleum. By Franz Chvez Reprint ...'
p7
aS'Dec 9, 2010 - Mexico Sues BP Mexico Expected to Sue BP Over Oil Spill in Gulf of Mexico Sept. ... Gulf of Mexico Oil Spill News of Oil Spill Jobs, New Business, Oil Spill Specials/Benefits, Personal ..... British Petroleum Stock Price (5); Tony Hayward (2).'
p8
aS"Dec 9, 2010 - ... watched the low-quality videos of the oil spill released by British Petroleum. .... While BP's deepwater spill in the Gulf of Mexico was worldwide news for ..."
p9
aS'Dec 8, 2010 - The Nigerian National Petroleum Company (NNPC) was previously forced to reduce its ..... In a recent interview with THIS DAY Newspaper published last Sunday, Dec., 5, ... If they are not British dogs they will be a dog to a country in Europe or the ..... Do Jonathan have the courage to nationalise Shell, just as OBJ did to BP ...'
p10
a.