(lp0
S'Jan 21, 2010 - BP PLC has signed an agreement under which KBR will offer licensing and engineering ... Get All the Oil and Gas Journal News Delivered to Your Inbox .... of crude and natural and the downstream marketing supply of petroleum products.'
p1
aS'Jan 21, 2010 - In November, British giant BP and China National Petroleum Corp. won the first oil contract of the post-Saddam era to redevelop Rumaila. Located on the border ...'
p2
aS"Jan 21, 2010 - 6.6 The dynamics of British Petroleum' news announcements . . 72. 6.7 The rolling mean of the number of British Petroleum' news announcements ..."
p3
aS'Jan 21, 2010 - In November, British giant BP and China National Petroleum won the first oil contract of the post-Saddam era to redevelop Rumaila. Located on the border with ...'
p4
aS'Jan 21, 2010 - emergency response associated with the BP oil spill response off the Gulf Coast. ..... British Petroleum ... Environmental News Network http://www.enn.com/.'
p5
aS'Jan 22, 2010 - Grants  Funding Opportunities  News Resources and Professional Journals ... Photos: British Petroleum Oil Spill: Grand Isle, Port Fourchon and Fourchon ...'
p6
aS"Jan 23, 2010 - Makin soon spotted a new trend among British youth. ..... Newspaper article from: The Birmingham Post (England) Byline: John Revill The European Structured Finance Group ... British Petroleum's Sir John Browne, pulled off...good and ready."
p7
aS'Jan 22, 2010 - The excitement created by the news of the oil strike offshore Ghana in 2004 has ... and commercial offices is a combination of their inherited British restraint and ... Supporters of Edusei and Owusu allege that the Ghana National Petroleum ...'
p8
aS'Jan 22, 2010 - Prof. of Petroleum & Geosciences Engineering, UT-Austin; Amy Hardberger, ... May Akrawi, Consul for Science & Innovation, British Consulate-General Houston.'
p9
aS'Jan 21, 2010 - BNamericas develops thousands of news articles, analyses and features ... Up-to-the-minute and field-proven industry news in English and Spanish; Insight'
p10
a.