(lp0
S'Jan 25, 2010 - creations. British  Petroleum: Environment: We. are committed to the safety and development of ... British Petroleum over breach of contract and negligence.'
p1
aS"Jan 24, 2010 - It was 5 o'clock on a Saturday morning, Aug. 8, down at the Port of Anchorage. Steve Sautel, logistics coordinator for BP Alaska, was there to greet a cargo ship ..."
p2
aS"Jan 25, 2010 - City State of London houses Fleet Street's newspaper and publishing ... manage Rothschild oil asset British Petroleum (BP) The Crown Corporation holds title to ..."
p3
aS'Jan 26, 2010 - The news that the mystery has been solved is welcomed by farmers and the beekeeping ... Labels: Environment News ..... British Petroleum may go bankrupt'
p4
aS'Jan 25, 2010 - LILITH NEWS. American, Canadian & International News Commentary: Spreading Freedom in the Face of Tyranny ...... British Petroleum may go bankrupt'
p5
aS"Jan 25, 2010 - There was no good way to break the news that Nigerian militants had issued the oil ... BP's Iraq oil deal faces court battle ... Mr Lukman, who is responsible for overseeing the award of petroleum .... 'British Gas overcharged us by 10,000'."
p6
aS'Jan 25, 2010 - The Move to International Markets Dick Pogue was himself one of the most successful antitrust lawyers in the United States, and as Allen Holmes had before him ...'
p7
aS'Jan 24, 2010 - Colorado Breaking News, Sports, Weather, Traffic .... anti-oil and gas," said Jack Gerard, president of the American Petroleum Institute, an industry trade group.'
p8
aS'Jan 25, 2010 - One of the key movers and shakers of the OPEC (Organisation for Petroleum Exporting ... According to a survey by UAE newspaper The National, last week, ...'
p9
aS'Jan 26, 2010 - British Petroleum 2016 Energy Outlook : Reasonable Base Case Assessment? ... A weekly roundup of peak oil news, including: -Quote of the Week -Oil '
p10
a.