(lp0
S'Jan 26, 2010 - Security issues are a major concern for field operator British Petroleum Co. plc and other ... Get All the Oil and Gas Journal News Delivered to Your Inbox.'
p1
aS'Jan 26, 2010 - In 2006 George joined British Petroleum (BP) as Materials Manager for Gulf of Mexico Exploration and Production, the ... The news you need, when you need it.'
p2
aS'Jan 27, 2010 - Documents obtained by US newspaper the Christian Science Monitor show ... to appoint a new head of cybersecurity last month, while the British government is ...'
p3
aS'Jan 27, 2010 - January 27, 2010 News  Cover Story ... Additionally, three refineries have changed ownership in that time: the British Petroleum refinery became Tesoro, Inland ...'
p4
aS"Jan 27, 2010 - Georgia Straight, Vancouver's News and Entertainment Weekly ... The Oil and Gas Commission, British Columbia's decade-old one-stop shop for gas and oil ... A B.C. Energy, Mines, and Petroleum Resources Web site offers this comforting ..."
p5
aS"Jan 26, 2010 - ... up a blast from the past, in the form of an ad in the British Journal of Psychiatry in April 2004. ... 8:17 PM  Marathon Petroleum, Citi, GM slip; Edison Int'l rises."
p6
aS'Jan 27, 2010 - News and information on Royal Dutch Shell Plc. .... NIKKEI BP (JAPAN) ARTICLE: Gripe sites are becoming more powerful: 13 Nov 2007 .... April Fool - Bad Publicity plus British Humour puts Shell on the defensive: April 2012 ... that Shell knew that the ultimate beneficiary was Dan Etete, the former minister of petroleum.'
p7
aS'Jan 26, 2010 - NgEX: www.ngex.com Nigerian business information and news.  Nigeria Graduates: ... ADDAX Petroleum Development: www.netserveafrica.com/jobs/addaxjobs.php.  Chevron Nigeria .... Shell and BP to Nigeria. However, civil unrest in the ...'
p8
aS'Jan 26, 2010 - British Petroleum 2016 Energy Outlook : Reasonable Base Case Assessment? ... by the Royal Borough of Kingston and the Kingston Guardian newspaper.'
p9
aS'Jan 27, 2010 - Plus, Wolfe has an interesting background story: Seems the guy gave up a lucrative career as an oil commodities trader for British Petroleum in order to pursue ...'
p10
a.