(lp0
S"Jan 5, 2010 - British Petroleum's Hungarian unit, BP Business Service Centre Kft, will ... (WFP) service center in Budapest, Hungarian news agency MTI reported today."
p1
aS'Jan 5, 2010 - The report comes as Shell officials have been insisting their BP investment are ... GUARDIAN NEWSPAPER ARTICLE: Shell to outsource 3,600 IT jobs: 31 Dec 2007 .... Bad Publicity plus British Humour puts Shell on the defensive: April 2012 ...... Shell Transport & Trading Co and Royal Dutch Petroleum were unified into a ...'
p2
aS"Jan 5, 2010 - While Britain shivers during what could be its coldest winter in a century, soaring ... Weather: news, forecasts and pictures .... British Petroleum, 'Oil, LNG'"
p3
aS'Jan 4, 2010 - Yetebaberut Beherawi Petroleum S.C. (YBP) reported an over 3.7 million Br ... It supplies lubricants of only British Petroleum (BP), with whom it has a deal to be ...'
p4
aS"Jan 4, 2010 - It's the first business day of the new year and oil is trading above $80 a barrel, which means the price has re-entered the danger zone where it can crush ..."
p5
aS'Jan 4, 2010 - So take Citibank, British Petroleum, Exxon Mobil, and Procter & Gamble - they are all ... It, too, is evolving, but the good news is we seem to be getting past the ...'
p6
aS'Jan 5, 2010 - Do you remember the Alice in Wonderland company slogan for BP, Beyond Petroleum? So an oil company sells a fantasy of a world without oil. Mackey may not ...'
p7
aS"Jan 5, 2010 - Written by Atheo | Aletho News | January 5, 2010 Andy Singer The future of ... British Columbia has announced a 'Saudi' sized gas field, of course, a mixed ... replace a minuscule fraction of petroleum use and is not worthy of discussion for the ..."
p8
aS"Jan 4, 2010 - Mansion Global  WSJ Secure  BigCharts  Financial News  Professor Journal .... natural gas will hover around today's price of $6 per million British thermal units. ... in 2001, is accused of contaminating rain forests with toxic petroleum waste."
p9
aS'Jan 5, 2010 - Breaking News ... He has invested in distressed debt such as GGP, in contrarian situations such as British Petroleum (Disclosure: As of November 24th 2010 the ...'
p10
a.