(lp0
S'Jan 6, 2010 - Search for cheap gas prices in bp gas stations, New York; find local bp gas stations gas prices & gas stations with the best fuel prices.'
p1
aS'Jan 6, 2010 - Search for cheap gas prices in bp gas stations, Indiana; find local bp gas stations gas prices & gas stations with the best fuel prices.'
p2
aS"Jan 5, 2010 - British Petroleum's Hungarian unit, BP Business Service Centre Kft, will ... (WFP) service center in Budapest, Hungarian news agency MTI reported today."
p3
aS"Jan 5, 2010 - While Britain shivers during what could be its coldest winter in a century, soaring ... Weather: news, forecasts and pictures .... British Petroleum, 'Oil, LNG'"
p4
aS'Jan 6, 2010 - Search for cheap gas prices in bp gas stations, Florida; find local bp gas stations gas prices & gas stations with the best fuel prices.'
p5
aS'Jan 5, 2010 - The report comes as Shell officials have been insisting their BP investment are ... GUARDIAN NEWSPAPER ARTICLE: Shell to outsource 3,600 IT jobs: 31 Dec 2007 .... Bad Publicity plus British Humour puts Shell on the defensive: April 2012 ...... Shell Transport & Trading Co and Royal Dutch Petroleum were unified into a ...'
p6
aS'Jan 6, 2010 - Many of these are listed with original and credible news clips on the matter, as ..... Those oil fields were under the control of British Petroleum, but unfortunately ...'
p7
aS'Jan 6, 2010 - ... management and design for organisations like the UN FAO, the UK Department of Health, the National Health Service, BP (formerly British Petroleum), GSK, ...'
p8
aS'Jan 6, 2010 - British economists Barbara Mary Ward and Kenneth Boulding independently ..... An early example of this direction was undertaken by British Petroleum (BP) in the late ..... online: http://usnews.rankingsandreviews.com/cars-trucks/daily-news/ ...'
p9
aS'Jan 5, 2010 - Do you remember the Alice in Wonderland company slogan for BP, Beyond Petroleum? So an oil company sells a fantasy of a world without oil. Mackey may not ...'
p10
a.