(lp0
S'Feb 17, 2010 - BP, ConocoPhillips and Caterpillar are quitting the U.S. Climate Action ... in the worlds of diversified media, news, education, and information services.'
p1
aS'Feb 18, 2010 - Kovykta gas field - Russia to seize gas field from BP venture Photo: REUTERS ... However, the move does represent a tougher line towards the British joint venture, which has endured a torrid few years at the ... Business Latest News  ... A worker of Gujarat State Petroleum Corporation checks oil flow of well PK-2 during ...'
p2
aS'Feb 18, 2010 - BP Exploration will proceed with development of Hyde gas field in the southern part of ... Hamilton Oil Great Britain plc 16%, Lasmo plc 12.5%, Goal Petroleum plc 10%, Ultramar ... Get All the Oil and Gas Journal News Delivered to Your Inbox.'
p3
aS'Feb 17, 2010 - Britain says drilling for hydrocarbons will go ahead despite Argentine moves to ... not try to hide "serious internal problems", the newspaper Clarin said in an editorial. ... A British company, Desire Petroleum, has hired the Ocean Guardian rig to ...'
p4
aS"Feb 17, 2010 - Argentina's government protests that Britain's sovereignty over the islands it ... surge in the price of oil prompted Desire Petroleum, a small British company, ... Subscribe to The Economist and get the week's most relevant news and analysis."
p5
aS'Feb 17, 2010 - Company clients include PBS, Discovery Channel, NASA, HBO, 20th Century FOX, FOX News, Mitsubishi, Intel, Gillette, British Petroleum (BP), and The ...'
p6
aS'Feb 18, 2010 - Though the Falkland Islands is under British rule, Argentina still claims the islands, including them ... Ben Romney, a Desire Petroleum spokesman said, "With the rise in oil prices and the worldwide ... It would be good news for the oil industry.'
p7
aS'Feb 17, 2010 - He was also a consultant for British Petroleum during its early push into the Prudhoe Bay region. Western Geophysical used Bud to orchestrate its first seismic ...'
p8
aS'Feb 18, 2010 - The former chief executive officer of a food and pharmaceutical company in the Netherlands and before that a 15-year employee of British Petroleum knows how ...'
p9
aS'Feb 18, 2010 - In interviews with Bloomberg News, however, Firestone for the first time is ... As widely reported, oil giants British Petroleum (BP) and Royal Dutch Shell (RDS.'
p10
a.