(lp0
S'Feb 1, 2010 - newspaper are reserved by Egypt Oil and. Gas and no article may be reproduced ...... are nine British E&P companies, led by British Petroleum (BP) and British.'
p1
aS'Feb 1, 2010 - Lic: BP on polyethylene, Mitsui PC on polypropylene, IFP on butene. Contr: Technipetrol. ..... PERTAMINA, BRITISH PETROLEUM, CHEVRON (Gulf Corp.).'
p2
aS"Feb 1, 2010 - It also follows moves by British oil company BP Plc, which in 2008 took a stake in a Brazilian ... of understanding exclusively with Shell International Petroleum Co Ltd. ... Thomson Reuters is the world's largest international multimedia news ..."
p3
aS'Jan 31, 2010 - In November, British giant BP and China National Petroleum Corp. won the first oil contract of the post-Saddam era to redevelop Rumaila. Located on the border ...'
p4
aS"Feb 1, 2010 - The University's Master of Science (MSc) in Petroleum Engineering and Bachelor of Science (BSc) in ... For more UWI News, click http://sta.uwi.edu/news. End."
p5
aS"Feb 1, 2010 - More World Regions Industry News ... More than half of Britain's rubbish  almost 20 million tonnes a year  goes to landfill, ... rely on carbon-based waste such as paper, petroleum-based wastes like plastics, and organic materials such as food scraps. .... BP warns carbon emissions will rise without more policy action."
p6
aS'Feb 2, 2010 - Bringing you news and rumor from central and eastern Europe, plus the ... British Petroleum is out in front, leading an international consortium investing in three ...'
p7
aS"Feb 1, 2010 - MailOnline US - news, sport, celebrity, science and health stories .... And whereas on the first journey ever made in Britain by a 'petroleum motor carriage' in ..."
p8
aS"Feb 1, 2010 - Get All the Oil & Gas Financial Journal News Delivered to Your Inbox for free .... Trading is BP's face to the traded markets for BP in oil, gas, chemicals and ..."
p9
aS'Feb 1, 2010 - is synthesized from petroleum-derived, rather than modern hydrocarbon .... in years Before Present (BP), with January 1, 1950 be- ing 0 BP. ..... Does it Exist? British Museum Occasional Papers 135, ed. ... AIC News 31(1): 16-17. Protsch, R. R. ...'
p10
a.