(lp0
S"Feb 2, 2010 - BP's results compare with lower fourth-quarter earnings at U.S. rivals Exxon ... A British Petroleum petrol station logo is seen at Heathrow in London February 2, 2010. ... Thomson Reuters is the world's largest international multimedia news ..."
p1
aS'Feb 2, 2010 - BP chief Tony Hayward at a news conference in London. BP profit rose in the last quarter but behind predictions. Photograph: Suzanne Plunkett/Reuters.'
p2
aS"Feb 3, 2010 - Many of the fishermen who signed up to work for BP cleaning up the oil signed ... Yahoo News reported today that the crude oil gushing out of British Petroleum's ..."
p3
aS"Feb 3, 2010 - In 1937, after oil finds in Bahrain and bigger ones in Saudi Arabia's Eastern Province, BP-led Iraq Petroleum Co (IPC) came to Oman and established Petroleum ..."
p4
aS'Feb 2, 2010 - More News From Greenwire ... discussion," said Bill Bush, spokesman for the American Petroleum Institute, the trade group for oil and gas companies. "We hope ...'
p5
aS'Feb 3, 2010 - History News Network: The proposed contracts did not, in fact, offer them the kind of ... to erode, however, when the Chinese National Petroleum Corporation (CNPC), a government-owned operation, induced its partner, BP, the huge British oil ...'
p6
aS'Feb 2, 2010 - MEDIA COVERAGE (OVER 100 NEWS STORIES) AND BOOKS (NEARLY 40) .... of the German magazine ECOreporter.de: April Fool - Bad Publicity plus British ... to whom he awarded the licence when he was Nigerian Minister of Petroleum.'
p7
aS'Feb 3, 2010 - Bowtech Products Limited, BP Exploration Operating. Company ... Neptune Deeptech, NETmc Marine Ltd, Nexen Petroleum. UK Ltd ... 2 SUBSEA UK NEWS FEBRUARY 2010 ..... British engineering designers have taken a new approach.'
p8
aS'Feb 2, 2010 - Breaking News - Feb 2 2010 ... stops plans by Dominion and British Petroleum to build a 60-turbine wind energy project along 7.5 miles of East River Mountain.'
p9
aS'Feb 4, 2010 - Upstream oil and gas news for exploration and production professionals ... Local media reported that British oil company Desire Petroleum is about to start ...'
p10
a.