(lp0
S"Feb 3, 2010 - Many of the fishermen who signed up to work for BP cleaning up the oil signed ... Yahoo News reported today that the crude oil gushing out of British Petroleum's ..."
p1
aS"Feb 3, 2010 - In 1937, after oil finds in Bahrain and bigger ones in Saudi Arabia's Eastern Province, BP-led Iraq Petroleum Co (IPC) came to Oman and established Petroleum ..."
p2
aS"Feb 4, 2010 - Dubai Petroleum Co (DPC) is the main operator in the emirate. Dubai's oil production peaked in 1991 at 410,000 b/d and has been steadily declining ever since."
p3
aS'Feb 4, 2010 - Calls to government-run Dubai Petroleum, which is responsible for the ... The British contractor that operates the fields, Petrofac, declined to comment. ... Global Business and Financial News, Stock Quotes, and Market Data and Analysis.'
p4
aS"Feb 4, 2010 - The Government must act now to improve Britain's rapidly deteriorating energy security, ... Bad news for energy consumers continues to come thick and fast. ..... This interactive charting tool is based on data from the British Petroleum Statistical ..."
p5
aS'Feb 3, 2010 - Bowtech Products Limited, BP Exploration Operating. Company ... Neptune Deeptech, NETmc Marine Ltd, Nexen Petroleum. UK Ltd ... 2 SUBSEA UK NEWS FEBRUARY 2010 ..... British engineering designers have taken a new approach.'
p6
aS"Feb 3, 2010 - The good news in Iraq is that despite three decades of war and neglect, there's enough oil in the desert to kick-start a new petroleum boom. But the bad news is ..."
p7
aS'Feb 4, 2010 - BP needs subsea metering to optimise production from the fields as no test line or .... Phillips Petroleum performed a successful test with the radio altimeter on the ..... It has been sold to the French and British navies, and is being tested by the US Navy. ... Get All the Offshore Magazine News Delivered to Your Inbox for free.'
p8
aS'Feb 3, 2010 - Join LinkedIn to get the latest news, insights, and opportunities from over 3 ... U.S. corporations including The Walt Disney Company, British Petroleum, the ...'
p9
aS'Feb 4, 2010 - Tony Longo, (PhD) Senior Geologist Mining Exploration and post doc, University of Nevada, Las Vegas Vera Langer, Environmental Geologist, British Petroleum'
p10
a.