(lp0
S"Mar 1, 2010 - News, MarketPlace, Jobs ... Industry representatives report that BP paid Lewis Energy (Lewis Petroleum ... BP has made a joint- venture deal with privately held Lewis Energy Group that will expand the British oil giant's position in the U.S. ..."
p1
aS'Mar 1, 2010 - More Regional Report News. > ... holdings, all of the new discoveries except those by British Petroleum in Block 06 have been in ex-Vietsovpetro aquatory.'
p2
aS"Feb 28, 2010 - Two years ago, the CEO of one of the world's largest corporations laid some very tough love on his 500 top managers. Despite having revenue in the range of ..."
p3
aS"Mar 1, 2010 - The toughest contract was the consortium bid by British Petroleum, Amoco, and Maxus for the G'Piche Block .... International news for oil and gas professionals ..."
p4
aS'Mar 1, 2010 - Details can be found in a related story in the news section. .... The merger of British Petroleum Co. plc and Amoco Corp. has the potential to have a huge effect ...'
p5
aS'Mar 1, 2010 - An experienced British/Dutch operations manager took care of the ... Includes a TV documentary feature, newspaper and magazine articles, radio ... NIKKEI BP (JAPAN) ARTICLE: Gripe sites are becoming more powerful: 13 Nov 2007 .... knew that the ultimate beneficiary was Dan Etete, the former minister of petroleum.'
p6
aS'Mar 1, 2010 - Before that, Mr. Vargo had a 10-year career at The Standard Oil Company and British Petroleum PLC, where he held several finance and line positions.'
p7
aS"Mar 1, 2010 - http://blogs.telegraph.co.uk/news/jamesdelingpole/100020304/climategate-peak-oil-the ... British Council, British Petroleum, Broom's Barn Sugar Beet Research ..."
p8
aS'Mar 1, 2010 - RIGZONE News - leading source for the latest news and information for the oil and gas industry. ... National Petroleum Services Company (NAPESCO)'
p9
aS'Mar 1, 2010 - TPIC, the foreign exploration unit of state-run Turkish Petroleum, has won a $318 million contract ... Upstream oil and gas news for exploration and production professionals ... British oil major BP and its Chinese partner CNPC signed a 20-year ...'
p10
a.