(lp0
S'Mar 23, 2010 - Home  News .... BP plc has developed high level policies to ensure the health and safety of people and to protect the environment. ... BP have reviewed the findings, recommendations and lessons from these incidents, and have implemented ...'
p1
aS'Mar 22, 2010 - ... BP, the Energy Information Administration and World Oil do not take this into ... Richard Branson warns Britain over oil crunch ... Business Latest News  ... A worker of Gujarat State Petroleum Corporation checks oil flow of well PK-2 during ...'
p2
aS'Mar 22, 2010 - Companies like Shell and British Petroleum (BP) were delighted. ... But I had read in the newspaper the day before that the EPA [Environmental Protection ...'
p3
aS'Mar 23, 2010 - Subject: Firms Reported to Have Sold Iran Refined Petroleum Products or Engaged in ..... Publications include Oil Daily, Oil and Gas News, Oil and Gas Journal, ..... We listed British Petroleum in our September 2010 report because at least ...'
p4
aS'Mar 23, 2010 - Show more news ... A BP opportunity award is scholarship funding that will help support your final year ... Please submit your application via the BP website .'
p5
aS'Mar 24, 2010 - British Petroleum. Chevron USA. Conoco-Phillips. Kodiak Oil. Mapco. North Pacific Fuel. Petrol Marine. Petro Star Refinery. Shell Oil Company. Star Enterprises.'
p6
aS"Mar 23, 2010 - Calendar developed and supported by Kieran O'Shea.  News ... Gegen den britischen lkonzern BP (frher: British Petroleum) wird jetzt strafrechtlich ..."
p7
aS'Mar 22, 2010 - Breaking news. Belgian transport .... It was a hasty concoction assembled by the British because it was easier to rule based on those borders. The British left ...'
p8
aS"Mar 23, 2010 - Middle east Oil & Gas News Portal  Arabianoilandgas.com ... UAE based RAK Petroleum PLC's purchase of more shares in DNO International ASA lifted ..."
p9
aS'Mar 22, 2010 - Even the leaders of his own party were demanding he retract his remarks, so the next day he apologized to the world for his apology to British Petroleum.'
p10
a.