(lp0
S'Mar 29, 2010 - Desire Petroleum shares tumbled following a poor drilling update from its Liz well in the ... Nearly 30 years after the two countries fought a war over control over the British-ruled islands, Argentina is furious that British companies ... UK News  ...'
p1
aS'Mar 29, 2010 - Petrofac Wins Qatar Petroleum Contract Worth More Than US$600 Million. Petrofac, the international oil ... British Ambassador visits Petrofac. 14 February 2016 ...'
p2
aS'Mar 30, 2010 - MailOnline US - news, sport, celebrity, science and health stories .... Yesterday shares in the British drilling firm Desire Petroleum crashed 48 per cent after it said ...'
p3
aS"Mar 30, 2010 - In June, British oil major BP and the China National Petroleum Corporation accepted a 20-year contract to develop Rumaila, Iraq's biggest oil field, for a fee of $2 ..."
p4
aS'Mar 31, 2010 - Fox News contributes to political assassination of Shirley Sherrod on July 21st, 2010. Rendell: Reagan would not approve of recent Republican behavior on ...'
p5
aS'Mar 31, 2010 - ... Military & Defense  Politics  President Barack Obama  Rescue Truth News ... BP oil spill British Petroleum Constitution debt debt ceiling deficit Democrats ...'
p6
aS"Mar 29, 2010 - Cairn's stock rose nearly 11.5% intraday as the markets greeted the news with much ... London on Monday, Desire Petroleum  one of the British companies prospecting for ... Oil major BP has swooped for assets in Brazil, Azerbaijan and U.S. ..."
p7
aS'Mar 29, 2010 - British Petroleum 2016 Energy Outlook : Reasonable Base Case Assessment? ... A weekly roundup of peak oil news, including: -Quote of the Week -Oil '
p8
aS"Mar 31, 2010 - Here's the bad news. This fitness regime, I claim, has ... The firm embarked on journey from British Petroleum to Beyond Petroleum. And if a 100 year old oil ..."
p9
aS"Mar 30, 2010 - News & Community ... Most of the interest, however, lay in the Faeroe-Shetland Channel near BP Amoco's Atlantic Frontier fields. ... of an agreement by Prime Minister Anfinn Kallsberg with British and Danish foreign ministers. ... This agreement enabled the Minister of Petroleum, last December, to table a bill on the First ..."
p10
a.