(lp0
S"Mar 30, 2010 - In June, British oil major BP and the China National Petroleum Corporation accepted a 20-year contract to develop Rumaila, Iraq's biggest oil field, for a fee of $2 ..."
p1
aS'Mar 31, 2010 - LONDON Critics of British Petroleum have told Fox News past cost-cutting by the London-based oil giant helped to contribute to the rig explosion and oil spill ...'
p2
aS'Mar 30, 2010 - MailOnline US - news, sport, celebrity, science and health stories .... Yesterday shares in the British drilling firm Desire Petroleum crashed 48 per cent after it said ...'
p3
aS"Mar 31, 2010 - News Analysis: Risk Is Clear in Drilling; Payoff Isn't (April 1, 2010) .... Related Searches. Oil (Petroleum) and Gasoline Get E-Mail Alerts  Offshore Exploration ..."
p4
aS'Mar 31, 2010 - Policy|Events|People|Business|Business watch|The week ahead|News maker|Number crunch| ... UK science advice: Science advisers to the British government "should not act to undermine .... King Fahd University of Petroleum & Minerals ...'
p5
aS'Mar 31, 2010 - Fox News contributes to political assassination of Shirley Sherrod on July 21st, 2010. Rendell: Reagan would not approve of recent Republican behavior on ...'
p6
aS'Mar 31, 2010 - ... Military & Defense  Politics  President Barack Obama  Rescue Truth News ... BP oil spill British Petroleum Constitution debt debt ceiling deficit Democrats ...'
p7
aS'Mar 31, 2010 - Daily Kos: We should keep our eye on British Petroleum, re Deepwater Horizon ... A year after the Texas City disaster, BP and Browne were back in the news in ...'
p8
aS"Mar 31, 2010 - Here's the bad news. This fitness regime, I claim, has ... The firm embarked on journey from British Petroleum to Beyond Petroleum. And if a 100 year old oil ..."
p9
aS'Mar 31, 2010 - Hi I am just wandering why BP fuels are generally more expensive than others? And still see cars fill ... Long Live British Petroleum! ... BP Petrol. Industry news.'
p10
a.