(lp0
S"Apr 12, 2010 - The first stage of a strategic alliance between BP Exploration and Norway's Den ... A similar accord for joint marketing of gas in Britain and use of new and ... Get All the Oil and Gas Journal News Delivered to Your Inbox ... US commercial crude oil inventories, excluding those in the Strategic Petroleum Reserve, rose 3.9 ..."
p1
aS'Apr 12, 2010 - BP was an early adopter of Knowledge Management, a system that gathers all data gleaned across a company. Using this system managers and engineers at ...'
p2
aS'Apr 12, 2010 - Before the United States and Britain invaded Iraq in March 2003, their oil companies ... Only one consortium  BP and the Chinese National Petroleum Corp.'
p3
aS"Apr 13, 2010 - Antigua Observer Newspaper ... Bowen said a number of international companies from Britain to Australia had rejected Grenada's ... We asked British Petroleum, we asked Repsol, we asked Petrobras, we asked the Canadian company we ..."
p4
aS'Apr 12, 2010 - In November 2007, Bloomberg news reported Five current and former traders ... NIKKEI BP (JAPAN) ARTICLE: Gripe sites are becoming more powerful: 13 Nov 2007 .... Bad Publicity plus British Humour puts Shell on the defensive: April 2012 ... that the ultimate beneficiary was Dan Etete, the former minister of petroleum.'
p5
aS'Apr 12, 2010 - Sinopec Group bought Calgary-based Addax Petroleum Corp. for C$8.3 billion ... the day before gas prices hit a record at $15.78 per million British thermal units. .... Minister Paolo Gentiloni said Monday, according to Italian news wire Ansa.'
p6
aS"Apr 13, 2010 - From Denny: This week the news has focused upon the unfolding ... You folks been following the big British Petroleum oil spill in the Gulf of Mexico? I'm telling ..."
p7
aS'Apr 12, 2010 - The InterOil (IOC) controversy continues... Most people agree that InterOil has found something of value at its Antelope drilling site in Papua New Guinea.'
p8
aS'Apr 13, 2010 - The idea of peak oil has helped light a fire under the price of petroleum, but now, another .... man who broke the Bank of England in 1992 through a massive sale of British pounds, ... News. Trump confuses 9/11 with convenience store chain ...'
p9
aS'Apr 13, 2010 - LILITH NEWS. American, Canadian & International News Commentary: Spreading Freedom in the Face of Tyranny ...... British Petroleum may go bankrupt'
p10
a.