(lp0
S"Apr 20, 2010 - Home; News ... British Petroleum Settlement.  ... 2010, an explosion of high pressure methane gas sank British Petroleum (BP)'s Deepwater Horizon drilling rig, ..."
p1
aS'Apr 20, 2010 - This week news were talking about that the U.S. government could hold BP back ... 12 % of dividends paid to pensioners in the UK are from British Petroleum, ...'
p2
aS'On April 20, 2010, an explosion on the Deepwater Horizon drilling platform, located off the coast of Louisiana ...'
p3
aS"Apr 20, 2010 - On April 20, 2010, British Petroleum's Deepwater Horizon oil rig in the Gulf of Mexico exploded, killing 11 workers and wounding 17  and crippling the Macondo ..."
p4
aS'Apr 20, 2010 - On April 20, 2010, a British Petroleum (BP) offshore oil rig exploded, killing 11 workers on the rig and spilling tens of thousands of barrels of crude oil into the ...'
p5
aS"Apr 20, 2010 - The BP oil spill released 4.9 million barrels of oil into the Gulf of Mexico and ..... Oil Spill was highly publicized; not a day went by that a story didn't appear in the news ..... lacking the resources, technical training or experience in petroleum."
p6
aS'Apr 22, 2010 - Chris Laird of Thibodaux saw a news report about the explosion early ... said David Rainey, a vice president for British Petroleum, which is leasing the rig.'
p7
aS'Apr 21, 2010 - Nightly News | April 21, 2010 ... transocean, was mining for british giant british petroleum , bp and is capable of reaching depths of more than five miles.'
p8
aS"Apr 20, 2010 - British Petroleum's (BP) Deepwater. Horizon rig ... From June 5, 2010 to June 14, 2010, BP had collected 127,000 barrels of oil in their .... Retrieved. February 16, 2012, from http://www.thedailygreen.com/environmental-news/latest/gulf-."
p9
aS'Apr 20, 2010 - After the Spill, British Petroleum (BP) set up the Gulf Coast Claims Facility, which paid ... In November 2012, BP settled with the U.S. Department of Justice to plead ...... http://www.nola.com/news/gulf-oil-spill/index.ssf/2010/10/louisiana_oyster_ ...'
p10
a.