(lp0
S'Apr 22, 2010 - BP today activated an extensive oil spill response in the US Gulf of Mexico following the fire and subsequent sinking of the Transocean Deepwater Horizon drilling rig 130 miles south-east of New Orleans. ... Pre-planned forecasting of 48-hour spill trajectory which indicates spilled ...'
p1
aS"Apr 23, 2010 - Tony Hayward is at the centre of his first major crisis as chief executive of BP, after a drilling rig ... World News  ... A worker of Gujarat State Petroleum Corporation checks oil flow of well PK-2 during ... From a rare pair of Gucci shoes, to spending 110,000 releasing an album, Britain's wealthiest are pulling out all the stops ..."
p2
aS'Apr 23, 2010 - The British Petroleum-operated Deepwater Horizon burned ferociously for nearly two ... rig explosion in the Gulf of Mexico remained a "number one" priority, and BP officials ... 2016 Guardian News and Media Limited or its affiliated companies.'
p3
aS"Apr 22, 2010 - The rig, which was under contract to the oil giant BP, was doing exploratory ... when a catamaran-type drilling barge operated by Pan American Petroleum Corp. ... on the Deepwater Horizon oil rig that exploded in the Gulf of Mexico, read news ..... Princess Margaret claims didn't make it into British TV show about the Queen ..."
p4
aS'Apr 23, 2010 - These later evolved into Exxon Mobil (XOM), British Petroleum (BP), Chevron (CVX), and others. As for Drake ... Stay current on financial news, entertainment ...'
p5
aS'Apr 22, 2010 - When the rig caught fire, BP had already finished drilling an 18000-foot ... With the fire doused and the rig submerged, the Coast Guard launched a sweeping effort to clean up petroleum spewed into the ... The British oil giant had discovered an unspecified quantity of oil there and ... Why stocks need more really bad news.'
p6
aS'Apr 22, 2010 - Id. 5. Id. 6. Id. 7. Id.; see also BBC News, Timeline: BP Oil Spill, Sept. 19, 2010 ..... Hayward received "lackluster reviews in the United States and Britain for his ..... Britain\'s lead and created a separate regulator, the National Offshore Petroleum.'
p7
aS'Apr 22, 2010 - Out of 126 employees living and working on the rig leased by British Petroleum, another 17 are reported badly injured. "Based upon reports from crew members ...'
p8
aS"Apr 23, 2010 - These briefs incorrectly describe BP as 'British Petroleum'. In fact, such a company has not existed for many years as BP dropped this name when becoming a ..."
p9
aS"Apr 23, 2010 - At the launch of BP's most recent Statistical Review of World Energy in early June .... process should be completed by June, the newspaper said, citing Gabrielli. .... Deepwater Horizon Platform, leased and operated by British Petroleum (BP) in ..."
p10
a.