(lp0
S"Apr 27, 2010 - BP PLC, Europe's second-largest oil company, said Tuesday that first-quarter profit more than doubled from a year earlier to $6.1 billion due to higher crude ..."
p1
aS"Apr 27, 2010 - An aircraft flies over a British Petroleum petrol station at Heathrow in London February ... BP's shares fell 1.3 percent to 618.5 pence, underperforming the STOXX Europe .... Thomson Reuters is the world's largest international multimedia news ..."
p2
aS"Apr 27, 2010 - A contract worker at BP has raised safety concerns after accusing it of failing to keep key ... BP's Deepwater Horizon oil rig, which burned down in the Gulf of Mexico off the .... 2016 Guardian News and Media Limited or its affiliated companies."
p3
aS'Apr 27, 2010 - Gulf oil spill - Find news stories, facts, pictures and video about Gulf oil spill - Page 1 | Newser. ... British Petroleum and the EPA reach agreement. (Newser) - BP ...'
p4
aS"Apr 28, 2010 - ... Director Michael Govan struck a deal with oil giant BP (British Petroleum). .... Yahoo News and CBS News both reported that at President Obama's May 28th ..."
p5
aS'Apr 26, 2010 - Gulf oil rig explosion cleanup news conference planned today at 3 p.m.. Print Email ... The rig is owned by Transocean and leased by British Petroleum. Officials ...'
p6
aS"Apr 27, 2010 - A couple of weeks ago came news of a new study showing that o... ... The major oil company British Petroleum tested OSEI Corporation's product called Oil Spill ..."
p7
aS'Apr 27, 2010 - Atlanta  Capping the renegade wellhead spewing 42,000 gallons of oil a day into the Gulf of Mexico will take an unprecedented effort by British Petroleum and ...'
p8
aS'Apr 27, 2010 - Home  News  USA: BP Oil Spill  42,000 Gallons of Oil Spilling into Ocean Every ... In the Gulf of Mexico on 20th April 2010 a BP contracted oil-rig suffered an ...'
p9
aS'Apr 27, 2010 - A federal web portal with information and resources related to the BP ... National Oceanic and Atmospheric Administration; DEEPWATER HORIZON Incident News .... EPA al derrame de petrleo de British Petroleum (BP) en el golfo de Mxico'
p10
a.