(lp0
S"Apr 5, 2010 - BP's projections suggest that the world will need 45% more energy in 2030 than it .... Get All the Oil and Gas Journal News Delivered to Your Inbox .... refining of crude and natural and the downstream marketing supply of petroleum products."
p1
aS'Apr 5, 2010 - This August, Woodside Petroleum, British-Borneo International, and Hardman Resources ... Get All the Offshore Magazine News Delivered to Your Inbox for free.'
p2
aS"Apr 5, 2010 - Description: British Petroleum (BP), one of the world's largest oil companies, spent over $200 million rebranding itself as environmentally responsible, with the ..."
p3
aS"Apr 4, 2010 - Why is BP and the Environmental Protection Agency not releasing such ... against British Petroleum, Halliburton, Transocean, Anadarko Petroleum, MOEX ..... mayor's transition efforts for the city's IT infrastructure haven't been front page news, ..."
p4
aS'Apr 5, 2010 - The dead included two employees of the Reuters news agency, ... tax breaks given to the nation-less oil corporations for: British Petroleum, or BP, Exxon Mobil, ...'
p5
aS'Apr 5, 2010 - It is made from bitumen which is a heavy and viscous form of petroleum; normally the ... British Petroleum 2016 Energy Outlook : Reasonable Base Case Assessment? ... A weekly roundup of peak oil news, including: -Quote of the Week -Oil '
p6
aS"Apr 5, 2010 - It only made the news because Sir Richard Branson personally endorsed it; but the fact ... The British government, including energy minister Lord Hunt, responded by ... Leggett explained: Government has gone from the BP position  '40 years of ... Three authors from the College of Engineering and Petroleum at Kuwait ..."
p7
aS'Apr 5, 2010 - Der russisch-britische lfrderer TNK-BP hat nach dreidimensionalen seismischen Messungen sieben ... TNK, Sidanko und Onako sowie der Aktiva von British Petroleum (BP) in Russland und in der Ukraine gegrndet. .... News: Politik.'
p8
aS'Apr 4, 2010 - Emerging leaders should be ready to face new challenges and compete in the surfacing industries of a post-petroleum world. "Inevitably those types of ...'
p9
aS'Apr 5, 2010 - Britain reported last year that it froze about $1.5 billion in Iranian assets under EU ... gets seized, even though news accounts often report that funds were frozen.'
p10
a.