(lp0
S'Apr 7, 2010 - This was also job one on the wish list of the new British government headed by ... The following year the oil company, now renamed British Petroleum (BP), ...'
p1
aS'Apr 8, 2010 - Environment News Service latest environmental news, global warming, water, food, ... CPL, a joint venture between British Petroleum and Chevron Pipe Line ...'
p2
aS"Apr 7, 2010 - Phillips Petroleum Co. ... seismic data acquisition unit in Foinaven field west of Britain's Shetland Islands. .... BP said its Foinaven field project will be the world's first use of permanent seismic ... International news for oil and gas professionals ..."
p3
aS'Apr 8, 2010 - The discoveries were made on blocks previously held under risk contracts by British Petroleum Co. plc and a .... International news for oil and gas professionals ...'
p4
aS"Apr 7, 2010 - Our correspondent says news of Mr Barkindo's sacking from the inefficient Nigerian National Petroleum Corporation (NNPC) took the country by surprise and will ..."
p5
aS'Apr 8, 2010 - Mr. Kanter served as Head of Country, British Petroleum ("BP") Indonesia since 2008. Mr. Kanter oversees all BP business and is responsible for integrating all ...'
p6
aS"Apr 9, 2010 - Developing offshore wind power could prove just as profitable as petroleum industry projects, and the ... a key position in Great Britain, where the development of wind power is highly subsidized. ... The World's #1 Renewable Energy Network for News, Information, and Companies. ..... BP SP ADR, 31.20, +0.89 (+2.94%)."
p7
aS'Apr 8, 2010 - Main News Page  Theresa Cao Goes to Trial  Open Letter to Savanah Now .... Human factors in British Petroleum Texas City refinery mishap; History of civil ...'
p8
aS'Apr 8, 2010 - ... bp BPA bpaf british columbia british petroleum broadened horizons organic farm butter cadmium cafo california campaign cancer cancer survivor canned food ...'
p9
aS"Apr 7, 2010 - Occidental Petroleum (NYSE: OXY)Buy @ 95, Stop @ 75 ..... stand out as winners: US-based Anadarko Petroleum Corp and Britain's Tullow Oil. ... Such events are rarely scheduled to relay bad news; the company appears poised to make ..."
p10
a.