(lp0
S"May 19, 2010 - British Petroleum - desperate for ideas - gave the okay to test six of Costner's gizmos this week, said BP Chief Operating Officer Doug Suttles. Costner's ..."
p1
aS"May 20, 2010 - The British Petroleum drilling rig that exploded and sank 40 miles off shore, killing eleven workers, .... Previous post: PCG News: What's a Reputation Worth?"
p2
aS'May 20, 2010 - The U.S. government Thursday accused energy giant BP of falling short in the information it has ... The statement followed allegations earlier in the day that BP had engaged in a "cover-up" about the .... Our top news photography last month.'
p3
aS"May 20, 2010 - Could the Obama administration's bashing of BP (or British Petroleum) over the ... frequently on American and British television, including Fox News Channel, ..."
p4
aS"May 19, 2010 - BP received some rare good news on Wednesday, after the US Coastguard ... A worker of Gujarat State Petroleum Corporation checks oil flow of well PK-2 during ... 110,000 releasing an album, Britain's wealthiest are pulling out all the stops ..."
p5
aS'May 20, 2010 - In the month since it began, the BP oil spill has revealed the true cost of ... Gould, acting director of the U.S. Fish and Wildlife Service, said at a news conference.'
p6
aS"May 20, 2010 - The latest Tweets from British Petroleum (@BPGlobalPetrol). BP provides ... CBS news reporters stopped by Coast Guard Under 'BP's Rules' - CBS News Video ..."
p7
aS"May 19, 2010 - The comments from the Obama administration anticipated similar claims put forward by BP CEO Anthony Hayward. On Tuesday Hayward told Britain's SkyNews, ..."
p8
aS'May 20, 2010 - Campaigners unfurl flag calling company British Polluters in protest over Gulf of Mexico disaster. ... Greenpeace activists hoist a flag after climbing on to a balcony at BP headquarters in London. Photograph: David ... More news ...'
p9
aS'May 20, 2010 - Since taking over in 2007, Tony Hayward has taken BP back to petroleum, chasing the last drops of oil from unconventional sources like the Canadian tar sands ...'
p10
a.