(lp0
S"Jun 14, 2010 - This isn't the first time British Petroleum has run into trouble. In 2005, a massive explosion occurred at the company's Texas City, Texas, refinery, killing 15 ..."
p1
aS'Jun 14, 2010 - Before it was known as British Petroleum, BP was called the Anglo-Persian Oil Company, then later the Anglo-Iranian Oil Company. When Prime Minister ...'
p2
aS"Jun 14, 2010 - There was some good news as stocks rallied on Wall Street. ... BP was Britain's biggest company before the explosion at the Deepwater Horizon rig on ... insisting on using BP's former name - British Petroleum - which was axed back in 1998."
p3
aS"Jun 15, 2010 - MailOnline US - news, sport, celebrity, science and health stories .... and said BP, which Mr Obama has pointedly referred to as British Petroleum, was 'effectively ..."
p4
aS'Jun 14, 2010 - Memo to Brits: Quit whining about the name. Americans are incredibly pissed about what BP has done in the Gulf.'
p5
aS'Jun 14, 2010 - Barack Obama is playing dirty over BP. ... the president and some senior officials have been referring to BP as "British Petroleum"  a name it hasn\'t used for some years ...... 2016 Guardian News and Media Limited or its affiliated companies.'
p6
aS'Jun 14, 2010 - Internal company documents published last week by news website ProPublica ... (Current baiting of BP in the US about its British identity throws up an ironic footnote from this period: the name British Petroleum actually came from a German oil ...'
p7
aS"Jun 14, 2010 - Stephen Kinzer on the History of BP/British Petroleum and Its Role in the 1953 Iran Coup. June 14, 2010 ... and America's Future. This is viewer supported news."
p8
aS'Jun 15, 2010 - This page is a compilation of news stories accumulated through Google Alerts of the British Petroleum so far unrestrained gusher in the Gulf of Mexico. It focuses ...'
p9
aS"Jun 15, 2010 - Should BP set up a separate fund to pay victims' claims, those with clear-cut ... in the worlds of diversified media, news, education, and information services."
p10
a.