(lp0
S"Jun 24, 2010 - BP's stock price hit a new low Thursday, amid a sell-off in the broader equity ... on the heels of disappointing economic news, energy stocks were battered."
p1
aS'Jun 25, 2010 - ... offshore oil drilling rig operated by BP (known as British Petroleum until 2000) exploded and sank. ..... BP\'s stock fell on news of the "the worsening oil spill.'
p2
aS'Jun 25, 2010 - MailOnline US - news, sport, celebrity, science and health stories .... Meanwhile, a former commander of British forces in Afghanistan warned the departure of ...'
p3
aS'Jun 24, 2010 - When a front-line news reporter dives 88 feet underwater just miles from the Deepwater Horizon spill, the magnitude of ... BP Logo, formerly British Petroleum ...'
p4
aS"Jun 25, 2010 - Can more or better CSR benefit a company like British Petroleum that's going through a public relations crisis? Can it offset any of the outrage the public is ..."
p5
aS"Jun 24, 2010 - Good Crude Britannia will picket Tate Britain's summer party on Monday, as the gallery celebrates 20 ... Artists and musicians plan to protest against BP's sponsorship of Britain's most prestigious galleries, theatres and museums. ... More news ..."
p6
aS"Jun 24, 2010 - Britain's worst-ever oil spill in 1967 was handled disastrously, is still killing wildlife ... Even BP was involved: British Petroleum chartered the vessel to bring crude to the oil ..... 2016 Guardian News and Media Limited or its affiliated companies."
p7
aS'Jun 25, 2010 - Accidents  as British Petroleum is finding out with great pain  turn out not only to be likelier than lay people think, but more expensive and serious than the ...'
p8
aS'Jun 24, 2010 - British Petroleum, the company responsible for the worst single-source ... He took up where the British left off, bribing generals, newspaper publishers, street ...'
p9
aS'Jun 25, 2010 - Associate Managing Editor-News ... In a move characterized as the "largest ever industrial merger," British Petroleum Co. plc and Amoco Corp. have agreed to ...'
p10
a.