(lp0
S'Jul 20, 2010 - How did BP do vs. Exxon Mobil? Stock Performance - Monday, July 19, 2010. British Petroleum (BP) DOWN 3.64% ExxonMobil (XOM) UP 0.81% Vanguard ...'
p1
aS'Jul 19, 2010 - News navigation ... He ordered BP to submit a plan to reopen the capped well if the seepage was confirmed, so that oil could be funnelled to the surface. But BP ... and BP - formerly British Petroleum - is expected to be a key topic of discussion.'
p2
aS'Jul 20, 2010 - Home News BP photoshops fake photo of oil spill crisis command center to make it look ... UPDATE 12:08PM Eastern 7/20/10: BP has faked yet another oil crisis ...'
p3
aS'Jul 19, 2010 - On April 27, a week after the Deepwater Horizon exploded, BP released its earnings statement for the first quarter of 2010, with news of the disaster stuffed into ...'
p4
aS"Jul 20, 2010 - British Petroleum (BP) Plc plans to divest its exploration and production operations in Pakistan, as part of a plan to... ... BP does want to pull out of Pakistan's exploration and production operations, and this is not ... Connect With Tribune News."
p5
aS"Jul 19, 2010 - Consider BP's Beyond Petroleum campaign. ... Forgetting that core goal  which the CSR culture can tempt us to do  is bad news for business leaders."
p6
aS'Jul 20, 2010 - This is viewer supported news. Donate. With BP having poured nearly two million gallons of the dispersant known as Corexit into the Gulf of ..... forty-eight hours, how much he\'s being paid, he said, "That\'s between me and British Petroleum.'
p7
aS'Jul 19, 2010 - Oil sheen is seen among vessels assisting near the source of the BP oil spill in the Gulf of Mexico. ... The US government will allow BP to keep the cap on its damaged Gulf of Mexico well closed for another day, despite the ... More news ...'
p8
aS"Jul 20, 2010 - A blogger spotted a photo of BP's Houston command center that had quite visibly been Photoshopped to add in more on-screen camera action. BP confessed ..."
p9
aS"Jul 19, 2010 - News of Mr Hayward's hefty payoff caused outrage yesterday among ... since the oil-producing giant changed its name from British Petroleum to BP, better to ..."
p10
a.