(lp0
S"Aug 26, 2010 - Sixty one percent of the British Petroleum oil-spill waste - that's 24,071 tons out of ... For the last three months most of the news coverage on the oil spill has been ..."
p1
aS"Aug 26, 2010 - In the News. ... To give credit where credit is due, as we discussed the BP massacre one ... On July 4th 1776, it was the oppression of King George; on July 4th 2010, it's the oppression of another, and no better, British king, British Petroleum."
p2
aS"Aug 26, 2010 - Since the hearings began in May, three BP officials with intimate knowledge of ... Harry Thierens, who testified that he had not been following news accounts of ... he couldn't recall details of the 1988 explosion of the Occidental Petroleum Corp. ... and the British government made major changes in the way the gas and oil ..."
p3
aS"Aug 27, 2010 - Liberals blame Tony Hayward and the rest of BP's greedy and irresponsible management. ... BP's past actions made it clear that workers who raised safety questions would be fired. Stuart Sneed was a .... Part of HuffPost on HPMG News."
p4
aS'Aug 26, 2010 - News; Opinion; Business; Money; Sport; Life; Arts; Puzzles; Papers; Irish news ... The British Petroleum logo is seen near a petrol station in Dubai with the Burj ...'
p5
aS"Aug 26, 2010 - But this week's revelations of the real story of BP and the Gulf of Mexico reminded me of ... This essay, written on July 10, is prescient, as the recent news stories, .... may be in the process of triggering a credit event by British Petroleum (BP) that ..."
p6
aS'Aug 27, 2010 - Gulf News (meetings, funding opportunities, etc.) ... Gulf of Mexico Research Initiative News Archive (including new research results) ... British Petroleum'
p7
aS'Aug 26, 2010 - A new study published in the journal Science says petroleum-degrading bacteria are ... British oil company BP has used dispersants, burns and skimming ...'
p8
aS"Aug 26, 2010 - MailOnline US - news, sport, celebrity, science and health stories ... Swarms of oil-eating bugs have already done the toughest part of BP's ...... secret role in Star Wars: Episode VIII British comedian  The school principal reprimands Hannah."
p9
aS"Aug 27, 2010 - The uncontrolled oil blowout in the Gulf of Mexico from BP's deepwater well was the ... 9500 at the wellhead, creating a plume of micron-sized petroleum particles. .... obtained from the British Library and I've never been able to find an original."
p10
a.