(lp0
S'Sep 16, 2010 - A Pulitzer Prize-winning, non-profit, non-partisan news organization dedicated to ... "BP highlighted the increased risk profile of the petroleum industry and the ... British government officials voiced fears for pensioners whose income relied on ...'
p1
aS"Sep 15, 2010 - A BP oil platform in the North Sea  the Magnus facility, situated north-east of the Shetland Islands ... Business news videos : UK town's 46mln digital boost ..."
p2
aS"Sep 16, 2010 - Before It's News - Gulf disaster and FEMA evacuation information. ... BP (British Petroleum) Apocalypse Oil Volcano - Excellent collection of videos, maps and ..."
p3
aS"Sep 15, 2010 - BP does have a safety, ethics and environment assurance committee (SEEAC) chaired by Sir Bill ... A worker of Gujarat State Petroleum Corporation checks oil flow of well PK-2 during ... From a rare pair of Gucci shoes, to spending 110,000 releasing an album, Britain's wealthiest are pulling out all the stops ... Retail News."
p4
aS'Sep 16, 2010 - BP Amoco Louisiana, an oil refinery with a location in Belle Chasse, Louisiana ... it was acquired by BP at some time after the British Petroleum-Amoco merger. ... Increased pressure from researchers, news media and citizen groups forced the ...'
p5
aS'Sep 16, 2010 - Standard Oil owned the refinery until British Petroleum (BP) bought out Sohio in 1987. When BP owned the plant, it was known as one of the biggest polluters in ...'
p6
aS"Sep 16, 2010 - Oil Rig Survivor Blames BP For 'Screwed-Up Plan' That Lead to Gulf Disaster ... Deepwater Horizon, which was leased by British Petroleum, were not at fault. ... In an interview with Boomberg News, Trahan, along with his lawyer, tells his ..."
p7
aS'Sep 15, 2010 - The corporate monster British Petroleum chose to "cover their trail" by releasing disturbingly excessive amounts of Corexit onto the area of the spill.'
p8
aS"Sep 15, 2010 - oil and gas news and contracts for contractors and engineers in the engineering and ... all of BP's upstream natural gas business in western Alberta and British Columbia. ... BP Signs Agreement with the Egyptian Ministry of Petroleum and the ..."
p9
aS'Sep 16, 2010 - ... in shallow bayou waters. Click here to watch an NBC News video on the fish kill. ... I wonder how much BP paid Fish and Wildlife to say that ? Who knows how ...'
p10
a.