(lp0
S'XOM: Dividend Date & History for Exxon Mobil - Dividend.com'
p1
aS"'The Power of the Network' Raises Support for ..."
p2
aS'PDR Consolidates ExxonMobil Data Centers, Establishes ...'
p3
aS'Focus Names Gerald L. Kohlenberger to its Board'
p4
aS"Mike Dolan '75 Meets with WPI Scholars - WPI"
p5
aS'Ellora Energy acquired by Exxon Mobil - The Denver Post'
p6
aS'Prison Economics Help Drive Ariz. Immigration Law : NPR'
p7
aS"UPDATE 1-Canada's Hibernia oil field bigger than thought ..."
p8
aS'NASA: Lost in Space - Bloomberg'
p9
aS'german bank | Live Business News'
p10
a.