(lp0
S'EXXON MOBIL CHEMICAL Baton Rouge LA, 70805 ...'
p1
aS'Lo-Inyo Elementary: Home Page'
p2
aS'NewMark Merrill Develops The Shops at Spectrum'
p3
aS'JOSEPH COGGESHALL AND LYNN LESUEUR v ...'
p4
aS'Some refineries earn inspection exemption - Beaumont ...'
p5
aS'May 17, 2010 - Bill & Melinda Gates Foundation Buys ...'
p6
aS"Dallas Hispanic chamber wants to move past '09 uprising ..."
p7
aS'SpectraSyn Elite'
p8
aS'Individual investors back on the retreat - May. 16, 2010'
p9
aS"The Right Wing's Next Target: The Greenlining Institute | PR ..."
p10
a.