(lp0
S'ExxonMobil Signs Agreement with Iraq to Redevelop and ...'
p1
aS'View All Industry News - Machinery Lubrication'
p2
aS'Business Leaders Speak At The Global Competitiveness ...'
p3
aS'Hackers Targeted Oil Companies for Oil-Location Data - Wired'
p4
aS'Courts as Battlefields in Climate Fights - NYTimes.com'
p5
aS'BC Chief Executives Club ranking'
p6
aS'ExxonMobil seeks Philippines military security for Sulu Sea ...'
p7
aS'Steven W. Meier | ACS Scholar | ACS News | Chemical ...'
p8
aS'Crews try to protect wildlife from Texas oil spill | NOLA.com'
p9
aS'Toyota recall of 2.3 million cars prompts sales suspension ...'
p10
a.