(lp0
S"Exxon's Sakhalin-1 to Start Production - WSJ"
p1
aS'Golden Pass LNG - DownstreamToday.com - News and ...'
p2
aS'Russia: ExxonMobil says Odoptu field to keep Sakhalin-1 ...'
p3
aS"Iraq: ExxonMobil and Shell to boost drilling in Iraq's West ..."
p4
aS'OGJ Newsletter - Oil & Gas Journal'
p5
aS'Medvedev Fires Moscow Mayor After 18 Years in Power ...'
p6
aS'Factbox: Reckless diversification by oil companies into ...'
p7
aS"Canada's new energy play: The old oil fields - The Globe ..."
p8
aS'News - Golden Pass LNG Terminal'
p9
aS'[PDF]\nIBM THE BOEING CO. GENEral ElECTrIC - Business Travel ...'
p10
a.