(lp0
S'Exxon Mobil Corporation (XOM) - Financial and Strategic ...'
p1
aS'Exxon, Petronas to lift Tapis oil output in 2013 | Reuters'
p2
aS'MC Petroleum - Lubricant, Oil, Diesel, Fuel Distributor - MC ...'
p3
aS'Citizens United: The Aftermath, an Issue Brief for the ...'
p4
aS'Dirty Illinois Coal Revived by Mining Deaths, Obama ...'
p5
aS'Who Has it Worst? Goldman Tops BP - Deal Journal - WSJ'
p6
aS'The Spill, The Scandal and the President | Rolling Stone'
p7
aS'International Symposium of Offshore Structures and ...'
p8
aS'15th Asia Oil & Gas Conference | Getty Images'
p9
aS"Oncor's new rule on solar panel incentive money puts the ..."
p10
a.