(lp0
S'Exxon Mobil Share News - ADVFN.com'
p1
aS'Peggy Montgomery, Exxon Mobil Corp., retired - Houston ...'
p2
aS'Big Oil Goes to College: BP, ExxonMobil, Chevron, Shell ...'
p3
aS'Exxon restarts gofiner at Baytown refinery-filing | Reuters'
p4
aS'Hoaxers target new Chevron advertising campaign | Reuters'
p5
aS'Achievements: Students earn Eagle Scout rank with map ...'
p6
aS'Marketing: Pranksters Hijack Chevron Corporate-PR Efforts ...'
p7
aS'World Fuel Services - Investor Relations Portal -Investor ...'
p8
aS'LNG WATCH: LNG in the News: Somare hails progress of ...'
p9
aS"Televisa Ends Deal to Buy Stake in NII's Nextel Mexico ..."
p10
a.