(lp0
S'ExxonMobil Chemical Completes Butyl Rubber Capacity ...'
p1
aS'ExxonMobil Commissions New Ultra Low Sulfur Diesel ...'
p2
aS'Exxon Mobil Corporation: NYSE:XOM related companies ...'
p3
aS'Mega-Cartels That Kill the Free Market and Our Sovereignty ...'
p4
aS'Orix Aims to Double Assets of US Hedge Fund in Five Years'
p5
aS'Google 2.4% Rate Shows How $60 Billion Is Lost to Tax ...'
p6
aS'Marchionne Makes Push to Fix Alfa as VW Circles Unit ...'
p7
aS"The Fortune 500's fallen angels"
p8
aS"Big oil's big cleanup in Brooklyn - CNN.com"
p9
aS'25 Great Scholarships For Students | Super Scholar'
p10
a.