(lp0
S'Consumer products | ExxonMobil'
p1
aS'Fuel Finder | ExxonMobil'
p2
aS'Brent Blend - crude oil | ExxonMobil'
p3
aS'Why Exxon Mobil is More Dangerous than BP - The ...'
p4
aS'ExxonMobil to Pay MA $2.9M for Air Pollution Violations ...'
p5
aS'Exxon, Shell May Consider Possible Bid for BP, JPMorgan ...'
p6
aS'BP and Iran: The Forgotten History - CBS News'
p7
aS'Gas Stations - Find Exxon and Mobil Station Locations Near ...'
p8
aS'Gasoline - MC Petroleum'
p9
aS'ANALYSIS - Investors urge safeguards on U.S. shale gas ...'
p10
a.