(lp0
S'ExxonMobil Chemical announces plans to build a diesel ...'
p1
aS'Exxon Mobil Sues Prysmian Over Bad Submarine Cable'
p2
aS'Exxon Mobil Sells $1 Billion in Gulf Assets - The New York ...'
p3
aS'Boogeymen Trifecta: Murdoch Allies With Oil Company ...'
p4
aS'Hess expands further in Bakken with $1 billion deal | Reuters'
p5
aS'10 Large-Cap China Picks - TheStreet'
p6
aS'Medtronic to Acquire Rest of Ardian for $800 Million ...'
p7
aS'Why global imbalances could lead to another economic ...'
p8
aS'Scrappy American companies are exporting their ... - Slate'
p9
aS'The Top Tax Rate is 27% Below US Historical Average ...'
p10
a.