(lp0
S"Exxon Mobil says it's not forsaking oil for natural gas ..."
p1
aS'Oil and Gas Interests Set Spending Record for Lobbying in ...'
p2
aS'ExxonMobil Discloses Marcellus Shale JV with Private ...'
p3
aS'ExxonMobil isopropyl alcohol - ExxonMobil Chemical'
p4
aS'BP profit up as oil prices rise, misses forecasts | Reuters'
p5
aS'NOG - Northern Oil and Gas, Inc. Buy, Sell and Hold Ratings ...'
p6
aS'PlainsCapital suing customer Hillary Machinery over ...'
p7
aS'Eurest Services  Services  Foodservice'
p8
aS'Barge workers claim injuries from Port Arthur ship channel ...'
p9
aS'Oil & Gas News (OGN)'
p10
a.