(lp0
S'BP Spill Threatens Gulf of Mexico Oil, Gas Operations ...'
p1
aS"Barclays's Shah to Co-Run Credit at AllianceBernstein ..."
p2
aS'Cost of oil spill could exceed $14 billion | Reuters'
p3
aS"brandchannel: BP's Brand: Is the Damage Done?"
p4
aS'LATEST NEWS: JCSO nabs Evadale man on sex offender ...'
p5
aS'Exxon Valdez and the birth of credit default swaps ...'
p6
aS'1 MILLION GALLONS OF OIL PER DAY; WSJ: Estimated 9 ...'
p7
aS'United and Continental announce merger - May. 3, 2010'
p8
aS'Davy Jones discovery opens up new large production ...'
p9
aS'Movie Gallery closing stores, which is bittersweet news for ...'
p10
a.