(lp0
S'News Update: Exxon Mobil (NYSE: XOM) Plans To Spend ...'
p1
aS"Exxon's growing reliance on expensive oil - Mar. 11, 2010"
p2
aS"The most troubled automaker isn't Toyota. It's Chrysler. - Mar ..."
p3
aS'BP Set to Buy Devon Oil Assets - WSJ'
p4
aS'BUSINESS BRIEFS - Offshore'
p5
aS"Occidental Petroleum's Path to Easy Oil - Forbes.com"
p6
aS'An unconventional glut | The Economist'
p7
aS'Exxon Mobil will heavily investing in natural gas projects ...'
p8
aS'The Most Powerful Destructive Corporate Business Club Most ...'
p9
aS'Lauri Goodman Lampson - PDR'
p10
a.