(lp0
S'ExxonMobil: Our business in Kazakhstan requires stable ...'
p1
aS'Phil Mickelson promotes Exxon Mobil - YouTube'
p2
aS'Sinopec Group Pays $4.65 Billion for Syncrude Stake ...'
p3
aS"The Worst Companies For LGBT Workers: HRC's 2010 ..."
p4
aS'Is Masters champion Phil Mickelson unwittingly helping ...'
p5
aS'oildrillingservices.com - E & P Companies'
p6
aS'Did Big Oil Win The War In Iraq? | Iraq Business News'
p7
aS'Mediation board to take up requests from American Airlines ...'
p8
aS'TOTAL AGREES TO UNUSUAL VENTURE WITH ALGERIA ...'
p9
aS"GoM: BP's Thunder Horse maintenance to cost 10,000 ..."
p10
a.