(lp0
S"The Oil Drum | ExxonMobil's Acquisition of XTO Energy: The ..."
p1
aS'Hungary: ExxonMobil and MOL to exit Falcon Oil & Gas ...'
p2
aS'Our Greenpoint Commitment'
p3
aS'Schlumberger deal could put it into better domestic gas ...'
p4
aS'chemical petrochemical projects news contracts for ...'
p5
aS'Beal Bank owner paved his own road to becoming Dallas ...'
p6
aS'Geologic reality altered Cerro Negro development scheme ...'
p7
aS'SEISMIC EXPLORATION Taking another look at bright spots ...'
p8
aS'Bill Gates Invests Heavily in Deception About Global ...'
p9
aS'terminals - ExxonMobil'
p10
a.