(lp0
S'ExxonMobil Corporation to Pay $2.9 Million... - Mass.Gov'
p1
aS'Exxon-XTO Energy Merger Completed - June 28, 2010 ...'
p2
aS'Mass. reaches $2.9M settlement with ExxonMobil over ...'
p3
aS'Why Exxon Mobil is More Dangerous than BP - The ...'
p4
aS'Corporate Social Irresponsibility | Common Dreams ...'
p5
aS'Exxon, Shell May Consider Possible Bid for BP, JPMorgan ...'
p6
aS"Princeton as 'Hedge Fund' Foiling Residents Seeking Tax ..."
p7
aS"Moody's upgrades long-term debt of XTO Energy to Aaa"
p8
aS'Eaton Corporation featured company in Wall Street Transcript'
p9
aS'Capital Senior Living of Dallas to acquire Signature Assisted ...'
p10
a.