(lp0
S'Scammed Exxon Mobil retirees applaud sentencing of ex ...'
p1
aS'Exxon Mobil Chemical CO Baton Rouge LA, 70805  Manta ...'
p2
aS'Drilling Tactic Unleashes a Trove of Natural GasAnd a ...'
p3
aS'Eni purchases ExxonMobil downstream activities in Austria ...'
p4
aS'In Landmark Campaign Finance Ruling, Supreme Court ...'
p5
aS'Exxon Mobil Corp. (NYSE: XOM): Fourth Quarter Earnings ...'
p6
aS'- Eni purchases ExxonMobil downstream... - Europtrole'
p7
aS'How Corporate Money Will Reshape Politics - The New ...'
p8
aS'Fluids for paints, coatings and inks - ExxonMobil Chemical'
p9
aS'Achieve resin - ExxonMobil Chemical'
p10
a.