(lp0
S'News and updates - Investors - ExxonMobil'
p1
aS'Operations in New Zealand | ExxonMobil'
p2
aS'Exxon Mobil Share News - ADVFN.com'
p3
aS'Sara N. Ortwein: Executive Profile & Biography ... - Bloomberg'
p4
aS"Exxon Starts Units at Italy's Augusta Oil Refinery After Fault ..."
p5
aS'Eagle Ford Shale News, Wells, Formation, Markets and ...'
p6
aS'DownstreamToday.com - News and Information for the ...'
p7
aS'New Oil Spill Containment System to Protect Gulf of Mexico ...'
p8
aS'Energy Value Plays  VLO, XOM, CVX, XOM, BP ...'
p9
aS'Newmont Mining Corp - Huffington Post'
p10
a.