(lp0
S'Statement to the National Commission on the BP Deepwater ...'
p1
aS'Suzanne M. McCarron - Eisenhower Fellows'
p2
aS"Building a culture of safety | ExxonMobil's Perspectives Blog"
p3
aS'Digging Into the Cash Flow at ExxonMobil (BP, COP, CVX ...'
p4
aS'Stephen M. Greenlee: Executive Profile & Biography ...'
p5
aS'Chevron to Buy Shale-Gas Owner Atlas for $3.2 Billion ...'
p6
aS'AUTHOR SPOTLIGHT: DeMonica D. Gladney - BCNN1'
p7
aS'"Identity Theft" by DeMonica D. Gladney - BCNN1'
p8
aS"Bunkerworld News - Mass flowmeter 'natural progression' in ..."
p9
aS'Oil, coal to continue as dominate energy sources: forecast ...'
p10
a.