(lp0
S"Big oil's big cleanup in Brooklyn - CNN.com"
p1
aS'Strategic Corporate Social Responsibility: Strategic CSR ...'
p2
aS'Marchionne Makes Push to Fix Alfa as VW Circles Unit ...'
p3
aS'Study Finds Big Oil Money Controls Federal Research ...'
p4
aS'Oil & Gas Data News and Analysis from Evaluate Energy'
p5
aS'Starcon International > News & Awards - STARCON ...'
p6
aS'[PDF]\n2009-C -2368 C/W 2009-C - The Louisiana Supreme Court'
p7
aS'Jobs blasts rivals as iPad sales disappoint | Reuters'
p8
aS'World Fuel Services and ExxonMobil Aviation Announce the ...'
p9
aS'25 Great Scholarships For Students | Super Scholar'
p10
a.