(lp0
S'Exxon Mobil Corporation Houston TX, 77079  Manta.com'
p1
aS'Scientists Create First Synthetic Cell - WSJ'
p2
aS'BP Cap Waiver May Be Moot in Light of Possible Lapses ...'
p3
aS'Harris Corporation to Acquire CapRock Communications, a ...'
p4
aS'First synthetic cell created by scientists ...'
p5
aS"Microsoft accuses Tyler-based RedOrbit of 'click laundering ..."
p6
aS'Xerox settles suit over payout to ACS founder Darwin Deason'
p7
aS'Dr Pepper faces contract dispute with New York workers ...'
p8
aS'Deep Green: Cars, Corporations and Society | Greenpeace ...'
p9
aS'Wisconsin Gov Nixes Raw Milk Legislation | Food Safety News'
p10
a.