(lp0
S'Business and Financial Leaders Lord Rothschild and ...'
p1
aS'Exxon Mobil Says Offshore Platform in Nigeria Attacked ...'
p2
aS'Media monopoly and Big Oil - Workers World'
p3
aS'Trade - 100000 in 9 days - MarketWatch.com'
p4
aS'Trade - 312 - MarketWatch.com'
p5
aS'Business and Financial Leaders Lord Rothschild ... - Reuters'
p6
aS'Time to Stop Subsidizing Ethanol - Huffington Post'
p7
aS'Exxon Mobil Oso Field Attacked. Nigerian Hostages Taken ...'
p8
aS'Invesco S&P 500 Index Fund Class A: MUTF:SPIAX quotes ...'
p9
aS'Investors foot the bill in lawsuits | Dallas Morning News'
p10
a.