(lp0
S'Xylenes licensing - ExxonMobil Chemical'
p1
aS'Specialty copolymer - ExxonMobil Chemical'
p2
aS'Polymers licensing - ExxonMobil Chemical'
p3
aS"Refining Weakness Hurts Shell's Results - WSJ"
p4
aS'Making Money with Mobile Workforce Management - Pipeline'
p5
aS'Toyota CEO apologizes, but announces no new recall - Feb ...'
p6
aS'CNNMoney.com Market Report - Feb. 4, 2010'
p7
aS'Dow falls below 10,000 for first time since Nov. 6 | cleveland ...'
p8
aS'Cowboys sue 10 businesses, saying they stopped paying ...'
p9
aS'6 great environmental pranks | MNN - Mother Nature Network'
p10
a.