(lp0
S'ExxonMobil Chemical Supplies Exxtral Performance ...'
p1
aS'Exxon Drills Longest Ever Extended-Reach Well From ...'
p2
aS'Saudis Tighten China Energy Ties to Reduce US Dependence'
p3
aS'ExxonMobil Business Card ExxonMobil Business Card ...'
p4
aS'OGJ Newsletter - Oil & Gas Journal'
p5
aS"Shell taking closer look at Indonesia's prospects - Oil & Gas ..."
p6
aS'UK: Shell and ExxonMobil selling Anasuria production ...'
p7
aS'Technical Literature - Gamma Irradiation Sterilization ...'
p8
aS'UAB - UAB News Archive - UAB Names Clifford AVP for ...'
p9
aS"'Rich Dad' author advises that you avoid 401(k), but should ..."
p10
a.