(lp0
S"Uppy's Acquired by Mid-Atlantic Convenience Stores ..."
p1
aS'Catterton Backs Mid-Atlantic Convenience Stores to Acquire ...'
p2
aS'Offshore Insurance to Shrink as Providers Flee BP-Like Risk'
p3
aS'Fox News is BP oil spill misinformation clearinghouse'
p4
aS'BondsOnline: Credit Ratings for Municipal and Corporate ...'
p5
aS'BP Relied on Faulty U.S. Data - Wall Street Journal'
p6
aS'Before Rig Explosion in Gulf, Scant Difference Between BP ...'
p7
aS'BP and the Niger Delta: A Horrendous Tale of Two Oil Spills'
p8
aS'CHINA & SOUTHEAST ASIA - Offshore'
p9
aS'BP stock price hits new 52-week low - Jun. 24, 2010'
p10
a.