(lp0
S'ExxonMobil - IBBC | Together We Build Iraq'
p1
aS'Corporate Sustainability | ExxonMobil'
p2
aS'New ExxonMobil campus - Page 15 - Going Up! - HAIF ...'
p3
aS'ExxonMobil Foundation - Bloomberg'
p4
aS'Synesstic AN Blendstocks - ExxonMobil Chemical'
p5
aS'Best Consumer Stocks for a Recovering Economy - US News'
p6
aS'operations - ExxonMobil Iraq'
p7
aS'JPMorgan books profits of $3.3 billion - Jan. 15, 2010'
p8
aS'Shell begins drilling for shale gas in Sweden - Oil & Gas ...'
p9
aS'[PDF]\n2009 Annual Report - jsg - The University of Texas at Austin'
p10
a.