(lp0
S'340 High School Students Selected for ExxonMobil Green ...'
p1
aS'ExxonMobil ridiculed for walrus oil spill plan - ABC News ...'
p2
aS'Venezuela Obtains a Win in ExxonMobil Lawsuit ...'
p3
aS'Shell, Exxon, Chevron and Conoco no better prepared to ...'
p4
aS'Rex Tillerson, Chairman and CEO of ExxonMobil, John ...'
p5
aS'BASF headquarters will be in new, $100M Florham Park ...'
p6
aS'Encana, several other producers developing Collingwood ...'
p7
aS"ExxonMobile CEO: We're Not Well-Equipped to Handle ..."
p8
aS"Congress derides big oil's crisis planning - NBC News"
p9
aS'Gulf oil disaster: a trillion-dollar corporate crime - World ...'
p10
a.