(lp0
S'LNG fueling the future - ExxonMobil'
p1
aS'Meeting Record | The White House'
p2
aS'GULF SPILL: A lucky few manage to profit from disaster ...'
p3
aS'A Close Relationship | Yale School of Management'
p4
aS'Niger Delta oil spills dwarf BP, Exxon Valdez catastrophes ...'
p5
aS'Cracks Show BP Battled Well Two Months Before Blast ...'
p6
aS'From Fluor to Booms to Costner, BP Cleanup Means Some ...'
p7
aS'PBS | Ombudsman | Keeping Their Heads Down'
p8
aS'The soaring cost of G&A and why CEOs should care - Oil ...'
p9
aS'Oppera modifiers - ExxonMobil Chemical'
p10
a.