(lp0
S'ExxonMobil pulls out of $4.5 billion Ghana deal ...'
p1
aS'Kosmos Ends $4 Billion Sale of Ghana Fields to Exxon ...'
p2
aS'Aug 17, 2010 - Gates Foundation Buys Ecolab Inc ...'
p3
aS'BP - Latest news, videos, and information- NBCNews.com'
p4
aS'DownstreamToday.com - News and Information for the ...'
p5
aS'Exxon reports Beaumont refinery unit leak -filing | Reuters'
p6
aS'Exxon abandons bid for Ghana stake - FT.com'
p7
aS'What Buffett, Icahn and Paulson have been buying and ...'
p8
aS'How to Find the Best High-Dividend Stocks - US News'
p9
aS'Jeremy Siegel and Jeremy Schwartz: The Great American ...'
p10
a.