(lp0
S'ExxonMobil Greenpoint Petroleum Settlement - NYS Dept ...'
p1
aS'ExxonMobil Recognizes Boca Raton High School Student ...'
p2
aS"Is the world running out of oil? | ExxonMobil's Perspectives ..."
p3
aS'HEARD ON THE STREET: Fight for Your LIFO - WSJ'
p4
aS'REFILE-Falklands oil not enough for profit-leaked cable ...'
p5
aS"Pimco's McCulley to Leave Investing for Think Tank ..."
p6
aS'Logos Archives - Visual News'
p7
aS"'Top 100' oil rankings heavy on Houston firms - Houston ..."
p8
aS"It's Not Just Business - Forbes"
p9
aS'Petronas Gas Berhad and Petronas Sign HOA for the ...'
p10
a.