(lp0
S'Exxon Faces $12M Wrongful Death Suit For Gas Leak ...'
p1
aS"Bunkerworld News - 'Integrated solution' the way to go"
p2
aS'Indonesia: ExxonMobil farming out deepwater Surumana ...'
p3
aS"Phosphate: Morocco's White Gold - Bloomberg"
p4
aS"Analysis: Post-spill, Gulf of Mexico key to BP's fortunes ..."
p5
aS"ONGC beats China's CNOOC to become Asia's No.1 E&P firm"
p6
aS'Western Precipitation Corp. Celebrates - Chemical ...'
p7
aS"Kristi Lafleur | 36 - Multimedia - Crain's Chicago Business"
p8
aS'Six Flags is weaning itself off big discounts | Dallas Morning ...'
p9
aS'U.S. Commerce Secretary Gary Locke Announces Members ...'
p10
a.