(lp0
S'CNN cuts ties with AP - Jun. 21, 2010 - CNN Money'
p1
aS'Mobil-UMC extends Equatorial Guinea oil field - Oil & Gas ...'
p2
aS'Corporate Con Game - In These Times'
p3
aS'Corporate Polluters: The 10 Biggest Environmental Payouts ...'
p4
aS"In Fracking Debate,' Disclosure' Is in the Eye of the Beholder ..."
p5
aS"[PDF]\nMaster Limited Partnerships: Paying Other People's Taxes"
p6
aS'Exxon Valdez is still on the high seas | Nosey Parker'
p7
aS"Abu Dhabi's New Economy: Oil, Investment and Domestic ..."
p8
aS'Gin Slobs, Rotting Blair Enliven London Exhibition of Comic ...'
p9
aS'Lower Corporate Tax Payments Do Not Necessarily Benefit ...'
p10
a.