(lp0
S'Ghana Blocks Exxon Oil-Field Deal - WSJ'
p1
aS'NEWS | ExxonMobil Cases First Point Thomson Well in ...'
p2
aS"Ghana blocks Exxon's $4 billion deal for Kosmos Energy's ..."
p3
aS'Praxair Awarded ExxonMobil Contract for Enhanced Oil ...'
p4
aS'EXXON INSTALLING RECORD TEMPLATE IN GULF OF ...'
p5
aS'All about Orinoco - Oil & Gas Journal'
p6
aS'Articles about Torrance Refinery - latimes'
p7
aS'Asian E & P, leasing on track despite troubled economies ...'
p8
aS'Privatization of Brazilian oil sector opportunity for foreign ...'
p9
aS'Oxygenated fluids - ExxonMobil Chemical'
p10
a.