(lp0
S'ExxonMobil ridiculed for walrus oil spill plan - ABC News ...'
p1
aS'BASF headquarters will be in new, $100M Florham Park ...'
p2
aS'Shell, Exxon, Chevron and Conoco no better prepared to ...'
p3
aS'Rex Tillerson, Chairman and CEO of ExxonMobil, John ...'
p4
aS'Venezuela Obtains a Win in ExxonMobil Lawsuit ...'
p5
aS'Lawmakers Chastise Oil Firms Over Spill-Response Plans ...'
p6
aS'Encana, several other producers developing Collingwood ...'
p7
aS"ExxonMobile CEO: We're Not Well-Equipped to Handle ..."
p8
aS'Oil Executives Break Ranks in Testimony - The New York ...'
p9
aS"Congress derides big oil's crisis planning - NBC News"
p10
a.