(lp0
S'Exxon Mobil: Rotterdam Refinery Units Shut For Maintenance'
p1
aS'Jubilee Field Stake: BP Out, Exxon In? | Business News ...'
p2
aS'Your Project News | Qatar Petroleum and ExxonMobil ...'
p3
aS'Qatar: Qatar Petroleum and ExxonMobil sign Ras Laffan ...'
p4
aS'When Will Renewable Energy Companies Overtake ...'
p5
aS'Cramped on Land, Big Oil Bets at Sea - WSJ'
p6
aS'Endless Oil - Bloomberg'
p7
aS'How Big Oil and Big Coal Blocked Global Warming ...'
p8
aS'Kosmos Energy - The FCPA Blog - The FCPA Blog'
p9
aS'UTeach Expansion Recognized as President ... - UT News'
p10
a.