(lp0
S'ExxonMobil Announces Successful Drilling of Point ...'
p1
aS'NEWS | ExxonMobil Successfully Drills Point Thomson ...'
p2
aS"The economics of ethanol | ExxonMobil's Perspectives Blog"
p3
aS'The Petroleum Broadcast System Owes Us an Apology'
p4
aS"JPMorgan's Highbridge Buys Fraga's Gavea Investimentos ..."
p5
aS'Owens-Illinois Seizure by Chavez May Undermine ...'
p6
aS'Deepwater discoveries keep West Africa at global forefront ...'
p7
aS"80 companies named in refinery worker's benzene suit ..."
p8
aS'[DOC]\nhere - Society for Human Resource Management'
p9
aS'Exxon Mobil grant + more news from JWMS - John ...'
p10
a.