(lp0
S'PNG LNG Project and CPC Finalise Sale and Purchase ...'
p1
aS'Taiwan national oil company CPC ready to buy ExxonMobil ...'
p2
aS'PNG: ExxonMobil finalises PNG gas sales deal with ...'
p3
aS'Exxon Mobil Corporation Company Profile | ZoomInfo.com'
p4
aS'NEWS | BP Deal to Expand US Shale-Gas Operations ...'
p5
aS'BP - Lewis Joint Venture in Eagle Ford Dry Gas | Eagle Ford ...'
p6
aS'The Mundy Companies - Awards'
p7
aS'ExxonMobil cases first Point Thomson well - Oil & Gas ...'
p8
aS"Battlement Mesa's David and Goliath story - Post Independent"
p9
aS'Escorez 1000 series - ExxonMobil Chemical'
p10
a.