(lp0
S'Consumer products | ExxonMobil'
p1
aS'Fuel Finder | ExxonMobil'
p2
aS'Brent Blend - crude oil | ExxonMobil'
p3
aS'Earnings Estimates for Exxon Mobil Corp (XOM) from ...'
p4
aS'ExxonMobil to Pay MA $2.9M for Air Pollution Violations ...'
p5
aS'Four Puffin Stops For Sale | CSPnet'
p6
aS"BP's falling stock makes it a takeover target: analysts - Jul. 1 ..."
p7
aS'BP and Iran: The Forgotten History - CBS News'
p8
aS'ESP Resources, Inc. Announces Joint Venture Agreement ...'
p9
aS'Gas Stations - Find Exxon and Mobil Station Locations Near ...'
p10
a.