(lp0
S'ExxonMobil and Synthetic Genomics Inc. Advance Algae ...'
p1
aS'Exxon Mobil PE Ratio (TTM) (XOM) - YCharts'
p2
aS'Exxon Mobil Market Cap (XOM) - YCharts'
p3
aS'Exxon Mobil Profit Margin (Quarterly) (XOM) - YCharts'
p4
aS'Exxon Mobil Return on Equity (TTM) (XOM) - YCharts'
p5
aS'Exxon Mobil Enterprise Value (XOM) - YCharts'
p6
aS'Exxon Mobil Dividend Yield (TTM) (XOM) - YCharts'
p7
aS'News Update: Exxon Mobil Opened Greenhouse Facility To ...'
p8
aS'GoG/GNPC Vrs Kosmos/ExxonMobil | General News 2010 ...'
p9
aS'Indian Oil to Invest in Africa in $1 Billion Push - Bloomberg'
p10
a.