(lp0
S'Sakhalin-1 Project Continues Record Setting Drilling ...'
p1
aS'ExxonMobil CEO And XTO Energy CEO Testify Before ...'
p2
aS"Workers say Exxon Mobil hid cleaning job's radiation risk ..."
p3
aS'ExxonMobil CEO And XTO Energy CEO Testify ... - Zimbio'
p4
aS"Texas oilman's urge to dig deeper pays off | www.statesman ..."
p5
aS'Hydrocarbon fluids - ExxonMobil Chemical'
p6
aS'Polymer modifiers - ExxonMobil Chemical'
p7
aS'[PDF]\nSignum Oil Analysis - ExxonMobil'
p8
aS'ExxonMobil Renews its Sponsorship of the 2010 Sword ...'
p9
aS'Biodiesel Magazine - The Latest News and Data About ...'
p10
a.