(lp0
S'Compensation & Benefits - ExxonMobil'
p1
aS'Application procedure - ExxonMobil'
p2
aS'FAQ - ExxonMobil'
p3
aS'Masters  Young Graduate/student - ExxonMobil'
p4
aS'Asia-Pacific to Pass North America in Ad Market Size ...'
p5
aS'[PDF]\nExxon Mobil Corp'
p6
aS'[PDF]\nIDT CORPORATION PRESS RELEASE MURDOCH ...'
p7
aS'Investing in Energy: Advice From The Wall Street Journal ...'
p8
aS'Drilling war boils over in New York - Sep. 13, 2010'
p9
aS'Sinopec starts building 1st LNG receiving terminal | Reuters'
p10
a.