(lp0
S'Why a BP-Exxon Mobil Merger Is an (Oil) Pipe Dream - Deal ...'
p1
aS"How'd we get stuck with BP? - Jul. 12, 2010 - CNN Money"
p2
aS'ExxonMobil at the International Oil and Gas Conference and ...'
p3
aS'At BP, a History of Boldness and Costly Blunders - The New ...'
p4
aS'BP faces ExxonMobil takeover bid speculation | Business ...'
p5
aS'Reconstituting the Standard Oil Company - Daily Kos'
p6
aS'BP builds defence in takeover threat - Telegraph'
p7
aS'The Future of Shale Gas is International  XOM, RDS.A ...'
p8
aS'Top Ten Corporate Outrages - OB Rag'
p9
aS'High-quality tax-free municipal bonds offer opportunity for ...'
p10
a.