(lp0
S'Qatar Petroleum and ExxonMobil Announce Start of ...'
p1
aS"The Oil Drum | ExxonMobil's Acquisition of XTO Energy: The ..."
p2
aS'Bundled oil services trend no guarantee of success | Reuters'
p3
aS'Schlumberger deal could put it into better domestic gas ...'
p4
aS'chemical petrochemical projects news contracts for ...'
p5
aS'Why Alternative Energy Will Be Slow to Make Inroads - WSJ'
p6
aS'The Long Road to an Alternative-Energy Future - WSJ'
p7
aS"Exploration interest high in Peru's Ucayali basin - Oil & Gas ..."
p8
aS'Simulator helps analyze horizontal-well tests - Oil & Gas ...'
p9
aS'Bill Gates Invests Heavily in Deception About Global ...'
p10
a.