(lp0
S'ExxonMobil to Explore Black Sea with Specially Designed ...'
p1
aS'Baytown area history | ExxonMobil'
p2
aS'[PDF]\n1629 EXXONMOBIL PIPELINE COMPANY v. UNION ...'
p3
aS'Mobil 1 Motorcycle Built by Orange County Choppers ...'
p4
aS'Major 3D seismic acquisition undertaken by British Gas ...'
p5
aS'Pioneering Fund Stages Second Act - WSJ'
p6
aS"Abu Dhabi's Oil Output Gets Tougher - WSJ"
p7
aS'Exxon to Start $15 Billion LNG Project - AutoEvolution'
p8
aS'Marpol & Solas - Maritime News - Latest amendments to ...'
p9
aS'ETF - Exchange Traded Funds: News and Info from ...'
p10
a.