(lp0
S'news room - ExxonMobil Benelux'
p1
aS"Bill Gates's So-Called Philanthropic Foundation Buys ..."
p2
aS'Catterton Acquires MACS'
p3
aS'Chevron: Taking Measures To Respond To Apparent Oil ...'
p4
aS'Koch Industries gave funding to the DLC and served on its ...'
p5
aS'Trial Lawyer Embraces Approach of Energy Tycoons to ...'
p6
aS'Teachers spend thousands of dollars for classroom supplies ...'
p7
aS'GE Oil & Gas awarded supply contracts for Papua New ...'
p8
aS'Murderous Tiger Prowls Saga of Sex Cures, SWAT Team in ...'
p9
aS'[PDF]\nIC-29384 - McGuireWoods LLP'
p10
a.