(lp0
S'More New York Deals | CSPnet'
p1
aS'Our safety philosophy | ExxonMobil'
p2
aS'CPD Energy - News'
p3
aS'Chinonso Emehelu - Africare'
p4
aS'[PDF]\nExxon Mobil Corp'
p5
aS'Chevron Nears Natural-Gas Deal With CNPC - WSJ'
p6
aS'[PDF]\nIDT CORPORATION PRESS RELEASE MURDOCH ...'
p7
aS"A structure for safety | ExxonMobil's Perspectives Blog"
p8
aS'Aera Energy - Wikipedia, the free encyclopedia'
p9
aS' Liquids production of top 20 U.S. oil and gas companies ...'
p10
a.