(lp0
S'Oil sands | ExxonMobil'
p1
aS'Making Money on Oil Disasters | Center for American Progress'
p2
aS'Apple passes Microsoft as biggest in tech - NY Daily News'
p3
aS"Apple Passes Microsoft as World's Largest Tech Company ..."
p4
aS'Varsol fluids - ExxonMobil Chemical'
p5
aS'Nappar fluids - ExxonMobil Chemical'
p6
aS'Apple overtakes Microsoft as biggest tech company | Reuters'
p7
aS'U.S. Congress hears benefits of synthetic biology | Reuters'
p8
aS'How The Exxon Valdez Spill Created The Credit Default Swap'
p9
aS'Tom Hicks Says Goodbye to Sports - Bloomberg'
p10
a.