(lp0
S'ExxonMobil Announces Odoptu Production Startup at ...'
p1
aS'ExxonMobil starts up Sakhalin-1 Odoptu field - Oil & Gas ...'
p2
aS'- ExxonMobil Announces Odoptu Production... - Europtrole'
p3
aS'Russia: ExxonMobil Announces Odoptu Production Startup ...'
p4
aS'Business & economy news - WCAX.COM Local Vermont ...'
p5
aS'Deep-Water Drill Ban Was Necessary Public Policy, US Says'
p6
aS"Nabucco Sees Iraq as 'Most Real' Supplier for Pipeline ..."
p7
aS'Springwoods Village: New community at I-45 N @ Grand ...'
p8
aS'Matching Fun(d) - Global Teams'
p9
aS'Reprints | Thoughts on Alaska Oil & Gas'
p10
a.