(lp0
S'Global Taps Alliance | CSPnet'
p1
aS'Gullfaks Blend - crude oil | ExxonMobil'
p2
aS'Most businesses avoid paying corporate income tax - News ...'
p3
aS'Tesoro Fined $2.39 Million for Blast at Refinery - Bloomberg'
p4
aS'Investments for Inflation or Deflation - WSJ'
p5
aS'Continued - East Coast Trail | News'
p6
aS'Texas angel investors to form alliance | Dallas Morning News'
p7
aS'US producing, exporting more slurry oil - Oil & Gas Journal'
p8
aS'Edelman returns to Houston with Vollmer acquisition ...'
p9
aS'Investing in Energy - Enterra Solutions'
p10
a.