(lp0
S"ExxonMobil's Value Proposition | CSPnet"
p1
aS'Investing Wisely -- Energy and Bellwether Exxon Mobil are ...'
p2
aS'(Graphic: Business Wire) - TheStreet'
p3
aS'News and Press Releases - About Penguin - Penguin ...'
p4
aS"Middle school receives grant from Troy's Mobil - News ..."
p5
aS'"Entrepreneurship Beyond Borders"'
p6
aS"Iraq's Oil Patch Opens the Spigot - WSJ"
p7
aS"Singapore Passing Malaysia 45 Years After Lee's Tears ..."
p8
aS'PwC Finds a Boom In CSR Reporting, Despite Recession ...'
p9
aS'Louisiana Supreme Court Issues Opinion in Marin v. Exxon ...'
p10
a.