(lp0
S"After Seven Years, 'Kazakhgate' Scandal Ends With Minor ..."
p1
aS'HP scandal: Finally some good news for Dell - Aug. 10, 2010'
p2
aS'AIR POLLUTION: By messing with Texas permits, EPA ...'
p3
aS'Value Investing: The Case for Oil Refining Stocks  XOM ...'
p4
aS'Four selected as American Chemical Society fellows | WSU ...'
p5
aS'Supply and logistics partnering improve use of vessels ...'
p6
aS'U.S. Warship Docks in Vietnam Amid China Sea Dispute ...'
p7
aS'Without Matt Simmons: Has Peak Oil, Well, Peaked? - Deal ...'
p8
aS'Solid-acid alkylation process development is at crucial stage ...'
p9
aS"taiwan's cpc pushes expansion campaign - Oil & Gas Journal"
p10
a.