(lp0
S'Price Ratios and Valuation for Exxon Mobil Corp (XOM) from ...'
p1
aS'Calendar of Events - Mobil Industrial Lubricants'
p2
aS'These companies managed to make a comeback - NBC News'
p3
aS"ExxonMobil's Annual Matching Donation Exceeds $1 Million ..."
p4
aS'100 Top MBA Employers 2010 - Top 100 - FORTUNE on ...'
p5
aS'ExxonMobil protest on for Wednesday | Dallas Voice'
p6
aS'Shale Gas Costing 2/3 Less Than OPEC Oil Incites Water ...'
p7
aS'ProxyDemocracy | Shareholder Proposals at ExxonMobil ...'
p8
aS"ABC World News: Climate Scientists Claim 'McCarthy-Like ..."
p9
aS"US oil, gas firms' 1Q earnings rebound from year-earlier loss ..."
p10
a.