(lp0
S'ExxonMobil - | PolluterWatch'
p1
aS'ExxonMobil finishes Shute Creek carbon capture expansion ...'
p2
aS'Suit demands Exxon Mobil reduce emissions at Baytown ...'
p3
aS'Sierra Club sues Exxon over Baytown plant pollution | Reuters'
p4
aS'ME NewsWire | Middle East News Wire - ExxonMobil ...'
p5
aS'[PDF]\nExxon Suit - Hilder & Associates, P.C.'
p6
aS"ExxonMobil is a leading U.S. taxpayer | ExxonMobil's ..."
p7
aS'Exxon Mobil, ConocoPhillips seek investments in Qatar ...'
p8
aS"S'Court orders ExxonMobil to settle sacked guards - Vanguard"
p9
aS'Sanofi Extends Deadline for Genzyme Offer to Jan. 21 ...'
p10
a.