(lp0
S'Investing Wisely -- Energy and Bellwether Exxon Mobil are ...'
p1
aS'Range Resources, EQT May Be Targets After Chevron Deal ...'
p2
aS'News and Press Releases - About Penguin - Penguin ...'
p3
aS'Chevron to Acquire Atlas Energy - WSJ'
p4
aS'Shareholder Activism - News and Analysis - Triple Pundit'
p5
aS'(Graphic: Business Wire) - TheStreet'
p6
aS"Middle school receives grant from Troy's Mobil - News ..."
p7
aS'ICHS Receives ExxonMobil Grant  Elmhurst news, photos ...'
p8
aS'World Snow Cover - SnowPlowNews - The News Source for ...'
p9
aS"FACTBOX-Jurong Island, Singapore's energy, chemicals ..."
p10
a.