(lp0
S'Almost $45 Million Raised For Charity By"Idol Gives Back"'
p1
aS'Goldman, UBS, SocGen, Madoff, Siemens in Court News ...'
p2
aS'Oil Producers Risk Blowouts in Search for Deep Fields ...'
p3
aS'Amerigroup joins elite list of top firms | Economic ...'
p4
aS'Parent of Fuddruckers chain files for Chapter 11 | Dallas ...'
p5
aS'As rig sinks and search for workers continues, major spill ...'
p6
aS'References and Customers of Colorado Lining International ...'
p7
aS'JKF Holdings | iShares Morningstar Large-Cap Stock ...'
p8
aS'2010 April | Live Business News'
p9
aS'Natural gas in Bolivia - Wikipedia, the free encyclopedia'
p10
a.