(lp0
S'Exxon to Pay $25 Million to Settle Brooklyn Spill Suit ...'
p1
aS'Cuomo Announces Settlement With Exxonmobil To Provide ...'
p2
aS'Exxon Mobil Agrees to Newtown Creek Cleanup Pact - The ...'
p3
aS'Senator Dilan Praises ExxonMobil Settlement to Continue ...'
p4
aS'Nigeria: 19 oil hostages, including 2 Mississippians, freed in ...'
p5
aS'GM IPO biggest ever - Nov. 17, 2010 - CNN Money'
p6
aS'Should you invest in GM? - CNN Money'
p7
aS'Gas & Power Marketing Summer placement profile'
p8
aS'ExxonMobil Employees Visit BanBanglamung Home for the ...'
p9
aS'Community liaison from ExxonMobil - Foster Community ...'
p10
a.