(lp0
S'Petrobras Raises $70 Billion as Investors See Growth ...'
p1
aS'Ghana, China Ink $15 Billion in Deals - WSJ'
p2
aS'Rising Above the Gathering Storm, Revisited: Rapidly ...'
p3
aS'reuters photo | Live Business News'
p4
aS'How to track down your pension from a past job | Dallas ...'
p5
aS'Health & safety - ExxonMobil'
p6
aS'How 3M got its creative juices flowing again - Sep. 24, 2010'
p7
aS"7-Eleven Vice President Continues Store's Legacy - Los ..."
p8
aS'Mobil Delvac Heavy Duty Engine Oils - India | Mobil Asia ...'
p9
aS'Pingree Flies On Corporate Jet - Watchdog.org'
p10
a.