(lp0
S'ExxonMobil Fuels & Lubricants'
p1
aS'Re-use, Reduce & Recycle | ExxonMobil'
p2
aS'Improving Energy & Alternative Energy Sources | ExxonMobil'
p3
aS'Environmental Awareness | ExxonMobil'
p4
aS'Shareholder Overview for XOM Exxon Mobil Corp including ...'
p5
aS"Exxon's Oozing Texas Oil Pits Haunt Residents as XTO Deal ..."
p6
aS'Fortune 500: Profits bounce back - Apr. 14, 2010'
p7
aS'Wal-Mart Reclaims Top Spot From Exxon Mobil on Fortune ...'
p8
aS'How Exxon paid zero taxes in 2009 - Oil-price.net'
p9
aS'Fortune 500 List 2010: Wal-Mart, Exxon Mobil - ABC News'
p10
a.