(lp0
S'Jan 11, 2016 - Reader Scott let me know that bakery chain Nothing Bundt Cakes will be opening soon at 5784 Calle Real in Goleta near El Pollo Loco. Founders Debra Shwetz ...'
p1
aS"Jan 11, 2016 - Never thought that I would see the day when you can't even go to a mall in Iraq to get some J. Crew and El Pollo Loco. FlagShare. 2 MrBungle1 wethetaxpayers ..."
p2
aS'Jan 10, 2016 - Headlines News  News  Two arrested in Las Vegas in connection with .... Market Losers: Avalanche Biotechnologies Inc, El Pollo LoCo Holdings Inc, And ...'
p3
aS'Jan 11, 2016 - El Camino - Latin Street Food, Cincinnati. 1359 likes  39 talking about this  263 were here. Come check ... News Feed ..... El pollo loco. Jerk chicken, charred ...'
p4
aS"Jan 11, 2016 - ... Fry's Digital Coupons  Fry's Promotions. Breaking news: Wildcats given No. 6 seed in NCAA tournament, to face play-in winner  Home/; News/; Local news ..."
p5
aS"Jan 12, 2016 - 2015 Top Rated Mexican Fast-Casual Chain  Nation's Restaurant News .... The Habit Burger Grill  El Pollo Loco  Jack in the Box  Garden Fresh Restaurant ..."
p6
aS'Jan 11, 2016 - News and reviews of restaurants, theater, movies and travel. .... One of our favorites is El Pollo Loco off of Colfax at, I think Peoria. Simple food done so well.'
p7
aS'Jan 11, 2016 - Local Business News. Matthew Pfeffer has been appointed as Chief Executive Officer of the MannKind Corp., the company announced on Jan. 11. Above ...'
p8
aS'Jan 11, 2016 - Find 2 listings related to El Pollo Loco in Nampa on YP.com. See reviews, photos, directions, phone numbers and more for El Pollo Loco locations in Nampa, ID.'
p9
aS"Jan 12, 2016 - Labels: News , TGI Fridays ... Chick-fil-A Chipotle Church's Chicken Dairy Queen Del Taco Domino's Dunkin' Donuts El Pollo Loco Hardee's In-N-Out Jack in the ..."
p10
a.