(lp0
S'Jan 12, 2016 - El Pollo Loco CEO Steve Sather shares strategies to re-engage customers ... Global Business and Financial News, Stock Quotes, and Market Data and Analysis.'
p1
aS'Jan 12, 2016 - Home  News  All News  City .... Line Road. The restaurant will share a driveway with the Texas Roadhouse restaurant and a new El Pollo Loco restaurant.'
p2
aS'Watch the video El Pollo Loco: Feel good about 2016 on Yahoo Finance . El Pollo Loco CEO Steve Sather ...'
p3
aS'Jan 12, 2016 - Franchise Times News ... include Diversified Restaurant Holdings (down 56.4%), Arcos Dorados Holdings (42.51%), El Pollo Loco (down 36.76%), JTH Holding ...'
p4
aS'Jan 11, 2016 - Reader Scott let me know that bakery chain Nothing Bundt Cakes will be opening soon at 5784 Calle Real in Goleta near El Pollo Loco. Founders Debra Shwetz ...'
p5
aS'Jan 12, 2016 - The Investor Relations website contains information about El Pollo Loco, Inc. business for stockholders, potential investors, and financial analysts.'
p6
aS"Jan 11, 2016 - Never thought that I would see the day when you can't even go to a mall in Iraq to get some J. Crew and El Pollo Loco. FlagShare. 2 MrBungle1 wethetaxpayers ..."
p7
aS"Jan 12, 2016 - Latest News ... El Pollo Loco COO Kay Bogeajis to leave company .... That is thought to be Spain's El Gordo lottery, which distributed $2.4 billion in prizes last ..."
p8
aS"Jan 13, 2016 - Woman steals from local yogurt shop. Woman's Brazen Scheme Caught on Tape. Christie Martin January 12, 2016 News, Victorville News. An error occurred."
p9
aS"Jan 12, 2016 - Skeptical investors are shunning risk -- and that's bad news for the likes of GoPro, ... Tech30): -24.7%; Potbelly (PBPB): -19.5%; El Pollo Loco (LOCO): -19% ..."
p10
a.