(lp0
S'Jan 14, 2016 - A Stockton man who started out as a dishwasher at an El Pollo Loco ... Watch KCRA/KQCA News ... Stockton man now owns 10 El Pollo Loco restaurants.'
p1
aS'Jan 14, 2016 - A new drive-through restaurant is coming to Stacy Road, just west of Greenville Avenue. El Pollo Loco will be built in the vacant lot between Community Trust ...'
p2
aS'Jan 13, 2016 - El Pollo Loco ([[LOCO]] +3.9%) trades higher after Sidoti initiates coverage on the ... 2,203 people get LOCO breaking news and analysis by email alert.'
p3
aS'Jan 14, 2016 - News Flash Home ... [ARCHIVED] New El Pollo Loco Location Coming to Allen ... El Pollo Loco will be built in the vacant lot between Community Trust Bank and ...'
p4
aS'Jan 14, 2016 - Finance Home  My Portfolio  My Quotes News  Market Data  Yahoo .... Restaurant Group (FRGI) which owns Taco Cabana, El Pollo Loco (LOCO), and Jack in ...'
p5
aS'Jan 13, 2016 - In-N-Out Burgers, Jack in the Box or even El Pollo Loco ... El Polo Loco had a couple of stores in the Atlanta area a few years back but they faield miserably.'
p6
aS'Jan 13, 2016 - ... Jones Invitational- $10,000 to Charity! 21:17 28 March in News by Makayla Turner ... El Pollo Loco Sold in Henderson. 22:07 25 March in Just Closed, News ...'
p7
aS'Jan 13, 2016 - 28 March in News by Makayla Turner. Golfers win $10,000 for charity, trip to Pebble Four ... El Pollo Loco Sold in Henderson. 25 March in Just Closed, News by ...'
p8
aS'Jan 14, 2016 - Daily Press Weekly News Quiz: Jan. 15. How well did you pay attention to the news this week? Created by Translated .... El Pollo Loco. 6. Next. Which popular ...'
p9
aS'Jan 14, 2016 - Nothing Bundt Cakes, coming to 5784 Calle Real in Goleta (immediately next door to El Pollo Loco) is currently scheduled to open January 29th. Founders ...'
p10
a.