(lp0
S"Jan 22, 2016 - At El Pollo Loco, we go to crazy lengths for our signature citrus-marinated,... ... News Feed ... El Pollo Loco (1108 Silber Rd., Houston)'s photo. Share ..."
p1
aS'Jan 21, 2016 - A decir de la Secretara de Salud, las causas de anulacin del servicio en El Pollo Loco se deben a que present mal manejo en la manipulacin de los ...'
p2
aS"Jan 22, 2016 - Posted in News on Friday, January 22, 2016 6:29 pm. ... facility in Humble  El Pollo Loco celebrates growing presence in Houston by hosting 'Loco Fun Day' ..."
p3
aS'Jan 22, 2016 - ... Entertainment News  Michaela Mendelsohn becomes the first transgender ... the CEO of Pollo West Corp, one of the largest franchisees for El Pollo Loco ...'
p4
aS'Jan 21, 2016 - El local en Guadalupe fue clausurado por anomalas en el manejo de los alimentos. El dueo, diputado priista, ya respondi.'
p5
aS'Secretara de Salud revela anomalas en las sucursales de El Pollo Loco | Noticias al Momento La Secretara de ...'
p6
aS'Jan 22, 2016 - More news ..... conditions  privacy policy  cookie policy  securedrop.  2016 Guardian News and Media Limited or its affiliated companies. All rights reserved.'
p7
aS'Jan 21, 2016 - Current Weather. Clear. 38. Complete Forecast  News  Sports  A & E ..... menu  we highly recommend the Poblano Pollo Loco and liked the burgers for the most part. .... El Tipico Restaurant, 1444 South Ave., was one of the first Mexican ...'
p8
aS"Jan 22, 2016 - Home  BUSINESS  Local Business News  City's jobless rate creeps up slightly .... El Pollo Loco out; burgers and juice in  Occupational healthcare firm gains ..."
p9
aS'Jan 22, 2016 - 8 El Pollo Loco jobs in West Jordan, UT are available at Snagajob. West Jordan El Pollo Loco employers are now hiring. Find your next job today!'
p10
a.