(lp0
S'Jan 25, 2016 - ... Smart Shopper reports. Share your news tips, photos and video: share@abc15.com. ... recently opened in Tempe! El Pollo Loco, 1314 S. Rural Rd., Tempe.'
p1
aS'Jan 25, 2016 - 4 El Pollo Loco jobs in Visalia, CA are available at Snagajob. Visalia El Pollo Loco employers are now hiring. Find your next job today!'
p2
aS"Jan 25, 2016 - El Pollo Loco, Blaze Fast Fire'd Pizza and Krispy Kreme Donuts have leased spots in the strip mall, which is under construction on Broadway, n Read more."
p3
aS'Jan 24, 2016 - Curve Magazine /; News /; Trevor Project Welcomes First Transgender Board ... the CEO of Pollo West Corp, one of the largest franchisees for El Pollo Loco ...'
p4
aS"Jan 25, 2016 - Choose from mouth-watering carnitas, pastor or pollo street tacos served on a homemade tortilla for $1 each. Details: 7000 ... Tacos are $2 all day long, including the signature al pastor, with sliced ... Loco Patron Mexican Grill .... Police: Phoenix man sexually assaulted roommate's passed-out girlfriend; News: | 3 days ago."
p5
aS'Jan 25, 2016 - Local Business News. Attendees of the annual Chamber of Commerce installation dinner enjoy their meals at the Hyatt Valencia hotel. Katharine Lotze/The ...'
p6
aS'Jan 25, 2016 - News Feed ..... Take a picture in front of our GIANT Texas Flag, sponsored by El Pollo Loco, to double your chances of winning! Winners will be chosen through ...'
p7
aS'Jan 25, 2016 - ... Investing  ETF Hub  Portfolio Strategy. GO. Market News  Stock Ideas  Dividends  Market Outlook  Investing Strategy  ETFs & Funds  Earnings  PRO ...'
p8
aS'Jan 24, 2016 - Find El Pollo Loco in Santa Ana with Address, Phone number from Yahoo US Local. Includes El Pollo Loco Reviews, maps & directions to El Pollo Loco in Santa ...'
p9
aS"Jan 25, 2016 - Labels: Lay's , Limited-Time , News .... Chick-fil-A Chipotle Church's Chicken Dairy Queen Del Taco Domino's Dunkin' Donuts El Pollo Loco Hardee's In-N-Out ..."
p10
a.