(lp0
S'Jan 26, 2016 - Popular grilled chicken restaurant El Pollo Loco may be coming back to Lake Havasu City. Jack Huynh, an El Pollo Loco franchisee from California, announced ...'
p1
aS'Jan 26, 2016 - During the Council meeting, nearly all council members voted to deny a proposal from El Pollo Loco to open a drive-through chicken restaurant on Keller ...'
p2
aS'Jan 25, 2016 - ... Smart Shopper reports. Share your news tips, photos and video: share@abc15.com. ... recently opened in Tempe! El Pollo Loco, 1314 S. Rural Rd., Tempe.'
p3
aS"Jan 25, 2016 - El Pollo Loco, Blaze Fast Fire'd Pizza and Krispy Kreme Donuts have leased spots in the strip mall, which is under construction on Broadway, n Read more."
p4
aS"Jan 26, 2016 - January 26, 2016 Atascocita, HKA Texas News, Restaurants ... Valley Ranch Town Center adds Chickfila, Chili's, El Pollo Loco, Freebirds, Subway, T. Jin's ..."
p5
aS"Jan 26, 2016 - January 26, 2016 Atascocita, HKA Texas News, Restaurants .... Valley Ranch Town Center adds Chickfila, Chili's, El Pollo Loco, Freebirds, Subway, T. Jin's ..."
p6
aS'Jan 26, 2016 - Home  BUSINESS  Local Business News  EDC updates City Council on its .... El Pollo Loco out; burgers and juice in  Occupational healthcare firm gains ...'
p7
aS'Jan 26, 2016 - 2,992 people get STON breaking news and analysis by email alert. Get email alerts on ... Lightning Round: El Pollo Loco, Gilead & more. at CNBC.com (Aug 11, ...'
p8
aS'Jan 26, 2016 - CORRECTED: El Pollo Loco Shares Fall After Earnings. ADVERTISEMENT. SWITZERLAND/ ... 2016 FOX News Network, LLC. All rights reserved. FAQ - Privacy ...'
p9
aS'Jan 26, 2016 - While many other market reports only provide stock news and opinion, we offer ... Alerts For Celldex Therapeutics, Anavex Life Sciences Corp, El Pollo Loco, ...'
p10
a.