(lp0
S'Jan 26, 2016 - Popular grilled chicken restaurant El Pollo Loco may be coming back to Lake Havasu City. Jack Huynh, an El Pollo Loco franchisee from California, announced ...'
p1
aS'Jan 26, 2016 - During the Council meeting, nearly all council members voted to deny a proposal from El Pollo Loco to open a drive-through chicken restaurant on Keller ...'
p2
aS'Jan 27, 2016 - The 415-unit chain based in Costa Mesa, Calif., has offered a Pollo Bowl since 1992. ... See the latest news from NRN ... El Pollo Loco has also been offering limited-time offers in bowls such as the Chicken, Shrimp & Sausage Paella Bowl.'
p3
aS"Jan 27, 2016 - Posted in News on Wednesday, January 27, 2016 10:31 am. ... in Humble  El Pollo Loco celebrates growing presence in Houston by hosting 'Loco Fun Day' ..."
p4
aS'Jan 27, 2016 - The Investor Relations website contains information about El Pollo Loco, Inc. business for stockholders, potential investors, and financial analysts.'
p5
aS"Jan 26, 2016 - January 26, 2016 Atascocita, HKA Texas News, Restaurants ... Valley Ranch Town Center adds Chickfila, Chili's, El Pollo Loco, Freebirds, Subway, T. Jin's ..."
p6
aS'Jan 27, 2016 - Home  BUSINESS  Local Business News  MannKind Believes its Troubles Are .... El Pollo Loco out; burgers and juice in  Occupational healthcare firm gains ...'
p7
aS'Jan 26, 2016 - Home  BUSINESS  Local Business News  EDC updates City Council on its .... El Pollo Loco out; burgers and juice in  Occupational healthcare firm gains ...'
p8
aS'Jan 26, 2016 - 2,992 people get STON breaking news and analysis by email alert. Get email alerts on ... Lightning Round: El Pollo Loco, Gilead & more. at CNBC.com (Aug 11, ...'
p9
aS'Jan 26, 2016 - While many other market reports only provide stock news and opinion, we offer ... Alerts For Celldex Therapeutics, Anavex Life Sciences Corp, El Pollo Loco, ...'
p10
a.