(lp0
S'Jan 27, 2016 - The 415-unit chain based in Costa Mesa, Calif., has offered a Pollo Bowl since 1992. ... See the latest news from NRN ... El Pollo Loco has also been offering limited-time offers in bowls such as the Chicken, Shrimp & Sausage Paella Bowl.'
p1
aS'Jan 27, 2016 - The Investor Relations website contains information about El Pollo Loco, Inc. business for stockholders, potential investors, and financial analysts.'
p2
aS'Jan 28, 2016 - While many other market reports only provide stock news and opinion, we ... El Pollo Loco, First Solar, Dollar Tree and hundreds of other stocks Released By ...'
p3
aS'Jan 27, 2016 - Home  BUSINESS  Local Business News  MannKind Believes its Troubles Are .... El Pollo Loco out; burgers and juice in  Occupational healthcare firm gains ...'
p4
aS"Jan 27, 2016 - Posted in News on Wednesday, January 27, 2016 10:31 am. ... in Humble  El Pollo Loco celebrates growing presence in Houston by hosting 'Loco Fun Day' ..."
p5
aS"Jan 28, 2016 - El Pollo Loco's COO to leave company. 8:07 A.M. ET ... El Pollo Loco COO Kay Bogeajis to leave company. 8:02 A.M. ET .... More News from MarketWatch."
p6
aS"Jan 27, 2016 - And then the West Coast Mexican chicken chain El Pollo Loco priced 7.4 million shares and brought in $107 million. .... McDonald's has once again hit the news."
p7
aS"Jan 28, 2016 - Headlines News  News  Diabetic schoolboy's hi-tech and pricey gadget has .... Market Losers: Avalanche Biotechnologies Inc, El Pollo LoCo Holdings Inc, ..."
p8
aS'Jan 28, 2016 - A semi-truck carrying frozen chicken caught fire in El Cajon. ... of chicken caught fire on the Interstate 8 freeway Wednesday morning in El Cajon. ... 10NEWS APP: News, weather & traffic on the go LIVE Briefs from the Newsroom ... Joke time: Couple of El Pollo Loco workers seen running toward the burning truck with tongs ...'
p9
aS"Jan 27, 2016 - Shivani Misra is a senior majoring in neuroscience and cognitive science. She has minors in biochemistry and public health, and she's pursuing a certificate for ..."
p10
a.