(lp0
S"Jan 4, 2016 - Here's a roundup of other restaurant and retail news from across Orange County. ... El Pollo Loco: Costa Mesa-based El Pollo Loco has launched five new menu ..."
p1
aS'Jan 4, 2016 - El Pollo Loco opened at the South Napa center. Foodshed Take .... extreme seasons? +16. Photos: Global military spending approaches $1.7 trillion  News ...'
p2
aS'Jan 4, 2016 - El Pollo Loco COO Kay Bogeajis to leave company. 8:02 A.M. ET. Westlake Chemical raises bid for .... More News from MarketWatch. Top Stories. Trending.'
p3
aS'Jan 3, 2016 - The Carrollton Menu  Home  Food Menus; News Stories ... El Monterrey Carrollton Specials. Carrollton ... Wednesday - Pollo Loco - $7.49. Thursday - El ...'
p4
aS'Jan 4, 2016 - While many other market reports only provide stock news and opinion, we offer ... Alerts For Celldex Therapeutics, Anavex Life Sciences Corp, El Pollo Loco, ...'
p5
aS'Jan 4, 2016 - The good news is that with careful planning you should be able to track the repayment and, hopefully, have ... The secret to El Pollo Loco is great-tasting food.'
p6
aS"Jan 4, 2016 - Recent News | Recent Reviews | Current Deals & Specials ..... Dunkin' Donuts El Pollo Loco Hardee's In-N-Out Jack in the Box KFC Krispy Kreme Little Caesars ..."
p7
aS"Jan 4, 2016 - Labels: News , Starbucks .... Chick-fil-A Chipotle Church's Chicken Dairy Queen Del Taco Domino's Dunkin' Donuts El Pollo Loco Hardee's In-N-Out Jack in the ..."
p8
aS"Jan 4, 2016 - Zacks News for ( BOJA ) ... Company News for March 14, 2016. 03/14/16-9:10AM EST Zacks ... El Pollo Loco, Bojangles' Prospects Bright: Take Your Pick."
p9
aS"Jan 4, 2016 - Go to El Pollo Grill, go to Santana's (itself a small chain), or go to Cotija's. ... Just to the side, we also have a Del Taco and El Pollo Loco, and the local Carl's Jr ..."
p10
a.