(lp0
S'Jan 5, 2016 - What: El Pollo Loco Holdings (NASDAQ:LOCO) shares were driving investors loco once again last year, ... So what: El Pollo Loco is one of several recently debuted restaurant stocks to have fallen after what may have ... REALLY OLD news!'
p1
aS'Jan 5, 2016 - VIDEO: El Nino rain causes El Pollo Loco wall to collapse ... Jacqueline Garcia captured video at the El Pollo Loco on North Broadway at about 1 ... More News ...'
p2
aS'Jan 6, 2016 - Explore recently published lincoln heights news stories from abc7.com. ... VIDEO: El Nino rain causes El Pollo Loco wall to collapse. A police vehicle is shown ...'
p3
aS'Jan 5, 2016 - Another new eatery Hoffman is eager to try is El Pollo Loco, which opened last week in the former ... Posted in News on Tuesday, January 5, 2016 12:02 am.'
p4
aS"Jan 4, 2016 - Here's a roundup of other restaurant and retail news from across Orange County. ... El Pollo Loco: Costa Mesa-based El Pollo Loco has launched five new menu ..."
p5
aS'Jan 4, 2016 - El Pollo Loco opened at the South Napa center. Foodshed Take .... extreme seasons? +16. Photos: Global military spending approaches $1.7 trillion  News ...'
p6
aS'Jan 5, 2016 - Get reviews, hours, directions, coupons and more for El Pollo Loco at 1640 High St, Delano, CA. Search for other Fast Food Restaurants in Delano on YP.com.'
p7
aS'Jan 5, 2016 - Get reviews, hours, directions, coupons and more for El Pollo Loco at 3804 English Ave, Indianapolis, IN. Search for other Fast Food Restaurants in Indianapolis ...'
p8
aS'Jan 4, 2016 - While many other market reports only provide stock news and opinion, we offer ... Alerts For Celldex Therapeutics, Anavex Life Sciences Corp, El Pollo Loco, ...'
p9
aS'Jan 4, 2016 - El Pollo Loco COO Kay Bogeajis to leave company. 8:02 A.M. ET. Westlake Chemical raises bid for .... More News from MarketWatch. Top Stories. Trending.'
p10
a.