(lp0
S'Jan 5, 2016 - What: El Pollo Loco Holdings (NASDAQ:LOCO) shares were driving investors loco once again last year, ... So what: El Pollo Loco is one of several recently debuted restaurant stocks to have fallen after what may have ... REALLY OLD news!'
p1
aS'Jan 5, 2016 - VIDEO: El Nino rain causes El Pollo Loco wall to collapse ... Jacqueline Garcia captured video at the El Pollo Loco on North Broadway at about 1 ... More News ...'
p2
aS'Jan 6, 2016 - Jacequeline Garcia took this video yesterday inside the El Pollo Loco Mexican ... News. Loading.... buffering. Replay. View all AMP 1.0 - Video Page videos.'
p3
aS'Intense El Nino rains created a very scary moment for those dining at a fast-food restaurant in Lincoln Heights ...'
p4
aS'Jan 6, 2016 - All Daily News Coverage ... El Pollo Loco - Video Surfaces Showing Heavy Rainfall Causing Wall of Restaurant to Collapse ... Jacqueline Garcia captured video at the El Pollo Loco on North Broadway at about 1 p.m. when water started to ...'
p5
aS'Jan 5, 2016 - Another new eatery Hoffman is eager to try is El Pollo Loco, which opened last week in the former ... Posted in News on Tuesday, January 5, 2016 12:02 am.'
p6
aS'Jan 6, 2016 - Customers in the Lincoln Heights Pollo Loco on North Broadway were evacuated after water poured into the dining room ... Got a news tip or photo to share?'
p7
aS'Jan 6, 2016 - El Nino is officially here! ... VIDEO: Wall In El Pollo Loco Falls In Because Of The Rain!! January 6, 2016 11:27 AM. Filed Under: ... MORE NEWS. image. Shemar ...'
p8
aS"I've read on NextDoor that it's supposed to be an El Pollo Loco. Not sure how much merit that has, but it wouldn't surprise me if they put in a chicken place next to ..."
p9
aS'Jan 6, 2016 - El Nino rain causes El Pollo Loco wall to collapse ... El Nio rains caused water to come into the El Pollo Loco on North ... Like Rare News on Facebook. Melissa ...'
p10
a.