(lp0
S'Jan 6, 2016 - Jacequeline Garcia took this video yesterday inside the El Pollo Loco Mexican ... News. Loading.... buffering. Replay. View all AMP 1.0 - Video Page videos.'
p1
aS'Jan 7, 2016 - Jacequeline Garcia took this video inside the El Pollo Loco Mexican restaurant in Los Angeles as part of the roof fell inside ... Latest Weather and News Videos.'
p2
aS'Intense El Nino rains created a very scary moment for those dining at a fast-food restaurant in Lincoln Heights ...'
p3
aS'Jan 6, 2016 - All Daily News Coverage ... El Pollo Loco - Video Surfaces Showing Heavy Rainfall Causing Wall of Restaurant to Collapse ... Jacqueline Garcia captured video at the El Pollo Loco on North Broadway at about 1 p.m. when water started to ...'
p4
aS'Jan 6, 2016 - El Nino is officially here! ... VIDEO: Wall In El Pollo Loco Falls In Because Of The Rain!! January 6, 2016 11:27 AM. Filed Under: ... MORE NEWS. image. Shemar ...'
p5
aS'Jan 6, 2016 - Customers in the Lincoln Heights Pollo Loco on North Broadway were evacuated after water poured into the dining room ... Got a news tip or photo to share?'
p6
aS'Jan 7, 2016 - La segunda tormenta de la temporada en el sur de California ocurri el ... Una porcin del techo de El Pollo Loco en Lincoln Heights se desprendi por la lluvia.'
p7
aS"I've read on NextDoor that it's supposed to be an El Pollo Loco. Not sure how much merit that has, but it wouldn't surprise me if they put in a chicken place next to ..."
p8
aS'Jan 6, 2016 - El Nino rain causes El Pollo Loco wall to collapse ... El Nio rains caused water to come into the El Pollo Loco on North ... Like Rare News on Facebook. Melissa ...'
p9
aS'Jan 6, 2016 - ... after bright debuts, including Noodles & Company, Potbelly Corporation, and El Pollo Loco, and it seems that Habit is being influenced by the same forces.'
p10
a.