(lp0
S'Feb 9, 2016 - El Pollo Loco offers new Chili Lime Shrimp as their seafood dish of choice heading into Lent season and is featuring the shrimp in four new menu items.'
p1
aS'No wonder Belew Kelew aka El Pollo Loco claimed his grandfather was in Saudi Arabia because he was shipped as Seraye slave via the historic Adulis port the ...'
p2
aS"Feb 9, 2016 - El Nio  ESPAOL ... El Pollo Loco out; burgers and juice in  Macy's continues to plan store closures amidst slower sales  Occupational healthcare firm gains ..."
p3
aS'Feb 10, 2016 - http://money.cnn.com/news/newsfeeds/articles/globenewswire/6175060.htm ... CNNMoney en 2016-02-11T11:15:00-05:00 El Pollo Loco Heats Up Houston ...'
p4
aS"Feb 9, 2016 - Headlines News  News  Relative charged with Waikato Uni student's death .... Market Losers: Avalanche Biotechnologies Inc, El Pollo LoCo Holdings Inc, And ..."
p5
aS'Feb 10, 2016 - Latest Texas Park Lane Advisor News from top Texas sources and national ... Restaurants Stocks in Motion El Pollo Loco Holdings, Del Friscos Restaurant ...'
p6
aS'Feb 10, 2016 - Design Blog Naissance News. ... Schwab, HarperOne and HarperCollins, San Jose Earthquakes, HP, Salesforce, El Pollo Loco, Kaiser, WTA, Coravin and more!'
p7
aS'Feb 9, 2016 - Find El Pollo Loco in Agoura Hills with Address, Phone number from Yahoo US Local. Includes El Pollo Loco Reviews, maps & directions to El Pollo Loco in ...'
p8
aS'Feb 10, 2016 - As well as delivering refrigerators, he was mascot for fast food chain El Pollo Loco, showing his desperation to break into the acting world. He threw away the ...'
p9
aS"Feb 9, 2016 - PS: thanks for all the love regarding the news about our second store being built! Glad you are as excited as we are! ... El Pollo Loco! That's right, this chicken ..."
p10
a.