(lp0
S'Feb 11, 2016 - El Pollo Loco Heats Up Houston With First New Restaurant Opening of 2016. Print. February 11, 2016 11:15 ET | Source: El Pollo Loco, Inc. COSTA MESA, Calif., Feb. 11, 2016 ... other news releases in. Product / Services Announcement'
p1
aS"Feb 11, 2016 - Home News Tucson Redevelopment of Former Church Site on Broadway Fully ... the site boasts a superb tenant mix of El Pollo Loco, Blaze Fast Fire'd Pizza ..."
p2
aS"Feb 11, 2016 - Now, after more than a dozen restaurant companies - including El Pollo Loco, Cosi, Famous Dave's of America and trend leader Shake Shack - have lost more ..."
p3
aS"Feb 11, 2016 - An El Pollo Loco restaurant is shown in San Diego, California, in this file photo ... Now, after more than a dozen restaurant companies - including El Pollo Loco (LOCO. .... Thomson Reuters is the world's largest international multimedia news ..."
p4
aS'Feb 10, 2016 - http://money.cnn.com/news/newsfeeds/articles/globenewswire/6175060.htm ... CNNMoney en 2016-02-11T11:15:00-05:00 El Pollo Loco Heats Up Houston ...'
p5
aS'Feb 11, 2016 - El Pollo Loco turns up the flame under turnaround plan. 5/19/2011. Orange County, Calif.-based El Pollo Loco has ramped up its efforts to reverse flagging sales, attract higher-income customers and fend off a ... Get the News in your Inbox.'
p6
aS"Feb 11, 2016 - Posted in News on Thursday, February 11, 2016 5:40 pm. ... facility in Humble  El Pollo Loco celebrates growing presence in Houston by hosting 'Loco Fun Day' ..."
p7
aS'Feb 10, 2016 - Latest Texas Park Lane Advisor News from top Texas sources and national ... Restaurants Stocks in Motion El Pollo Loco Holdings, Del Friscos Restaurant ...'
p8
aS'Feb 11, 2016 - The Daily News article on the amazing turnout of the Northwest Fest this past ... The Holmes PTSA is having a fundraiser at the El Pollo Loco located on Nordhoff ...'
p9
aS'Feb 10, 2016 - Design Blog Naissance News. ... Schwab, HarperOne and HarperCollins, San Jose Earthquakes, HP, Salesforce, El Pollo Loco, Kaiser, WTA, Coravin and more!'
p10
a.