(lp0
S"Feb 16, 2016 - Why we aren't embarrassed to love El Pollo Loco. ... Up-to-the-minute restaurant and bar news. Fast Food Fever ... It was a small dream, eating at El Pollo Loco."
p1
aS'Feb 16, 2016 - MCC Redesigns Senior Housing Brochure; Featured Project: El Pollo Loco- Oceanside, California; This month MCC completed a ground up El Pollo Loco in ...'
p2
aS"Feb 16, 2016 - ... sales fall amid erratic consumer behavior  Must-see videos: Can McDonald's build on breakfast success with kale? El Pollo Loco names Kay Bogeajis COO."
p3
aS'Feb 16, 2016 - KOLO - Content - News. wximage. 66F Broken Clouds ... I saw a person use a card of some sort to feed a family of six at El Pollo Loco. The person I was with ...'
p4
aS'Feb 17, 2016 - Openings. The California-based chain El Pollo Loco has opened its 10th Houston-area store. The restaurant specializes in citrus-marinated, fire-grilled chicken.'
p5
aS'Feb 16, 2016 - While many other market reports only provide stock news and opinion, we ... For Celldex Therapeutics, Anavex Life Sciences Corp, El Pollo Loco, First Solar, ...'
p6
aS'Feb 16, 2016 - News Down arrow white ..... El Cerro Grande, a staple on the local Mexican restaurant scene, celebrates 25 years in business this month. ... combination platters, soft tacos or the Pollo Loco; and choice of one dessert: sopapilla, flan or fried ice ...'
p7
aS'Feb 16, 2016 - Mason will be buying local broadcast for clients including El Pollo Loco, General Auto Insurance, California Tobacco Control Program, Scan Health and Prestige ...'
p8
aS'Feb 16, 2016 - fast food source restaurant info El Pollo Loco menu. ... menus, and nutrition information, as well as fast food blogs, articles, forums, and fast food industry news.'
p9
aS'Feb 17, 2016 - ... including real-time stock quotes, historical charts & financial news, all for free! ... All news for DOMINOS PIZZA ENT NPV  ... LOCO  El Pollo LoCo Hol.'
p10
a.