(lp0
S'Feb 17, 2016 - Openings. The California-based chain El Pollo Loco has opened its 10th Houston-area store. The restaurant specializes in citrus-marinated, fire-grilled chicken.'
p1
aS'Feb 17, 2016 - The Keller Citizen brings you local news and sports from Keller, TX.'
p2
aS'Feb 18, 2016 - Del Taco is offering beer-battered shrimp and beer-battered fish, El Pollo Loco has added shrimp tossed in a lime-chile glaze in bowls, tacos, burritos or tostadas ...'
p3
aS'Feb 17, 2016 - ... including real-time stock quotes, historical charts & financial news, all for free! ... All news for DOMINOS PIZZA ENT NPV  ... LOCO  El Pollo LoCo Hol.'
p4
aS'Feb 18, 2016 - DEALS NEWS BUSINESS DEALS NEWS BUSINE. BUSINESS DEALS NEWS BUSINESS .... 12 El Pollo Loco will open in mid-. March in the Center at Pearland.'
p5
aS"Feb 18, 2016 - Favy says); Lopez, whose tacos are good but a little fatty; and Tacos El Gordo, the place that inspired the tour in the first place. ... But it's El Pollo Loco and Jack in the Box that jolt Favy and Ras awake and get .... Downtown News 2 months ago ..."
p6
aS'Feb 18, 2016 - Ruffles All Dressed returns permanently to store shelves here in the U.S..'
p7
aS"Feb 18, 2016 - Labels: Doritos , Frito Lay , News .... Chipotle Church's Chicken Dairy Queen Del Taco Domino's Dunkin' Donuts El Pollo Loco Hardee's In-N-Out Jack in the Box ..."
p8
aS"Feb 17, 2016 - Save Money. Fry's Weekly Ads  Fry's Digital Coupons  Fry's Promotions  Home/; Tucson's entertainment guide/; Blogs/; Latest entertainment and dining news ..."
p9
aS'Feb 18, 2016 - Find El Pollo Loco in San Bernardino with Address, Phone number from Yahoo US Local. Includes El Pollo Loco Reviews, maps & directions to El Pollo Loco in ...'
p10
a.