(lp0
S'Feb 1, 2016 - El Pollo Loco Unveils Four New Crave-Worthy Chile Lime Shrimp Offerings ... At El Pollo Loco we love being able to bring our fans inventive and flavorful new menu items throughout the year with our Limited .... 2016 Cable News Network.'
p1
aS"Feb 1, 2016 - Tomorrow's News Today - Atlanta. Retail + Eateries + Hotels + ... (I for one would love for El Pollo Loco to return.) Please share your thoughts below."
p2
aS'Feb 2, 2016 - April, 2016 - 17 best El Pollo Loco coupons and promo codes. Save 10% on Mexican food and catering services. We get special deals by giving $11M to charity.'
p3
aS'Feb 1, 2016 - El Pollo Loco Chicken Tostada Salad - Nutrition Overview | HealthGrove ... If the caesar salad from The Old Spaghetti Factory is bad news, the cobb salad (think ...'
p4
aS'Jan 31, 2016 - ... at 5784 Calle Real in Goleta (immediately next door to El Pollo Loco). ... I am a huge taco fan so I was of course thrilled when I first heard the news, but when I ...'
p5
aS'Feb 1, 2016 - Nothing Bundt Cakes opened for business at 5784 Calle Real in Goleta (immediately next door to El Pollo Loco). Founders Debra Shwetz and Dena Tripp ...'
p6
aS"Jan 31, 2016 - El Pollo Loco's COO to leave company. 8:07 A.M. ET ... El Pollo Loco COO Kay Bogeajis to leave company. 8:02 A.M. ET .... More News from MarketWatch."
p7
aS'Feb 1, 2016 - Open full screen to view more. el pollo loco. Collapse map legend. Map details. Copy map. Print map. Zoom to viewport. Embed map. Download KML. 430 views.'
p8
aS'Jan 31, 2016 - Headlines News  Lifestyle  Carol Burnett Wore Uggs On The 2016 SAG Awards .... Market Losers: Avalanche Biotechnologies Inc, El Pollo LoCo Holdings Inc, ...'
p9
aS'Jan 31, 2016 - Headlines News  News  Donald Trump Admits He Says Horrible Things Just To .... Market Losers: Avalanche Biotechnologies Inc, El Pollo LoCo Holdings Inc, ...'
p10
a.