(lp0
S'Feb 23, 2016 - At El Pollo Loco, we go to crazy lengths for our signature citrus-marinated, ... News Feed ... Join us at any of our 11 Houston-area El Pollo Loco restaurants.'
p1
aS'Feb 24, 2016 - Four new chile lime shrimp entrees from El Pollo Loco, which operates more than 430 restaurants. Featuring a ... Want seafood news sent directly to your inbox?'
p2
aS"Feb 24, 2016 - February 24, 2016 For Birthdays, HKA Texas News, Kingwood, LOCAL NEWS ... Valley Ranch Town Center adds Chickfila, Chili's, El Pollo Loco, Freebirds, ..."
p3
aS"Feb 23, 2016 - December 2, 2015 HKA Texas News, Humble ... If you see a line of cars at El Pollo Loco in Humble, that's because the company has given away Facebook ..."
p4
aS'Feb 23, 2016 - 22 reviews of El Pollo Loco "As I write this review, this location is only about 1 ... There were lots of customers which is good news for them, but you can only get ...'
p5
aS'Feb 24, 2016 - El Pollo Loco lunches at our desks and a myriad of endless tweaks set the tone for my baptism under fire during my first-ever production week. It helped that we ...'
p6
aS"Feb 24, 2016 - Posted in Atascocita News on Wednesday, February 24, 2016 10:02 am. ... El Pollo Loco celebrates growing presence in Houston by hosting 'Loco Fun Day' ..."
p7
aS'Feb 24, 2016 - Anavex Life Sciences Corporation financial and business news, updates, and ... For Celldex Therapeutics, Anavex Life Sciences Corp, El Pollo Loco, First Solar, ...'
p8
aS'Feb 23, 2016 - Home  BUSINESS  Local Business News  Currently Filming in Santa Clarita ... El Pollo Loco out; burgers and juice in  Occupational healthcare firm gains ...'
p9
aS"Feb 23, 2016 - Mexico arrests six people suspected of planning 'El Chapo' escape ... This news Hitler Had Deformed Micropenis, 1 Testicle, Historians Say is just ... Market Losers: Avalanche Biotechnologies Inc, El Pollo LoCo Holdings Inc, And King Digital ..."
p10
a.