(lp0
S'Feb 25, 2016 - Details of an active construction project lead in Arizona, El Pollo Loco 6129, courtesy of CMD. ... News  Contact Us  For more information on construction leads, ...'
p1
aS"Feb 26, 2016 - Recent News | Recent Reviews | Current Deals & Specials ..... Chicken Dairy Queen Del Taco Domino's Dunkin' Donuts El Pollo Loco Hardee's In-N-Out Jack in ..."
p2
aS'Feb 26, 2016 - LATEST NEWS ... El Pollo Loco or "The Crazy Chicken" is known for its signature chicken dish, which is a special citrus-marinated grilled ... El Torito Cantina.'
p3
aS'Feb 26, 2016 - Updated El Pollo Loco reports higher profit; sales slide. 5:20 P.M. ET. Bojangles profit dips, but results top .... More News from MarketWatch. Top Stories.'
p4
aS'Feb 25, 2016 - ... (OTCMKTS:BSEG) including real-time stock quotes, historical charts & financial news, all for free! ... Why El Pollo Loco Holdings Inc Fell 20% Friday Morning.'
p5
aS'Feb 26, 2016 - Home  BUSINESS  Local Business News  Retail center at key Valencia location .... El Pollo Loco out; burgers and juice in  Occupational healthcare firm gains ...'
p6
aS'Feb 25, 2016 - Home  BUSINESS  Local Business News  Poole & Shaffery welcome new ... El Pollo Loco out; burgers and juice in  Occupational healthcare firm gains ...'
p7
aS'Feb 25, 2016 - by Danny Jensen in News on Feb 25, 2016 11:45 am .... The list is 15 pages long and includes BK, Wendys, Subway, El Pollo Loco, Jack in the Box, and many ...'
p8
aS'Feb 26, 2016 - is not news; is an opinion/analysis or advocacy piece. primarily concerns politics. ..... back by the place I originally called I saw four squad cars at El pollo loco.'
p9
aS'Feb 26, 2016 - News Corp is a network of leading companies in the worlds of diversified media, .... El Pollo Loco, Inc., CARE USA, KCAP Financial, Inc., El Pollo Loco Holdings, ...'
p10
a.