(lp0
S'Feb 3, 2016 - Cathedral City police are looking for a man who robbed an El Pollo Loco restaurant at gunpoint Tuesday night.'
p1
aS'Feb 2, 2016 - Police search for gunman after El Pollo Loco robbed in Cathedral City. Suspect was wearing mask during robbery. Karen Devine, KESQ News Channel 3 News ...'
p2
aS"Feb 2, 2016 - El Pollo Loco, the nation's leading fire-grilled chicken chain, announced its new ... News and information presented in this release has not been corroborated by ..."
p3
aS'Feb 3, 2016 - A man robbed the Cathedral City El Pollo Loco at gunpoint on Tuesday night. Police were called to the fast food franchise at about 8 p.m., reports the Desert Sun ...'
p4
aS'Feb 3, 2016 - El Pollo Loco in the University cafeteria experienced a gas leak on Monday night, ... quickly escorted students outside of the cafeteria as soon as the news broke ...'
p5
aS'Feb 2, 2016 - El Pollo Loco is adding Chile Lime Shrimp to the menu. ... NEWS. Pie Five Pizza warming up Hawkeye State with at least 5 stores  The Habit Burger expands ...'
p6
aS'Feb 4, 2016 - WEB SEARCH BY Google. Home  News ... with Cathedral City Police. On Tuesday night, an El Pollo Loco restaurant was robbed at gunpoint on Date Palm Dr.'
p7
aS'Feb 3, 2016 - The next stop for police was the EL Pollo Loco on Date Palm Drive south of Ramon for an armed robbery at 8 Tuesday night. The thief walked into the restaurant, ...'
p8
aS'Feb 2, 2016 - #13. El Pollo Loco Chicken Tostada Salad ... If the caesar salad from The Old Spaghetti Factory is bad news, the cobb salad (think blue cheese, bacon, egg, etc.) ...'
p9
aS'Feb 2, 2016 - Chipotle (NYSE: CMG) has been prominent in the news for the past several months with .... El Pollo Loco Holdings, Inc. (NASDAQ: LOCO) develops, franchises, ...'
p10
a.