(lp0
S'Feb 8, 2016 - http://www.elpolloloco.com/freeburrito. ... El Pollo Loco - Buy one burrito, get one free, today 2/8/16 only. steppedinit. steppedinit .... Trending Deal News.'
p1
aS'Feb 8, 2016 - The El Pollo Loco Facebook page and Twitter feed provide access to restaurant news and promotions. This includes information on limited time deals and ...'
p2
aS"Feb 8, 2016 - Restaurant chains including Long John Silver's, Popeyes Louisiana Kitchen, El Pollo Loco and others tout seafood menu items for Lent."
p3
aS"Feb 8, 2016 - El Pollo Loco, Blaze Fast Fire'd Pizza and Krispy Kreme Donuts have leased spots in the strip mall, which ... Real estate news: Housing development in Marana."
p4
aS"Feb 8, 2016 - El Pollo Loco's idea of a salad is a deep-fried tostada shell bowl filled with marinated chicken breast, lettuce, beans, shredded jack cheese, sour cream and ..."
p5
aS'Feb 8, 2016 - skip to main | skip to sidebar. Brand Eating  Recent News | Recent Reviews | Current Deals & Specials .... Al Howard. thats cool, free burrito is free burrito'
p6
aS"Feb 8, 2016 - Labels: Deals , Jack in the Box , News .... Chicken Dairy Queen Del Taco Domino's Dunkin' Donuts El Pollo Loco Hardee's In-N-Out Jack in the Box KFC Krispy ..."
p7
aS"Feb 9, 2016 - El Pollo Loco. 7148321695. Mexican, Fast Food. $. L, D. Famous Dave's Barbeque. 7144629179. Barbeque. $$. L, D, HH. Frozen Decadent Liquid Nitrogen Ice ..."
p8
aS'Feb 8, 2016 - Search: 2,813 Franchises | 3,004 Articles | 54,741 News Stories ..... El Pollo Loco The secret to El Pollo Loco is great-tasting food. Our menu has a broad... Add.'
p9
aS'Feb 8, 2016 - Denver-based restaurant chain Chipotle became a model for the quick, counter-style food service now known as fast casual, inspiring thousands of imitators, ...'
p10
a.