(lp0
S'Feb 9, 2016 - El Pollo Loco offers new Chili Lime Shrimp as their seafood dish of choice heading into Lent season and is featuring the shrimp in four new menu items.'
p1
aS'Feb 8, 2016 - http://www.elpolloloco.com/freeburrito. ... El Pollo Loco - Buy one burrito, get one free, today 2/8/16 only. steppedinit. steppedinit .... Trending Deal News.'
p2
aS'Feb 8, 2016 - The El Pollo Loco Facebook page and Twitter feed provide access to restaurant news and promotions. This includes information on limited time deals and ...'
p3
aS'No wonder Belew Kelew aka El Pollo Loco claimed his grandfather was in Saudi Arabia because he was shipped as Seraye slave via the historic Adulis port the ...'
p4
aS"Feb 9, 2016 - El Nio  ESPAOL ... El Pollo Loco out; burgers and juice in  Macy's continues to plan store closures amidst slower sales  Occupational healthcare firm gains ..."
p5
aS"Feb 8, 2016 - Restaurant chains including Long John Silver's, Popeyes Louisiana Kitchen, El Pollo Loco and others tout seafood menu items for Lent."
p6
aS"Feb 8, 2016 - El Pollo Loco, Blaze Fast Fire'd Pizza and Krispy Kreme Donuts have leased spots in the strip mall, which ... Real estate news: Housing development in Marana."
p7
aS"Feb 9, 2016 - Headlines News  News  Relative charged with Waikato Uni student's death .... Market Losers: Avalanche Biotechnologies Inc, El Pollo LoCo Holdings Inc, And ..."
p8
aS"Feb 8, 2016 - El Pollo Loco's idea of a salad is a deep-fried tostada shell bowl filled with marinated chicken breast, lettuce, beans, shredded jack cheese, sour cream and ..."
p9
aS"Feb 9, 2016 - PS: thanks for all the love regarding the news about our second store being built! Glad you are as excited as we are! ... El Pollo Loco! That's right, this chicken ..."
p10
a.