(lp0
S'Mar 11, 2016 - What: Shares of El Pollo Loco Holdings Inc. (NASDAQ:LOCO) were heading to the fryer today following another underwhelming earnings report. As of 2:58 p.m. ...'
p1
aS'Mar 10, 2016 - El Pollo Loco reported its fourth-quarter earnings rose to $5.4 million, or 14 cents a share, from ... An immersive hub for financial news, analysis, market data.'
p2
aS'Mar 11, 2016 - El Pollo Loco credited a focus on value for a 2.2-percent increase in systemwide same-store sales during fiscal 2015.'
p3
aS'Mar 10, 2016 - El Pollo Loco Holdings, Inc. (NASDAQ: LOCO) reported fourth quarter financial results after markets closed on Thursday. The company had $0.15 in earnings ...'
p4
aS'Mar 10, 2016 - El Pollo Loco Holdings reported higher fourth-quarter profit even as revenue slid ... in the worlds of diversified media, news, education, and information services.'
p5
aS'Mar 11, 2016 - El Pollo Loco (LOCO) stock is sinking on heavy trading volume on Friday after the ... Not based on the news in any given day, the rating may differ from Jim ...'
p6
aS'Mar 11, 2016 - El Pollo Loco Holdings Inc. (NASDAQ: LOCO) El Pollo Loco Earnings & Technicals After the close on Thursday, shares of El Pollo. ... PTC Therapeutics Inc. (NASDAQ: PTCT) PTC Therapeutics News & Technicals During normal trading hours ...'
p7
aS'Mar 10, 2016 - El Pollo Loco sees FY2016 EPS of $0.70-$0.74, versus the consensus of $0.74. For earnings history ... Serious News for Serious Traders! Try StreetInsider.com ...'
p8
aS'Mar 11, 2016 - Search. News; Popular; Videos; Fortune 500 .... Meanwhile, another chicken chain El Pollo Loco LOCO -0.63% , which reported earnings at the same time as its ...'
p9
aS'Mar 10, 2016 - Though it beat Q4 EPS estimates (while missing on sales), El Pollo Loco (LOCO) is ... 2,203 people get LOCO breaking news and analysis by email alert.'
p10
a.