(lp0
S'Mar 14, 2016 - Find out the latest news headlines for El Pollo Loco Holdings, Inc. (LOCO).'
p1
aS'Mar 14, 2016 - El Pollo Loco, which means The Crazy Chicken in Spanish, has turned cold for investors. Shares have lost more than a third of their value over the past 12 ...'
p2
aS'Mar 14, 2016 - El Pollo Loco Launches Tasty New Signature Avocado Tostadas ... March 14, 2016 08:00 ET | Source: El Pollo Loco, Inc. photo- ... other news releases in. Food'
p3
aS'Mar 14, 2016 - ... Daily Star 2006. Grilled chicken at the El Pollo Loco on North Thornydale and West Ina roads. ... Get our weekly food news update in your inbox  El Pollo Loco ...'
p4
aS"Mar 14, 2016 - EconoTimes is a fast growing non-partisan source of news and intelligence on global ... El Pollo Loco (Nasdaq:LOCO) is the nation's leading fire-grilled chicken ..."
p5
aS"Mar 14, 2016 - El Pollo Loco Holdings, Inc's (LOCO - Snapshot Report) shares fell 8.2% after reporting fourth quarter revenue of $86.3 million, missing the Zacks Consensus ..."
p6
aS'Mar 14, 2016 - Pending approvals, El Pollo Loco also plans to build a new restaurant at this same location south of the Dairy Queen. Panera Bread, Starbucks and R-Taco plan ...'
p7
aS"Mar 14, 2016 - El Pollo Loco Holdings, Inc's (. LOCO. ) shares fell 8.2% after reporting fourth quarter revenue of $86.3 million, missing the Zacks Consensus Estimate of $88 ..."
p8
aS'Mar 15, 2016 - Find the latest quarterly and yearly earnings forecasts for El Pollo Loco Holdings, Inc. (LOCO) at NASDAQ.com.'
p9
aS'Mar 15, 2016 - Bloomberg News ... For El Pollo Loco, wage increases should pressure labor and related expenses by approximately 100 basis points for the full year, said ...'
p10
a.