(lp0
S'Mar 16, 2016 - ... stock prices, earnings estimates & actuals for El Pollo Loco Holdings Inc.. ... in the worlds of diversified media, news, education, and information services.'
p1
aS'Mar 15, 2016 - Bloomberg News ... For El Pollo Loco, wage increases should pressure labor and related expenses by approximately 100 basis points for the full year, said ...'
p2
aS'Mar 15, 2016 - Find the latest quarterly and yearly earnings forecasts for El Pollo Loco Holdings, Inc. (LOCO) at NASDAQ.com.'
p3
aS'Mar 15, 2016 - Ross Stores, Inc. (ROST) News  Find the latest company news headlines for Ross Stores, ... The Zacks Analyst Blog Highlights: El Pollo Loco Holdings, Habit ...'
p4
aS"Mar 15, 2016 - We tell local San Francisco news & weather stories, and we do what we do to make the ... Rob Black answers Zack's question: Is it crazy to buy El Pollo Loco?"
p5
aS"Mar 15, 2016 - This reddit is for news and reviews of fast food and fast casual restaurants -- covering .... I don't ever remember El Pollo Loco ever having popcorn chicken."
p6
aS"Mar 15, 2016 - Mar 15 2016, 18:55 ET | By: Clark Schultz, SA News Editor. Where's Chipotle's lost traffic ... El Pollo Loco: The Bears Are Coming. Josh Arnold  Mar. 29, 2016 ..."
p7
aS'Mar 16, 2016 - El Pollo Loco Holdings, Inc. (NASDAQ:LOCO) P/E Ratio At 22.0392. It is not a wise decision to invest in the stocks without even giving a thought to market ...'
p8
aS'Mar 15, 2016 - Currently, there are no Mystery Shopper jobs available at El Pollo Loco. You may wish to explore other locations and job titles at El Pollo Loco on the El Pollo ...'
p9
aS'Mar 16, 2016 - See the latest news from NRN ... News last week about a restaurant outside Boston closing temporarily after ... El Pollo Loco names Kay Bogeajis COO.'
p10
a.