(lp0
S"Mar 17, 2016 - El Pollo Loco's COO to leave company. ... El Pollo Loco shares down 5.9% in premarket trade. ... El Pollo Loco stock price target cut to $12 from $18 at RW Baird."
p1
aS'Mar 17, 2016 - Updated key statistics for El Pollo Loco Holdings Inc. - including loco margins, P/E ratio, valuation, profitability, company ... MarketWatch News on LOCO.'
p2
aS"Mar 17, 2016 - 01/13/2016  Sidoti began new coverage on El Pollo Loco Holdings, Inc. giving ... 11/13/2015  El Pollo Loco Holdings, Inc. had its buy rating reiterated by ... summary of the latest news and analysts' ratings for El Pollo Loco Holdings, Inc."
p3
aS'Mar 16, 2016 - ... stock prices, earnings estimates & actuals for El Pollo Loco Holdings Inc.. ... in the worlds of diversified media, news, education, and information services.'
p4
aS'Mar 16, 2016 - El Pollo Loco Holdings, Inc. (NASDAQ:LOCO) P/E Ratio At 22.0392. It is not a wise decision to invest in the stocks without even giving a thought to market ...'
p5
aS'Mar 16, 2016 - See the latest news from NRN ... News last week about a restaurant outside Boston closing temporarily after ... El Pollo Loco names Kay Bogeajis COO.'
p6
aS'Mar 17, 2016 - Best Brokers. 25 Best and Worst Performing Stocks This Week: March 17. Futures. News ... LOCO, El Pollo Loco Cmn, $12.88, -13.56%, -51.10%. SC, Santander ...'
p7
aS'Mar 17, 2016 - FS owns steaks in a number of well-known consumer companies, including Sur La Table, Petco Animal Supplies and the restaurant chain El Pollo Loco, ...'
p8
aS"Mar 16, 2016 - Headlines News  News  Carson: Even if Trump fails 'we're only looking at four .... Market Losers: Avalanche Biotechnologies Inc, El Pollo LoCo Holdings Inc, ..."
p9
aS"Mar 17, 2016 - I'm praying to the news gods that they will leave us alone, Weir said. .... Market Losers: Avalanche Biotechnologies Inc, El Pollo LoCo Holdings Inc, And King ..."
p10
a.