(lp0
S'Mar 1, 2016 - Home  BUSINESS  Local Business News  El Pollo Loco out; burgers and juice in ... El Pollo Loco signage has come down as the fast food restaurant closed this ... El Pollo Loco will move to a new location in Valencia, said a spokesperson ...'
p1
aS'Mar 1, 2016 - Most recently, he served as Vice President of Development at El Pollo Loco , where he ... http://www.businesswire.com/news/home/20160301005624/en/.'
p2
aS"Mar 1, 2016 - El Pollo Loco, Blaze Fast Fire'd Pizza and Krispy Kreme Donuts have leased spots in the strip mall, which is under construction on Broadway, n Read more."
p3
aS"Mar 1, 2016 - A blog about fast food news and reviews. ... El Pollo Loco's latest menu items are new, limited-time Signature Avocado Tostadas, which offers a slightly different ..."
p4
aS'Mar 1, 2016 - I asked several of the businesses in that area, and they were told it was going to be an El Pollo Loco. Employees at the Humble location said the same thing.'
p5
aS'Feb 29, 2016 - Home > News > Government > NY judge grants restraining order on salt law ... See the latest news from NRN ... El Pollo Loco names Kay Bogeajis COO.'
p6
aS'Mar 1, 2016 - Tenants include Dollar General, Subway, Payless Shoes, Sizzler, Jack in the Box, El Pollo Loco, as well as a number of local businesses. The center is ...'
p7
aS"Feb 29, 2016 - El Pollo Loco's COO to leave company. 8:07 A.M. ET ... El Pollo Loco COO Kay Bogeajis to leave company. 8:02 A.M. ET .... More News from MarketWatch."
p8
aS'Mar 1, 2016 - Most recently, he served as Vice President of Development at El Pollo Loco, where he .... All the news releases provided by Business Wire are copyrighted.'
p9
aS'Mar 1, 2016 - This news Russian TV channels sue US online operators for piracy is just ... Market Losers: Avalanche Biotechnologies Inc, El Pollo LoCo Holdings Inc, And ...'
p10
a.