(lp0
S"Mar 21, 2016 - Investors and analysts will be looking ahead to El Pollo Loco Holdings, Inc. (NASDAQ:LOCO)'s next earnings report which is slated to be released sometime on ..."
p1
aS'Mar 21, 2016 - Find a job at El Pollo Loco. Apply for El Pollo Loco job opportunities from entry level to management positions at Monster.'
p2
aS'Mar 21, 2016 - Search El Pollo Loco jobs in Dublin, California. A job opportunity at El Pollo Loco may be right around the corner. Check out our El Pollo Loco job listings in ...'
p3
aS'Mar 22, 2016 - ... Website - Movies, Events, Restaurants, Bars, Bands, Venues, and entertainment news for Salt Lake City and Utah. ... Website: www.elpolloloco.com ...'
p4
aS"Mar 21, 2016 - Updated news for Bojangles' Inc. - including BOJA company news, press releases and other ... El Pollo Loco, Bojangles' Prospects Bright: Take Your Pick."
p5
aS"Mar 21, 2016 - USA Today Network WKYC, news source 1:26 p.m. EDT March 21, 2016. Chipotle .... El Pollo Loco: Unlike a typical Tex-Mex restaurant, El Pollo; 8. Wahoo's ..."
p6
aS"Mar 22, 2016 - Wingstop Inc. (WING) News  Find the latest company news headlines for Wingstop Inc. and all ... Will Comps Growth Aid El Pollo Loco's (LOCO) Q4 Earnings?"
p7
aS'Mar 21, 2016 - At El Pollo Loco, we go to crazy lengths for our signature citrus-marinated,... ... News Feed ... Join us at any of our 11 Houston-area El Pollo Loco restaurants.'
p8
aS'Mar 22, 2016 - Qdoba and El Pollo Loco rounded out the top five. .... Insights page on LinkedIn for the latest insights, timely discussions, commentary and industry news.'
p9
aS"Mar 21, 2016 - Posted in News on Monday, March 21, 2016 8:38 am. ... facility in Humble  El Pollo Loco celebrates growing presence in Houston by hosting 'Loco Fun Day' ..."
p10
a.