(lp0
S'Mar 23, 2016 - LAPD officers responded to an El Pollo Loco parking lot at Balboa Boulevard and Nordhoff Street. ... 2015 Southern California Images in the News. [DO NOT ...'
p1
aS'Mar 23, 2016 - Officers responded to an El Pollo Loco parking lot at Balboa Boulevard and Nordhoff ... Los Angeles NewsTraffic Backs Up After 5 Motorcycles Involved in Crash ...'
p2
aS'Mar 24, 2016 - Get all the Latest news, Breaking headlines and Top stories, photos & video in ... JUST IN: Officers respond to report of man with gun in Northridge El Pollo Loco ...'
p3
aS'Mar 22, 2016 - ... Website - Movies, Events, Restaurants, Bars, Bands, Venues, and entertainment news for Salt Lake City and Utah. ... Website: www.elpolloloco.com ...'
p4
aS"Mar 23, 2016 - It beat out restaurant like Chipotle and Qdoba, which tied for first last year, as well as Rubio's Fresh Mexican Grill and El Pollo Loco. With 175 locations in seven ..."
p5
aS"Mar 23, 2016 - ... tied for first last year, as well as Rubio's Fresh Mexican Grill and El Pollo Loco. ..... for the latest insights, timely discussions, commentary and industry news."
p6
aS'Mar 23, 2016 - News. TEMECULA: Starbucks building new Jefferson Avenue location ... shell at 27375 Jefferson Avenue that used to house an El Pollo Loco restaurant.'
p7
aS'Mar 22, 2016 - Qdoba and El Pollo Loco rounded out the top five. .... Insights page on LinkedIn for the latest insights, timely discussions, commentary and industry news.'
p8
aS"Mar 22, 2016 - Wingstop Inc. (WING) News  Find the latest company news headlines for Wingstop Inc. and all ... Will Comps Growth Aid El Pollo Loco's (LOCO) Q4 Earnings?"
p9
aS"Mar 23, 2016 - Posted in News on Wednesday, March 23, 2016 6:05 pm. ... facility in Humble  El Pollo Loco celebrates growing presence in Houston by hosting 'Loco Fun Day' ..."
p10
a.