(lp0
S'Mar 1, 2016 - Home  BUSINESS  Local Business News  El Pollo Loco out; burgers and juice in ... El Pollo Loco signage has come down as the fast food restaurant closed this ... El Pollo Loco will move to a new location in Valencia, said a spokesperson ...'
p1
aS"Mar 2, 2016 - More east side restaurants opening soon. Include Chick-Fil-A, El Pollo Loco, Krispy Kreme and Sauce. KGUN 9 On Your Side - Tucson's Source for Local News, ..."
p2
aS'Mar 2, 2016 - Advertising  Northwest Florida Daily News  Classifieds  Cars  Jobs  Real Estate. FEATURED . NEWS NOW .... Ring name: El Pollo Loco (The Crazy Chicken).'
p3
aS'Mar 1, 2016 - Most recently, he served as Vice President of Development at El Pollo Loco , where he ... http://www.businesswire.com/news/home/20160301005624/en/.'
p4
aS"Mar 1, 2016 - El Pollo Loco, Blaze Fast Fire'd Pizza and Krispy Kreme Donuts have leased spots in the strip mall, which is under construction on Broadway, n Read more."
p5
aS'Mar 1, 2016 - I asked several of the businesses in that area, and they were told it was going to be an El Pollo Loco. Employees at the Humble location said the same thing.'
p6
aS"Mar 1, 2016 - A blog about fast food news and reviews. ... El Pollo Loco's latest menu items are new, limited-time Signature Avocado Tostadas, which offers a slightly different ..."
p7
aS'Mar 1, 2016 - Tenants include Dollar General, Subway, Payless Shoes, Sizzler, Jack in the Box, El Pollo Loco, as well as a number of local businesses. The center is ...'
p8
aS'Mar 1, 2016 - Most recently, he served as Vice President of Development at El Pollo Loco, where he .... All the news releases provided by Business Wire are copyrighted.'
p9
aS'Mar 2, 2016 - <a href="http://www.headlines-news.com/2016/03/02/935903/here-are-9- ... Market Losers: Avalanche Biotechnologies Inc, El Pollo LoCo Holdings Inc, And ...'
p10
a.