(lp0
S"Mar 30, 2016 - El Pollo Loco is celebrating their presence and continued expansion in the Houston area by ... El Pollo Loco celebrates growing presence in Houston by hosting 'Loco Fun Day' ... Posted in News on Wednesday, March 30, 2016 12:28 pm."
p1
aS"Mar 29, 2016 - 01/13/2016  Sidoti began new coverage on El Pollo Loco Holdings, Inc. ... daily summary of the latest news and analysts' ratings for El Pollo Loco Holdings, Inc."
p2
aS'Mar 29, 2016 - El Pollo Loco (NASDAQ:LOCO) is just another beaten-down restaurant stock in a sector littered with names that have been hammered. When you zero in on just ...'
p3
aS'Mar 30, 2016 - El Pollo Loco Holdings (NASDAQ:LOCO) has received a short term rating of hold from experts at Zacks with a rank of 3. The stock has been rated an average of ...'
p4
aS'Mar 31, 2016 - KRQE reports on news, weather, traffic, investigations and sports for New Mexico. ... grilled chicken place here - even a chain like El Pollo Loco would be great!'
p5
aS'Mar 31, 2016 - El Pollo Loco was recognized for offering the healthiest food options, followed by Chick-fil-A and Boston Market. KFC scored last out of the brands studied on ...'
p6
aS'Mar 30, 2016 - ... detrimental impact on chains which have a substantial number of outlets in California, such as El Pollo Loco Holdings, ... Stock Market News for April 12, 2016.'
p7
aS'Mar 30, 2016 - El Pollo Loco Holdings, Inc. Appoints Bill Floyd (fmr COO, Taco Bell and KFC) and Lili Lynton (Co-Founder, Dinex Group)to its Board of Directors  thestreet.com.'
p8
aS'Mar 29, 2016 - News: Crime in Fountain Valley (March 21-27) | burglary, vehicle, block, brookhurst, ... El Pollo Loco, 11025 Warner Ave. ... Elm Street and El Arbol Avenue.'
p9
aS"Mar 29, 2016 - March 29, 2016 For Birthdays, HKA Texas News, Kingwood, Salon / Spa / ... Valley Ranch Town Center adds Chickfila, Chili's, El Pollo Loco, Freebirds, Subway, ..."
p10
a.