(lp0
S"Mar 2, 2016 - More east side restaurants opening soon. Include Chick-Fil-A, El Pollo Loco, Krispy Kreme and Sauce. KGUN 9 On Your Side - Tucson's Source for Local News, ..."
p1
aS'Mar 2, 2016 - Advertising  Northwest Florida Daily News  Classifieds  Cars  Jobs  Real Estate. FEATURED . NEWS NOW .... Ring name: El Pollo Loco (The Crazy Chicken).'
p2
aS"Mar 3, 2016 - news. print; email ... Latest Habit: Franchises for 'Better-Burger' Chain  Habit Reports Unaudited Q4 Revenue  El Pollo Loco Down on Comps, Guidance ..."
p3
aS"Mar 3, 2016 - March 3, 2016 HKA Texas News, Kingwood, Things to do in Humble, Kingwood, ... Valley Ranch Town Center adds Chickfila, Chili's, El Pollo Loco, Freebirds, ..."
p4
aS'Mar 3, 2016 - The earnings calendar picks up, with Canadian Solar (CSIQ), El Pollo Loco (LOCO), Dollar General (DG), Plug Power (PLUG), Sunrun (RUN), VeriFone (PAY), ...'
p5
aS'Mar 3, 2016 - ... Reports Higher Profit. March 10, 2016 05:14 p.m.. El Pollo Loco Holdings reported higher fourth-quarter profit even as revenue slid and it missed projections.'
p6
aS'Mar 3, 2016 - Updated El Pollo Loco reports higher profit; sales slide. 3/10. Bojangles profit dips, but results top .... More News from MarketWatch. Top Stories. Trending.'
p7
aS"Mar 3, 2016 - Labels: Deals , IHOP , News .... Carl's Jr. Chick-fil-A Chipotle Church's Chicken Dairy Queen Del Taco Domino's Dunkin' Donuts El Pollo Loco Hardee's In-N-Out ..."
p8
aS'Mar 2, 2016 - <a href="http://www.headlines-news.com/2016/03/02/935903/here-are-9- ... Market Losers: Avalanche Biotechnologies Inc, El Pollo LoCo Holdings Inc, And ...'
p9
aS'Mar 2, 2016 - Local Business News. Four Mission Valley bank execs promoted. By Signal Staff. March 2, 2016 11:09 a.m.. Mission Valley Bank has promoted four of its senior ...'
p10
a.