(lp0
S'Mar 8, 2016 - Find financial news for El Pollo LoCo Holdings Inc (NASDAQ:LOCO) using Google Finance.'
p1
aS'Mar 7, 2016 - El Pollo Loco Holdings, Inc. (LOCO) is set to report fourth-quarter and full-year 2015 results on Mar 10, after the ... Zacks News for ( URBN, FLWS, WING, LOCO ) ...'
p2
aS'Mar 8, 2016 - This week, newly public companies Bojangles and El Pollo Loco are scheduled to ... Meanwhile, El Pollo Loco, the longest tenured of the three restaurants, .... Global Business and Financial News, Stock Quotes, and Market Data and Analysis.'
p3
aS"Mar 7, 2016 - El Pollo Loco Sizzles in Brownsville with Opening of New... ... All News Releases ... El Pollo Loco, the nation's leading fire-grilled chicken chain, has opened it ..."
p4
aS"Mar 8, 2016 - El Pollo Loco Holdings, Inc. Executive reported Insider selling to the SEC on Mar ... El Pollo LoCo Holdings Inc Last issued its quarterly earnings results on Nov 12, 2015. ... There haven't been much news about Hewlett Packard Enterprise Co."
p5
aS'Mar 8, 2016 - Ask Matt: Is it crazy to buy El Pollo Loco? Columnist | 1 hour ago 0 Views  For the Record: One hour closer to the Trump presidency. OnPolitics | 3 hours ago 79 ...'
p6
aS'Mar 7, 2016 - Looking for Food Services jobs at El Pollo Loco? Our growing list of El Pollo Loco Food Services job opportunities make it easy for you to find the perfect job for ...'
p7
aS'Mar 8, 2016 - All Health News Stories ... All Sports News Stories ... count drops 9 this week to all-time low of 480  Anadarko rises in Wall Street trading, El Pollo Loco slumps.'
p8
aS'Mar 8, 2016 - All Health News Stories ... All Sports News Stories ... count drops 9 this week to all-time low of 480  Anadarko rises in Wall Street trading, El Pollo Loco slumps.'
p9
aS'Mar 7, 2016 - It is currently 33 percent occupied with tenants including Dollar General, Subway, Payless Shoes, Sizzler, Jack in the Box, El Pollo Loco and local businesses.'
p10
a.