(lp0
S'Mar 8, 2016 - Find financial news for El Pollo LoCo Holdings Inc (NASDAQ:LOCO) using Google Finance.'
p1
aS'Mar 8, 2016 - This week, newly public companies Bojangles and El Pollo Loco are scheduled to ... Meanwhile, El Pollo Loco, the longest tenured of the three restaurants, .... Global Business and Financial News, Stock Quotes, and Market Data and Analysis.'
p2
aS"Mar 8, 2016 - El Pollo Loco Holdings, Inc. Executive reported Insider selling to the SEC on Mar ... El Pollo LoCo Holdings Inc Last issued its quarterly earnings results on Nov 12, 2015. ... There haven't been much news about Hewlett Packard Enterprise Co."
p3
aS'Mar 8, 2016 - Ask Matt: Is it crazy to buy El Pollo Loco? Columnist | 1 hour ago 0 Views  For the Record: One hour closer to the Trump presidency. OnPolitics | 3 hours ago 79 ...'
p4
aS'Mar 8, 2016 - All Health News Stories ... All Sports News Stories ... count drops 9 this week to all-time low of 480  Anadarko rises in Wall Street trading, El Pollo Loco slumps.'
p5
aS'Mar 8, 2016 - All Health News Stories ... All Sports News Stories ... count drops 9 this week to all-time low of 480  Anadarko rises in Wall Street trading, El Pollo Loco slumps.'
p6
aS'Mar 8, 2016 - All Health News Stories ... All Sports News Stories ... count drops 9 this week to all-time low of 480  Anadarko rises in Wall Street trading, El Pollo Loco slumps.'
p7
aS"Mar 9, 2016 - Dollar General (DG), El Pollo Loco (LOCO) and Children's Place (PLCE) are due to report quarterly results Thursday. Economic data scheduled for Thursday ..."
p8
aS'Mar 8, 2016 - The fast-casual chain announced revenue grew an insane 47%good news, ... Dollar General, El Pollo Loco, Party City, VeriFone Earnings; Weekly Jobless ...'
p9
aS'Mar 8, 2016 - TOPICS: Extended News; Front Page News; Mexico; News/Current Events; .... El Pollo Loco. .... http://www.freerepublic.com/focus/news/3406465/replies?c=27.'
p10
a.