(lp0
S"Apr 1, 2016 - 01/13/2016  Sidoti began new coverage on El Pollo Loco Holdings, Inc. giving ... 11/13/2015  El Pollo Loco Holdings, Inc. had its buy rating reiterated by ... summary of the latest news and analysts' ratings for El Pollo Loco Holdings, Inc."
p1
aS'Mar 31, 2016 - Free News Blast. Get the latest breaking industry news sent directly to your email. ... El Pollo Loco Inc. in Costa Mesa, Calif. (NASDAQ:LOCO) just started work ...'
p2
aS'Mar 31, 2016 - Every day the Zacks Equity Research analysts discuss the latest news and events ... Stocks recently featured in the blog include El Pollo Loco Holdings, Inc. (.'
p3
aS'Mar 31, 2016 - El Pollo LoCo Holdings Inc (NASDAQ:LOCO) was the target of a large growth in short interest in ... El Pollo LoCo Holdings Inc - Receive News & Ratings Daily ...'
p4
aS"Mar 31, 2016 - The stock of El Pollo Loco Holdings, Inc. (NASDAQ:LOCO)'s started the session at ... recorded a low of $13.0186 and surged to $N/A. At the time of news update, ..."
p5
aS'Apr 1, 2016 - 62 reviews of El Pollo Loco "El Pollo chicken is the best!!! Love it!!! The family ... If you notice El Pollo Loco is never in the news the way Chipotle is. The food is ...'
p6
aS'Mar 31, 2016 - Lesbian News October 2015 Issue ... As the CEO of the Pollo West Corp, one of the largest franchisees for El Pollo Loco restaurant in the Western Region of the United States, Mendelsohn manages a lot of people and some of them are trans.'
p7
aS'Mar 31, 2016 - Press Room/Articles/Foodservice News/Top QSRs Revealed ... El Pollo Loco was recognized for offering the healthiest food options, followed by Chick-fil-A and ...'
p8
aS"Apr 1, 2016 - Don't Forget, tomorrow (February 25) is Chaparral Day at El Pollo Loco. http://www.chaparralmiddle.org/apps/news/article/542147  Chaparral Middle School."
p9
aS'Mar 31, 2016 - El Pollo Loco Holdings, Inc. Message Board. Get Message ... Post earnings selloff predictable for LOCO but largely over.. Mar 20 .... Yahoo! - ABC News Network.'
p10
a.