(lp0
S'Apr 4, 2016 - Kay Bogeajis, chief operating officer of El Pollo Loco Holdings Inc., stepped down last week to pursue personal interests, the company said Monday. El Pollo ...'
p1
aS"Apr 4, 2016 - El Pollo Loco said that its chief operating officer, Kay Bogeajis, has left the QSR chain to follow personal interests. Bogealis' departure was effective 1."
p2
aS'Apr 4, 2016 - Chicken restaurant chain El Pollo Loco Holdings Inc. said that Kay Bogeajis has stepped down from the ... Steve Sather, President and CEO of El Pollo Loco, said, "I would like to thank Kay for the valuable contributions she ... Business News.'
p3
aS'Apr 4, 2016 - (RTTNews.com) - Chicken restaurant chain El Pollo Loco Holdings Inc. (LOCO) said that Kay Bogeajis has stepped ... This article appears in: News Headlines.'
p4
aS'Apr 4, 2016 - COSTA MESA, Calif., April 04, 2016 (GLOBE NEWSWIRE) -- El Pollo Loco Holdings, Inc. (El Pollo Loco and the Company) (Nasdaq:LOCO) today announced ...'
p5
aS'Apr 4, 2016 - The stock is down 0.44% or $0.06 after the news, hitting $13.67 per share. About 35,755 shares traded hands. El Pollo LoCo Holdings Inc (NASDAQ:LOCO) has ...'
p6
aS"Apr 4, 2016 - El Pollo Loco Holdings Inc. LOCO, +1.01% said Monday its chief operating ... El Pollo Loco's stock, which slipped 0.7% in premarket trade, has run up 8.7% year to date, while the S&P 500 has gained 1.4%. ... More News from MarketWatch."
p7
aS'Apr 4, 2016 - El Pollo Loco (LOCO) announces the departure of Chief Operating Officer Kay Bogeajis. ... 2,203 people get LOCO breaking news and analysis by email alert.'
p8
aS'Apr 4, 2016 - FREE Breaking News Alerts from StreetInsider.com! ... Get Alerts LOCO Hot Sheet ... El Pollo Loco Holdings, Inc. (Nasdaq: LOCO) announced the departure of ...'
p9
aS'Apr 4, 2016 - El Pollo Loco (LOCO), the eatery known for its fire-grilled chicken and which bills ... Pollo Loco also added William Floyd and Carol Lynton to its board, effective April 1. ... You will find the latest news, market analysis, and education to help you ...'
p10
a.