(lp0
S'Apr 6, 2016 - El Pollo Loco Holdings Inc, LOCO real time stock quotes, news, videos at CNBC.com.'
p1
aS'Apr 5, 2016 - LOCO, El Pollo Loco Holdings - Stock quote performance, technical chart analysis, SmartSelect Ratings, Group Leaders and the latest company headlines.'
p2
aS'Apr 5, 2016 - ... its brands, and El Pollo Loco (LOCO - Snapshot Report), the Mexican fire-grilled chain out of California. ... Zacks News for ( CMG, FRGI, LOCO, FOGO, BITE ) ...'
p3
aS'Apr 5, 2016 - Industry News Commercial Real Estate ... Panda Express, Chick-fil-A, Chipotle Mexican Grill, Panera Bread, Pieology Pizzeria, El Pollo Loco, In-N-Out Burger, ...'
p4
aS'Apr 6, 2016 - Film Location Firm Has News Magnate William Randolph Hearst to Thank for its .... El Pollo Loco out; burgers and juice in  Occupational healthcare firm gains ...'
p5
aS'Apr 5, 2016 - Gerardo Ortiz Ortiz Barbosa Cuanto cuesta el pollo loco ... News Feed ... At El Pollo Loco, we go to crazy lengths to bring you real food with honest ingredients.'
p6
aS"Apr 6, 2016 - Home > News > People > Longtime McDonald's chairman steps down ... Mexican Restaurants' longtime chairman steps down  El Pollo Loco CEO Steve Carley ..."
p7
aS'Apr 5, 2016 - Tracey likes Fiesta Restaurant Group (FRGI), but only for one of its brands, and El Pollo Loco (LOCO), the Mexican fire-grilled chain out of California. Eric chats ...'
p8
aS'Apr 6, 2016 - Late entries to the fast casual trend and this sector include El Pollo Loco, Shake ... El Pollo Loco has already been brought down to about 16.2x forward earnings; ... in the stock market is to have information before it is news...simple as that" ...'
p9
aS'Apr 6, 2016 - TUCSON, AZ (Tucson News Now) - Krispy Kreme is opening a stand-alone store in ... WKS Restaurant Group is a licensed franchisee of El Pollo Loco, Krispy ...'
p10
a.