(lp0
S'Archived Event: El Pollo Loco Inc. (LOCO), Interview with ...'
p1
aS"Shake Shack's Japan Expansion To Start Next Year | Stock ..."
p2
aS'Downtown Developer Buys Site of Popular USC Watering ...'
p3
aS'Carl Dondero: 1932-2015 - Sierra Wave: Eastern Sierra News'
p4
aS'Bridges on Lake Houston (PHOTOS & VIDEO) - HKA TEXAS'
p5
aS'Quick-service chain Taco Bell to debut Sriracha Quesarito'
p6
aS"Qdoba Mexican Grill's sales propelled by simplified pricing"
p7
aS'Valvoline Instant Oil Change Now In La Mesa CA - PRWeb'
p8
aS'Retail Newsline: New Development, Bifurcation and Tasty ...'
p9
aS'Burger King spices up menu with fiery fish sandwich -First in ...'
p10
a.