(lp0
S'New restaurants, updates on Ella Boulevard'
p1
aS'Battle Of The Mexican Chains: Del Taco Or El Pollo Loco ...'
p2
aS'Smoketree Junction serves up antiques, conversation and ...'
p3
aS'El Pollo Loco in Sugar Land, Texas with Reviews & Ratings ...'
p4
aS'El Pollo Loco in Pasadena, Texas with Reviews & Ratings ...'
p5
aS'El Pollo Loco in Missouri City, Texas with Reviews ...'
p6
aS'El Pollo Loco Locations in Pearland, Texas with Reviews ...'
p7
aS'Correlation is Bad News for US Equity Investors | Alan ...'
p8
aS'Panda Express - Wikipedia, the free encyclopedia'
p9
aS'CrunchTime: Restaurant Management Software'
p10
a.