(lp0
S'Five things you need to know as El Pollo Loco heads to Dallas'
p1
aS'El Pollo Loco to Expand in Texas with Dallas Unit Openings ...'
p2
aS'El Pollo Loco Unveils New Line of Crave-Worthy Salads ...'
p3
aS'El Pollo Loco Unveils New Line of Crave-Worthy Salads ...'
p4
aS'El Pollo Loco to Expand in Texas with Dallas Unit Openings ...'
p5
aS"Melody's Mexican Kitchen brimming with taste delights in ..."
p6
aS'Jackmont Hospitality and JIB Management Purchase Florida ...'
p7
aS'Update on Lake Conroe Water Releases - HKA TEXAS'
p8
aS'First Solar shares down 6% after downgrade - MarketWatch'
p9
aS'112 - Restaurant News Release'
p10
a.