(lp0
S"McDonald's (MCD) Stock Down Amid January Sales Decline"
p1
aS"Restaurant Chains Offer Valentine's Day Deals and More ..."
p2
aS'Record Growth Propels Executive Team Expansion At ...'
p3
aS"McDonald's Corporation (MCD) Stock Suffers More Super ..."
p4
aS'Top 25 District Manager profiles at El Pollo Loco | LinkedIn'
p5
aS'Teen finds chicken organ in KFC lunch | Fox News'
p6
aS'RENTV.com - Commercial real estate news and property ...'
p7
aS'Jim Cramer Answers Twitter Questions on Coca-Cola, Yelp ...'
p8
aS'Frankie Ballard separated his shoulder, and "busted a rib ...'
p9
aS'Pima supervisors say yes to Sonoran Corridor proposal'
p10
a.