(lp0
S"'Mad Money' Lightning Round: Forget El Pollo Loco (LOCO ..."
p1
aS'El Pollo Loco (LOCO) Stock | A Slippery Slope? - Warrior ...'
p2
aS'SHAREHOLDER ALERT: The Law Firm of Levi & Korsinsky ...'
p3
aS'Bravo: Local residents receive recognition'
p4
aS"Lightning Round: It's a total house of pain - CNBC.com"
p5
aS'Restaurant Industry Outlook: Fast-Food vs. Fast-Casual ...'
p6
aS'Working at El Pollo Loco | Glassdoor'
p7
aS'Where can I eat around here? - Los Angeles Air Force Base - FAQ Topic'
p8
aS'Verso to layoff nearly 40% of its employees as it slashes ...'
p9
aS'Pollo Campero Offers Discount in Honor of National Family ...'
p10
a.