(lp0
S'Why Customers Are Obsessed With This Chicken-and ...'
p1
aS'Pancho Ochoa Sr. A One of a Kind Restaurateur and Creator...'
p2
aS'FRGI Stock Quote - Fiesta Restaurant Group Inc. Stock Price ...'
p3
aS'An El Pollo Loco Restaurant In Modesto California At Night ...'
p4
aS'The Palace of Power, Houston Motorsports Park is only a ...'
p5
aS'Jeb Bush Knows All About Being An Immigrant, Except The ...'
p6
aS"Bell Helicopter officials say new assembly plant hiring won't ..."
p7
aS'Man robs Oro Valley home, punches victim'
p8
aS"McDonald's testing simpler customization platform - Nation's ..."
p9
aS'Why Habit Restaurants (HABT) Could Be Positioned for a ...'
p10
a.