(lp0
S'Archived Event: El Pollo Loco Inc. (LOCO), Interview with ...'
p1
aS"Shake Shack's Japan Expansion To Start Next Year | Stock ..."
p2
aS'Customer Service - | The Wichita Eagle'
p3
aS'Carl Dondero: 1932-2015 - Sierra Wave: Eastern Sierra News'
p4
aS'Population growth overt time in Humble, Kingwood ...'
p5
aS'Quick-service chain Taco Bell to debut Sriracha Quesarito'
p6
aS'Mexican Chain Restaurant Recipes: February 2015'
p7
aS'Valvoline Instant Oil Change Now In La Mesa CA - PRWeb'
p8
aS'Free Egg Rolls at Panda Express on 2/19/15 | Brand Eating'
p9
aS'Chicken Chain Restaurant Recipes: Mashed Potatoes and ...'
p10
a.