(lp0
S'Del Taco Board Member Buys Chicago Hot Dog Stand ...'
p1
aS'Covered Call Alerts For Ambarella, Regeneron ...'
p2
aS"Logan's Roadhouse Names Butler, Shine, Stern & Partners ..."
p3
aS'El Pollo Loco in San Luis Obispo, California with Reviews ...'
p4
aS'El Pollo Loco New Restaurant Opening All Crew Positions ...'
p5
aS'Fall Market and Mall-O-Ween events highlight family fun at ...'
p6
aS"Logan's Roadhouse Names Butler, Shine, Stern & Partners ..."
p7
aS'Oro Valley police officer shoots, injures man'
p8
aS'State of Grace readies October opening - Houston Chronicle'
p9
aS'Valencia Pharmacy Signs a 10-Year Lease Henry Mayo ...'
p10
a.