(lp0
S'El Pollo Loco Menu Prices - Fast food Menu Price'
p1
aS'New 113 acre Business Park at 59 and Rankin - HKA TEXAS'
p2
aS'This image appeared on my news feed. It says that Austrian ...'
p3
aS"Zoe's Kitchen Q2 Results: Underwhelming, at Least for a ..."
p4
aS'Stock Chart, News and Sentiment For RRGB - Buy The Dip'
p5
aS'Job Numbers: The Texas Employment Chart You Have to See'
p6
aS'2 past Madness winners in final burrito battle'
p7
aS'Recently reviewed restaurants: 9-3 - Toledo Blade'
p8
aS'White Castle (restaurant) - Wikipedia, the free encyclopedia'
p9
aS'Guru Gossip  View topic - HRH Collection - Part 4 - Board index'
p10
a.