(lp0
S'Will El Pollo Loco Starts To Grow ? - GuruFocus.com'
p1
aS'More business comes to West Las Vegas | KSNV'
p2
aS"Amy's Drive Thru expects to open organic Rohnert Park ..."
p3
aS"Krispy Kreme Doughnuts | Nation's Restaurant News"
p4
aS"LongHorn Steakhouse | Nation's Restaurant News"
p5
aS'Now open: Pollo Picante in Mesa specializes in mesquite ...'
p6
aS"Blaze Fast-Fire'd Pizza Has an Opening Date in North Las ..."
p7
aS'Top 7 Vice President, Assistant Treasurer, International ...'
p8
aS'Quiznos Introduces New Cuban Sub; Brings Back Pulled ...'
p9
aS'Retailers pull Confederate flags--after sales soar - Yahoo ...'
p10
a.