(lp0
S'El Pollo Loco: Down But Not Out - Seeking Alpha'
p1
aS'Murals brighten our city | Daily Sun News'
p2
aS'Gasser sells most of South Napa Marketplace for $22 million ...'
p3
aS"Raising Cane's Chicken Fingers | Nation's Restaurant News"
p4
aS"Photo Gallery: A look at the hottest restaurant IPOs | Nation's ..."
p5
aS'Shares of Fogo de Chao Jump in Trading Debut - WSJ'
p6
aS"Pollo Campero Giving All Dads a Treat on Father's Day ..."
p7
aS'Lake Houston Pool Supply celebrates their grand opening ...'
p8
aS'LASC Graduate Kelynn Johnson'
p9
aS'Britney Spears Loves Target, But Her Other Expenses Are ...'
p10
a.