(lp0
S'1 Injured After Truck Crashes Into El Pollo Loco in Sunland ...'
p1
aS'El Pollo Loco Introduces New Pollo Bowls | RestaurantNews ...'
p2
aS'Photo: multi-vehicle crash sends pickup truck into el pollo ...'
p3
aS"Menu Tracker: New items from Arby's, El Pollo Loco ..."
p4
aS'Fast-food chain signs long lease  Inland Empire Business ...'
p5
aS'Critical Alerts For CyberArk Software, Build-A-Bear ...'
p6
aS'Vegetarian AND Fast Food? Believe It - News Tips & Advice ...'
p7
aS'Man, 28, charged with human trafficking in Fullerton ...'
p8
aS'Compton Man Charged with Attempted Pimping of ...'
p9
aS"The Strategy That Could Turn Around McDonald's, KFC And ..."
p10
a.