(lp0
S'3 Men Arrested in String of El Pollo Loco Robberies | NBC ...'
p1
aS'Alleged Burglary Crew Arrested In String Of El Pollo Loco ...'
p2
aS'El Pollo Loco Lowers Guidance As Sales Growth Slows - WSJ'
p3
aS'3 men accused of stealing from 31 El Pollo Loco locations in ...'
p4
aS'El Pollo Loco slumps as revenue falls short; trims full-year ...'
p5
aS'El Pollo Loco (LOCO) Q3 Results: Beats on Earnings But ...'
p6
aS'3 men arrested in connection to El Pollo Loco thefts | 89.3 ...'
p7
aS'El Pollo Loco third-quarter profit falls sharply'
p8
aS'Duo arrested in Stanton on suspicion of burglarizing 31 El ...'
p9
aS'Three Men Arrested in String of El Pollo Loco Robberies ...'
p10
a.