(lp0
S'The Fast Food Restaurants You Should Be Watching in 2015'
p1
aS"Shake Shack's Stock Climbs On Double-Digit Sales Surge ..."
p2
aS'Does el pollO loco drug test - Body Building'
p3
aS'The Best Deals For National Nachos Day - Where to Stuff ...'
p4
aS'El Pollo Loco Coupons: 15% Off Coupon 2016 - DealsPlus'
p5
aS'Ruby Tuesday closing 11 Lime Fresh Mexican Grill locations'
p6
aS'El Nino causes uptick with roofing companies as rain ...'
p7
aS'Covered Call Alerts For GoPro, Autodesk, Juno ...'
p8
aS'Covered Call Alerts For Disney, Facebook, Google, GW ...'
p9
aS'Chipotle wannabes find it hard to measure up - Nov. 5, 2015'
p10
a.