(lp0
S'Critical Alerts For Facebook, Imperva Inc, TASER ...'
p1
aS'Vermin, cockroaches, no hot water shut down 11 San ...'
p2
aS'Restaurant - Humble, Kingwood, Atascocita, Texas'
p3
aS'Restaurants - HKA TEXAS'
p4
aS"Tomorrow's News Today - Atlanta: Del Taco Secures Site in ..."
p5
aS'Ray T. Dutcher Archives - Sierra Wave: Eastern Sierra News'
p6
aS'Cyber Security: NOBE presents CISCO Info-Session - USC ...'
p7
aS'If they build it, will you shop there? | Business ...'
p8
aS'iOS 9 Wallet: Using the shortcut, loyalty cards and more ...'
p9
aS'Peter Bassi | The New England Consulting Group'
p10
a.