(lp0
S'El Pollo Loco Continues Home State Expansion With Two ...'
p1
aS'El Pollo Loco Continues Home State Expansion With Two ...'
p2
aS'Houston restaurant health inspection violations (Oct. 19-26 ...'
p3
aS'Representatives officially break ground for Kroger ...'
p4
aS'Mother, son burned in fire - Arizona Daily Star'
p5
aS'Partners | CareHarbor'
p6
aS'Time to Take a Bite into This Exclusive Restaurant ETF ...'
p7
aS'Fire engulfs commercial building in Huntington Park | abc7 ...'
p8
aS'Holiday Party 2015 - CASA'
p9
aS'Recently reviewed restaurants: 10-29 - Toledo Blade'
p10
a.