(lp0
S'SECURITIES ALERT: Rosen Law Firm Reminds El Pollo ...'
p1
aS'Dirty Dining Oct. 15, 2015: Worst offenders have 5 major ...'
p2
aS"Survey: McDonald's franchisees mixed on all-day breakfast"
p3
aS"Chino Hills tackles 'first world problems': Airbnb, foreign ..."
p4
aS'Developer Dave Paynter buys fourth Mooney shopping center'
p5
aS"Mary Han's death certificate may change | New Mexico ..."
p6
aS"Mobileye's Monopoly in Autonomous Driving is Veering off ..."
p7
aS'The Spartan Oracle. : P.H.E.W. review'
p8
aS'5 Fast-Casual Stars Shaping the Segment Today [VIDEO ...'
p9
aS'El Pollo Loco Spring, TX, 77379 - YP.com'
p10
a.