(lp0
S'El Pollo Loco Taps Mexican Food Demand with New Tostadas'
p1
aS'El Pollo Loco Announces Flavorful Twist on Flagship Tostadas'
p2
aS"El Pollo Loco's Weak Traffic Looks Like A Daunting Obstacle ..."
p3
aS'Retail roundup: New El Pollo Loco, Starbucks, Unleashed ...'
p4
aS"Menu Tracker: New items from Auntie Anne's, El Pollo Loco ..."
p5
aS'Why IPOs Are Sizzling: 3 Ingredients For Growth'
p6
aS'Restaurant scores for week of Sept. 7 - KSAT.com'
p7
aS'Inyo Supervisors approve budget - Sierra Wave: Eastern ...'
p8
aS'Pollo Asado - Santa Fe, New Mexico - Mexican Restaurant ...'
p9
aS'El Pollo Loco in Longmont, Colorado with Reviews ...'
p10
a.