(lp0
S'Baird Sees Loco Undervalued, Wild Wings Overvalued ...'
p1
aS"Start the New Year Off Right With El Pollo Loco's New Under ..."
p2
aS'The plunge in oil will hurt these people most - MarketWatch'
p3
aS'Wall Street Eyes Key Economic Data This Week ...'
p4
aS'Restaurants | Expertise | Baird'
p5
aS'2015 Chain Innovators: Bel Campo - Foodservice ...'
p6
aS'El Pollo Loco | ADN Architects - Armet Davis Newlove'
p7
aS'Shake Shack IPO raises question: how many more burgers ...'
p8
aS"411MANIA | Click Here to Join 411's LIVE WWE Raw ..."
p9
aS'Under the Hood: Retail | In Focus | Design Thinking | Gensler'
p10
a.