(lp0
S'Burger King is dethroned and other changes coming to San ...'
p1
aS'El Pollo Loco in Santee, California with Reviews & Ratings ...'
p2
aS'El Pollo Loco Locations in San Diego, California with ...'
p3
aS"King's Seafood Takes Water Grill to Dallas | Orange County ..."
p4
aS'Two Kingwood Restaurants will participate in Houston ...'
p5
aS'Update from Bishop City Council meeting - Sierra Wave ...'
p6
aS'Our Clients - - Regents Bank'
p7
aS'ANZA: Hemet man pleads not guilty in homicide case ...'
p8
aS'Other News in City of Allen - Headline Updates - Allen, TX ...'
p9
aS'Real Weird: Federal agents catch fugitive thanks to horror ...'
p10
a.