(lp0
S'El Pollo Loco Holdings, Inc. Shareholder Alert: Former SEC ...'
p1
aS'Morgan & Morgan Announces That a Class Action Lawsuit ...'
p2
aS'Artesia, CA - Official Website - El Pollo Loco'
p3
aS'TN Republican Sues El Pollo Loco To Change Name To ...'
p4
aS'TN Republican Sues El Pollo Loco To Change Name to ...'
p5
aS'Lithuania Franchise Opportunities & News'
p6
aS'Critical Alerts For FireEye, Peabody Energy, BlackBerry ...'
p7
aS'First Round of Retailers, Food Establishments Announced ...'
p8
aS"- Part 7 | Thomas Peep's Daily News"
p9
aS'Texas Racing Commission rescinds simulcast, live racing ...'
p10
a.