(lp0
S'El Pollo Loco Heats Up Expansion With New Opening in ...'
p1
aS'El Pollo Loco Heats Up Expansion With New Opening in ...'
p2
aS'Pollo Loco remodel complete | November 19, 2015 | www ...'
p3
aS'El Pollo Loco Opening In Dublin, CA! - Goodwin Hospitality'
p4
aS'ICR Announces Presenting Companies for Its 2016 ...'
p5
aS'ConAgra Foods to split into two companies'
p6
aS'ICR Announces Presenting Companies for Its ... - Reuters'
p7
aS'El Pollo Loco Cook/Prep Job Listing in West Jordan, UT ...'
p8
aS'BITE: New ETF Is First To Target Restaurant Industry - The ...'
p9
aS'cheap longchamp uk Investors Will Go Loco For El Pollo ...'
p10
a.