(lp0
S"What's in Store for El Pollo Loco (LOCO) in Q2 Earnings ..."
p1
aS'Shake Shack Stock Reverses Lower; Red Robin Sinks ...'
p2
aS'Dow snaps 7-day losing streak; oil recovery boosts energy 3%'
p3
aS'Stocks close sharply lower on surprise yuan devaluation ...'
p4
aS'Dow falls triple digits on surprise yuan devaluation; Google ...'
p5
aS'Dow snaps 7-day losing streak; oil recovery boosts energy 3 ...'
p6
aS'The Single Worst Practice of Fast Casual Restaurants -- The ...'
p7
aS'A Down Week for Stocks  Weekly Update - Gierl Augustine ...'
p8
aS'UPDATE: Berkshire Hathaway buying ADI parent company ...'
p9
aS"ONE Group COO John Inserra to step down - Nation's ..."
p10
a.