(lp0
S'El Pollo Loco Grows Presence in Sacramento Region With ...'
p1
aS'Del Taco Restaurant Properties I: OTCMKTS:XXNCB quotes ...'
p2
aS'CalFresh Restaurant Meals Program'
p3
aS'Critical Alerts For ConocoPhillips, Second Sight Medical ...'
p4
aS'10 Restaurants that Could Deliver Big Gains (BJRI, SBUX ...'
p5
aS'free coke zero with next purchase at pollo loco - Slickdeals.net'
p6
aS'Who knew? Surprising celebrity facts | Slideshow | Fox News'
p7
aS'Marketing Restaurant Franchises: The Definitive Guide ...'
p8
aS'Heavy rain runoff erodes foundation of San Gabriel home ...'
p9
aS'BSSP Promotes Mark Krajan to CD | AgencySpy - Adweek'
p10
a.