(lp0
S'El Pollo Loco Offers Four New Under 500 Calories Menu ...'
p1
aS"Popeyes' Preliminary Earnings Prove Tasty -- The Motley Fool"
p2
aS'BBQ Chain Expands in OC | Orange County Business Journal'
p3
aS'LIST: Best discounts for senior citizens - Story | MyEastTex'
p4
aS"Kane's Boot & Western Shop will close after 57 years in ..."
p5
aS'Atascocita Volunteer Fire Department to replace station 1 ...'
p6
aS'El Pollo Loco Santa Maria, CA, 93454 - YP.com'
p7
aS'Denise Gonzlez, mother to a beautiful... - Fox 11 Los ...'
p8
aS'Do you eat here? Introducing our weekly look at Phoenix-area'
p9
aS'BLACK BEAN BOWL - 5 UNDER 500 CALORIES - El Pollo ...'
p10
a.