(lp0
S'Wind complicates fire fight at El Pollo Loco in Sunland'
p1
aS"Retail Wrap: Lovesac, Mama Fu's, El Pollo Loco openings ..."
p2
aS'El Pollo Loco - Momentum Continues To Fade As Valuation ...'
p3
aS'Anyone know what they are building in the Target shopping ...'
p4
aS"Man dies on Tucson's east side in pedestrian collision"
p5
aS'Tucson police reopen NB lanes of Oracle at River'
p6
aS'Human Resources & Risk and Safety | National Restaurant ...'
p7
aS'Wind complicates fire fight at El Pollo Loco in Sunland ...'
p8
aS'Antonio Banderas - IMDb'
p9
aS'KFC Japan Gets Another Beef Burger | Brand Eating'
p10
a.