(lp0
S'The Famous San Diego Chicken Commercial El Pollo Loco'
p1
aS'Levy Acquisition Could Offer Value In The Restaurant Sector ...'
p2
aS'EAT. SCAN. PLAY. | RestaurantNews.com'
p3
aS'El Pollo Loco in Greeley, Colorado with Reviews & Ratings ...'
p4
aS'Dollar drops after Fed lowers year-end rate forecasts ...'
p5
aS"Alibaba's stock bounces around on heavy volume as lockup ..."
p6
aS"Starbucks to test delivery in Seattle, New York - Nation's ..."
p7
aS'Photos & Video of the new ShowBiz SDX theater in Kingwood'
p8
aS'Chicken Salad Chick - Wikipedia, the free encyclopedia'
p9
aS"19 of Maine's Best Spots for Tacos, Mapped - Eater Maine"
p10
a.