(lp0
S'all locations | elpolloloco.com'
p1
aS"Wendy's: Value deal drives 3Q sales - Nation's Restaurant ..."
p2
aS'Restaurants/hotels | | Dallas Morning News | Page 3'
p3
aS"Goody's Family Restaurant Burglar Sentenced to Three Years"
p4
aS'Covered Call Alerts For Freeport-McMoRan, Whiting ...'
p5
aS'Covered Call Alerts For SolarCity, Lululemon, Palo Alto ...'
p6
aS'I investing my life savings into one stock. : investing - Reddit'
p7
aS'Why Chipotle is not the healthiest - Crafty Pioneer'
p8
aS'The five most lucrative restaurant franchises - CSMonitor.com'
p9
aS'Bojangles shares slide after earnings beat, boosted outlook ...'
p10
a.