(lp0
S'Why EMC Corporation (NYSE:EMC), Lumber Liquidators ...'
p1
aS'El Pollo Loco Sees Small Jump To $12.85/Share ... - Benzinga'
p2
aS'Hearing El Pollo Loco Has Received unsolicited ... - Benzinga'
p3
aS'Panera Bread Company (NASDAQ:PNRA), (LOCO ...'
p4
aS'How Do Top Investors Feel About These Two Surging ...'
p5
aS'Colonies Holiday Miracles Event - National CORE'
p6
aS'SunTrust Initiates Quick Service, Fast Casual Restaurant ...'
p7
aS'El Pollo Loco Pharr, TX, 78577 - YP.com'
p8
aS'Tucson businessman Pitt honored by education group'
p9
aS'Covered Call Alerts For Disney, Box, Bank of America ...'
p10
a.