(lp0
S'El Pollo Loco Introduces New Baja Shrimp (NASDAQ:LOCO)'
p1
aS'El Pollo Loco introduces Baja Shrimp to menu ...'
p2
aS'El Pollo Loco Introduces New Baja Shrimp - SeafoodNews'
p3
aS'El Pollo Loco Introduces New Baja Shrimp Nasdaq:LOCO'
p4
aS'19 Salads Worse Than a Whopper | Eat This Not That'
p5
aS'Odds & Ends: News/Humor (with a "Who Lost the Week?" poll)'
p6
aS'GoodDaySac #LowBudgetHalfTimeShow Today in the News'
p7
aS'Chipotle Is an Expensive Burrito -- Ahead of the Tape - WSJ'
p8
aS'Sizzling Shake Shack IPO Put These ETFs in Focus ...'
p9
aS'Food on Foot - Programs'
p10
a.