(lp0
S'El Pollo Loco CEO Stephen Sather: Focus Is on the Growth ...'
p1
aS'El Pollo Loco Cashes In as Falling Gas Price Gave Diners ...'
p2
aS'El Pollo Loco CEO: Price increase coming - CNBC Video'
p3
aS'Top Chicken Eateries Poised For Big Growth | Stock News ...'
p4
aS'El Pollo Loco CEO: Price increase coming | Watch the video ...'
p5
aS'Restaurants reveal expansion, acquisition, tech plans at ICR ...'
p6
aS'Chipotle suspends pork sales at hundreds of restaurants'
p7
aS'Meet the MediaLink Mafia That Runs CES and Everything ...'
p8
aS"HUGE Children's and maternity consignment sale February ..."
p9
aS'Texas Litter Control offers of free spay and neuter services ...'
p10
a.