(lp0
S'After-hours buzz: Mattress Firm, El Pollo Loco & more'
p1
aS"Double Down for El Pollo Loco's New Limited Time Offerings"
p2
aS"Double Down for El Pollo Loco's New Limited Time Offerings"
p3
aS'(LOCO), El Pollo Loco Holdings (NASDAQ:LOCO ...'
p4
aS'El Pollo Loco - Kanan. Grand Re-Opening Fundraiser ...'
p5
aS'Retail Wrap: Expansions by Tuesday Morning, TJ Maxx ...'
p6
aS'citybizlist : Dallas : El Pollo Loco Nabs Space in Brazos ...'
p7
aS'Restaurant scores for week of Nov. 30 - KSAT.com'
p8
aS'Notable Monday Option Activity: FIVE, LOCO, RLYP ...'
p9
aS'Covered Call Alerts For Ambarella, GW Pharmaceuticals ...'
p10
a.