(lp0
S'El Pollo Loco Continues California Development With ...'
p1
aS'Why Noodles & Company Stock Dropped 25% in November ...'
p2
aS'El Pollo Loco Jobs in Perris, CA Now Hiring | Snagajob'
p3
aS'SCVNews.com | Drive-Thru Worker Allegedly Stole Credit ...'
p4
aS'El Pollo Loco Radford, VA, 24141 - YP.com'
p5
aS'REVOLVING DOOR: McKinney Names Lyle Yetman As ...'
p6
aS'El Rey del Taco | Authentic Mexican Food In Atlanta'
p7
aS'Stephanie Naad Windsor | Facebook'
p8
aS"Ravenswood captain's speech hits out at school's ..."
p9
aS'WsnewsPublishers  3 Best Stocks in Queue: Allergan plc ...'
p10
a.