(lp0
S'Restaurant scores for week of Dec. 7 - KSAT.com'
p1
aS'Goldsboro News-Argus | Dining: La Paz'
p2
aS"12 Metro Phoenix Restaurants Earned a 'D' from the County ..."
p3
aS'Covered Call Alerts For Bank of America, Caterpillar Inc ...'
p4
aS"Generation Park's First Multi-Tenant office building ..."
p5
aS"This Week's Houston Deal Sheet - Deal Sheet - Bisnow"
p6
aS'NewQuest Buys Its First Kmart Store in the Rio Grande Valley'
p7
aS'Los Cuatro Amigos of Dawsom - Dawson Springs, Kentucky ...'
p8
aS'iFranchise Clients | iFranchise Group'
p9
aS'El Pollo Loco - Google+'
p10
a.