(lp0
S'Restaurant Review: Chicken tops bill at El Pollo Perucho ...'
p1
aS'News  EY Entrepreneur Of The Year 2015 award ...'
p2
aS'REPRESENTATIVE CLIENTS - Kaiser, Swindells & Eiler'
p3
aS'No Arizona inspector general this year - Arizona Daily Star'
p4
aS"Del Frisco's Restaurant Group Inc. - The New York Times"
p5
aS"What Subway's Sales Decline Says About the Restaurant ..."
p6
aS'[PDF]\nGlobal Foodservice News - American Recruiters'
p7
aS'Top Brands :: AdNation News Express'
p8
aS'Photo Gallery: Menu Tracker: New items from Starbucks ...'
p9
aS'Brand Eating: April 2015'
p10
a.