(lp0
S"Street Uncertain About McDonald's Prospects This Year ..."
p1
aS"Report - Nation's Restaurant News"
p2
aS"Just in Time For Gaudy Billboards and Gil Moore's Beer ..."
p3
aS'UPDATE: Charges filed on five suspects in Humble ...'
p4
aS'Walmart Neighborhood Market is NOW OPEN in Atascocita ...'
p5
aS'Kreole Soul, family owned creole food truck Park Lakes ...'
p6
aS'El Pollo Loco Franchise Settles Overtime Pay Lawsuit'
p7
aS'BSSP and Sunrun Launch New Solar Ad Campaign ...'
p8
aS'You can see Planters Nutmobile here - Arizona Daily Star'
p9
aS"Trader Joe's Director Of Construction - LinkedIn"
p10
a.