(lp0
S'El Pollo Loco Keeps the Fire Going in Houston With New ...'
p1
aS'Behind the Badge - El Pollo Loco serial burglary suspects ...'
p2
aS'Zachary Rosenberg Named President at MBMG Media ...'
p3
aS'El Pollo Loco Restaurant Management Jobs in Union City ...'
p4
aS'Michaela Mendelsohn | The Trevor Project'
p5
aS'El Pollo Loco in Greensboro, North Carolina with Reviews ...'
p6
aS'El Pollo Loco in Kansas City, Missouri with Reviews ...'
p7
aS'El Pollo Loco in Milwaukee, Wisconsin with Reviews ...'
p8
aS'El Pollo Loco Cashier Job Listing in Temecula, CA ...'
p9
aS"Brad Pitt: 15 Things You Didn't Know (Part 1) - PPcorn"
p10
a.