(lp0
S'- El Pollo Loco, Inc.'
p1
aS'Apex Imaging Services | El Pollo Loco'
p2
aS'Just taken private, Safeway may go public again this year ...'
p3
aS'Kingwood Drive panel replacement construction started ...'
p4
aS'Best fish tacos?! : sandiego - Reddit'
p5
aS'First Real Progress Pics! (M/35, 6\'2", 218lbs) : Fitness - Reddit'
p6
aS'Apple Earnings, FOMC: What to Watch on Wall Street for the ...'
p7
aS'Youtube : Video: The DeNiro Brothers of Catalina Foothills ...'
p8
aS'Southern Arizona baseball teams poised to shine in playoffs'
p9
aS'$5 Bonafide Big Box Returns to Popeyes | Brand Eating'
p10
a.