(lp0
S"Start the New Year Right With El Pollo Loco's New Under ..."
p1
aS'El Pollo Loco - World News'
p2
aS"Duterte urges development of 'business islands' for OFWs ..."
p3
aS'Sugar Land Holiday Lights - Facebook'
p4
aS'4 bodies discovered on Michoacn Highway one is El Tsico ...'
p5
aS"'Tragedy and triumph': Turnbull pays tribute to Victoria's ..."
p6
aS'Popeyes Launches New Spice Packed Wings | Brand Eating'
p7
aS'Review: Taco Bell - Sriracha Chicken Crunchwrap Slider ...'
p8
aS'Selling Gift Cards Better Than Leaving Them Unspent ...'
p9
aS'Qdoba Mexican Eats - Wikipedia, the free encyclopedia'
p10
a.