(lp0
S"What's in Store for El Pollo Loco (LOCO) this Earnings ..."
p1
aS'Shooting victim heads for cover inside El Pollo Loco ...'
p2
aS"9 Things You Didn't Know About El Pollo Loco"
p3
aS'Looking Ahead of Wall Street: Urban Outfitters, Shake Shack ...'
p4
aS'The Automated Kitchen of the Future, Hiring Is Still Strong ...'
p5
aS"QSRs are taking business from McDonald's | Reporter's ..."
p6
aS'Stocks plunge 1.5% amid dollar pressure; Dow tumbles 300 ...'
p7
aS'US stocks close higher as Street shakes off rate hike fears'
p8
aS"(RLYP) - Oppenheimer: Own Relypsa (Here's 14 Reasons ..."
p9
aS'Intellectual Property - Pepper Hamilton'
p10
a.