(lp0
S'3 Men Arrested in String of El Pollo Loco Robberies | NBC ...'
p1
aS'Why El Pollo Loco Holdings, Inc. Shares Slipped 10% on ...'
p2
aS'Alleged Burglary Crew Arrested In String Of El Pollo Loco ...'
p3
aS'El Pollo Loco Lowers Guidance As Sales Growth Slows - WSJ'
p4
aS'El Pollo Loco slumps as revenue falls short; trims full-year ...'
p5
aS'El Pollo Loco (LOCO) Q3 Results: Beats on Earnings But ...'
p6
aS'El Pollo Loco third-quarter profit falls sharply'
p7
aS'Duo arrested in Stanton on suspicion of burglarizing 31 El ...'
p8
aS'El Pollo Loco (LOCO) Stock Falling on Earnings Miss ...'
p9
aS'Three Men Arrested in String of El Pollo Loco Robberies ...'
p10
a.