(lp0
S'New $5 Pollo Bowl Combos at El Pollo Loco | Brand Eating'
p1
aS'Nature Made Names BSSP Agency of Record'
p2
aS'Is it possible to let more people out of prison, and keep ...'
p3
aS'Crosby - Humble, Kingwood, Atascocita, Texas'
p4
aS'Lehi Police share crime-tracking tool RAIDS online with ...'
p5
aS'Meet Canarias Basketball Academy: The team that traveled ...'
p6
aS"Britney Spears' Grocery List Revealed | Celebuzz"
p7
aS'El Pollo Loco Locations in Lawrenceville, Georgia with ...'
p8
aS'El Pollo Loco On Watt Ave in Sacramento, California with ...'
p9
aS'Regents Bank'
p10
a.