(lp0
S'El Pollo Loco Introduces New Grill Master Pollo ... - TheStreet'
p1
aS'El Pollo Loco Introduces New Grill Master Pollo Bowls ...'
p2
aS"The Events That Led To Subway's Breaking Antibiotics ..."
p3
aS'Covered Call Alerts For Netflix, General Motors, Qualcomm ...'
p4
aS'Currently Filming - The Signal'
p5
aS'HEB, Memorial Hermann, & ??? discussion on the Kingwood.com Forums ...'
p6
aS'HEB, Memorial Hermann, & ??? discussion on the ...'
p7
aS'Blodgett puts Ragan in the crosshairs, floats idea to oust her ...'
p8
aS"A Day's Worth Of Calories In One Meal - Financial Buzz"
p9
aS'China Star Wars - Arizona Daily Star'
p10
a.