(lp0
S'El Pollo Loco planning to fill former KFC space in Folsom ...'
p1
aS'El Pollo Loco planning to fill former KFC space in Folsom ...'
p2
aS'Putting the finishing touches on Pollo Tropical in Kingwood'
p3
aS'Starbucks Makes Smoothie Move For More Food Sales ...'
p4
aS'Making Money With Charles Payne: 03/30/15 | Fox Business'
p5
aS'Stories for March 2015 | Orange County Business Journal'
p6
aS"Applebee's shooting witnesses not cooperating, police say ..."
p7
aS"Billings' 19 most-requested restaurants | Food & Cooking ..."
p8
aS"What's in store for Echo Park's bar-cade? | The Eastsider LA"
p9
aS'In Search Of The Next Chipotle - Chipotle Mexican Grill, Inc ...'
p10
a.