(lp0
S'El Pollo Loco continues Utah expansion - The Orange ...'
p1
aS'El Pollo Loco Continues Franchise Expansion in Utah ...'
p2
aS'El Pollo Loco Continues Franchise Expansion in Utah ...'
p3
aS'El Pollo Loco customer service phone numbers and support'
p4
aS"Can Boston Market's comfort food mount a comeback in the ..."
p5
aS'Investors love restaurant stocks - CNBC.com'
p6
aS'Wingstop shares soar after market debut | The Salt Lake ...'
p7
aS'Chicken chains are hotter than a spicy wing | FOX31 Denver'
p8
aS'Wingstop Takes Flight After IPO, But Skies Ahead Are ... - U.S.'
p9
aS'WKS Restaurant Corporation: Private Company Information ...'
p10
a.