(lp0
S'El Pollo Loco Fires Up Arizona With New Tempe Restaurant ...'
p1
aS'El Pollo Loco Mexican Restaurant And Grill - Restaurants ...'
p2
aS'Construction to start soon on south Sacramento shopping ...'
p3
aS'El Pollo Loco - Ciudad Sucre, Chuquisaca, Bolivia - Chicken ...'
p4
aS'Food - ASI'
p5
aS'#locoforzero hashtag on Twitter'
p6
aS"Must-see videos - Nation's Restaurant News"
p7
aS'Greenville Health System GHS Board of Trustees ...'
p8
aS'Dr. Sally Tor, DMD, MPH, MS - Arizona Daily Star'
p9
aS'El Burrito Loco - 153 Photos - Mexican - Renton, WA ...'
p10
a.