(lp0
S"What's in Store for El Pollo Loco (LOCO) in Q2 Earnings ..."
p1
aS'Dow snaps 7-day losing streak; oil recovery boosts energy 3%'
p2
aS'The Single Worst Practice of Fast Casual Restaurants -- The ...'
p3
aS'Dow snaps 7-day losing streak; oil recovery boosts energy 3 ...'
p4
aS'UPDATE: Berkshire Hathaway buying ADI parent company ...'
p5
aS"ONE Group COO John Inserra to step down - Nation's ..."
p6
aS'No rate hike until Fed sees inflation returning to normal ...'
p7
aS'[PDF]\nWeekly Update August 10, 2015 - 4th Generation Financial'
p8
aS'What is your favorite Keto-friendly chain-restaurant meals ...'
p9
aS'El Pollo Loco in La Mesa, California with Reviews & Ratings ...'
p10
a.