(lp0
S'El Pollo Loco Introduces New Baja Shrimp (NASDAQ:LOCO)'
p1
aS'El Pollo Loco introduces Baja Shrimp to menu ...'
p2
aS'El Pollo Loco Introduces New Baja Shrimp - SeafoodNews'
p3
aS'El Pollo Loco Introduces New Baja Shrimp Nasdaq:LOCO'
p4
aS'16. ARIZONA / El Pollo Loco Regionally speaking, Arizona ...'
p5
aS'Andrea Tetrick Archives - Sierra Wave: Eastern Sierra News'
p6
aS'19 Salads Worse Than a Whopper | Eat This Not That'
p7
aS'Sizzling Shake Shack IPO Put These ETFs in Focus ...'
p8
aS'Chipotle Is an Expensive Burrito -- Ahead of the Tape - WSJ'
p9
aS"Struggling McDonald's Needs to Give Customers More Than ..."
p10
a.