(lp0
S"Can El Pollo Loco Keep It Up After Last Week's 19% Pop ..."
p1
aS'Why El Pollo Loco Holdings, Inc. Stock Fell 17% in September'
p2
aS'Dipping Into the Special Sauce: 8 Foodservice Trends ...'
p3
aS'Mammoth meets federal air standard - Sierra Wave: Eastern ...'
p4
aS'Restaurants stocks decline after tough third quarter | On the ...'
p5
aS'El Pollo Loco | Restaurant Menu Prices & Coupons'
p6
aS'Covered Call Alerts For FireEye, Southwestern Energy ...'
p7
aS'Annual enrollment for Medicare opens this week'
p8
aS'Your cash is no good at the Runaway Plate - Houston ...'
p9
aS"Clemson University Apologizes for 'Maximum Mexican ..."
p10
a.