(lp0
S"Breaking Bad's Los Pollos Hermanos Restaurant Could ..."
p1
aS'Popeyes Louisiana Kitchen Inc: NASDAQ:PLKI quotes ...'
p2
aS'Chipotle Mexican Grill, Inc.: NYSE:CMG quotes & news ...'
p3
aS"Breaking Bad's Los Pollos Hermanos Could Soon Be a Real ..."
p4
aS'THE DISH: A revival of fine dining at Sundale - The ...'
p5
aS"Chicken N' Prices: Why Investors Should Invest In Bojangles ..."
p6
aS'Vince Gilligan says Los Pollos Hermanos could become a ...'
p7
aS'Chipotle Stock and the GMO War - Wyatt Investment Research'
p8
aS'Commerzbank may resume dividend for 2015 - MarketWatch'
p9
aS"Matt Cedeo Cast In 'Z Nation' On Syfy | Deadline"
p10
a.