(lp0
S'LOCO - Stock Quote and Charts for El Pollo Loco Holdings'
p1
aS'Dollar drops after Fed lowers year-end rate forecasts ...'
p2
aS"Alibaba's stock bounces around on heavy volume as lockup ..."
p3
aS'February Sales Slide, Turnover Is Up and Sysco Postpones ...'
p4
aS'EAT. SCAN. PLAY. | RestaurantNews.com'
p5
aS'Buffalo Wild Wings created a new job so you can watch the ...'
p6
aS'Photos & Video of the new ShowBiz SDX theater in Kingwood'
p7
aS"Starbucks to test delivery in Seattle, New York - Nation's ..."
p8
aS'Three teams who will run on you  Notre Dame'
p9
aS'Erlinda Velasco | Facebook'
p10
a.