(lp0
S'Another Chance for Chipotle - WSJ'
p1
aS'[PDF]\nHot News and Trends Report in Foodservice and Retail'
p2
aS'Precinct 4 hosts annual Superintendents Breakfast - Your ...'
p3
aS'Critical Alerts For Ambarella, Kinder Morgan, ABIOMED ...'
p4
aS'Subway chief marketing officer Tony Pace to step down'
p5
aS'Did you hear about the Mexican train robber? : Jokes - Reddit'
p6
aS'Brownsville hotel to be replaced by retail plaza - Brownsville ...'
p7
aS'Papa John\'s Introduces "Lighter Choice" Pizzas | Brand Eating'
p8
aS'Is el pollo loco healthy? | Yahoo Answers'
p9
aS'Can Starbucks (SBUX) Beat Earnings Estimates in Q3 ...'
p10
a.