(lp0
S'El Pollo Loco Heats Up Houston With New Restaurant ...'
p1
aS'El Pollo Loco Heats Up Houston With New Restaurant ...'
p2
aS'El Pollo Loco - Aguascalientes City - Fast Food Restaurant ...'
p3
aS'Help NIH, IMACA help those in need - Sierra Wave: Eastern ...'
p4
aS'Minimum wage rally at San Jose McDonalds (Slideshow ...'
p5
aS'Crash closes Ajo Way at Mission Road - Arizona Daily Star'
p6
aS'Police Identify Gunman, Victim in San Jose Hostage Case ...'
p7
aS'Local Chiropractor expands and rebrands as New Leaf ...'
p8
aS'Dow closes 179 points lower as IBM weighs; Fed eyed'
p9
aS'Dow closes 179 points lower as IBM weighs; Fed eyed ...'
p10
a.