(lp0
S'El Pollo Loco Offers New Entrees Featuring Both Fire-Grilled ...'
p1
aS'Review: El Pollo Loco - Power Bowl | Brand Eating'
p2
aS'US chicken fast food chain adds more seafood -First in ...'
p3
aS'The QSR 50 Chicken Segment - QSR magazine'
p4
aS'US chicken chain expands seafood menu | Seafood ...'
p5
aS'UPDATED: Wrong-way driver on U.S. Highway 59 causes ...'
p6
aS'Tijuana Flats gains private equity partner - Orlando Sentinel'
p7
aS'Chefs bring glamour back to dessert'
p8
aS'100 Favorite Dishes 2015: Whole Chicken from El Pollo ...'
p9
aS'El Pollo Loco Assistant Manager Job Listing in San Jose ...'
p10
a.