(lp0
S'El Pollo Loco Introduces New Baja Shrimp ...'
p1
aS"Pollo Norte sells out: Can Portland's Mexico City-style ..."
p2
aS'Top 12 Human Resources Manager profiles at El Pollo Loco ...'
p3
aS'El Pollo Loco Garland, TX, 75042 - YP.com'
p4
aS'Latham Flaunts IPO Strength With Shake Shack Debut ...'
p5
aS'Texas is the top dog of American fast food - San Antonio ...'
p6
aS"Hula Mama's Hawaiian Dinner Show Now Open in Humble ..."
p7
aS'So My Girl and I Go to El Pollo Loco.. | Sherdog Forums | UFC, MMA ...'
p8
aS'Photo Gallery: Menu Tracker: New items from Tim Hortons ...'
p9
aS'Progressive Real Estate Partners | Paul Galmarini ...'
p10
a.