(lp0
S'It Will Soon Be Easy to Own a Piece of Bojangles ...'
p1
aS'Dining News: Old Soul to Add R Street Location - Cowtown ...'
p2
aS'El Pollo Loco in Silver Spring, Maryland with Reviews ...'
p3
aS"You're invited to The Groves Grand Opening April 18-19, 2015"
p4
aS'Woman killed in 2-vehicle crash in Catalina'
p5
aS'2015 Retail Compass Survey of CFOs - BDO'
p6
aS"Things you didn't know about Beale Street - Thrillist"
p7
aS'Why the **** do fast food workers get attitude when u ask for ...'
p8
aS'American Securities - Wikipedia, the free encyclopedia'
p9
aS'Pollo Asado Mr. Jimmy | Auburn Journal'
p10
a.