(lp0
S'El Pollo Loco Opens Restaurant in Bakersfield, CA Nasdaq ...'
p1
aS'LOCO Stock Quote and Analysis of EL POLLO LOCO'
p2
aS'50 Pounds of Marijuana Shipped to Wrong New Jersey ...'
p3
aS'The Dish: La Foret joins the wine club - Bakersfield.com'
p4
aS"Kingwood Dance Theatre brings 'The Nutcracker' to life ..."
p5
aS'Kickoff deer season event - The Inaugural Lake Houston ...'
p6
aS"McDonald's same-store sales turn positive in 3Q"
p7
aS'TGI Fridays Launches New $10 Spiked Plates | Brand Eating'
p8
aS'The Buzz is Strong in Advance of Monday for $TBEV ...'
p9
aS'Ocean Ranch Village - Shea Properties'
p10
a.