(lp0
S'El Pollo Loco Taps Mexican Food Demand with New Tostadas'
p1
aS"El Pollo Loco's Weak Traffic Looks Like A Daunting Obstacle ..."
p2
aS'El Pollo Loco Announces Flavorful Twist on Flagship Tostadas'
p3
aS"Menu Tracker: New items from Auntie Anne's, El Pollo Loco ..."
p4
aS'Restaurant scores for week of Sept. 7 - KSAT.com'
p5
aS'Inyo Supervisors approve budget - Sierra Wave: Eastern ...'
p6
aS'El Pollo Loco in Longmont, Colorado with Reviews ...'
p7
aS'Critical Alerts For PayPal Holdings Inc., Nantkwest Inc ...'
p8
aS'Oil ends under $45 as EIA cuts price forecasts - MarketWatch'
p9
aS'Pretzel Crusted Pollo Queso - YouTube'
p10
a.