(lp0
S'3 men accused of stealing from 31 El Pollo Loco locations in ...'
p1
aS'El Pollo Loco Grows California Presence With New ...'
p2
aS'El Pollo Loco Grows California Presence With New ...'
p3
aS'El Pollo Loco Burglary Spree, Covering 5 Counties, Ends in...'
p4
aS'El Pollo Loco Q3 Earnings Preview (NASDAQ: LOCO) - 24/7 ...'
p5
aS'El Pollo LoCo Holdings Q3 Earnings Report: Tasty Again ...'
p6
aS'Moving out of New Mexico may be pricier than moving in ...'
p7
aS'Restaurant scores for week of Nov. 9 - KSAT.com'
p8
aS"Stocks close lower; Macy's posts worst day since 2008"
p9
aS"Bud, Miller will be separate in U.S.; Macy's sales fall short of ..."
p10
a.