(lp0
S'El Pollo Loco Maps North Texas | Orange County Business ...'
p1
aS'all locations | elpolloloco.com'
p2
aS'Restaurants/hotels | | Dallas Morning News | Page 3'
p3
aS'2015 | | Dallas Morning News | Page 32'
p4
aS'Covered Call Alerts For Rite Aid, Chevron, Chesapeake ...'
p5
aS"Goody's Family Restaurant Burglar Sentenced to Three Years"
p6
aS'First anchor tenant breaks ground in Valley Ranch Town ...'
p7
aS'I investing my life savings into one stock. : investing - Reddit'
p8
aS"Red Robin sees traction on brand transformation - Nation's ..."
p9
aS'Why Chipotle is not the healthiest - Crafty Pioneer'
p10
a.