(lp0
S'Can Fast-Casual Overcome Chipotle Woes, Slow Growth ...'
p1
aS'Can Fast-Casual Overcome Chipotle Woes, Slowing Growth ...'
p2
aS"Chicago's toasted sandwich sensation, Potbelly, coming to ..."
p3
aS'Covered Call Alerts For Twitter, Nike, Dow Chemical, Wynn ...'
p4
aS'Burger King Introduces New Chicken Burger | Brand Eating'
p5
aS'Sonic Adds New Sriracha Seasoned Popcorn Chicken ...'
p6
aS'orange bang - yay or nay? | Cerritos | Yelp'
p7
aS'OneTen REI (@OneTenREI) | Twitter'
p8
aS'NAI Northern California - Chris Lomuto'
p9
aS'Freshmart-Caguas - Caguas, Puerto Rico - Shopping ...'
p10
a.