(lp0
S'Is El Pollo Loco The Next Chipotle? - Seeking Alpha'
p1
aS'store location | elpolloloco.com'
p2
aS"Charlotte-based Bojangles' planning to go public - | The ..."
p3
aS"Bojangles files for an IPO - Nation's Restaurant News"
p4
aS"Bring on the biscuits: Bojangles' files for a $100 million IPO ..."
p5
aS'Orange County | Semifinalists - EY - United States'
p6
aS'El pollo loco : keto - Reddit'
p7
aS'Bojangles IPO is the latest from the flaming-hot fast-food ...'
p8
aS'Fight outside Old Folsom pub leads to shooting, arrest ...'
p9
aS'Business Productions Portfolio | Encore Video Services ...'
p10
a.