(lp0
S'Construction to start soon on south Sacramento shopping ...'
p1
aS'El Pollo Loco - Ciudad Sucre, Chuquisaca, Bolivia - Chicken ...'
p2
aS'Food - ASI'
p3
aS'El Pollo Loco Cashier Job Listing in Temecula, CA ...'
p4
aS'El Pollo Loco Cook/Prep Job Listing in Bakersfield, CA ...'
p5
aS'#locoforzero hashtag on Twitter'
p6
aS"Brad Pitt: 15 Things You Didn't Know (Part 1) - PPcorn"
p7
aS"Must-see videos - Nation's Restaurant News"
p8
aS"15 Celebs' Surprising Jobs Before They Were ... - Shape"
p9
aS"Kingsford Capital's Holiday Card For 2015 - ValueWalk"
p10
a.