(lp0
S'El Pollo Loco plans to open Lodi location - Lodinews.com ...'
p1
aS'El Pollo Loco Keeps the Fire Going in Houston With New ...'
p2
aS'El Pollo Loco Keeps the Fire Going in Houston With New ...'
p3
aS'Lodi News-Sentinel on Twitter: "El Pollo Loco plans to open ...'
p4
aS'Doughnuts are in again: Krispy Kreme returns, local shops ...'
p5
aS'What your smartphone says about your waistline - CNBC.com'
p6
aS"Sheetz | Nation's Restaurant News"
p7
aS"Popeyes Louisiana Kitchen | Nation's Restaurant News"
p8
aS"Wingstop | Nation's Restaurant News"
p9
aS"Applebee's | Nation's Restaurant News"
p10
a.