(lp0
S'El Pollo Loco Introduces New Pollo Bowls Nasdaq:LOCO'
p1
aS'Comps Come Into Focus For Del Taco Post-Merger - Del ...'
p2
aS'El Rinconsito in Newport News, Virginia with Reviews ...'
p3
aS'New Oreo Thins Meant to Be "More Sophisticated" Cookies ...'
p4
aS'WsnewsPublishers  Active Trending Stocks: Facebook ...'
p5
aS'Chicken Salad Chick Commercial - YouTube'
p6
aS'Menu - Patron Grill'
p7
aS'Hit The North Mississippi Taco Trail | HottyToddy.com'
p8
aS'Bakery Chain Restaurant Recipes: July 2015'
p9
aS"Jimmy John's - Wikipedia, the free encyclopedia"
p10
a.