(lp0
S'Investors Suddenly Not So Crazy About El Pollo Loco - U.S.'
p1
aS'El Pollo Loco (LOCO) Stock Tanking After Earnings Results ...'
p2
aS'El Pollo Loco (LOCO) Stock Falls in After-Hours Trading on ...'
p3
aS'After-hours buzz: Nordstrom, El Pollo Loco, AMAT & more'
p4
aS'Why El Pollo Loco Holdings Inc Fell 20% Friday Morning ...'
p5
aS'El Pollo Loco share tumble 12% as revenue, same-store ...'
p6
aS'El Pollo Loco is crashing - Yahoo Finance'
p7
aS'El Pollo Loco shares plunge after earnings miss expectations'
p8
aS'El Pollo Loco stock price falls after mixed second quarter'
p9
aS'UPDATE 2-El Pollo Loco sales miss estimates, shares ...'
p10
a.