(lp0
S'Dirty Dining Oct. 15, 2015: Worst offenders have 5 major ...'
p1
aS"Survey: McDonald's franchisees mixed on all-day breakfast"
p2
aS"Chino Hills tackles 'first world problems': Airbnb, foreign ..."
p3
aS"Mary Han's death certificate may change | New Mexico ..."
p4
aS'Old-time diner closer to opening in Santa Clarita - The Signal'
p5
aS'El Pollo Loco Pollo Bowl - Nutrition Facts'
p6
aS'El Pollo Loco Vanilla Soft Serve Ice Cream - Nutrition Facts'
p7
aS'El Pollo Loco Chicken Nuggets - Nutrition Facts'
p8
aS'El Pollo Loco Al Carbon Taco - Nutrition Facts'
p9
aS'El Pollo Loco Spring, TX, 77379 - YP.com'
p10
a.