(lp0
S'New Stocks on Most Attractive and Most Dangerous Lists ...'
p1
aS'Inyo Counsel Marge Kemp-Williams to retire - Sierra Wave ...'
p2
aS'Retail district will be located in Porter - Houston Chronicle'
p3
aS'NEWS LINKS | KABB'
p4
aS'Del Taco Restaurant Properties I: OTCMKTS:XXNCB quotes ...'
p5
aS'CalFresh Restaurant Meals Program'
p6
aS'[PDF]\nSeptember 15, 2015 Edition - American Recruiters'
p7
aS'free coke zero with next purchase at pollo loco - Slickdeals.net'
p8
aS'Heavy rain runoff erodes foundation of San Gabriel home ...'
p9
aS'Los Angeles County hit with record-breaking rainfall | abc7 ...'
p10
a.