(lp0
S'El Pollo Loco Holdings, Inc. Appoints Mark Buller to Its ...'
p1
aS'El Pollo Loco Holdings, Inc. Appoints Mark Buller to Its ...'
p2
aS'Battle Of The Mexican Chains: Del Taco Or El Pollo Loco ...'
p3
aS"Thrillist Wants Eegee's to Expand NationwideSorry, Rest ..."
p4
aS'Correlation is Bad News for US Equity Investors | Alan ...'
p5
aS'Del Taco Restaurants, Inc. - Corporate Governance - Board ...'
p6
aS'Stories for June 2015 | Orange County Business Journal'
p7
aS'Swirls Frozen Treats opens July 1, 2015 in Atascocita'
p8
aS'Trial set in deadly Sierra Vista shooting - Arizona Daily Star'
p9
aS'NRN Top 100 Restaurant Chains - KATZ Americas'
p10
a.