(lp0
S"Pollo Norte sells out: Can Portland's Mexico City-style ..."
p1
aS'Wienerschnitzel Hires Doug Koegeboehn as CMO ...'
p2
aS'Black Rock Hatchery remains open - Sierra Wave: Eastern ...'
p3
aS'Sweet On El Pollo Loco - Beauty Through Imperfection'
p4
aS'So My Girl and I Go to El Pollo Loco.. | Sherdog Forums | UFC, MMA ...'
p5
aS'Progressive Real Estate Partners | Paul Galmarini ...'
p6
aS'El Pollo Loco Gravy - Nutrition Facts'
p7
aS'Photo Gallery: Menu Tracker: New items from Tim Hortons ...'
p8
aS"Oak Hill Cuts Stake In Dave & Buster's After $195M Offering ..."
p9
aS'Glitz, Glimmer, and Southern Charm at Dirt Road Divas'
p10
a.