(lp0
S'El Pollo Loco a Takeover Target? | Orange County Business ...'
p1
aS"Report - Nation's Restaurant News"
p2
aS"Want to buy a public restaurant company? It'll cost you ..."
p3
aS"Just in Time For Gaudy Billboards and Gil Moore's Beer ..."
p4
aS'Kreole Soul, family owned creole food truck Park Lakes ...'
p5
aS'You can see Planters Nutmobile here - Arizona Daily Star'
p6
aS'What to Watch in the Week Ahead and on Monday, Jan. 26 ...'
p7
aS'West Seattle Blog | West Seattle restaurants: Mioposto ...'
p8
aS'Can Groupon Finally Reward Investors in 2015 ...'
p9
aS"Trader Joe's Director Of Construction - LinkedIn"
p10
a.