(lp0
S"Climate Change and the El Pollo Locos - Pulpdiddy's Place"
p1
aS'Restaurants in Kingwood, Texas - HKA TEXAS'
p2
aS'Luling Smoke House BBQ - Kingwood, TX - HKA TEXAS'
p3
aS'BreWingZ - Humble, Kingwood, Atascocita, Texas'
p4
aS'Bear of the Day: Panera Bread (PNRA) - February 20, 2015 ...'
p5
aS'Chicken Chain Restaurant Recipes: Chicken Corn Chowder'
p6
aS"Denny's to expand fast-casual concept - Nation's Restaurant ..."
p7
aS'Is The 9-0 On Way Out? | Inside USC with Scott Wolf'
p8
aS'Tucson Lease Report - Real Estate Daily News'
p9
aS"Church's debuts new shrimp meal in time for Lent -First in ..."
p10
a.