(lp0
S'Critical Alerts For Disney, El Pollo Loco, PayPal Holdings ...'
p1
aS'El Pollo Loco: Valuation More Reasonable, Still Not ...'
p2
aS"Pro's Advice to 'Buy What You Know' Doesn't Always Work ..."
p3
aS'El Pollo Loco Prep Cook Salaries | CareerBliss'
p4
aS'San Francisco moves to cancel sanctuary policy ...'
p5
aS'California restaurant mogul buys Super 8 motel in Longmont ...'
p6
aS'Nandi notebook: An elephant-size temper tantrum'
p7
aS'AirTalk | Calling Don Draper, new study says that sex and ...'
p8
aS"Heavy Seas Releases Fielder's Choice | Brewbound.com"
p9
aS'Free El Pollo Loco Application Online | Jobler.com- Hourly ...'
p10
a.