(lp0
S'El Pollo Loco opening third Hidalgo County location - The ...'
p1
aS'Newton News - Los Angeles Police Department'
p2
aS'Sobriety checkpoint in Inyo County this Saturday - Sierra Wave'
p3
aS'WCT News - Women Can Too - YouTube'
p4
aS'Fast Casual Buzz Drives A Big Week For Restaurants ...'
p5
aS'Critical Alerts For Skyworks Solutions, St. Jude Medical ...'
p6
aS'Fourth Annual Long Beach Poetry Slam to Electrify MADE ...'
p7
aS'Food Restaurant Jobs in San Ysidro, CA Now Hiring ...'
p8
aS"Starbucks to add 500 'Reserve Bars' - Nation's Restaurant ..."
p9
aS'Devon Energy lays off employees in one department - Tulsa ...'
p10
a.