(lp0
S"Ask Matt: Is El Pollo Loco heating up? | America's Markets"
p1
aS'El Pollo Loco Franchisees Fuel the Fire with Four Grand ...'
p2
aS'El Pollo Loco Stock Looks Tasty After Selloff | InvestorPlace'
p3
aS'Is This The Right Time To Buy El Pollo LoCo (LOCO) Stock?'
p4
aS'New El Pollo Loco celebrates Stockton opening - News ...'
p5
aS'El Pollo Loco Franchisees Fuel the Fire with Four Grand ...'
p6
aS'El Pollo LoCo Stock Rises Jumps Analyst Upgrade'
p7
aS'Menu Tracker: New items from White Castle, Starbucks, El ...'
p8
aS'3 Restaurant Stocks Serving Mouthwatering Growth -- The ...'
p9
aS'Sonic Flies As 5 Restaurant Stocks Make Noise | Stock ...'
p10
a.