(lp0
S'1 Injured After Truck Crashes Into El Pollo Loco in Sunland ...'
p1
aS'El Pollo Loco Introduces New Pollo Bowls | RestaurantNews ...'
p2
aS'Photo: multi-vehicle crash sends pickup truck into el pollo ...'
p3
aS'Fast-food chain signs long lease  Inland Empire Business ...'
p4
aS'Critical Alerts For CyberArk Software, Build-A-Bear ...'
p5
aS'Vegetarian AND Fast Food? Believe It - News Tips & Advice ...'
p6
aS'Compton Man Charged with Attempted Pimping of ...'
p7
aS'Alleged pimp arrested in Long Beach sting'
p8
aS'Restaurants and Bars Archives - Page 2 of 77 - Houston On ...'
p9
aS'Two arrested after alleged robbery, assault on greeter at ...'
p10
a.