(lp0
S'Robbins Geller Rudman & Dowd LLP Files Class Action Suit ...'
p1
aS'[PDF]\nDaniel Turocy, et al. v. El Pollo Loco Holdings, Inc., et al. 15 ...'
p2
aS'[PDF]\nComplaint - Robbins Geller Rudman & Dowd LLP'
p3
aS'(WING): Brace for Indigestion? BOJA, PLKI & LOCO'
p4
aS'Stretching the employee dress code | Restaurant Business'
p5
aS'Healthy Dining | California State University, Los Angeles'
p6
aS'Under Armour Launches "Rule Yourself" Campaign ...'
p7
aS"3 Stocks You Can't Own During a Bear Market - The Daily ..."
p8
aS"Wetzel's Pretzels Introduces New Pizza Bitz | Brand Eating"
p9
aS'YIKES! New poll shows which candidate Hispanics HATE ...'
p10
a.