(lp0
S'Capital Real Estate Ventures | El Pollo Loco Sold in ...'
p1
aS'3 Up-and-Coming Restaurant Stocks to Watch -- The Motley ...'
p2
aS'Grand Parkway segments nearing completion - Your ...'
p3
aS'Kids N More Consignment and Resale now open in ...'
p4
aS'130 - Restaurant News Release'
p5
aS"Ross Stores' (ROST) Board Approves 2-for-1 Stock Split ..."
p6
aS'[PDF]\nMarch & April - CFESA'
p7
aS'Photo Gallery: Menu Tracker: New items from Sweetgreen ...'
p8
aS'Rancho bernardo news journal 03 26 15 by MainStreet ...'
p9
aS'A true racist would have called the victim Whitey, and a cop ...'
p10
a.