(lp0
S'Shake Shack IPO filing comes amid a hunger for premium ...'
p1
aS'New year, new opportunities - Golden State Newspapers ...'
p2
aS'Shake Shack will make Wall Street rich and the rest of us fat ...'
p3
aS'Top 25 Director Of Operations profiles at El Pollo Loco ...'
p4
aS"Wendy's restaurant files lawsuit to terminate one of its ..."
p5
aS'The mystery of Marsha Mehran: The best-selling young ...'
p6
aS'What to Watch on Wall Street for Friday, January 2nd 2015 ...'
p7
aS'Bill of Fare: Year in review - Toledo Blade'
p8
aS'AVOCADO SALAD - 5 UNDER 500 CALORIES - El Pollo ...'
p9
aS'Review: Popeyes - Blackened Tenders | Brand Eating'
p10
a.