(lp0
S'New Hand-Carved Chicken Salads at El Pollo Loco with 50 ...'
p1
aS"Zoe's Kitchen Serves Up Big Q1 Earnings Beat | Stock News ..."
p2
aS"Sizzling ... or fizzling? How Bojangles' is faring among ..."
p3
aS'The downside of strong restaurant IPO valuations ...'
p4
aS'Country Syl Ckng Restaurant Chain Co Ltd: NYSE:CCSC ...'
p5
aS'Wingstop Inc: NASDAQ:WING quotes & news - Google ...'
p6
aS'VeriFone swings to profit as revenue grows - MarketWatch'
p7
aS"Canada's Freshii plans tie-up with U.S. retailer in 60 days ..."
p8
aS'11 popular restaurant chains not in Alabama'
p9
aS'EL POLLO LOCO UNVEILS NEW LINE OF CRAVE ...'
p10
a.