(lp0
S"'Mad Money' Lightning Round: Forget El Pollo Loco (LOCO ..."
p1
aS'El Pollo Loco (LOCO) Stock | A Slippery Slope? - Warrior ...'
p2
aS'Stabbing in Big Pine; subjects sought - Sierra Wave: Eastern ...'
p3
aS'Verso to layoff nearly 40% of its employees as it slashes ...'
p4
aS'Hampton Inn under construction in Atascocita - HKA TEXAS'
p5
aS'Pollo Campero Offers Discount in Honor of National Family ...'
p6
aS'Retail Wrap: Chicken chains, dental services and more ...'
p7
aS"Why you're smarter than a chicken | KurzweilAI"
p8
aS'John Deere says farming is still in trouble - Yahoo Finance'
p9
aS'The Objectively Correct List of the Greatest and Worstest ...'
p10
a.