(lp0
S'Five things you need to know as El Pollo Loco heads to Dallas'
p1
aS'With Limited Growth Prospects, El Pollo Loco Could Be ...'
p2
aS"Melody's Mexican Kitchen brimming with taste delights in ..."
p3
aS'Jackmont Hospitality and JIB Management Purchase Florida ...'
p4
aS"Shake Shack's (SHAK) Six Day Bull Run Ends: Stock Falls 6 ..."
p5
aS'Update on Lake Conroe Water Releases - HKA TEXAS'
p6
aS'year | News One'
p7
aS'restaurant 6 el pollo loco food | Only In Your State'
p8
aS'The Melody Yang of Wall Street | SilverSeek.com'
p9
aS"David's Tea Set To Draw $77M In US IPO - Law360"
p10
a.