(lp0
S'El Pollo Loco Holdings, Inc. Competitors - NASDAQ.com'
p1
aS'Tractor on gas line leads to partial closure of Henderson street'
p2
aS'Brand Eating: July 2015'
p3
aS'[PDF]\nMenifee Matters'
p4
aS'Backhoe driven into ditch, onto gas main in Henderson ...'
p5
aS'Benefit to help children of deceased father in Porter - Your ...'
p6
aS"TGI Fridays | Nation's Restaurant News"
p7
aS'Anthony Cannizzo (@Apa424) | Twitter'
p8
aS'2015 Entrepreneur Of The Year  Orange County'
p9
aS"What It's Really Like To Give Up Caffeine For A Week | Gurl ..."
p10
a.