(lp0
S'Commercial projects break ground on Gasser Foundation ...'
p1
aS'Burger chain Shake Shack expected to be valued at up to ...'
p2
aS'Shake Shack seeks to raise as much as $80M in IPO | New ...'
p3
aS"That's a spicy meatball and a couple regular ones | San ..."
p4
aS'Burger chain Shake Shack expects IPO to be priced at $14 ...'
p5
aS"Street Uncertain About McDonald's Prospects This Year ..."
p6
aS'Shake Shack Seeks IPO Valuation of as Much as $568 Million'
p7
aS'UPDATE: Charges filed on five suspects in Humble ...'
p8
aS'Shake Shack Hopes Hungry Investors Will Snap Up $80M ...'
p9
aS'Shake Shack plans to raise up to $80M from IPO | Business ...'
p10
a.