(lp0
S'Man pleads not guilty in El Pollo Loco assault case | St ...'
p1
aS'Church sells property on E. Broadway; retail project planned ...'
p2
aS'New Charity Classic Sponsorship: El Pollo Loco | JJWatt ...'
p3
aS'How Chipotle is forcing sit-down chains like Olive Garden to ...'
p4
aS'Do you eat here? Our look at Phoenix-area restaurant ...'
p5
aS'Coffee - Humble, Kingwood, Atascocita, Texas'
p6
aS'The Egg and I Restaurant hatches on March 25th in Fall Creek'
p7
aS'Harold Wayne Butterbredt Archives - Sierra Wave: Eastern ...'
p8
aS'Wounded Warriors at Mammoth Mountain - Sierra Wave ...'
p9
aS"This Week's LA Deal Sheet - Deal Sheet - Bisnow"
p10
a.