(lp0
S"eatSCV Rumor: El Pollo Loco Saved, Joins TGI Friday's in ..."
p1
aS'El Pollo Loco Holdings, Inc. to Announce Fourth Quarter and ...'
p2
aS'Church Relocation for New Broadway Retail Redevelopment'
p3
aS'[PDF]\n5601 E Broadway Blvd Flyer. - Real Estate Daily News'
p4
aS'El Pollo Loco has shrimp! #ad  Hispanic Houston'
p5
aS'bar - Humble, Kingwood, Atascocita, Texas'
p6
aS"Children's Jam & Play opens in Fall Creek - HKA TEXAS"
p7
aS'Chief reports traffic stop race disparity - San Diego Union ...'
p8
aS'El Pollo Loco in Needles, California with Reviews & Ratings ...'
p9
aS'27. Skip The Observation Deck And Have A Drink In The ...'
p10
a.