(lp0
S'El Pollo Loco Announces Franchise Expansion in Utah ...'
p1
aS'El Pollo Loco Plans to Expand in Utah | Orange County ...'
p2
aS'Restaurant Scores For Week Of March 2 - KSAT.com'
p3
aS'New Study Finds Most Popular Chains in Four Categories ...'
p4
aS'Fast food eateries offer seafood items for Lent'
p5
aS'Survey: Retail Industry Ripe For M&A In 2015'
p6
aS'Do you eat here? Our look at Phoenix-area restaurant ...'
p7
aS"Good food at Freddy G's Cafe' - BBQ, Wings, Fish, Boudin ..."
p8
aS'TVtype: A reminder - Tulsa World'
p9
aS'Highland Park stabbing victim identified | The Eastsider LA'
p10
a.