(lp0
S'New Menu Items at El Pollo Loco - Mexican Chain ...'
p1
aS"El Pollo Loco's Vendor of the Year! | Stampede Meat, Inc."
p2
aS"Forget McDonald's Corp., Here Are 3 Better Stocks To Own ..."
p3
aS'El Pollo Loco - About - Google+'
p4
aS"Photo Gallery: Menu Tracker: New items from McDonald's ..."
p5
aS'Investor Hunger For Growth Fueling Restaurant IPO Craze ...'
p6
aS'Timeline of post by HKA Texas'
p7
aS'Taco Cabana celebrates Kingwood opening with ...'
p8
aS'The Saintilus Consulting Group | LinkedIn'
p9
aS"Mila Kunis -- That Ukrainian Chick's Pollo Loco ... - TMZ.com"
p10
a.