(lp0
S'El Pollo LoCo (LOCO) Stock Price Target Cut at Jefferies ...'
p1
aS'Zeldes Haeggquist & Eck, LLP Announces Investigation of ...'
p2
aS'Critical Alerts For Disney, Isis Pharmaceuticals, El Pollo ...'
p3
aS'Bravo: Local residents receive recognition'
p4
aS'KABC ABC 7 2015 Special Olympics World Games opening ...'
p5
aS"Lightning Round: It's a total house of pain - CNBC.com"
p6
aS'Restaurant and Bar Sales Increase, More Sysco News, A ...'
p7
aS'Restaurant Industry Outlook: Fast-Food vs. Fast-Casual ...'
p8
aS'Working at El Pollo Loco | Glassdoor'
p9
aS'Restaurant News 08-18-15'
p10
a.