(lp0
S"The Events That Led To Subway's Breaking Antibiotics ..."
p1
aS'Covered Call Alerts For Netflix, General Motors, Qualcomm ...'
p2
aS"Domino's launches delivery car with oven inside - Nation's ..."
p3
aS'Subway pledges to remove antibiotics from meat supply ...'
p4
aS'Foot-long? Judge OKs settlement over Subway sandwich ...'
p5
aS'Currently Filming - The Signal'
p6
aS'[PDF]\nBankcard Records - iePolitics'
p7
aS'El Chapo Reportedly Fell Off Cliff While Evading Police'
p8
aS'China Star Wars - Arizona Daily Star'
p9
aS'Que Pollo - General Escobedo, Nuevo Leon, Mexico ...'
p10
a.