(lp0
S'Del Taco Board Member Buys Chicago Hot Dog Stand ...'
p1
aS'El Pollo Loco - Google+'
p2
aS'State of Grace readies October opening - Houston Chronicle'
p3
aS'KG Bakery, Inc. - Facebook'
p4
aS'Mexican Cobb Salad at El Pollo Loco - Mexican Chain ...'
p5
aS'Boneless Wings Return to Sonic with Four New Flavors ...'
p6
aS"Taste Test: Dunkin' Donuts Cheese-Topped Donuts | Brand ..."
p7
aS'Monday Freebies - B1G1 Free Boneless Wings at Sonic!'
p8
aS'El Costeno Mexican Restaurant 800 S Havana St Aurora ...'
p9
aS'15 celebities with normal old jobs including Jennifer Aniston ...'
p10
a.