(lp0
S'El Pollo Loco Continues Houston Area Expansion With New ...'
p1
aS'El Pollo Loco Continues Houston Area Expansion With New ...'
p2
aS'El Pollo Loco opens Katy location - Prime Property'
p3
aS'Southern California post office burglar sentenced to prison ...'
p4
aS'Could this Philippines-based firm buy Krispy Kreme? - The ...'
p5
aS'IPO Outlook: Shake Shack IPO Set To Wrap Up Busy Week ...'
p6
aS'BellaVie Home Essentials in Forest Cove - HKA Texas'
p7
aS'Shake Shack Seeks to Expand New York State of Mind in IPO'
p8
aS'Shake Shack now expects IPO to be priced higher at $17 ...'
p9
aS'going to El Pollo Loco for lunch today - Bodybuilding.com Forums'
p10
a.