(lp0
S'El Pollo Loco Pollo Bowl - Nutrition Facts'
p1
aS'El Pollo Loco Chicken Nuggets - Nutrition Facts'
p2
aS'El Pollo Loco Chicken Tostada Salad - Nutrition Facts'
p3
aS'Old-time diner closer to opening in Santa Clarita - The Signal'
p4
aS'Covered Call Alerts For Fitbit, Priceline, Delta Airlines ...'
p5
aS'Smashburger Sells 40% Stake To Jollibee Foods | Fox ...'
p6
aS'[PDF]\noutlook - Restaurant Finance Monitor'
p7
aS'Introducing The Barn at Four Pines Ranch - HKA TEXAS'
p8
aS'MONDAY DINNER: EL REY DEL POLLO - Tulsa World'
p9
aS'Tucson weather: Two more days of heat - Arizona Daily Star'
p10
a.