(lp0
S'Is The Crazy Chicken (El Pollo Loco) Finally Ready To ...'
p1
aS'Kristin Bjornsen | Miami News, Food, Culture and Events ...'
p2
aS'El Pollo Loco - New Ultimate Double Chicken Entres now ...'
p3
aS'Covered Call Alerts For Freeport-McMoRan, Chevron ...'
p4
aS'Covered Call Alerts For Netflix, Bank of America, NXP ...'
p5
aS'Covered Call Alerts For Skyworks Solutions, SunEdison ...'
p6
aS'El Pollo Loco Jobs in Rosenberg, TX Now Hiring | Snagajob'
p7
aS'Dollar Tree (DLTR) Q3 Earnings Miss, Sales Beat; Guides Q4'
p8
aS"Chris Erskine: At Friendsgiving, no one judges if you can't ..."
p9
aS'Recently reviewed restaurants: 11-25 - Toledo Blade'
p10
a.