(lp0
S'El Pollo Loco to enter North Texas market next year with six ...'
p1
aS'October | 2015 | | Dallas Morning News'
p2
aS'El Pollo Loco Hatching Into A Healthy Investment ...'
p3
aS'DJ El POLLO LOCO - Facebook'
p4
aS'News | Valley Ranch'
p5
aS'Houston restaurant health inspection violations (Oct. 19-26 ...'
p6
aS'Representatives officially break ground for Kroger ...'
p7
aS'Chris Pummer - MarketWatch.com Topics'
p8
aS"SHERIFF'S BLOTTER | October 30, 2015 | www ..."
p9
aS"Photo Gallery: Menu Tracker: New items from Denny's ..."
p10
a.