(lp0
S"Favorite Restaurant Brands: In Sandwiches, Jason's Deli ..."
p1
aS'El Pollo Loco has shrimp! #ad  Hispanic Houston'
p2
aS'bar - Humble, Kingwood, Atascocita, Texas'
p3
aS"Children's Jam & Play opens in Fall Creek - HKA TEXAS"
p4
aS'El Pollo Loco for sale: Business For Sale in San Diego ...'
p5
aS'February | 2015 | JJWatt Foundation'
p6
aS'2015 Lenten Fish and Seafood Fastfood Round Up | Brand ...'
p7
aS'Church relocates into retail development - AZ Big Media'
p8
aS'What places are no longer there that you remember from ...'
p9
aS'White Castle brings back Shrimp Nibblers for Lent -First in ...'
p10
a.