(lp0
S'El Pollo Loco CEO: Low gas prices are giving consumers a ...'
p1
aS"El Pollo Loco Spreads Its 'Wings' - Bloomberg"
p2
aS"El Pollo Loco Demonstrates 'Theater of Chicken' in New ..."
p3
aS'El Pollo Loco - Fort Worth, Texas - Fast Food Restaurant ...'
p4
aS'Pieology Pizzeria Expands Leadership Team ...'
p5
aS'Sesame Street Live! Behind the Scenes - Private equity and ...'
p6
aS"Buffalo Wild Wings' Sally Smith and Arby's Paul Brown ..."
p7
aS'Mixed messages on fish plants - Sierra Wave: Eastern ...'
p8
aS"I Spent A Week Spending Only $20 Dollars, Here's What ..."
p9
aS"Conn's HomePlus in Humble gets ready to double in size"
p10
a.