(lp0
S'El Pollo Loco: Short That Crazy Chicken! | InvestorPlace'
p1
aS'Investors gobble up Shake Shack IPO, stock doubles in debut'
p2
aS'New El Pollo Loco Location...Katy, TX  Moms Confession'
p3
aS'Deli Delicious on its way to Merced - Merced Sun-Star'
p4
aS'Burger mania: Shake Shack stock up 135% | WTKR.com'
p5
aS'Make it a Double Shack. Shake Shack up 135%! - Jan. 30 ...'
p6
aS"How Shake Shack's IPO Stacks Up To Other Hot Restaurant ..."
p7
aS'Stories for January 2015 | Orange County Business Journal'
p8
aS'Openings & Closings: No More Nara | Houston Press'
p9
aS'Shake Shack shares more than double in stock market debut'
p10
a.