(lp0
S'Wind complicates fire fight at El Pollo Loco in Sunland'
p1
aS"Retail Wrap: Lovesac, Mama Fu's, El Pollo Loco openings ..."
p2
aS'El Pollo Loco - Momentum Continues To Fade As Valuation ...'
p3
aS'El Pollo Loco - Opening Soon in Dublin, CA! Now Hiring for ...'
p4
aS'Anyone know what they are building in the Target shopping ...'
p5
aS'Wind complicates fire fight at El Pollo Loco in Sunland ...'
p6
aS'Tucson police reopen NB lanes of Oracle at River'
p7
aS'Olive Garden Offers Two New Appetizers Created by a Child ...'
p8
aS'KFC Now Available for Delivery | Brand Eating'
p9
aS'Take Out Restaurants in Newport News, Virginia with ...'
p10
a.