(lp0
S'Will El Pollo Loco Starts To Grow ? - GuruFocus.com'
p1
aS'El Pollo Loco is NOW OPEN in Humble, Texas - HKA TEXAS'
p2
aS'Critical Alerts For Seadrill, Intrexon, bluebird bio Inc., El ...'
p3
aS"Oil-Price Drop Isn't Tonic for Sonic - WSJ"
p4
aS"Keith Kinsey leaves Noodles & Company to lead Portillo's ..."
p5
aS'Now open: Pollo Picante in Mesa specializes in mesquite ...'
p6
aS'Arrest made in fatal S. Tucson stabbing - Arizona Daily Star'
p7
aS'Raw Fast Food Menu Items Offer Fresh and Healthy ...'
p8
aS"Blaze Fast-Fire'd Pizza Has an Opening Date in North Las ..."
p9
aS'Top 12 Franchise Legal Assistant profiles | LinkedIn'
p10
a.