(lp0
S'El Pollo Loco Introduces New Baja Shrimp ...'
p1
aS'16. ARIZONA / El Pollo Loco Regionally speaking, Arizona ...'
p2
aS'Andrea Tetrick Archives - Sierra Wave: Eastern Sierra News'
p3
aS'El Pollo Loco Garland, TX, 75042 - YP.com'
p4
aS'Top 12 Human Resources Manager profiles at El Pollo Loco ...'
p5
aS'Latham Flaunts IPO Strength With Shake Shack Debut ...'
p6
aS"Hula Mama's Hawaiian Dinner Show Now Open in Humble ..."
p7
aS'Beautiful new courthouse reflects badly on us'
p8
aS'Enjoy wine, tapas on the trails - Houston Chronicle'
p9
aS'2015 Best List of Senior Discounts - The Senior List'
p10
a.