(lp0
S'El Pollo Loco Continues Home State Expansion With Two ...'
p1
aS'El Pollo Loco Continues Home State Expansion With Two ...'
p2
aS'26 OC Franchisers Make List | Orange County Business ...'
p3
aS'PrimusLabs Main Page'
p4
aS'Mother, son burned in fire - Arizona Daily Star'
p5
aS'El Pollo Perucho Restaurant Peruano - Facebook'
p6
aS'BITE  The Restaurant ETF'
p7
aS'Tidel Case Studies | See how Tidel products benefit real ...'
p8
aS'Syd Kearney, Reporter, Houston Chronicle - Houston ...'
p9
aS'Fire engulfs commercial building in Huntington Park | abc7 ...'
p10
a.