(lp0
S'El Pollo Loco plans restaurant for Northwest Side - S.A. ...'
p1
aS'Plethora Of Restaurants & Businesses Coming To Rayford ...'
p2
aS"Albuquerque woman's car stolen from Downs Casino valet lot"
p3
aS"DA's office to review blue-on-blue shooting | New Mexico ..."
p4
aS'You guys wanted more food... - Rayford Road Round Up ...'
p5
aS'Culpeper Fiesta - Facebook'
p6
aS'What happens when you stop accumulating cash and start ...'
p7
aS'Car-free Europe? Paris, Brussels, Stockholm try it for a day ...'
p8
aS"John Kasich: Don't Worry, I Leave Mexican Doctors A Little ..."
p9
aS"20 reasons why Croydon isn't terrible | Metro News"
p10
a.