(lp0
S'AMERI HOLDINGS INC COM USD0.01: OTCMKTS:AMRH ...'
p1
aS"Zoe's Kitchen Serves Up Big Q1 Earnings Beat | Stock News ..."
p2
aS'The downside of strong restaurant IPO valuations ...'
p3
aS'Capital Real Estate Ventures | Just Closed'
p4
aS'VeriFone swings to profit as revenue grows - MarketWatch'
p5
aS"What to look for in Friday's U.S. jobs report - MarketWatch"
p6
aS'11 popular restaurant chains not in Alabama'
p7
aS'Grim news for the class of 2015: Female college grads still ...'
p8
aS'Wingstop Inc: NASDAQ:WING quotes & news  Google ...'
p9
aS'Investor Listing | Cy-Fair Houston'
p10
a.