(lp0
S'Morgan & Morgan Announces That a Class Action Lawsuit ...'
p1
aS'TN Republican Sues El Pollo Loco To Change Name To ...'
p2
aS'TN Republican Sues El Pollo Loco To Change Name to ...'
p3
aS'Former APD officer stripped of law enforcement certification ...'
p4
aS'New Latin Cuisine Restaurant now open in Atascocita'
p5
aS"- Part 7 | Thomas Peep's Daily News"
p6
aS"Chicken & Biscuit Bites are Back at Church's | Brand Eating"
p7
aS'Smashburger Updates Kids Meals with "Better for You ...'
p8
aS"'A Walk in the Woods' - Arizona Daily Star"
p9
aS'Food Restaurant Jobs in Downey, CA Now Hiring | Snagajob'
p10
a.