(lp0
S'El Pollo Loco Brings the Heat to Wildomar With New ...'
p1
aS'El Pollo Loco Brings the Heat to Wildomar With New ...'
p2
aS"Generation Park's First Multi-Tenant office building ..."
p3
aS'City of Bishop: Snow and solar - Sierra Wave: Eastern Sierra ...'
p4
aS'El Pollo Loco Shift Supervisor Job Listing in San Diego, CA ...'
p5
aS'El Pollo Loco Cook/Prep Job Listing in Los Angeles, CA ...'
p6
aS'NewQuest Buys Its First Kmart Store in the Rio Grande Valley'
p7
aS'Los Cuatro Amigos of Dawsom - Dawson Springs, Kentucky ...'
p8
aS'2 to be sentenced in Tucson in killing of US border agent'
p9
aS"Coreanos Awarded 'Texas Local Favorite Award 2015 ..."
p10
a.