(lp0
S'Coming soon: Pizza in Logan Square, BBQ in the Loop and ...'
p1
aS'071315 Taco Bell Trains Top Execs - presentations'
p2
aS'[PDF]\nOCBJ July 13 Issue VCT Front Page - VetCell Therapeutics'
p3
aS'Jason Michael Hooks - Arizona Daily Star'
p4
aS'Crew Member Jobs in Yucca Valley, CA Now Hiring | Page ...'
p5
aS'Pulled Pork BBQ Sandwich Returns to Bojangles | Brand ...'
p6
aS'White Castle Introduces New Corn Dog Nibblers | Brand ...'
p7
aS'Commercial Retail Space Real Estate in Phoenix, Arizona ...'
p8
aS'Compraron un pollo y adentro encontraron... PUAJ!! - Tkm'
p9
aS'Costco Still a Dominant Player: What is Worrying Investors ...'
p10
a.