(lp0
S'El Pollo Loco Announces Franchise Expansion in Utah ...'
p1
aS'El Pollo Loco Plans to Expand in Utah | Orange County ...'
p2
aS'Restaurant Scores For Week Of March 2 - KSAT.com'
p3
aS'5 Family Favorites at El Pollo Loco  Moms Confession'
p4
aS"Market Force Study Reveals America's Favorite Quick ..."
p5
aS'Do you eat here? Our look at Phoenix-area restaurant ...'
p6
aS'TVtype: A reminder - Tulsa World'
p7
aS'Studio Movie Grill is coming to Pearland - Houston Chronicle'
p8
aS'Downtown breakfast, lunch spot Nook now open'
p9
aS'This week\'s "Behind the Kitchen Door"... - KSAT 12 & KSAT ...'
p10
a.