(lp0
S'Starbucks Makes Smoothie Move For More Food Sales ...'
p1
aS'News  EY Entrepreneur Of The Year 2015 award ...'
p2
aS'Stories for March 2015 | Orange County Business Journal'
p3
aS'REPRESENTATIVE CLIENTS - Kaiser, Swindells & Eiler'
p4
aS'[PDF]\nGlobal Foodservice News - American Recruiters'
p5
aS'The Breakfast place - Atascocita - HKA TEXAS'
p6
aS'Sylvia Garcia Orozco - Arizona Daily Star'
p7
aS'In Search Of The Next Chipotle - Chipotle Mexican Grill, Inc ...'
p8
aS'March | 2015 | darrentristano'
p9
aS'Photo Gallery: Menu Tracker: New items from Starbucks ...'
p10
a.