(lp0
S'Coming soon: Pizza in Logan Square, BBQ in the Loop and ...'
p1
aS'Why sporting goods retailers look a lot like trendy restaurants'
p2
aS'Maricopa County cites nearly 400 restaurants with health ...'
p3
aS'071315 Taco Bell Trains Top Execs - presentations'
p4
aS'Restaurant Reward Programs  Delish.com'
p5
aS'[PDF]\nOCBJ July 13 Issue VCT Front Page - VetCell Therapeutics'
p6
aS'Jason Michael Hooks - Arizona Daily Star'
p7
aS'Pulled Pork BBQ Sandwich Returns to Bojangles | Brand ...'
p8
aS'Food Restaurant Jobs in Stafford, TX Now Hiring | Snagajob'
p9
aS'Food Restaurant Jobs in Missouri City, TX Now Hiring ...'
p10
a.