(lp0
S'Boston Market gets into the game after time out - News ...'
p1
aS'Fosters Freeze International LLC acquired by investment ...'
p2
aS'Is your L.A. building overdue for a fire inspection? Search ...'
p3
aS'Wingstop shares advance following $110 million IPO | South ...'
p4
aS"Taco Bell Set to Release New Cap'n Crunch Donut Holes ..."
p5
aS'Review: Del Taco - Chicken Roller | Brand Eating'
p6
aS"McDonald's Offers Double Cheeseburger and Small Fries ..."
p7
aS'Sonic Offering Half-Priced Shakes All Day on June 18, 2015 ...'
p8
aS'Wingstop Who Take Ebt in Hesperia, California with ...'
p9
aS"Mila Kunis -- Chicken Lawsuit Dropped ... It's In God's Hands ..."
p10
a.