(lp0
S'Burger King is dethroned and other changes coming to San ...'
p1
aS"Pollo Tropical unit development taps 'purposeful ..."
p2
aS'Our Clients - - Regents Bank'
p3
aS'Shop The Colonies  Directory - Colonies Crossroads'
p4
aS'Sharp posts loss; to stop selling TVs in U.S. - MarketWatch'
p5
aS"DeRamos.org: It's a Blog.: July 2015"
p6
aS"McDonald's Asking Fans to Create Next Great Burger But ..."
p7
aS'Starbucks Branches Into Supermarket Yogurt Aisle | Brand ...'
p8
aS'Nadadores Dive Camp begins Aug. 7 - Mission Viejo Life Blog'
p9
aS'Dunkin Donuts - Facebook'
p10
a.