(lp0
S'El Pollo Loco opens newest location in Humble today - Your ...'
p1
aS'El Pollo Loco plans to open Lodi location - Lodinews.com ...'
p2
aS'El Pollo Loco Keeps the Fire Going in Houston With New ...'
p3
aS'More business comes to West Las Vegas | KSNV'
p4
aS"Amy's Drive Thru expects to open organic Rohnert Park ..."
p5
aS'Doughnuts are in again: Krispy Kreme returns, local shops ...'
p6
aS'What your smartphone says about your waistline - CNBC.com'
p7
aS"Krispy Kreme Doughnuts | Nation's Restaurant News"
p8
aS"LongHorn Steakhouse | Nation's Restaurant News"
p9
aS"Subway | Nation's Restaurant News"
p10
a.