(lp0
S"eatSCV Rumor: El Pollo Loco Saved, Joins TGI Friday's in ..."
p1
aS'El Pollo Loco Holdings, Inc. to Announce Fourth Quarter and ...'
p2
aS'Wounded Warriors at Mammoth Mountain - Sierra Wave ...'
p3
aS'Harold Wayne Butterbredt Archives - Sierra Wave: Eastern ...'
p4
aS'Church Relocation for New Broadway Retail Redevelopment'
p5
aS'[PDF]\n5601 E Broadway Blvd Flyer. - Real Estate Daily News'
p6
aS'The Egg and I Restaurant hatches on March 25th in Fall Creek'
p7
aS'breakfast - Humble, Kingwood, Atascocita, Texas'
p8
aS'Peruvian chicken fans in East Boston, Somerville, Chelsea ...'
p9
aS"This Week's LA Deal Sheet - Deal Sheet - Bisnow"
p10
a.