(lp0
S'Why Customers Are Obsessed With This Chicken-and ...'
p1
aS'Chipotle Mexican Grill, Inc.: NYSE:CMG quotes & news ...'
p2
aS'Popeyes Louisiana Kitchen Inc: NASDAQ:PLKI quotes ...'
p3
aS'FRGI Stock Quote - Fiesta Restaurant Group Inc. Stock Price ...'
p4
aS"Bell Helicopter officials say new assembly plant hiring won't ..."
p5
aS'Jeb Bush Knows All About Being An Immigrant, Except The ...'
p6
aS'Man robs Oro Valley home, punches victim'
p7
aS"Photo Gallery: 6 restaurant brands vying to be 'The Next ..."
p8
aS'Why Habit Restaurants (HABT) Could Be Positioned for a ...'
p9
aS"McDonald's testing simpler customization platform - Nation's ..."
p10
a.