(lp0
S'El Pollo Loco to open in Humble in mid-June - Houston ...'
p1
aS"El Pollo Loco Doesn't Hold Much Attraction At Current Prices ..."
p2
aS'Texas-based Wingstop files for $86.3 million public offering ...'
p3
aS'Wingstop Plans To Raise $86.25 Million Through IPO'
p4
aS'San Diego Source > News > Restaurant building in Palm ...'
p5
aS"Wingstop files for $86M IPO - Nation's Restaurant News"
p6
aS'Clubhouse Playcare now open in Kingwood - HKA TEXAS'
p7
aS'WINGSTOP INC. (WING) IPO: News - NASDAQ.com'
p8
aS'Dallas-Based Wingstop the Latest Chain to File IPO | NBC 5 ...'
p9
aS'Pollo Campero Giving All Mothers a Sweet Treat on ...'
p10
a.