(lp0
S'El Pollo Loco - Franchising.com'
p1
aS"Restaurant Chains Offer Valentine's Day Deals and More ..."
p2
aS'Record Growth Propels Executive Team Expansion At ...'
p3
aS'Teen finds chicken organ in KFC lunch | Fox News'
p4
aS'El Pollo Loco | Seafood International'
p5
aS'Top 25 District Manager profiles at El Pollo Loco | LinkedIn'
p6
aS'Get 10% Off with MataMoney | California State University ...'
p7
aS'Bowl - Humble, Kingwood, Atascocita, Texas'
p8
aS'Hobby Lobby coming to Blackstone? - The Business Journal'
p9
aS'BIA/Kelsey NATIONAL Conference to Examine the $50B ...'
p10
a.