(lp0
S'El Pollo Loco Announces Flavorful Twist on Flagship Tostadas'
p1
aS'Retail roundup: New El Pollo Loco, Starbucks, Unleashed ...'
p2
aS"This Franchisee's Story Gives True Meaning to Today's ..."
p3
aS'For Lease 2430 Mahogany Way Antioch, CA'
p4
aS'Pollo Asado - Santa Fe, New Mexico - Mexican Restaurant ...'
p5
aS'Mirasoles Produce | Facebook'
p6
aS'Brett Kamerman | Facebook'
p7
aS'Companies That Use dotCMS Content Management System'
p8
aS'My School is Cool-Mall Receipts  Page - John Muir Middle ...'
p9
aS'Chili cook-off is chance to give to camp fund'
p10
a.