(lp0
S'El Pollo Loco Earnings Preview - Seeking Alpha'
p1
aS'Shake Shack Stock Reverses Lower; Red Robin Sinks ...'
p2
aS'Stocks close sharply lower on surprise yuan devaluation ...'
p3
aS'Stocks recover from sharp losses as oil rise boosts energy'
p4
aS'Dow falls triple digits on surprise yuan devaluation; Google ...'
p5
aS'El Pollo Loco @ 54 E Alton Gloor Blvd - Brownsville, TX ...'
p6
aS'A Down Week for Stocks  Weekly Update - Gierl Augustine ...'
p7
aS"11 restaurant chains that aren't in Alabama (but ... - AL.com"
p8
aS'88 - Restaurant News Release'
p9
aS'What to Watch in the Day Ahead - Thursday, Aug. 13 | Reuters'
p10
a.