(lp0
S'Critical Alerts For Rite Aid, Salesforce.com, El Pollo Loco ...'
p1
aS'El Pollo Loco Offers New Entrees Featuring Both Fire-Grilled ...'
p2
aS'Chicken Chains Wingstop, Bojangles Fly Past Q2 Views ...'
p3
aS'Two Glendale, AZ Shopping Centers Sold for $38.6 Million'
p4
aS'Photo Gallery: Menu Tracker: New items from Taco Bell ...'
p5
aS'Surprise residents offer input on food, business - Your West ...'
p6
aS'Results of the Surprise retail survey - Surprise Independent ...'
p7
aS'Could These Stocks Be the Next Chipotle Mexican Grill, Inc ...'
p8
aS'Missing Tucson girl found safe - Arizona Daily Star'
p9
aS'Birthday Freebies: 88 Restaurants That Give Free Food on ...'
p10
a.