(lp0
S"After Bojangles' IPO comes the challenging part: growth"
p1
aS'Bojangles Stock Makes Appetizing Entry In IPO Debut ...'
p2
aS'Why Bojangles Fans Should Be Wary of Chasing Its Shares ...'
p3
aS"Bojangles' Soars in Market Debut - WSJ"
p4
aS'Bojangles Cooking Up Its IPO at Right Time - MoneyBeat ...'
p5
aS'Bojangles Beefs Up IPO Terms Ahead Of Friday Debut'
p6
aS'El Pollo Loco Sardis, MS, 38666 - YP.com'
p7
aS'Bojangles Sizzles As Investors Gobble Up Stock In IPO ...'
p8
aS'What to Watch in the Week Ahead and on Monday, May 11 ...'
p9
aS"Pepper Hamilton Helps Bojangles' Gobble Up $147M In IPO ..."
p10
a.