(lp0
S'El Pollo Loco Brings the Heat to Goodyear With New ...'
p1
aS'Poultry | Los Angeles News and Events | LA Weekly'
p2
aS'Stock Update (NASDAQ:LOCO): El Pollo Loco Brings the ...'
p3
aS'Food news: Amid growing demand, fast-food chains offer ...'
p4
aS"The Dish: Are Bakersfield's salad days over? - Bakersfield.com"
p5
aS'Sandwich Chain Restaurant Recipes: New Miami Subs News'
p6
aS'Magnum Foods Inc | LinkedIn'
p7
aS'East of Chicago Pizza Company | LinkedIn'
p8
aS"'underground' to tease new menu - Nation's Restaurant News"
p9
aS"Sonic Goes Mini with New Lil' Doggies and Lil' Chickies ..."
p10
a.