(lp0
S'Bubble Stocks Crash on Wall Street Ponzi Scheme Stock ...'
p1
aS'Police seek truck with smoke stack in hit-and-run | New ...'
p2
aS'El Pollo Loco 3959 Wilshire Blvd Los Angeles | Order ...'
p3
aS"Dunkin' Donuts stock falls after traffic decline"
p4
aS'5 Sinking Stocks To Avoid In The Market Storm - New ...'
p5
aS"Logan's Roadhouse Names Butler, Shine, Stern & Partners ..."
p6
aS'John Vancourt | Facebook'
p7
aS'El Pollo Loco San Pedro, CA, 90731 - YP.com'
p8
aS'chicken - Fortune'
p9
aS'Shad Moss Hunts Hackers on CSI: Cyber - Huffington Post'
p10
a.