(lp0
S'El Pollo Loco Opens Restaurant in Bakersfield, CA Nasdaq ...'
p1
aS'LOCO Stock Quote and Analysis of EL POLLO LOCO'
p2
aS"Domino's launches delivery car with oven inside - Nation's ..."
p3
aS'The Dish: La Foret joins the wine club - Bakersfield.com'
p4
aS'[PDF]\nBankcard Records - iePolitics'
p5
aS'Foot-long? Judge OKs settlement over Subway sandwich ...'
p6
aS'El Chapo Reportedly Fell Off Cliff While Evading Police'
p7
aS"Kingwood Dance Theatre brings 'The Nutcracker' to life ..."
p8
aS'Kickoff deer season event - The Inaugural Lake Houston ...'
p9
aS'Will Citi Trends (CTRN) Rise on Strategic Initiatives ...'
p10
a.