(lp0
S'El Pollo Loco CEO Stephen Sather: Focus Is on the Growth ...'
p1
aS'Top Chicken Eateries Poised For Big Growth | Stock News ...'
p2
aS'Restaurants reveal expansion, acquisition, tech plans at ICR ...'
p3
aS'Chipotle suspends pork sales at hundreds of restaurants'
p4
aS'Meet the MediaLink Mafia That Runs CES and Everything ...'
p5
aS'All Restaurants - Park Plaza on Maine'
p6
aS'All Shops - Park Plaza on Maine'
p7
aS'El Pollo Loco Embarks on Ambitious Multi-Year Franchisee ...'
p8
aS'Engineering Eating Disorder In Kids - Eating Disorder Pro'
p9
aS'Raiders pick Jack Del Rio: Mark Davis wanted his own guy ...'
p10
a.