(lp0
S'Murals brighten our city | Daily Sun News'
p1
aS'LASC Graduate Kelynn Johnson'
p2
aS'Lake Houston Pool Supply celebrates their grand opening ...'
p3
aS'Britney Spears Loves Target, But Her Other Expenses Are ...'
p4
aS'El Pollo Loco - Google+'
p5
aS'10 Twin Cities Burrito Joints That Are Better Than Chipotle'
p6
aS'Michael Corey - Arizona Daily Star'
p7
aS'6. Carla Garrett - Arizona Daily Star'
p8
aS'stuttering at 60 FPS :: Grand Theft Auto V General Discussions'
p9
aS"Portillo's Restaurants - Wikipedia, the free encyclopedia"
p10
a.