(lp0
S"Can El Pollo Loco Keep It Up After Last Week's 19% Pop ..."
p1
aS'Why El Pollo Loco Holdings, Inc. Stock Fell 17% in September'
p2
aS'Dipping Into the Special Sauce: 8 Foodservice Trends ...'
p3
aS'Restaurants stocks decline after tough third quarter | On the ...'
p4
aS'Mammoth meets federal air standard - Sierra Wave: Eastern ...'
p5
aS'Covered Call Alerts For Fitbit, Priceline, Delta Airlines ...'
p6
aS'Covered Call Alerts For FireEye, Southwestern Energy ...'
p7
aS'Smashburger Sells 40% Stake To Jollibee Foods | Fox ...'
p8
aS'El Pollo Loco | Restaurant Menu Prices & Coupons'
p9
aS'year | News R Us'
p10
a.