(lp0
S'Reporter Profile - The Orange County Register'
p1
aS'New Stocks on Most Attractive and Most Dangerous Lists ...'
p2
aS'Retail district will be located in Porter - Houston Chronicle'
p3
aS"Which fast-food chains get an 'F' for antibiotics? | MNN ..."
p4
aS'Inyo Counsel Marge Kemp-Williams to retire - Sierra Wave ...'
p5
aS'NEWS LINKS | KABB'
p6
aS'[PDF]\nSeptember 15, 2015 Edition - American Recruiters'
p7
aS'One Brand to Rule Them All: Unite Your Franchise ...'
p8
aS"Board of Directors | J. Alexander's Holdings, Inc. Investor ..."
p9
aS'No one showed up to the Bellabration - Cageside Seats'
p10
a.