(lp0
S'Can El Pollo Loco (LOCO) Surprise this Earnings Season ...'
p1
aS"Inexplicable Stock Surge? Here's How To Predict The Next ..."
p2
aS'SEC alleges fraud by ITT Educational Services, two top ...'
p3
aS'Video of Lake Conroe Dam release - HKA Texas'
p4
aS'Stocks could rally this week - CNBC.com'
p5
aS'Stocks close lower as renewed bond selloff puts Street on ...'
p6
aS'After A Strong 1st-Quarter, Del Taco Could Climb Further ...'
p7
aS'BOJA - BOJANGLES , INC. - Quotes, News, Research ...'
p8
aS'Bojangles Inc: NASDAQ:BOJA quotes & news - Google ...'
p9
aS'Review: El Pollo Loco - Carne Asada Wet Burrito | Brand ...'
p10
a.