(lp0
S'El Pollo Loco to Expand in Texas with Dallas Unit Openings ...'
p1
aS'El Pollo Loco Unveils New Line of Crave-Worthy Salads ...'
p2
aS'El Pollo Loco Unveils New Line of Crave-Worthy Salads ...'
p3
aS'El Pollo Loco to Expand in Texas with Dallas Unit Openings ...'
p4
aS'First Solar shares down 6% after downgrade - MarketWatch'
p5
aS'112 - Restaurant News Release'
p6
aS'153 - Restaurant News Release'
p7
aS'What is the "healthiest" fast food? : Fitness - Reddit'
p8
aS'Popeyes Launches New Smoky Garlic Chile Chicken ...'
p9
aS"Bulldog Bugle : A Medievel Times' Food Review"
p10
a.