(lp0
S'El Pollo Loco Holdings Inc. Earnings: Delicioso! -- The ...'
p1
aS'LOCO - Stock Quote and Charts for El Pollo Loco Holdings'
p2
aS'EL POLLO LOCO HOLDINGS, INC. - Annual Report'
p3
aS"Tomorrow's News Today - Atlanta: Bojangles' Coming to ..."
p4
aS'New Caney, Texas - HKA TEXAS'
p5
aS'Mouth watering BBQ you must try from The Q Joint in New ...'
p6
aS'February Sales Slide, Turnover Is Up and Sysco Postpones ...'
p7
aS'Buffalo Wild Wings created a new job so you can watch the ...'
p8
aS'El Pollo Loco in Smyrna, Tennessee with Reviews ...'
p9
aS"Zoe's Kitchen: Still Cheap - Zoe's Kitchen (NYSE:ZOES ..."
p10
a.