(lp0
S'Carne Asada Back by Popular Demand at El Pollo Loco ...'
p1
aS"Dame Dash Confirms 'State Property 3' in the Works ..."
p2
aS'[PDF]\nHot News and Trends Report in Foodservice and Retail'
p3
aS'Exclusive Hip Hop News, Interviews, Rumors, Rap & Music ...'
p4
aS'Dame Dash, Beanie Sigel, & Noreaga Set To Film State ...'
p5
aS'Groundbreaking of Valley Ranch Town Center, the largest ...'
p6
aS'The Veggie Lady - Fresh, local, and organic open air market ...'
p7
aS'Special reunion: Porter Fire Department reconnects with ...'
p8
aS'Letters to the Editor - News and information on Westfield ...'
p9
aS'Chick-Fil-A causing severe traffic issues in downtown ...'
p10
a.