(lp0
S"America's Best Gluten-free Mexican Fast Food Chains ..."
p1
aS'The Famous San Diego Chicken Commercial El Pollo Loco'
p2
aS'Levy Acquisition Could Offer Value In The Restaurant Sector ...'
p3
aS'El Pollo Loco in Greeley, Colorado with Reviews & Ratings ...'
p4
aS'El Pollo Loco in Elizabeth, New Jersey with Reviews ...'
p5
aS'Failed stadium project looms large for Las Vegas municipal ...'
p6
aS'Houston based Willa Boutique opens new location in ...'
p7
aS'Chicken Salad Chick - Wikipedia, the free encyclopedia'
p8
aS'Jalapenos - CLOSED - Mexican - Irvine, CA - Yelp'
p9
aS'TGI Fridays event celebrates the bar'
p10
a.