(lp0
S'All Restaurants - Mission Marketplace'
p1
aS'El Pollo Loco Embarks on Ambitious Multi-Year Franchisee ...'
p2
aS'All Restaurants - Park Plaza on Maine'
p3
aS'All Tenants Alphabetically - Park Plaza on Maine'
p4
aS'Openings & Closings: Bye-Bye, Montrose Berryhill | Houston ...'
p5
aS'Gluten-Free at El Pollo Loco | Gluten-Free Menu'
p6
aS'Humble Rodeo and BBQ Cook-off welcomes food, fun and ...'
p7
aS'Report: 10 tons of medical pot consumed in AZ'
p8
aS'Jessica Leigh Gonzales | ACTOR_WRITER_COMEDY_MORE'
p9
aS"Steam Community :: Group :: Joey's World Tour"
p10
a.