(lp0
S"El Pollo Loco's recipe for higher throughput | Restaurant ..."
p1
aS'www.elpolloloco.com/rewards - FREE Chips and ...'
p2
aS'Kristin Bjornsen | Miami News, Food, Culture and Events ...'
p3
aS'El Pollo Loco - New Ultimate Double Chicken Entres now ...'
p4
aS'Covered Call Alerts For Skyworks Solutions, SunEdison ...'
p5
aS'2015 Holiday Gift Card Bonus Deals | Brand Eating'
p6
aS"McDonald's Serving New Fried Blueberry Pie and Blueberry ..."
p7
aS'Events | Foxy and Fierce'
p8
aS'Duterte waiting for final ruling on Poe DQ | Headlines, News ...'
p9
aS'Stock Market News for November 23, 2015 - Zacks ...'
p10
a.