(lp0
S'El pollo loco | Got Food Poisoning? Report it now.'
p1
aS"King's Seafood Takes Water Grill to Dallas | Orange County ..."
p2
aS'El Pollo Loco in Santee, California with Reviews & Ratings ...'
p3
aS'Two Kingwood Restaurants will participate in Houston ...'
p4
aS'Update from Bishop City Council meeting - Sierra Wave ...'
p5
aS'The Draft opens for customers near the front of Kingwood ...'
p6
aS'Laboratory Corp profit beats as revenue jumps - MarketWatch'
p7
aS'Other News in City of Allen - Headline Updates - Allen, TX ...'
p8
aS"Rip'n Chick'n is Back at Popeyes | Brand Eating"
p9
aS'ANZA: Hemet man pleads not guilty in homicide case ...'
p10
a.