(lp0
S'Canyon Lakes - Humble, Kingwood, Atascocita, Texas'
p1
aS'Park Lakes - Humble, Kingwood, Atascocita, Texas'
p2
aS'The Fun Shop grand opening May 9th at Park Lakes near ...'
p3
aS"Bojangles', Inc. (NASDAQ:BOJA), Adaptimmune ... - Benzinga"
p4
aS'Z2 Game Forums    - [DISCUSSION THREAD] Battle Nations 4.8'
p5
aS'Contagious And BSSP Bring Now / Next / Why To San ...'
p6
aS'14 Upcoming IPOs This Week Led By BOJA and TEGP'
p7
aS'Pima County OKs $22 million in solar electric contracts'
p8
aS"Upstarts Eat McDonald's Lunch - WSJ"
p9
aS'Chipotle Is My Favorite Idea That Everyone Knows, But That ...'
p10
a.