(lp0
S"Menu Tracker: New items from Arby's, El Pollo Loco ..."
p1
aS"How will LA's wage hike affect its workers and businesses ..."
p2
aS'JIB Management Purchases Additional 48 TGI Fridays ...'
p3
aS'TGI Fridays refranchises an additional 48 restaurants ...'
p4
aS"The Strategy That Could Turn Around McDonald's, KFC And ..."
p5
aS'Man, 28, charged with human trafficking in Fullerton ...'
p6
aS'The 14 Major Restaurant Chains With The Fastest-Growing ...'
p7
aS'BizFed - Minimum wage: The future of the hourly worker in ...'
p8
aS'Got the munchies? Taco Bell testing home delivery in 29 ...'
p9
aS'Late Tucson record-holding dog makes Korean news'
p10
a.