(lp0
S'El Pollo Loco Inc. fourth-quarter same-store sales rise 7.6 ...'
p1
aS'El Pollo Loco (LOCO) Stock Higher in After-Hours Trading ...'
p2
aS'El Pollo Loco CEO reveals success strategy - Business Insider'
p3
aS'El Pollo Loco shares are surging - Business Insider'
p4
aS'El Pollo Loco Q4 Earnings Beat (NASDAQ: LOCO) - 24/7 ...'
p5
aS'A warning to Shake Shack: Beware Noodles & Co. - Fortune'
p6
aS'Are Fast-Casual Restaurant Stocks Entering a Bubble ...'
p7
aS'Hobby Lobby coming to Fresno - The Business Journal'
p8
aS'Dr. Gail Zwier Archives - Sierra Wave: Eastern Sierra News'
p9
aS'Premarkets: 4 things to know before the open - Mar. 12, 2015'
p10
a.