(lp0
S'Council Agenda: Possible site for Chipotle, Panera - Golden ...'
p1
aS'California firm buys North Las Vegas shopping center | Las ...'
p2
aS'AAJA New York  April Chapter Meeting Minutes'
p3
aS'Celebrating the grand opening of The Groves in Atascocita ...'
p4
aS'April 19, 2015 | The Gilmo Report'
p5
aS'Signs the market is girding for a Greek default, in 4 charts ...'
p6
aS'The Class Action News in Los Angeles, CA - 213-217-5019'
p7
aS'Fast Casual - Networld Media Group'
p8
aS'Get your Coffee Fix  Raider Voice'
p9
aS"Bojangles' (BOJA) Transcripts | Seeking Alpha"
p10
a.