(lp0
S'3 Stocks That Could Make Huge Moves This Week -- The ...'
p1
aS"McDonald's turns 75, and more  5 things to ... - Fortune"
p2
aS'Bojangles Inc: NASDAQ:BOJA quotes & news - Google ...'
p3
aS'BOJA - BOJANGLES , INC. - Quotes, News, Research ...'
p4
aS'Stocks could rally this week - CNBC.com'
p5
aS'Stocks close lower as renewed bond selloff puts Street on ...'
p6
aS'Review: El Pollo Loco - Carne Asada Wet Burrito | Brand ...'
p7
aS'News  EY Entrepreneur Of The Year 2015 Award finalists ...'
p8
aS'Stocks close lower as renewed bond selloff puts Street on ...'
p9
aS'Wingstop S-1 Analysis (NASDAQ:WING) | IPO Wizard'
p10
a.