(lp0
S'El Pollo Loco class action: executives misled shareholders ...'
p1
aS'Shareholders Sue Top Dogs at Pollo Loco - Courthouse ...'
p2
aS'El Pollo Loco Execs Dumped Stock At Inflated Price, Suit ...'
p3
aS'Zeldes Haeggquist & Eck, LLP Files Class Action Lawsuit ...'
p4
aS'Have We Reached Peak Burrito? - Franchise Times News ...'
p5
aS'My Dedon, my Dedon, my Dedon: Dedon Kamathi still ready ...'
p6
aS'News - USA Today'
p7
aS'Will Restaurant IPOs Take A Breather Due to Market Turmoil ...'
p8
aS'Reports: Amazon Prime Now testing meal delivery'
p9
aS'Inyo County grants $25,000 to community projects - Sierra ...'
p10
a.