(lp0
S'El Pollo Loco: Short That Crazy Chicken! | InvestorPlace'
p1
aS'El Pollo Loco Continues Houston Area Expansion With New ...'
p2
aS'El Pollo Loco Continues Houston Area Expansion With New ...'
p3
aS'El Pollo Loco opens Katy location - Prime Property'
p4
aS'Southern California post office burglar sentenced to prison ...'
p5
aS'Could this Philippines-based firm buy Krispy Kreme? - The ...'
p6
aS'El Pollo Loco - NEW Shrimp Mango Tacos, Shrimp Verde ...'
p7
aS'Investors Appear Hungry for Shake Shack as IPO Looms - U.S.'
p8
aS'Shake Shack now expects IPO to be priced higher at $17 ...'
p9
aS'Shake Shack Seeks to Expand New York State of Mind in IPO'
p10
a.