(lp0
S'Robbins Geller Rudman & Dowd LLP Files Class Action Suit ...'
p1
aS'El Pollo Loco Execs Dumped Stock At Inflated Price, Suit ...'
p2
aS'[PDF]\nDaniel Turocy, et al. v. El Pollo Loco Holdings, Inc., et al. 15 ...'
p3
aS'[PDF]\nComplaint - Robbins Geller Rudman & Dowd LLP'
p4
aS'(WING): Brace for Indigestion? BOJA, PLKI & LOCO'
p5
aS'News - USA Today'
p6
aS'Stretching the employee dress code | Restaurant Business'
p7
aS'Inyo County grants $25,000 to community projects - Sierra ...'
p8
aS'Healthy Dining | California State University, Los Angeles'
p9
aS'Past Exhibitors - ARN 2016 Revenue Conference ...'
p10
a.