(lp0
S'3 Up-and-Coming Restaurant Stocks to Watch -- The Motley ...'
p1
aS'Is Investing In El Pollo Loco Truly Loco? - Seeking Alpha'
p2
aS'El Pollo Loco in Longview, Texas with Reviews & Ratings ...'
p3
aS'Kids N More Consignment and Resale now open in ...'
p4
aS'Westlake Marketplace - Kroger, Old Navy, Marshalls, Ross ...'
p5
aS'130 - Restaurant News Release'
p6
aS"'Furious 7' cover - Arizona Daily Star"
p7
aS'Restaurant Neighbor Award - National Restaurant ...'
p8
aS'Recently reviewed restaurants: 3-26 - Toledo Blade'
p9
aS'A true racist would have called the victim Whitey, and a cop ...'
p10
a.