(lp0
S'Fresno man gets special gift from "Golden Girls" | abc30.com'
p1
aS'Christmas spirit: Golden Girls honor worker at their usual ...'
p2
aS"Golden Girls lunch club surprises 'adopted grandson' with ..."
p3
aS'NewQuest Expanding Spring Town Center in Tandem with ...'
p4
aS'NewQuest Properties to expand Spring Town Center near ...'
p5
aS'Grant Massey Archives - Sierra Wave: Eastern Sierra News'
p6
aS'Family speaks out after man and unborn child killed in ...'
p7
aS'May 2, 1999 commercials - YouTube'
p8
aS'Covered Call Alerts For Apple, Eli Lilly, Bank of America ...'
p9
aS'New job site construction - FBN Construction, Inc. | Facebook'
p10
a.