(lp0
S'Why EMC Corporation (NYSE:EMC), Lumber Liquidators ...'
p1
aS'El Pollo Loco, Wingstop gets bullish SunTrust coverage ...'
p2
aS'How Do Top Investors Feel About These Two Surging ...'
p3
aS'SunTrust Initiates Quick Service, Fast Casual Restaurant ...'
p4
aS'Colonies Holiday Miracles Event - National CORE'
p5
aS'Tucson businessman Pitt honored by education group'
p6
aS'El Pollo Loco Houston, TX, 77018 - YP.com'
p7
aS'Covered Call Alerts For Freeport-McMoRan, BlackBerry ...'
p8
aS'Letter: Officials give information on Rough Fire - Sierra Wave'
p9
aS'Project Experience - Moody Law Group PLLC'
p10
a.