(lp0
S'Letter of No Confidence Archives - Sierra Wave: Eastern ...'
p1
aS'Reporter Profile - The Orange County Register'
p2
aS"Which fast-food chains get an 'F' for antibiotics? | MNN ..."
p3
aS'This Tiny Clinic Is Fighting for Trans Patients Illegally ...'
p4
aS'CDC reveals just how much fast food American kids eat ...'
p5
aS'The Tiny Clinic Fighting for Trans Patients Illegally ... - News'
p6
aS'One Brand to Rule Them All: Unite Your Franchise ...'
p7
aS'The Big One - QSR magazine'
p8
aS'No one showed up to the Bellabration - Cageside Seats'
p9
aS'Even Trump concerned about how long this joke is going'
p10
a.