(lp0
S'Armed robbery suspect in custody after being hit by police ...'
p1
aS'Canyon Lakes - Humble, Kingwood, Atascocita, Texas'
p2
aS'Park Lakes - Humble, Kingwood, Atascocita, Texas'
p3
aS'The Fun Shop grand opening May 9th at Park Lakes near ...'
p4
aS'Shaved Ice - HKA TEXAS'
p5
aS'Z2 Game Forums    - [DISCUSSION THREAD] Battle Nations 4.8'
p6
aS"Upstarts Eat McDonald's Lunch - WSJ"
p7
aS'Chipotle Is My Favorite Idea That Everyone Knows, But That ...'
p8
aS'Power, communication critical to mining success'
p9
aS'For those of you who check, do you hit your protein target ...'
p10
a.