(lp0
S'Photo Gallery: Menu Tracker: New items from El Pollo Loco ...'
p1
aS'Investors Lose Appetite for Restaurant Stocks as Rally Fades'
p2
aS'Taco Bell Wants to Boss Chipotle Around -- The Motley Fool'
p3
aS"After San Bernardino shooting, mother learns 'my son had ..."
p4
aS"'My son had been shot': Scenes of worry after shooting"
p5
aS'DGM Announces the Grand Opening of New General Cargo ...'
p6
aS'Covered Call Alerts For Tesla Motors, Yahoo!, Under ...'
p7
aS'El Pollo Loco Shift Leader Job Listing in Los Angeles, CA ...'
p8
aS'Cloud 10 Creamery to host five-course dessert tasting ...'
p9
aS'Trenten Tyler Sine-Garza - Arizona Daily Star'
p10
a.