(lp0
S'With Limited Growth Prospects, El Pollo Loco Could Be ...'
p1
aS'The Melody Yang of Wall Street | SilverSeek.com'
p2
aS'[PDF]\nMay 29 - American Recruiters'
p3
aS'restaurant 6 el pollo loco food | Only In Your State'
p4
aS'Social Media Agency | Worst Online Reviews: the Horrible ...'
p5
aS'COVER STORY: North Texas restaurants serving up IPOs ...'
p6
aS'Taco Bell to Remove Artificial Flavors and Colors from Food ...'
p7
aS'Kindle your imagination at the DeGrazia Gallery'
p8
aS'School Principal for a Day | Citizensjournal.us'
p9
aS"Costco's (COST) Q3 Earnings Beat Estimates, Improve Y/Y ..."
p10
a.