(lp0
S'Photo Gallery: Menu Tracker: New items from El Pollo Loco ...'
p1
aS'Retail Wrap: Expansions by Tuesday Morning, TJ Maxx ...'
p2
aS"After San Bernardino shooting, mother learns 'my son had ..."
p3
aS'DGM Announces the Grand Opening of New General Cargo ...'
p4
aS'Covered Call Alerts For Ambarella, GW Pharmaceuticals ...'
p5
aS'Jewelry worth $1 million taken from Santa Fe store | New ...'
p6
aS'Texas Border Business December 2015 - Issuu'
p7
aS"Xerox 'on track' to complete separation by year-end 2016 ..."
p8
aS'El Pollo Loco - Yahoo Local'
p9
aS'Wingstop Shorting Opportunity: Huge Lockup Expiration ...'
p10
a.