(lp0
S"Start the New Year Right With El Pollo Loco's New Under ..."
p1
aS'El Pollo Loco - World News'
p2
aS'Photo Gallery: Menu Tracker: New items from Taco Bell ...'
p3
aS'56 - Restaurant News Release'
p4
aS'Bull of the Day: Bojangles (BOJA) - December 29, 2015 ...'
p5
aS'Sugar Land Holiday Lights - Facebook'
p6
aS'Burbank, Pasadena & More Among The Best Cities for ...'
p7
aS'4 bodies discovered on Michoacn Highway one is El Tsico ...'
p8
aS"Pilot Program Seeks Remedy for San Antonio's Sidewalk ..."
p9
aS'El Pollo Loco - Yahoo Local'
p10
a.