(lp0
S'El Pollo Loco Brings the Heat to Wildomar With New ...'
p1
aS'El Pollo Loco Brings the Heat to Wildomar With New ...'
p2
aS'2016 growth in Kingwood - Woodridge Forest'
p3
aS'City of Bishop: Snow and solar - Sierra Wave: Eastern Sierra ...'
p4
aS'El Pollo Loco Shift Supervisor Job Listing in San Diego, CA ...'
p5
aS'Real estate transactions - Houston Chronicle'
p6
aS'Recently reviewed restaurants: 12-10 - Toledo Blade'
p7
aS"Coreanos Awarded 'Texas Local Favorite Award 2015 ..."
p8
aS'Brock Lesnars Opponent For His Return Revealed, Lesnar ...'
p9
aS"Australia wins 'fossil of the day' for Julie Bishop's coal ..."
p10
a.