(lp0
S'Franchise news Archive - Food Chronicles'
p1
aS'Simply Baked Sweets - Coming soon to Atascocita ...'
p2
aS'Del Taco: Solid Results Should Draw Investor Attention - Del ...'
p3
aS'School Field Trips | Arizona SEA LIFE Aquarium'
p4
aS'La Pisteria - Monterrey, Mexico - Sports Bar | Facebook'
p5
aS"Papa John's Intros New Grilled Chicken Margherita Pizza ..."
p6
aS'Mocha Coconut Frappuccino is Back at Starbucks | Brand ...'
p7
aS'Powerhouse Dynamics: Enterprise Energy Efficiency'
p8
aS'What A Nutritionist Eats At Mexican Fast Food Restaurants'
p9
aS'Gilroy Garlic Festival 2015 - Sights! Sounds! & Smell ...'
p10
a.