(lp0
S'Critical Alerts For Seadrill, Intrexon, bluebird bio Inc., El ...'
p1
aS'El Pollo Loco is NOW OPEN in Humble, Texas - HKA TEXAS'
p2
aS"Oil-Price Drop Isn't Tonic for Sonic - WSJ"
p3
aS"Keith Kinsey leaves Noodles & Company to lead Portillo's ..."
p4
aS'Arrest made in fatal S. Tucson stabbing - Arizona Daily Star'
p5
aS'Raw Fast Food Menu Items Offer Fresh and Healthy ...'
p6
aS'Wingstop Vs. Buffalo Wild Wings: Which is the Better ...'
p7
aS"Portillo's Restaurant Names New CEO - Restaurant News ..."
p8
aS'Burger King Serving New BBQ Bacon Tendercrisp Sandwich'
p9
aS'Did You Know? Explaining the "Fancy" in Ketchup | Brand ...'
p10
a.