(lp0
S'El Pollo Loco (LOCO) Stock Falls in After-Hours Trading on ...'
p1
aS'El Pollo Loco share tumble 12% as revenue, same-store ...'
p2
aS'After-hours buzz: Nordstrom, El Pollo Loco, AMAT & more'
p3
aS'El Pollo Loco stock drops sharply - CNBC Video'
p4
aS'El Pollo Loco Q2 earnings and share price - Business Insider'
p5
aS'UPDATE 2-El Pollo Loco sales miss estimates, shares ...'
p6
aS'El Pollo Loco Earnings Preview - Seeking Alpha'
p7
aS'El Pollo Loco Holdings, Inc. Announces Second Quarter ...'
p8
aS'El Pollo Loco Lowers Sales-Growth Focus - WSJ'
p9
aS'El Pollo Loco (LOCO) Securities Fraud Class Action Suit ...'
p10
a.