(lp0
S"El Pollo Loco: PE 'Bust-Out', 20+ Years Of Failed Domestic ..."
p1
aS'Apple - Press Info - Apple Pay Giving Shoppers Even More ...'
p2
aS'Fiesta Restaurant Group Inc: NASDAQ:FRGI quotes & news ...'
p3
aS'Apple Pay WWDC: Number of improvements coming to ...'
p4
aS'IamA El Polo Loco Cook AMA! : IAmA - Reddit'
p5
aS'Harkins breaks ground on new theater | Local | azdailysun ...'
p6
aS'Deaths - Arizona Daily Star'
p7
aS'Doubling down on the rebirth of the American shopping mall'
p8
aS'Apple announces international Apple Pay expansion ...'
p9
aS'Walgreens debuts app for Apple Watch - Chain Drug Review'
p10
a.