(lp0
S'Covered Call Alerts For Opko Health, Kandi Technologies ...'
p1
aS'ONLY IN LB: Metal Detecting And Digging | Opinion ...'
p2
aS'December 1st - 25th Annual Christmas Parade of Lights "A ...'
p3
aS'El Pollo Loco Cashier Job Listing in Long Beach, CA ...'
p4
aS'El Poco Loco - Facebook'
p5
aS'DAILY MAGAZINE.news'
p6
aS'FanningMaryElle'
p7
aS'Time to look at cheap stocks: Ion Geophysical Corp (NYSE ...'
p8
aS'5 Beaten-Down Restaurant Stocks That Are Worth A Second ...'
p9
aS"IHOP's 2015 Holiday Menu Includes Chicken & Pumpkin ..."
p10
a.