(lp0
S'El Pollo Loco The Crazy Chicken now under construction ...'
p1
aS'Capital Real Estate Ventures | El Pollo Loco Sold in ...'
p2
aS'Ranking the top restaurant chains | Food Business News'
p3
aS'Grand Parkway segments nearing completion - Your ...'
p4
aS"Taco Bell to introduce Biscuit Taco - Nation's Restaurant News"
p5
aS'Gapping and Probabilities | Online Trading Academy'
p6
aS'[PDF]\nMarch & April - CFESA'
p7
aS'Iconiq Capital Llc - 2015 13F Stocks, AUM, News'
p8
aS"Ross Stores' (ROST) Board Approves 2-for-1 Stock Split ..."
p9
aS'March 25, 2015 | The Gilmo Report'
p10
a.