(lp0
S'El Pollo Loco Continues Texas Expansion into Dallas Market'
p1
aS'El Pollo Loco expands into North Texas - Fortworthbusiness ...'
p2
aS'El Pollo Loco Continues Texas Expansion into Dallas Market'
p3
aS'El Pollo Loco Sets Dallas Plan | Orange County Business ...'
p4
aS'Stock Update (NASDAQ:LOCO): El Pollo LoCo Holdings Inc ...'
p5
aS'Form 4 El Pollo Loco Holdings, For: May 19 Filed by ...'
p6
aS'Shake Shack Hits New High Amid NYC Flagship Reopening ...'
p7
aS'Option Millionaires: El Pollo Loco 6M share Block Trade priced'
p8
aS'Procter & Gamble - Professional > Articles'
p9
aS'Del Taco (old locations) - Historic Houston - HAIF ...'
p10
a.