(lp0
S'The Wall Street Journal'
p1
aS'The Washington Times'
p2
aS'Bloomberg L.P.'
p3
aS'ExxonMobil'
p4
aS'Reuters'
p5
aS'Financial Times'
p6
aS'Offshore Magazine'
p7
aS'U.S. News & World Report'
p8
aS'The Dallas Morning News'
p9
a.