(lp0
S'Getty Images'
p1
aS'TransCanada Corporation'
p2
aS'The Wall Street Journal'
p3
aS'Rig Zone'
p4
aS'Center for Responsive Politics'
p5
aS'The Republican'
p6
aS'The Independent'
p7
aS'Bloomberg L.P.'
p8
a.