(lp0
S'Australian Broadcasting Corporation'
p1
aS'NJ.com'
p2
aS'Getty Images'
p3
aS'Venezuelanalysis.com'
p4
aS'The Wall Street Journal'
p5
aS'CBS News'
p6
aS'The New York Times'
p7
aS'NBCNews.com'
p8
a.