(lp0
S'EurasiaNet.org'
p1
aS'CNNMoney'
p2
aS'Environment & Energy Publishing'
p3
aS'Washington State University'
p4
aS'Offshore Magazine'
p5
aS'Bloomberg L.P.'
p6
aS'The Wall Street Journal'
p7
aS'Oil & Gas Journal'
p8
aS'Oil & Gas Journal'
p9
a.