(lp0
S'ExxonMobil'
p1
aS'Foundation for Defense of Democracies'
p2
aS'University of Virginia School of Law'
p3
aS'ADVFN'
p4
aS'Bloomberg L.P.'
p5
aS'Yahoo! Finance'
p6
aS'Environment & Energy Publishing'
p7
aS'The Brookings Register'
p8
aS'CNNMoney'
p9
a.