(lp0
S'ExxonMobil'
p1
aS'ExxonMobil'
p2
aS'ExxonMobil'
p3
aS'The Wall Street Journal'
p4
aS'ExxonMobil'
p5
aS'NJ.com'
p6
aS'Bloomberg L.P.'
p7
aS'National Society of Black Engineers'
p8
aS'Offshore Magazine'
p9
a.