(lp0
S'The Wall Street Journal'
p1
aS'The Wall Street Journal'
p2
aS'Amarillo GlobeNews'
p3
aS'ADVFN'
p4
aS'Yahoo! Finance'
p5
aS'Yahoo! Finance'
p6
aS'Bloomberg L.P.'
p7
aS'Bloomberg L.P.'
p8
aS'Google'
p9
a.