(lp0
S'Worcester Polytechnic Institute'
p1
aS'ExxonMobil'
p2
aS'International Center for Research on Women'
p3
aS'Bloomberg L.P.'
p4
aS'Bloomberg L.P.'
p5
aS'Bloomberg L.P.'
p6
aS'Lafayette College'
p7
a.