(lp0
S'Feeding America'
p1
aS'Bloomberg L.P.'
p2
aS'Bloomberg L.P.'
p3
aS'The VirginianPilot'
p4
aS'The Dallas Morning News'
p5
aS'The Beaumont Enterprise'
p6
aS'Yahoo! Finance'
p7
aS'Wikipedia'
p8
a.