(lp0
S'ExxonMobil'
p1
aS'ExxonMobil'
p2
aS'ExxonMobil'
p3
aS'Bloomberg L.P.'
p4
aS'Bloomberg L.P.'
p5
aS'Bloomberg L.P.'
p6
aS'CNNMoney'
p7
aS'New York Daily News'
p8
aS'The Dallas Morning News'
p9
aS'The Dallas Morning News'
p10
a.