(lp0
S'Yahoo! Finance'
p1
aS'Bloomberg L.P.'
p2
aS'Tulane University Law School'
p3
aS'Oil & Gas Journal'
p4
aS'New York Attorney General'
p5
aS'New York State Senate'
p6
aS'The New York Times'
p7
aS'CBC.ca'
p8
aS'University of Massachusetts Amherst'
p9
a.