(lp0
S'ExxonMobil'
p1
aS'Center for Responsive Politics'
p2
aS'NBCNews.com'
p3
aS'Bloomberg L.P.'
p4
aS'The Wall Street Journal'
p5
aS'The Wall Street Journal'
p6
aS'Houston Chronicle'
p7
aS'Advertising Age'
p8
aS'The Dallas Morning News'
p9
a.