(lp0
S'ADVFN'
p1
aS'South Florida Business Journal'
p2
aS'Democracy Now!'
p3
aS'Reuters'
p4
aS'Reuters'
p5
aS'Austin AmericanStatesman'
p6
aS'Advertising Age'
p7
aS'World Fuel Services'
p8
aS'Bloomberg L.P.'
p9
a.