(lp0
S'Bloomberg L.P.'
p1
aS'Bloomberg L.P.'
p2
aS'Oswego County Today'
p3
aS'Offshore Magazine'
p4
aS'Oregon Public Broadcasting'
p5
aS'Google'
p6
aS'The Vanguard Group'
p7
aS'Yale University'
p8
aS'CNNMoney'
p9
a.