(lp0
S'Alaska Dispatch News'
p1
aS'USA Today'
p2
aS'The Dallas Morning News'
p3
aS'Bloomberg L.P.'
p4
aS'Bloomberg L.P.'
p5
aS'Offshore Magazine'
p6
aS'The Wall Street Journal'
p7
aS'Oil & Gas Journal'
p8
aS'Oil & Gas Journal'
p9
a.