(lp0
S'The Wall Street Journal'
p1
aS'Oil & Gas Journal'
p2
aS'The Huntsville Times'
p3
aS'The Riverfront Times'
p4
aS'Google'
p5
aS'The Dallas Morning News'
p6
aS'The Dallas Morning News'
p7
aS'Center for Media and Democracy'
p8
a.