(lp0
S'The Wall Street Journal'
p1
aS'Bloomberg L.P.'
p2
aS'The Dallas Morning News'
p3
aS'The Dallas Morning News'
p4
aS'Oil & Gas Journal'
p5
aS'CNNMoney'
p6
aS'Energy Information Administration'
p7
a.