(lp0
S'Worcester Polytechnic Institute'
p1
aS'ExxonMobil'
p2
aS'The National Academies'
p3
aS'Bloomberg L.P.'
p4
aS'Bloomberg L.P.'
p5
aS'Bloomberg L.P.'
p6
aS'Los Angeles Sentinel'
p7
aS'The Dallas Morning News'
p8
aS'Watchdog.org'
p9
a.