(lp0
S'ExxonMobil'
p1
aS'West Virginia Coal Association'
p2
aS'Bloomberg L.P.'
p3
aS'Bloomberg L.P.'
p4
aS'GreenBiz.com'
p5
aS'The Vanguard Group'
p6
aS'Parker Drilling Co.'
p7
aS'Law360'
p8
aS'CNNMoney'
p9
a.