(lp0
S'ExxonMobil'
p1
aS'ExxonMobil'
p2
aS'ExxonMobil'
p3
aS'ExxonMobil'
p4
aS'Bloomberg L.P.'
p5
aS'Wharton School of the University of Pennsylvania'
p6
aS'The Wall Street Journal'
p7
aS'CNNMoney'
p8
aS'Reuters'
p9
a.