(lp0
S'Bloomberg L.P.'
p1
aS'Capital One'
p2
aS'Center for American Progress'
p3
aS'Reuters'
p4
aS'James A. Baker III Institute for Public Policy'
p5
aS'The Dallas Morning News'
p6
aS'Justia'
p7
aS'The Globe and Mail'
p8
aS'Minyanville'
p9
a.