(lp0
S'ExxonMobil'
p1
aS'Getty Images'
p2
aS'Wired'
p3
aS'The New York Times'
p4
aS'Boston College'
p5
aS'Oil & Gas Journal'
p6
aS'American Chemical Society'
p7
aS'The TimesPicayune'
p8
aS'CNNMoney'
p9
a.