(lp0
S'ExxonMobil'
p1
aS'International Center for Research on Women'
p2
aS'Center for Responsive Politics'
p3
aS'NBCNews.com'
p4
aS'The Wall Street Journal'
p5
aS'The Wall Street Journal'
p6
aS'Houston Chronicle'
p7
aS'Advertising Age'
p8
a.