(lp0
S'Oct 18, 2010 - Energy Digital - Energy News - Energy Magazine - News and Information for ... Chevron Corporation unveiled their We Agree campaign on Monday, which ...'
p1
aS'Oct 18, 2010 - Chevron Corporation (NYSE: CVX) today launched a new global advertising campaign ... It also describes the actions the company takes in producing energy ...'
p2
aS'Oct 19, 2010 - Investors  News  Careers  Worldwide  Contact ... Producing Geothermal Energy; Chevron Tests Solar Technology. Chevron is the largest producer of geothermal energy, a renewable resource that ... 2001 - 2016 Chevron Corporation.'
p3
aS"Oct 18, 2010 - Chevron has added a news release to its Investor Relations website. ... Chevron Corporation is one of the world's leading integrated energy companies."
p4
aS'Oct 18, 2010 - Chevron responds head-on to industry critics with new company ads designed to evoke anti-industry posters. ... DOW JONES, A NEWS CORP COMPANY. News ...'
p5
aS"Oct 19, 2010 - Chevron's new 'We Agree' ad campaign aims find common ground with people around the world on energy issues. But an activist-driven spoof stole the show."
p6
aS'Oct 19, 2010 - Activists seeking to condemn Chevron Corp. ... Some news sites were fooled by the fake site and news releases, and later sent corrected updates. ... identify and highlight common ground on key energy issues so we can move forward safely, ...'
p7
aS'Oct 18, 2010 - ... with \'We Agree\' Ad CampaignBy: Gina Roos. Chevron has launched a new global advertising campaign called "We Agree," which is ... Energy Manager News.'
p8
aS"Oct 18, 2010 - Chevron Corp launched a new advertising campaign on Monday to address negative ... efforts to develop renewable energy, create jobs and support local communities. ... Thomson Reuters is the world's largest international multimedia news ..."
p9
aS'Oct 18, 2010 - San Ramon-based Chevron launched a new advertising campaign agreeing with ... "It does talk about reinvestment to the community and the renewable energy ...'
p10
a.