(lp0
S"Oct 14, 2010 - Over the past decade, five of the world's top 10 oil companiesExxonMobil Corp., Chevron Corp., BP PLC, ... In nine of the 10 energy-research agreements we analyzed, the university ...... Subscribe to Energy and Environment News Alerts ..."
p1
aS"Oct 15, 2010 - chevron produces renewable alternative energy with geothermal energy. Chevron is one of the world's leading producers of geothermal energy, a renewable energy resource that captures the natural ... 2001  2016 Chevron Corporation."
p2
aS"Oct 14, 2010 - Imola Oil and Gas Corporation is a privately held, oil and gas production start-up, ... News  Freeze or Not: Oil Markets will Balance  Production underway at Husky Energy's Edam East project  America's Secret Weapon  Chevron Looking for ..."
p3
aS'Oct 15, 2010 - Environmental news from California and beyond ... oil companies compromised the ethics of energy research at such institutions as UC Berkeley, UC ... for American Progress, a Washington-based think tank, such companies as BP, Chevron, ...'
p4
aS"Oct 14, 2010 - Chevron. 100.50. +1.82%. +1.80. ConocoPhillips. 47.06. +4.58%. +2.06 .... The US Department of Energy has approved Cheniere Energy's application to export LNG from Sabine Pass ... Get All the Oil & Gas Financial Journal News Delivered to Your Inbox for free .... Copyright  2007-2016 Pennwell Corporation, Tulsa, OK."
p5
aS"Oct 14, 2010 - Ray Irani, chief executive officer of Occidental Petroleum Corp. ... of any oil or power executive in a Bloomberg News survey of compensation. ... of the board's compensation committee and former U.S. energy secretary, said in a ... of dividends, outperforming bigger rivals such as Exxon, Chevron Corp. and ConocoPhillips."
p6
aS'Oct 14, 2010 - The field was originally discovered in 1965 by Chevron, which retains a small ..... According to the BP Statistical Review of World Energy (June 2009), Nigeria ... the Nigerian National Oil Corporation was established becoming NNPC in 1977.'
p7
aS'Oct 14, 2010 - Key Energy News provides a selection of the best energy news around the world categorised by major energy related topics (tax, price, forecast, contract) on ...'
p8
aS'Oct 14, 2010 - 5: BioFuel Energy Corp (Nasdaq: BIOF): BioFuel Energy Corp. produces and sells ethanol ... (CVX): Chevron Corporation (Chevron) manages its investments in ...'
p9
aS'Oct 15, 2010 - If you have news, comments or suggestions feel free to send them. ..... Hungary in another Energy Charter Treaty arbitration before ICSID, Electrabel S.A. v. ..... Royal Dutch Shell, BP, Chevron Corporation, ConocoPhillips and Total S.A., all of ...'
p10
a.