(lp0
S"Oct 11, 2010 - SAN RAMON, Calif., October 11, 2010  Chevron Corp. ... Chevron is one of the world's leading integrated energy companies, with subsidiaries that conduct ..."
p1
aS'Oct 12, 2010 - Chevron discovered the Wheatstone gas field in 2004. .... Sep 24, 2008 - U.S. energy firm Chevron Corp has proposed expanding the production capacity of its ...'
p2
aS'Oct 12, 2010 - SNL Energy integrates news, data and research in real time for the electric power industry. Access news, pricing, financial data and energy company research ...'
p3
aS'Oct 11, 2010 - Apache Corp has signed an agreement with Chevron and Tokyo Electric Power Company (TEPCO) regarding sales of ... Upstream oil and gas news for exploration and production professionals ... energy-pedia development and production.'
p4
aS"Oct 12, 2010 - ... state-run National Pension Service to buy Chevron Corp's stake in Colonial Pipeline Company, ... KKR's history of investing in the energy and infrastructure space matched well with NPS's aspirations. ... Our top news photography this week."
p5
aS'Oct 11, 2010 - Chevron was one of five shareholders of Colonial. ... KKR has been investing in energy and infrastructure for more than twenty years. ... News Communications.'
p6
aS'Oct 11, 2010 - DOW JONES, A NEWS CORP COMPANY .... But officials with the MMS, recently renamed the Bureau of Ocean Energy ... The policy was reiterated in 2007 by Joe Gordon, who subsequently left the agency to work for Chevron Corp.'
p7
aS'Oct 11, 2010 - Shares of Peabody Energy Corp., the largest U.S. coal producer, climbed 217 percent to $51.53. .... closing mines from West Virginia to the Rocky Mountains and joining Chevron Corp. and others in abandoning Illinois. ... Bloomberg News.'
p8
aS'Oct 11, 2010 - Fox News The director of the controversial loan program that cleared the way for a $535 ... Chevron turns to solar energy for oil recovery, stock heading to $104 ... by Renewvia Energy Corporation, and is the companys largest project to date.'
p9
aS'Oct 12, 2010 - Chesapeake Energy gets $2.16 billion cash flow boost in its latest joint venture. ... companies such as Exxon (XOM), Chevron (CVX) and Shell (RDS) to drill for ...'
p10
a.