(lp0
S"Oct 1, 2010 - Chevron is to being operations on a new oil well in deepwater West of the Shetland ... The Department of Energy and Climate Change (Decc) said the strictest .... I heard on R4 midday news that BP's shares are up 2% already at the news the ..."
p1
aS'Oct 1, 2010 - An unexpected crisis can kill an international energy project. ... Chevron. 101.69. +1.18%. +1.19. ConocoPhillips. 47.08. +0.04%. +0.02 .... such as a limited liability partnership or an offshore corporation that is created for the specific transaction. .... Get All the Oil & Gas Financial Journal News Delivered to Your Inbox for free.'
p2
aS'Oct 1, 2010 - Chevron. 102.64. +0.94%. +0.95. ConocoPhillips. 47.08. +0.00. +0.00 .... 21, Rex Energy Corp. announced a joint-venture agreement with Summit Discovery ... Get All the Oil & Gas Financial Journal News Delivered to Your Inbox for free.'
p3
aS'Oct 1, 2010 - Chevron. 102.64. +0.94%. +0.95. ConocoPhillips. 47.08. +0.00. +0.00 ... Dallas-based Merit Energy fell from the No.2 spot to the No. ... which BP would sell all of its oil and gas properties in the Permian Basin to an Apache Corp. subsidiary. ... Get All the Oil & Gas Financial Journal News Delivered to Your Inbox for free.'
p4
aS'Oct 1, 2010 - More Deepwater News. > ... acreage) in terms of wells drilled included Chevron, with 23 wells drilled through July; Apache, with 16 wells; Arena Energy with 15; Shell E&P with 11; and Anadarko with nine wells drilled. ... Recently, Carl Scharpf, Gulf Coast Exploration & New Ventures manager for Apache Corp., said that the ...'
p5
aS'Sep 30, 2010 - ENERGY FUTURE HOLDINGS CORPORATION .... Emirates (UAE), and Uzbekistan; 18 oil companies including BP, Shell Oil, Chevron, ..... The News Flare.'
p6
aS'Sep 30, 2010 - The government is set to divest 10 per cent of its stake in Indian Oil Corporation, while 5 per cent in Oil and Natural Gas Corporation next year, a senior official ...'
p7
aS'Sep 30, 2010 - Chevron Corporation Chevron/Texaco .... Energy Corporation of America Foundation Engelhard Corporation ..... Northrop Grumman Newport News Northwest ...'
p8
aS'Oct 1, 2010 - Oil firm Chevron gets government consent to drill an exploration well to evaluate a ... Cairn Energy strikes oil off Greenland ... From other local news sites ...'
p9
aS"Oct 1, 2010 - M-I SWACO to Service Chevron's Rigs Offshore Angola ... prestigious International Platinum Award at the Energy Institute Awards for their innovative technology, ..."
p10
a.