(lp0
S'Oct 12, 2010 - Chevron discovered the Wheatstone gas field in 2004. .... Sep 24, 2008 - U.S. energy firm Chevron Corp has proposed expanding the production capacity of its ...'
p1
aS"Oct 13, 2010 - Chevron Energy Solutions president Jim Davis talks to reporters during the Reuters ... and the United States, particularly on price, the head of Chevron Corp's (CVX. ... Thomson Reuters is the world's largest international multimedia news ..."
p2
aS"Oct 12, 2010 - ... state-run National Pension Service to buy Chevron Corp's stake in Colonial Pipeline Company, ... KKR's history of investing in the energy and infrastructure space matched well with NPS's aspirations. ... Our top news photography this week."
p3
aS'Oct 13, 2010 - Mr. Michael D. Cochran, also known as Mike, served as Technical Advisor of Century Petroleum Corp., since June 11, 2007. Dr. Cochran served as Exploration ...'
p4
aS"Oct 13, 2010 - News & Events ... Digital Energy: Chevron's i-Field - A Case Study ... Manager i-field Chevron Global Upstream Mike Hauser is currently Manager, i-field, ..."
p5
aS"Oct 13, 2010 - Chevron announced on Tuesday that it's selling all of its Cook Inlet assets owned by Union Oil ... Home  News ... In 2005, the company sold producing assets earlier, including two platforms now operated by XTO Corp., but then ... encountered a year ago by Long Beach Calif-based Pacific Energy, which could not find a ..."
p6
aS'Oct 13, 2010 - My own website, with publishes ALL news articles about Shell, negative and positive in .... ARGUS FSU ENERGY ARTICLE: Shell weights its options: 27 Oct 2006 ..... COM ARTICLE: Chevron A Safer Bet Than Shell: 13 April 2015 ..... in the Presidency, the Nigerian National Petroleum Corporation (NNPC), and the Federal ...'
p7
aS'Oct 12, 2010 - Chesapeake Energy gets $2.16 billion cash flow boost in its latest joint venture. ... companies such as Exxon (XOM), Chevron (CVX) and Shell (RDS) to drill for ...'
p8
aS'Oct 12, 2010 - CAMAC Energy Inc. (the "Company"), a US-based energy company engaged .... the Bosi field (Esso), the Bonga field (Shell), and the Sonam field (Chevron), ... Dr. Kase Lawal, Chairman of the Company, and Chairman and Chief Executive Officer of CAMAC International Corporation and a director of Allied, ... Latest News ...'
p9
aS'Oct 13, 2010 - Environment News Service latest environmental news, global warming, water, ... "In San Bernardino County, we\'ve approved Chevron Energy\'s 45-megawatt ...'
p10
a.