(lp0
S"Oct 28, 2010 - Chevron's operations in Colorado's Piceance Basin are taking careful measures to ... Through technology and innovation, we're executing major capital projects designed to yield decades of energy. ... stories  news; responsibly developing natural gas in the piceance basin. news ... 2001  2016 Chevron Corporation."
p1
aS"Oct 28, 2010 - China's top energy firms have slowed work on projects in Iran as their ties grow with ... News | Thu Oct 28, 2010 7:47am EDT ... China's top energy firm CNPC agreed in September to explore Australia gas with U.S. major Chevron Corp (CVX."
p2
aS"Oct 27, 2010 - A. D. Koen Gulf Coast News Editor Robin Buckner Price Staff Writer Major U.S. oil ... Leading Herold's list of available deals is Chevron Corp. offering for sale U.S. oil .... Among independent producers, Devon Energy Corp., Oklahoma City, has ..."
p3
aS'Oct 27, 2010 - While Central Asia is poised to become a major world supplier of energy, especially oil and gas, ..... International news for oil and gas professionals ... Chevron Corp. plans a $26.6-billion capital and exploratory investment program for 2016, ...'
p4
aS'Oct 27, 2010 - ... where it touts itself as providing cleaner energy for the next generation. ... Chevron\'s "We Agree" ad campaign is so rife with bitter but mock-worthy irony, in fact, ... dominated the news and drowned out Chevron\'s corporate greenwashing.'
p5
aS"Oct 28, 2010 - Oil giant Chevron's multi-million ad campaign, entitled We agree has ... was meant to highlight the company's commitment to clean energy, and the community. ... release Chevron Corp. announced a new global advertising campaign this ..."
p6
aS"Oct 27, 2010 - ... where it touts itself as providing cleaner energy for the next generation. ... Chevron's We Agree ad campaign is so rife with bitter but mock-worthy irony, in fact, ... dominated the news and drowned out Chevron's corporate greenwashing."
p7
aS'Oct 27, 2010 - Alumni News ... Texas MBA Energy Finance Team Lights Tower ... Sponsors for the challenge included Chevron Corporation, Bank of America, Merrill Lynch ...'
p8
aS"Oct 28, 2010 - Chevron made its mark on its only deepwater concession, Block 14, home of the Kuito Field. .... Mobil and Ocean Energy have announced plans to increase Zafiro's ... On the licensing side, Elf made news when it was granted a 6,800-sq km .... oil company and Environmental Remediation Holding Corporation to explore for ..."
p9
aS"Oct 27, 2010 - ... $1 billion, Brazil's Valor Economico newspaper said today, without citing the source of the ... ConocoPhillips and Chevron Corp. have already abandoned some Gulf ... testimony before the Senate Energy and Natural Resources Committee."
p10
a.