(lp0
S"Oct 26, 2010 - Chevron has added a news release to its Investor Relations website. ... Chevron Corporation is one of the world's leading integrated energy companies."
p1
aS"Oct 25, 2010 - While AB32 is bad news for out of state Big Oil, it's good news for California's cleantech industry and general ... Chevron Corporation, $2,500,000 ... Mr. Koch, I get that you and your corporation don't want to be part of our clean energy future."
p2
aS'Oct 25, 2010 - ... general national news, politics, business, energy, sports, entertainment, fashion ... ABUJA- Chevron Nigeria Ltd, CNL, on Friday announced the launch of the ... five-year, $50 million programme established by the Chevron Corporation to ...'
p3
aS'Oct 26, 2010 - It seemed obvious that big oil corporations like Chevron would also be ... Dr. Pepper, and Pepsi to Kraft Foods, Nestle Waters, and various energy drinks. ... Several real estate firms have contributed big money, including Kilroy Realty Corporation and Cypress Management Company. ... Part of HuffPost on HPMG News.'
p4
aS'Oct 26, 2010 - RSS feed subscribers will automatically receive news about important additions to ... from the landfill to Houston, Texas, where it is used by Ineos Olefins Corporation. ... In May 2010, LMOP Industry Partner Chevron Energy Solutions and the ...'
p5
aS"Oct 26, 2010 - DOW JONES, A NEWS CORP COMPANY. News Corp is a .... Exxon, Shell and Chevron declined to comment on Mr. Dudley's remarks. Some in the industry ..."
p6
aS'Oct 25, 2010 - ConocoPhillips and Chevron Corp. have already abandoned some Gulf prospects ... testimony before the Senate Energy and Natural Resources Committee.'
p7
aS'Oct 25, 2010 - (James Pressley writes for Muse, the arts and leisure section of Bloomberg News. ... ConocoPhillips and Chevron Corp. have already abandoned some Gulf prospects ... testimony before the Senate Energy and Natural Resources Committee.'
p8
aS"Oct 25, 2010 - The energy density of oil derivatives such as gasoline is superior to any other substance in liquid or gas form. That's why the majority of cars are propelled either ..."
p9
aS"Oct 26, 2010 - Over the years she'd persuaded hundreds of troubled energy, mining and waste-disposal ... compared with 240 for Chevron and even fewer for its other competitors. ... Curious for more news, she called her old office in downtown Seattle. ... largest merger in corporate historythe $61 billion buyout of Amoco Corporation."
p10
a.