(lp0
S"Oct 27, 2010 - A. D. Koen Gulf Coast News Editor Robin Buckner Price Staff Writer Major U.S. oil ... Leading Herold's list of available deals is Chevron Corp. offering for sale U.S. oil .... Among independent producers, Devon Energy Corp., Oklahoma City, has ..."
p1
aS'Oct 27, 2010 - While Central Asia is poised to become a major world supplier of energy, especially oil and gas, ..... International news for oil and gas professionals ... Chevron Corp. plans a $26.6-billion capital and exploratory investment program for 2016, ...'
p2
aS"Oct 26, 2010 - Chevron has added a news release to its Investor Relations website. ... Chevron Corporation is one of the world's leading integrated energy companies."
p3
aS'Oct 27, 2010 - ... where it touts itself as providing cleaner energy for the next generation. ... Chevron\'s "We Agree" ad campaign is so rife with bitter but mock-worthy irony, in fact, ... dominated the news and drowned out Chevron\'s corporate greenwashing.'
p4
aS"Oct 27, 2010 - ... where it touts itself as providing cleaner energy for the next generation. ... Chevron's We Agree ad campaign is so rife with bitter but mock-worthy irony, in fact, ... dominated the news and drowned out Chevron's corporate greenwashing."
p5
aS'Oct 26, 2010 - It seemed obvious that big oil corporations like Chevron would also be ... Dr. Pepper, and Pepsi to Kraft Foods, Nestle Waters, and various energy drinks. ... Several real estate firms have contributed big money, including Kilroy Realty Corporation and Cypress Management Company. ... Part of HuffPost on HPMG News.'
p6
aS'Oct 26, 2010 - RSS feed subscribers will automatically receive news about important additions to ... from the landfill to Houston, Texas, where it is used by Ineos Olefins Corporation. ... In May 2010, LMOP Industry Partner Chevron Energy Solutions and the ...'
p7
aS"Oct 26, 2010 - DOW JONES, A NEWS CORP COMPANY. News Corp is a .... Exxon, Shell and Chevron declined to comment on Mr. Dudley's remarks. Some in the industry ..."
p8
aS"Oct 27, 2010 - Ten Heriot-Watt students have been awarded Chevron Scholarships under the ... for delivering tomorrow's energy, to develop a world-class, enterprise-level, ..."
p9
aS'Oct 27, 2010 - Alumni News ... Texas MBA Energy Finance Team Lights Tower ... Sponsors for the challenge included Chevron Corporation, Bank of America, Merrill Lynch ...'
p10
a.