(lp0
S'Oct 19, 2010 - Investors  News  Careers  Worldwide  Contact ... Producing Geothermal Energy; Chevron Tests Solar Technology. Chevron is the largest producer of geothermal energy, a renewable resource that ... 2001 - 2016 Chevron Corporation.'
p1
aS"Oct 19, 2010 - Chevron's new 'We Agree' ad campaign aims find common ground with people around the world on energy issues. But an activist-driven spoof stole the show."
p2
aS"Oct 19, 2010 - Chevron has added a news release to its Investor Relations website. .... Chevron Corporation is one of the world's leading integrated energy companies."
p3
aS'Oct 19, 2010 - "MyHair Cares," which was promoted in a slick Video News Release and .... Chevron Corporation is one of the world\'s leading integrated energy companies.'
p4
aS'Oct 19, 2010 - Activists seeking to condemn Chevron Corp. ... Some news sites were fooled by the fake site and news releases, and later sent corrected updates. ... identify and highlight common ground on key energy issues so we can move forward safely, ...'
p5
aS'Oct 20, 2010 - Company News ... Chevron Corp, the second-largest US energy company, plans to start looking for natural gas in the Saudi ... Finding gas in the shared zone will also help Chevron unlock oil deposits at two of the three reservoirs at the Saudi- ...'
p6
aS'Oct 20, 2010 - Chevron launched a new ad campaign Monday. ... Network News ... an oil company that supports renewable energy and small businesses, among other things, ...'
p7
aS"Oct 19, 2010 - Chevron's latest greenwashing campaign is nothing new, of course: oil companies have been trying to align themselves with the right side of social movements for ages, as this newspaper ad from March 1944 shows. ... most likely the synthetic nitrogen kind from the corporation's own fossil fuels. ... Climate & Energy ..."
p8
aS"Oct 19, 2010 - O'Dwyer's Inside News of Public Relations & Marketing Communications ... The real ad/PR campaign seeks to soften the edge of the energy giant by promising ..."
p9
aS"Oct 21, 2010 - Chevron Corp. has approved a $7.5 billion project to develop two deep-water fields in the outer rim ... Though it won't make the U.S. energy independent, production from Lower Tertiary fields is ... Get Journal good news straight to your email."
p10
a.