(lp0
S'Oct 3, 2010 - Chevron has received government consent to drill an exploration well to evaluate ... Upstream oil and gas news for exploration and production professionals ... The Department of Energy and Climate Change (DECC) said the strictest possible ...'
p1
aS'Oct 3, 2010 - Chevron and Occidental have not extended their five-year oil and gas licences in ... Upstream oil and gas news for exploration and production professionals.'
p2
aS"Oct 3, 2010 - Chevron is one of the world's leading integrated energy companies. ... Chevron puts people at the center of everything we do  from ..... of Chevron Corporation."
p3
aS"Oct 3, 2010 - Even on an ordinary day at Chevron, you're part of an extraordinary mission to bring the world vital energy."
p4
aS'Oct 4, 2010 - ... according to the Ivorian ministry of mines and energy, an increase of 12.3% over 2008. ... Get All the Oil and Gas Journal News Delivered to Your Inbox ... Chevron Corp. has started LNG and condensate production at the Gorgon project on ...'
p5
aS'Oct 4, 2010 - ConocoPhillips and Chevron Corp. have already abandoned some Gulf ... An analysis conducted by consulting firms Quest Offshore and Blade Energy Partners ...'
p6
aS'Oct 4, 2010 - ... majors -- Exxon Mobil Corp., Royal Dutch Shell Plc, Chevron Corp., Total SA ... also very prolific, said Philipp Chladek, a London-based energy analyst with ...'
p7
aS"Oct 4, 2010 - Petron Corp. together with Two San Isidro SIAI Assets Inc., formed a P3.4- billion new company that will engage in the power generation ... Philippine News for the Filipino Global Community ... s 27.9 percent and Chevron Philippines Inc.'s 13.9 percent. ... San Miguel, through power generation arm San Miguel Energy Corp."
p8
aS'Oct 4, 2010 - Samarge, Steven, Toyota Motor Corporation, Chief Engineer and Director of Engineering, Toyota Financial ..... Siegele, Paul, Chevron Corporation, President, Chevron Energy Technology Company ... Singh, Bedi, News Corporation, CFO.'
p9
aS'Oct 4, 2010 - Natural gas producer Chesapeake Energy Corp (CHK. ... to business as normal with the news that the UK energy department has agreed to let Chevron begin ...'
p10
a.