(lp0
S'Oct 6, 2010 - ... to print this article. Industry News Energy ... Greg Garland, former president and chief executive of Chevron Phillips Chemical Co. LLC, has ... Chevron Phillips, based in The Woodlands, is jointly owned by ConocoPhillips and Chevron Corp.'
p1
aS'Oct 7, 2010 - DOW JONES, A NEWS CORP COMPANY .... value after Exxon and Chevron Corp., engaged in aggressive deal-making during the energy boom but found itself ...'
p2
aS"Oct 6, 2010 - While news of the White House solar installation captured the world's attention ... which will be overseen by the Chevron subsidiary Chevron Energy Solutions of ..."
p3
aS'Oct 7, 2010 - BrightSource Energy Inc said Thursday it won final approval for a $1.7 billion-plus, 370-megawatt ... plants in recent weeks, including a 1,000 mW plant from Chevron Corp and Solar Millennium AG. ... Our top news photography last month.'
p4
aS'Oct 6, 2010 - The Chevron Lucerne Valley Solar Project, proposed by Chevron Energy Solutions of California, will employ solar photovoltaic technology on 422 acres of ...'
p5
aS'Oct 6, 2010 - In late September, Bingaman told the news service Reuters of climate change ... America, American Gas Association, Enron, Chevron, BP and El Paso Energy. ..... Subsidiary of Occidental Petroleum Corp., and the largest oil producer in Texas'
p6
aS'Oct 6, 2010 - ... Ken Salazar has approved the first large-scale solar energy projects to be built on public ... and the Chevron Lucerne Valley Solar Project, managed by Chevron and pulling in ... Want more news like this? ... A Bonnier Corporation Company.'
p7
aS'Oct 7, 2010 - We wanted to see how this compares to other oil giants and we took a look at BP plc (NYSE: BP), Exxon Mobil Corporation (NYSE: XOM), Chevron Corporation ...'
p8
aS'Oct 6, 2010 - Back to 2010 News Releases ... Greg C. Garland, formerly president and chief executive officer of Chevron Phillips Chemical Company, will join the company ... ConocoPhillips is an integrated energy company with interests around the world.'
p9
aS"Oct 6, 2010 - Wells Fargo Misjudged the Risks of Energy Financing ... Alan Hirshberg, 49, formerly a vice president at Exxon Mobil Corp., is joining the company as a ... One of the executives in today's news release may become CEO within a year and a half, Weiss said, ... Exxon Mobil and Chevron are the two largest U.S. oil companies."
p10
a.