(lp0
S'Nov 19, 2010 - Aragorn Power and Energy Corp., a subsidiary of listed APC Group Inc., has signed agreements with Chevron Kalinga Ltd. of Chevron Geothermal Philippines for a ... Home of GMA News Online listing top breaking Philippine and international ...'
p1
aS"Nov 18, 2010 - By Dave Brown  Exclusive to Gas Investing News ... B) and Chevron Corp. ... it was speculation this week that China, the world's biggest energy-consuming ..."
p2
aS"Nov 19, 2010 - ... its midstream business in Pennsylvania's Marcellus shale, acquiring Cabot Oil & Gas Corp. ... MARKET WATCH: Economic gains, weak dollar boost energy prices ... Get All the Oil and Gas Journal News Delivered to Your Inbox ... Chevron Corp. has started LNG and condensate production at the Gorgon project on Barrow ..."
p3
aS"Nov 19, 2010 - Terminal News ... Buckeye completes Chevron terminal purchase ... company and storage player Gibson Energy's Edmonton Oil Terminal on 17 November."
p4
aS'Nov 19, 2010 - Clark had served as a director of the corporation since 2006, most recently as ... -0.54%. -0.46. Chevron. 97.23. -0.77%. -0.75. ConocoPhillips. 43.70. -1.18%. -0.52 .... After 18 years as CFO of Chesapeake Energy Corp., Marcus C. Rowland has ... Get All the Oil & Gas Financial Journal News Delivered to Your Inbox for free.'
p5
aS'Nov 19, 2010 - The Hibernia field was discovered in 1979 by the drilling of the Chevron et al Hibernia P-15 well. Between 1979 and 1984, Mobil, as operator for the participants, ...'
p6
aS"Nov 18, 2010 - China Petrochemical Corp., or Sinopec Group, has found gas during ... but the extent of reserves there isn't clear yet, a Myanmar energy official said Thursday."
p7
aS'Nov 19, 2010 - The field lies in 3,500ft of water close to the Chevron-operated Tahiti and Tonga ... The rig, which is is contracted by Nexen and Noble Energy for three and a half ...'
p8
aS'Nov 18, 2010 - News Release ... Environmental Groups and Chevron Phillips Chemical Co. ... Chevron Phillips Would Cut Emissions from Cedar Bayou Plant in Baytown, ...'
p9
aS'Nov 19, 2010 - Wollam Construction, with support of Roberts & Schaefer Company, GSL Electric, and Selway Corporation completed the Elkol Upgrade project for Chevron ...'
p10
a.