(lp0
S'Nov 13, 2010 - The PSAs with units of Exxon, Chevron, and Mobil cover blocks and/or ... International news for oil and gas professionals ... Chevron Corp. plans a $26.6-billion capital and exploratory investment program for 2016 ... Customer Experience Management for Energy Companies: The Path to Happy Customers & Greater Results.'
p1
aS"Nov 12, 2010 - CSPnet.com - Convenience Store News  April 2016 CSP cover .... San Ramon, Calif.-based Chevron is one of the world's leading integrated energy companies."
p2
aS'Nov 11, 2010 - 10, executives with oil and gas company Norse Energy Corp. were busy overseas, ... July to September, some of the bigger news of interest actually flows from ... as when Chevron purchased Atlas Energy for $4.3 billion, as announced Nov. 9.'
p3
aS"Nov 12, 2010 - Energy News ... that the company's US subsidiary Rocksource Gulf of Mexico Corporation (RGOM) has received a third .... Chevron Accelerates Sale of Shallow ."
p4
aS'Nov 11, 2010 - Workers at a Chesapeake Energy natural gas well site near Burlington, Pa., ... week when oil giant Chevron struck a $4.3 billion deal to buy Atlas Energy, a major ... Gas Corp. the $12 million cost of installing a water line to serve 14 families in ...'
p5
aS'Nov 13, 2010 - News Feed Comments ... Oil and Gas Magazines  Chevron expects Atlas Energy, which it has agreed to buy for $3.2 ... of America Merrill Lynch Global Energy Conference, two days after Chevron announced the Atlas deal, Reuters reported.'
p6
aS'Nov 11, 2010 - CARICOM Energy Programme Quarterly Newsletter ... Energy News ..... as the Petroleum Corporation of Jamaica, ... Companies (Chevron, Total, Texaco, etc),.'
p7
aS'Nov 11, 2010 - (Reuters) - Chevron Corp expects Atlas Energy, which it has agreed to buy for $3.2 ... GUELPH  If nobody likes the bearer of bad news, it must be painful being ...'
p8
aS'Nov 11, 2010 - In more recent news (2010): Petronas (state oil company of Malaysia), after this ... In October 2010, it sold off its assets in Ethiopia to SouthWest Energy (H.K.) Ltd ..... Sands owned by Shell Canada, Chevron, and Marathon Oil Corp (Alberta Oil ...'
p9
aS'Nov 11, 2010 - However, it is by far the largest in the energy field with Chevron (CVX) and ... Exxon Mobil Corp. appears to have the prospect of improving earnings. .... The good news about the current marketplace is - we are presented frequent and ...'
p10
a.