(lp0
S"Nov 17, 2010 - Oil and gas will continue to be pillars for global energy supply for decades to come ... energy technology can take their place, said Robert N. Ryan Jr., Chevron's vice president for global exploration. .... Credit Andrew Harrer/Bloomberg News."
p1
aS'Nov 17, 2010 - Santa Monica College|News Room|SMC Dedicates Solar-Energy Efficiency Project ... Chevron Energy Solutions designed, engineered, installed and operates the ... SMC has also improved its energy efficiency through a campus-wide lighting ...'
p2
aS'Nov 16, 2010 - The Energy Report: Josh, What makes your hedge fund different from others? .... I think that negative news about Cabot has scared investors. ... out by Chevron Corporation (NYSE:CVX), and EXCO Resources Inc. (NYSE:EXCO) is in the midst ...'
p3
aS'Nov 16, 2010 - Refiners including Royal Dutch Shell Plc, ConocoPhillips, Chevron Corp. and Total SA ... Valero Delaware City Sold to PBF Energy 190 Delaware in April 2010.'
p4
aS'Nov 18, 2010 - A crop of energy efficiency and renewable energy projects are proliferating at ... was designed and engineered by Chevron Energy Solutions, which will install, ...'
p5
aS'Nov 16, 2010 - ExxonMobil Corp. ... of international oil companies operating in the region, including Chevron Corp., Total SA, ... in our view, said Adam Sieminski, chief energy economist, Deutsche Bank AG, ... International news for oil and gas professionals ...'
p6
aS'Nov 16, 2010 - DOW JONES, A NEWS CORP COMPANY .... 262,650-square-foot (24,400-square-meters) building are energy group Chevron International Ltd. and Visa Corp.'
p7
aS'Nov 18, 2010 - Skip to main content. Home  Welcome  Publications  News & Updates  Links  FracFocus: Chemical Disclosure Registry. Hydraulic Fracturing: How it Works ...'
p8
aS'Nov 16, 2010 - Hart Energy also offers energy industry GIS data and a large verity of maps. ... the leading providers of news, data and analysis for the global energy industry.'
p9
aS'Nov 16, 2010 - ... on Vanguard Energy Inv Fund (VGENX) performance, news, asset allocation, top holdings - Vanguard funds. ... Chevron Corporation Common Stoc [5.17%]'
p10
a.