(lp0
S'Nov 1, 2010 - Oil giant Chevron Corp. has given the green-light on the initial $7.5 billion .... Flat or softer market conditions expected in the energy insurance market for the next .... Get All the Oil & Gas Financial Journal News Delivered to Your Inbox for free.'
p1
aS'Nov 1, 2010 - News for the Santa Monica College Community ... SMC has completed a $3.6 million solar and energy efficiency project that is expected to save ... Chevron Energy Solutions designed, engineered, installed and operates the solar system and ...'
p2
aS"Oct 31, 2010 - Environmental news from California and beyond ... politicians have waged a scorched-earth campaign against Valero Energy Corp., the nation's ... Unlike integrated oil companies such as Chevron Corp., Royal Dutch Shell and Exxon, which ..."
p3
aS'Nov 1, 2010 - International News for oil and gas professionals. ... acquisition involves assets that BP acquired among other assets from Devon Energy Corp. in March.'
p4
aS'Nov 1, 2010 - oil and gas news, press releases, oil price. ... BG Group, together with Chevron Corporation, Royal Dutch Shell Plc and the Nigerian National Petroleum ...'
p5
aS"Nov 1, 2010 - News listings. energy-pedia development and production ... N) with 6.5 percent, the government of Canada's Canada Hibernia Holding Corp with 8.5 percent, ..."
p6
aS'Nov 2, 2010 - Multinational oil companies, such as BP, Caltex (Chevron) and Shell, distribute and sell fuels and lubricants. The Energy Affairs Division of the Ministry of Mines, ...'
p7
aS'Nov 1, 2010 - News & Statements ... 26, 2010, Memorandum from the Division of Corporation Finance regarding an August 11, 2010, meeting with Senator Thomas Carper. Aug. ... 19, 2010, Alissa E. Ballot, Vice President and Corporate Secretary, NextEra Energy. Aug. ... Nisource, Quest Diagnostics, Aetna, Apache, Target and Chevron.'
p8
aS'Nov 1, 2010 - Although the company buried the news in the release, Goodrich announced that it has sold some shallow .... $71.47. The Quest: Energy, Security, and the Re'
p9
aS'Nov 1, 2010 - ... children in Oakland, Calif., center; and a Chevron oil rig in the Gulf of Mexico. ... With energy independence all the rage, lawmakers have a debate on their hands ... Corporation for Public Broadcasting, the government-sponsored corporation ...'
p10
a.