(lp0
S'Nov 10, 2010 - Chevron agreed to acquire natural-gas producer Atlas Energy for $3.2 billion, joining rivals Exxon Mobil, Shell and ... DOW JONES, A NEWS CORP COMPANY.'
p1
aS"Nov 10, 2010 - Investors expect more deals to follow yesterday's agreement by Chevron Corp. to buy Atlas Energy Inc. for $3.2 billion in cash to gain access to natural gas in the ..."
p2
aS"Nov 10, 2010 - Chevron Corp's decision to buy US natural gas producer Atlas Energy has brought the two former partners  Chevron and Reliance Industries Ltd (RIL) ..."
p3
aS'Nov 11, 2010 - Wednesday morning I came across two seemingly simple news stories that ... 36 percent to $43.03 in premarket trade after Chevron Corp (NYSE: CVX) said it ...'
p4
aS'Nov 10, 2010 - Following in the footsteps of rival Exxon Mobil Corp. while commodity prices are ... unconventional natural gas explorer, Atlas Energy Inc. of Moon Township, Pa.'
p5
aS"Nov 10, 2010 - Chevron Corp. on Tuesday became the latest oil giant to bet big on the natural gas in Pennsylvania's Marcellus Shale, agreeing to pay $4.3 billion for Atlas ..."
p6
aS"Nov 10, 2010 - FORTUNE -- If you didn't think America's energy policy battles could get any more ... Gas could actually be a valuable asset to companies Chevron's size, says ..."
p7
aS'Nov 10, 2010 - A high-energy, results-driven business leader, Larry has a proven track ... Previously, Larry served as Chief Executive Officer of Bradco Supply Corporation, one of the ... in Newport News, Virginia, a subsidiary of Wolseley, PLC, Theale, England. ... Jeff is an active board member of the Chevron Texaco Petroleum Marketers ...'
p8
aS"Nov 12, 2010 - CSPnet.com - Convenience Store News  April 2016 CSP cover .... San Ramon, Calif.-based Chevron is one of the world's leading integrated energy companies."
p9
aS'Nov 10, 2010 - Middle east Oil & Gas News Portal  Arabianoilandgas.com ... Chevron Corporation and Atlas Energy announced Tuesday that Chevron would acquire Atlas ...'
p10
a.