(lp0
S'Nov 15, 2010 - Chevron. Chevron: CSR & Sustainability News. Chevron is an American multinational energy corporation headquartered in San Ramon, California, United ...'
p1
aS'Nov 15, 2010 - ABB Ltd, Applied Materials Inc, BP Plc, Centrica Plc, Chevron Corporation, ..... the news. The global gas market, on an energy basis, is. 70% the size of the ...'
p2
aS'Nov 16, 2010 - The Energy Report: Josh, What makes your hedge fund different from others? .... I think that negative news about Cabot has scared investors. ... out by Chevron Corporation (NYSE:CVX), and EXCO Resources Inc. (NYSE:EXCO) is in the midst ...'
p3
aS"Nov 15, 2010 - Cheney, Rothschild, and Fox News' Murdoch to Drill for Oil in Syria, Violating ... Loses Latest Stage of Amazon Pollution Battle - More Trouble For Chevron."
p4
aS'Nov 16, 2010 - Refiners including Royal Dutch Shell Plc, ConocoPhillips, Chevron Corp. and Total SA ... Valero Delaware City Sold to PBF Energy 190 Delaware in April 2010.'
p5
aS'Nov 16, 2010 - ExxonMobil Corp. ... of international oil companies operating in the region, including Chevron Corp., Total SA, ... in our view, said Adam Sieminski, chief energy economist, Deutsche Bank AG, ... International news for oil and gas professionals ...'
p6
aS'Nov 15, 2010 - Chevron. 102.64. +0.94%. +0.95. ConocoPhillips. 47.08. +0.00. +0.00 ... CFO of First Seismic Corp., and was an executive officer managing a multi-state energy ... Get All the Oil & Gas Financial Journal News Delivered to Your Inbox for free.'
p7
aS'Nov 16, 2010 - Exxon Mobil news and technical articles from Oil & Gas Financial Journal. ... Chevron. 101.69. +1.18%. +1.19. ConocoPhillips. 47.08. +0.04%. +0.02 ... Hilcorp Energy has agreed to buy the Cook Inlet assets of an Exxon Mobil subsidiary, ... president of ExxonMobil Chemical Co. and vice president of Exxon Mobil Corp.'
p8
aS'Nov 16, 2010 - DOW JONES, A NEWS CORP COMPANY .... 262,650-square-foot (24,400-square-meters) building are energy group Chevron International Ltd. and Visa Corp.'
p9
aS'Nov 16, 2010 - California voters said yes to the measure that really mattered to Chevron. ... a federal energy bill, being openly gay in the military, and governing California.'
p10
a.