(lp0
S'Nov 27, 2010 - Chevron Corp., formerly ChevronTexaco Corporation manages its investments in subsidiaries and ... in fully integrated petroleum operations, chemicals operations, coal mining, power and energy services. ... USPages Latest Business News.'
p1
aS'Nov 25, 2010 - Although ExxonMobil, Shell, ConocoPhillips, Chevron, and BP do not seem to have .... News reports suggest that the National Response Corporation dedicated ..... the offshore energy insurance market currently has a finite amount of liability ...'
p2
aS'Nov 26, 2010 - According to figures provided by the Canadian Geothermal Energy ..... of the Exxon Corporation, the Chevron Corporation and the Southern Company as being ..... In other words, news articles (on the Tyee labeled "NEWS") should avoid bias, ...'
p3
aS'Nov 25, 2010 - In what is maybe the most spectacular deal, in June US giant Chevron teamed ... at the Bulgarian Ministry of Economy, Energy and Tourism (the entity in charge of bids ... refrained to comment when contacted by Novinite.com (Sofia News Agency). ... Romania, Ukraine, natural gas, Anadarko Petroleum Corp., Total, Statoil.'
p4
aS"Nov 25, 2010 - REGIONAL NEWS ... Seven Energy has also issued warrants to Petrofac which, subject to Petrofac's satisfaction of .... Chevron Energy Technology Company and GE Oil & Gas announced today the creation of the Chevron GE Technology ."
p5
aS'Nov 26, 2010 - TOURMALINE OIL CORP. IS A CANADIAN INTERMEDIATE CRUDE OIL AND ... Latest News Releases. 05/04/2016. TOURMALINE ANNOUNCES CLOSING ...'
p6
aS'Nov 26, 2010 - In 1976, he was named assistant to the president of Chevron Corp. and, in 1979, ... He is a board member of Transnational Energy Corporation., a private US ...'
p7
aS"Nov 26, 2010 - Chevron Corporation, owner of the Texaco brand, is seeking buyers for its ... Chevron is one of the world's leading integrated energy com-panies whose roots ..."
p8
aS'Nov 26, 2010 - After postdoctoral years in West Germany and Chile, he worked for Chevron and Mobil, taught at ... Get All the Oil and Gas Journal News Delivered to Your Inbox ... Pason Systems Corp. knows a thing or two about information and intelligence. ... Customer Experience Management for Energy Companies: The Path to Happy ...'
p9
aS'Nov 26, 2010 - Home / Business News ... share prices has the company looking to pass Microsoft and become the second largest corporation in the US. .... Energy Resources'
p10
a.