(lp0
S'Nov 29, 2010 - DOW JONES, A NEWS CORP COMPANY .... Petrobras and companies such as Chevron Corp., Norwegian oil giant Statoil ASA ... A large, developing country with massive energy needs, Brazil for a long time was a major importer of crude oil.'
p1
aS'Nov 29, 2010 - Idenov almost immediately sent a letter of protest to Chevron CEO Dave O,Reilly, ... (C) In subsequent conversations with the Ambassador and Eurasian Energy ... he had been instructed to personally deliver the news of the firing to Kulibayev, ...'
p2
aS"Nov 28, 2010 - Noble Energy Announces Significant Discovery at Leviathan Offshore Israel ..... The latest news on the BP oil spill follows the federal government's decision not to open ..... Chevron Corporation and Royal Dutch Shell plc each saw their profits ..."
p3
aS'Nov 29, 2010 - Horn River News ... is being encouraged as a way of helping Europe to diversify its energy sources. ... Chevron to search for shale gas in PolandIn "Chevron".'
p4
aS"Nov 29, 2010 - ... in their spending over the same period, according to Evaluate Energy's New NOC Service (see graph below). .... Linn Energy: Good News For Unitholders?"
p5
aS'Nov 28, 2010 - Chevron installed a multiphase pump in an Alberta oil field, producing a high gas volume ... More recently, Ocean Energy Inc., in cooperation with Weatherford Global .... This would seem to be good news for pump manufacturers, but the truth is that .... Chevron Corp. has signed a nonbinding heads of agreement with China ...'
p6
aS'Nov 28, 2010 - ... about 87 degrees and for it to move through the subsea pipeline to the processing facility it needs some energy and some temperature to ensure the flow..'
p7
aS'Nov 28, 2010 - Energy for Learning ... Each school year, Chevron Pascagoula Refinery employees visit numerous local classrooms to ... 2001 - 2016 Chevron Corporation.'
p8
aS'Nov 29, 2010 - Alternative energy news, and information about renewable energy technologies. ... The fact that there were about 10,000 windmills to tap wind energy in the Year ... Studies tend to indicate that though the use of windmill to generate energy ...'
p9
aS'Nov 29, 2010 - Fund price for UBS (Lux) Equity SICAV - Energy Transformation (USD) P-acc along with Morningstar ratings & research, long term ... Chevron Corp, Energy, 6.57.'
p10
a.