(lp0
S"Nov 22, 2010 - IHS Named Leader in Carbon and Energy Management Software by ... (BUSINESS WIRE)--Chevron Corporation's announcement yesterday that it will acquire ..."
p1
aS"Nov 22, 2010 - Patricia Yarrington's energy fix. November 22, 2010. Chevron's CFO on the gulf spill, the future of fossil fuels, and her journey to the top of the oil industry. More."
p2
aS"Nov 22, 2010 - The News  Contact Us. Local ... Illegal expropriation of energy assets is a red flag for the international community's ... such as ExxonMobil, Royal Dutch Shell, BP, Chevron Corporation, ConocoPhillips and Total S.A., operating in Kazakhstan."
p3
aS"Nov 23, 2010 - Chevron Counts on Jigsaw Puzzle of Safety Regulation to Escape Oversight, ... Consumer Watchdog NEWS RELEASE Wednesday, Nov. ... It's the story of a corporation that for years cut costs to fuel growth above all, viewed safety as a ... Occidental's Record High Profit  Energy Co's Pay Regulators' Way  Exxon's Record ..."
p4
aS'Nov 22, 2010 - MercoPress - South Atlantic News Agency ... PDVSA awarded minority stakes in joint ventures to groups of companies led by Repsol YPF SA and Chevron Corp.'
p5
aS'Nov 22, 2010 - Since the 1950s, American energy companies have drilled into m ... ... News and commentary about environmental issues. ... While ExxonMobil and Chevron have dominated the oil industry, scrappier independent companies ... In July 2010, the state-owned China National Petroleum Corporation announced that it aims to ...'
p6
aS'Nov 22, 2010 - The 2007 Energy Independence and Security Act expanded the program to ..... 7 Jeff Montgomery, Valero refinery in Delaware City to close permanently, The News Journal, November ... Chevron Perth Amboy Refinery/Terminal Perth Amboy.'
p7
aS"Nov 22, 2010 - DealBook - A Financial News Service of The New York Times ... The energy industry's love for shale gas has been in evidence in recent years. ... XTO Energy last December and Chevron's $3.2 billion purchase of Atlas Energy announced Nov."
p8
aS'Nov 22, 2010 - (NYSE:TAC), Barrick Gold Corp. (NYSE:ABX), ARM ... (Nasdaq:LIFE), Duke Energy Corp. (NYSE:DUK) ... News Provided by Acquire Media. Close window ...'
p9
aS'Nov 23, 2010 - ... Jacob Rothschild. :: Globes. More on oil shale and energy independence in Israel: ... suggest contacting Chevron Oil Corporation for possible partnership. In 1983 conducted a pilot .... Send news tips to tips@greenprophet.com. Get Excited.'
p10
a.