(lp0
S'Nov 5, 2010 - Sojitz Corporation (Sojitz) announces that it has commenced oil and gas ... Energy Resources Technology GOM, Inc, (ERT), a wholly owned ... Although production from Phoenix Field was commenced by Chevron USA, ... News Releases.'
p1
aS"Nov 5, 2010 - Daewoo International Corp. may build a deep-water port at Banana in the ... Bloomberg Television  Bloomberg Radio  Bloomberg Mobile Apps  News Bureaus .... to discuss possible projects to improve Congo's energy and water infrastructure, .... included Chevron, Royal Dutch Shell Plc, Halliburton Co., Murphy Oil Corp., ..."
p2
aS'Nov 5, 2010 - A new technique used to evaluate apparent wettability has allowed Chevron Inc. to ... Halliburton Energy Services Inc., Cementing Technology Manual, Section 16. ... International news for oil and gas professionals ... Chevron Corp. has signed a nonbinding heads of agreement with China Huadian Green Energy Co. Ltd. for ...'
p3
aS'Nov 5, 2010 - Ltd., Chevron U.K. Ltd., Conoco (U.K.) Ltd., Exxon Production Research Co., .... International news for oil and gas professionals ... Chevron Corp. has signed a nonbinding heads of agreement with China Huadian Green Energy Co. Ltd. for ... This report will provide an overview of the state-of-the-market in the energy sector.'
p4
aS'Nov 4, 2010 - Generally, these are agricultural products, energy, gold and silver, and industrial ... that produce oil and gas, distribute oil and gas (Exxon, Chevron, Petrochina), ...'
p5
aS'Nov 4, 2010 - The most significant receipt of the U.S. company Devon Energy for the third quarter of this ... rights in relation to the transaction - Chevron (0.99 percent), Inpex (0.96 percent) and Itochu (0.38 percent). ... Contact our journalist at news@trend.az'
p6
aS"Nov 4, 2010 - In the overall Platts Top 250 Global Energy Company Rankings, that rated world's leading ... of France E On AG of Germany, Petrochina Co, China Petroleum, Chevron Corp of US and Royal Dutch Shell. ... Fair and unbalanced news or views?"
p7
aS"Nov 5, 2010 - Alternative Energy News ... Entries Tagged as 'Home Energy Economics' ... Insulation is one of the most important factors in improving building energy efficiency ..."
p8
aS'Nov 4, 2010 - Confidence Vote: Chevron sanctions ultra-deepwater Jack-St. Malo development in the ... LINN Energy spent $352.2 million acquiring natural gas acreage in the ...'
p9
aS"Nov 4, 2010 - Sensitive. 308. Communication Services. 309. Energy. 310. Industrials. 311 .... Companies in this sector include Ford Motor Company, McDonald's Corporation and News ... Companies in this sector include ExxonMobil Corporation, Chevron ..."
p10
a.