(lp0
S'Nov 9, 2010 - SAN RAMON, Calif., November 9, 2010  Chevron Corporation (NYSE: CVX) and Atlas Energy, Inc. (NASDAQ: ATLS) announced today that Chevron would ...'
p1
aS'Nov 9, 2010 - Chevron Corp., the second-largest U.S. oil company, agreed to buy Atlas Energy Inc. for $3.2 billion, giving it access to the natural gas-rich Marcellus Shale ...'
p2
aS"Nov 9, 2010 - Chevron Corp (CVX.N) plans to buy U.S. natural gas producer Atlas Energy ATLS. ... Thomson Reuters is the world's largest international multimedia news ..."
p3
aS"Nov 9, 2010 - NEW YORK (MarketWatch)  Chevron Corp. said Tuesday it will buy Atlas Energy Inc. in a $4.3 billion deal ... Chevron's move to acquire Atlas Energy comes less than a year after fellow blue chip Exxon Mobil ... More News from MarketWatch."
p4
aS'Nov 9, 2010 - Chevron has agreed to acquire Atlas Energy for $4.3 billion, the most recent deal by an energy ... DealBook - A Financial News Service of The New York Times.'
p5
aS'Nov 9, 2010 - Chevron to Buy Atlas Energy in a Competition for Natural Gas ... Credit Daniel Acker/Bloomberg News ... Resources Corporation, the EQT Corporation and the Cabot Oil and Gas Corporation increased at least 4 percent in heavy trading.'
p6
aS"Nov 9, 2010 - Atlas Energy, Inc. (NASDAQ: ATLS) (Atlas Energy or ATLS) announced today that it has entered into a definitive agreement t. ... Chevron Corporation is one of the world's leading integrated energy .... English; EON: Enhanced Online News ..."
p7
aS'Nov 8, 2010 - DSME received an order from Chevron to construct an offshore platform for oil and natural gas production. ... He continued to say, "Energy development projects are currently progressing smoothly, ... Company: Chevron Corporation, more info.'
p8
aS"Nov 10, 2010 - http://www.philly.com/philly/news/ ... Chevron Corp. on Tuesday became the latest oil giant to bet big on the natural gas in Pennsylvania's Marcellus ... agreeing to pay $4.3 billion for Atlas Energy Inc., a producer with deep Philadelphia roots."
p9
aS'Nov 8, 2010 - Meanwhile, Chevron hammers away at its mammoth liquefied natural gas plant off the coast of Australia, at a total cost of more than $40 billion. (Liquefied ...'
p10
a.