(lp0
S"Dec 1, 2010 - Chevron will gain Atlas Energy's estimated 9 tcf of natural gas resources, .... 2009 through an operated 50/50 joint venture with Hess Corp. in Wayne County, .... Get All the Oil & Gas Financial Journal News Delivered to Your Inbox for free."
p1
aS'Dec 1, 2010 - Noble Energy Announces Significant Discovery at Leviathan Offshore Israel ...... (BUSINESS WIRE)--Chevron Corporation (NYSE:CVX) today announced that the ...'
p2
aS'Nov 30, 2010 - Wikileaks: What the Chevron-Kazak Cellphone Row Reveals About Big Oil Overseas ... But it also speaks to the broader issue of energy resources and the plight of major integrated .... Install the FREE app to stream live 24/7 news with CBSN.'
p3
aS'Dec 1, 2010 - ... showing to the world that brave decisions are possible," Ms Espinosa told BBC News. ... and would help Ecuador move towards alternative forms of energy. ... against Texaco (now owned by Chevron Corporation) for allegedly dumping ...'
p4
aS"Dec 1, 2010 - Article Comments Other News Research Magazine ... Through the acquisition of Chevron's Zambian assets, Engen said that it would be in ... Other Energy News ..."
p5
aS'Dec 2, 2010 - Energy efficiency experts gather in Canada to discuss economic growth ... Petroleumnow known as the British Petroleum Company and Chevron Corporation.'
p6
aS"Dec 1, 2010 - Europe's dash for gas is leading Halliburton, Chevron and Exxon to consider bringing ... In August, US energy corporation Halliburton carried out the first hydraulic ... Caudrilla co-founder Chris Cornelius told Channel 4 News earlier this year."
p7
aS'Dec 2, 2010 - Pennzoil had acquired the Chevron interests in settling a dispute. Today, Amoco .... International news for oil and gas professionals ... Chevron Corp. has signed a nonbinding heads of agreement with China Huadian Green Energy Co. ... This report will provide an overview of the state-of-the-market in the energy sector.'
p8
aS'Dec 1, 2010 - Energy. RECENT NEWS. Termination of Production Sharing Contract Offshore ... Top competitors in this industry are Chevron Corporation who has 9.4% of ...'
p9
aS'Dec 1, 2010 - The good news is that some U.S. utilities with aging coal plants are looking at the costs of ... Plunging natural gas prices, however, offered Progress Energy an ..... Chevron Oil Corporation bought and suppressed the battery patents...now we ...'
p10
a.