(lp0
S'Dec 9, 2010 - Breaking News : ... Chevron Corporation gasoline tank trucks deliver gas to a Chevron service station in Redondo Beach, California August 10, ... And that estimate came before it agreed to buy U.S. natural gas producer Atlas Energy ATLS.'
p1
aS'Dec 10, 2010 - WikiLeaks, Oil Edition: Chevron, Eni, Exxon and Shell All Make Cameos ... them show just how important and how much money there is in the energy business.'
p2
aS"Dec 9, 2010 - Chevron is throwing money at the hunt for oil and gas. ... clearly betting on exploration and Asia's insatiable energy appetite to pump up profits in the long term."
p3
aS'Dec 10, 2010 - Now, the Chevron Corp. is asking the state for an additional 30 years. ... renewable energy sources that would pose less of a risk to marine habitat, wetlands and ...'
p4
aS'Dec 10, 2010 - Chevron Corp. plans to install a new unmanned four-pile jacket, multideck ... International news for oil and gas professionals ... Customer Experience Management for Energy Companies: The Path to Happy Customers & Greater Results.'
p5
aS'Dec 10, 2010 - Occidental Petroleum Corp., the largest onshore crude producer in the ... quickly and accurately delivers business and financial information, news and insight .... by Exxon Mobil Corp. and Chevron Corp., the largest U.S. energy companies.'
p6
aS"Dec 9, 2010 - ... engineering and design for Chevron's South Nemba Auxiliary (SNX) project. ... Wood Group (John Wood Group PLC) is an international energy services ..."
p7
aS"Dec 9, 2010 - MailOnline US - news, sport, celebrity, science and health stories .... a foothold in the oil-rich Niger Delta, a vital component of the U.S.' energy plans. ... The same February cable quotes Andrew Fawthrop, managing director of Chevron Corp."
p8
aS'Dec 11, 2010 - Energy Finance news and technical articles from Oil & Gas Financial Journal. ... Chevron. 101.40. -0.29%. -0.29. ConocoPhillips. 46.23. -1.81%. -0.85 ... Rex Energy names Churay CEO Rex Energy Corp. has appointed Daniel J. Churay as its ...'
p9
aS'Dec 10, 2010 - Chevron Corp., which operates its largest refinery in Pascagoula, ... base oils from a variety of feedstocks, while increasing product yields and energy efficiency.'
p10
a.