(lp0
S"Dec 13, 2010 - Chevron Phillips is a joint venture between Chevron Corp and ConocoPhillips. ... biggest single energy-related project since Shell's Pearl gas-to-liquids plant ..."
p1
aS'Dec 12, 2010 - ... Bloomberg Television  Bloomberg Radio  Bloomberg Mobile Apps  News Bureaus .... Bank of America Corp., Citigroup Inc. and Morgan Stanley -- will likely have a .... ConocoPhillips and Chevron Corp. have already abandoned some Gulf ... An analysis conducted by consulting firms Quest Offshore and Blade Energy ...'
p2
aS'Dec 13, 2010 - Chevron Commercial "Untapped Human Energy" Syriana RT News (BP Oil Spill) Children of Men Koyaanisqatsi War of Worlds Courage Under Fire Lord of War'
p3
aS"Dec 12, 2010 - The nationalization of oil supplies refers to the process of confiscation of oil production ... According to consulting firm PFC Energy, only 7% of the world's estimated oil and ... Five of the companies were American (Chevron, Exxon, Gulf, Mobil, and ..... government created a new state corporation, the National Nigerian Supply ..."
p4
aS'Dec 13, 2010 - This past Friday, Chevron scored a 30-year lease renewal for its offshore marine terminal near El ... New Mexico will build renewable energy ghost town ...'
p5
aS'Dec 12, 2010 - Armour Energy is focussed on the discovery and development of world class gas resources in northern Australia.'
p6
aS"Dec 12, 2010 - So far this year, energy deals worth $462 billion accounted for 21 percent of ... trying to retain their positions as consiglieres to titans like Exxon Mobil and Chevron. ... the China National Offshore Oil Corporation, or Cnooc, and India's Reliance. ... defected to Citigroup this year for a pay package that news reports pegged at ..."
p7
aS'Dec 13, 2010 - NEWS OF THE WEEK ... pp 67 (News) ... pp 78 (News) ... pp 911 (News) .... Company: Millipore Corporation ... Company: Chevron Chemical Company.'
p8
aS'Dec 13, 2010 - a fossil fuel  be good news ..... formed a strategic alliance with Chesapeake Energy Corporation to jointly .... of Mexico together with operator Chevron.'
p9
aS'Dec 13, 2010 - Join LinkedIn to get the latest news, insights, and opportunities from over 3 million companies. ... industry-wide standards initiatives in the energy, communications, and health insurance industries. ... The previous experience was with Gulf Oil, Chevron and CSC, which included work on both ... LinkedIn Corporation  2016.'
p10
a.