(lp0
S'Dec 14, 2010 - Houston, Texas, December 14, 2010  Amberjack Pipeline Company LLC, a joint venture between Chevron Pipe Line Company and Shell Pipeline Company ...'
p1
aS'Dec 14, 2010 - Amberjack Pipeline Company LLC, a joint venture between Chevron Pipe Line ... Chevron Corporation ... News and Media Division of Thomson Reuters.'
p2
aS"Dec 13, 2010 - Chevron Phillips is a joint venture between Chevron Corp and ConocoPhillips. ... biggest single energy-related project since Shell's Pearl gas-to-liquids plant ..."
p3
aS'Dec 13, 2010 - Chevron Commercial "Untapped Human Energy" Syriana RT News (BP Oil Spill) Children of Men Koyaanisqatsi War of Worlds Courage Under Fire Lord of War'
p4
aS'Dec 14, 2010 - Tags: California Solar Initiative, Chevron Corporation, Merritt College ( 8 ) ... Merritt College Cuts the Ribbon on its New Solar Energy Project that will Save $16.8 ...'
p5
aS'Dec 13, 2010 - This past Friday, Chevron scored a 30-year lease renewal for its offshore marine terminal near El ... New Mexico will build renewable energy ghost town ...'
p6
aS'Dec 14, 2010 - Advisory Board Petro One Energy. ... News Room ... South America, Africa, USA and Western Canada before joining ExxonMobil Corp. in 1981 where ... He formerly held a variety of positions with Chevron Resources Company in the Americas ...'
p7
aS'Dec 14, 2010 - ALEC is deeply invested in supporting Corrections Corporation of American (CCA) and ... Chevron Corporation, ExxonMobil Corporation, Mobil Oil Corporation, ... PG&E Corporation/PG&E National Energy Group, U.S. Generating Company. .... to the Gadsden Times, which cites a news release from Sheriff Todd Entrekin.'
p8
aS'Dec 13, 2010 - NEWS OF THE WEEK ... pp 67 (News) ... pp 78 (News) ... pp 911 (News) .... Company: Millipore Corporation ... Company: Chevron Chemical Company.'
p9
aS'Dec 14, 2010 - Hawaii News ... Grace Pacific Corp., the largest roadway paving contractor in Hawaii, has bought the owner of the 76 ... and temporarily lay off about 150 employees due to an asphalt shortage after Chevron Hawaii, one of ... "There\'s certainly a move toward renewable energy and more fuel-efficient vehicles, so that impacts ...'
p10
a.