(lp0
S'Dec 30, 2010 - Energy News ... Exxon Mobil Corp and Chevron Corp are building mammoth chemical crackers to process polyethylene from natural gas, and logistics firms ...'
p1
aS"Dec 29, 2010 - Energy News ... He was the youngest deputy energy minister in Soviet history. ... Lukoil is Russia's largest independent energy company and the world's second .... BP, Shell, Chevron  Saudi Arabia Said To Pick JPMorgan, Banker Klein For ..."
p2
aS'Dec 29, 2010 - Senator, Energy Investigators Slam Refinery Price Manipulation ... that nearly bankrupted California just took aim at oil refining giants including Chevron and BP. .... Sign up for email updates and get the latest news about what Big Oil is up to.'
p3
aS'Dec 28, 2010 - Energy and materials companies were posting gains as the price of crude oil gained. Chevron Corp. led Dow gainers, rising 1.2 percent to finish at $91.19. ... In corporate news, General Motors Co. gained 2.1 percent to close at $35.32 after a ...'
p4
aS'Dec 28, 2010 - The news media frequently calls on Brookshire for expert commentary on a variety of financial ... Brookshire Advisory and Research, Inc. is a consultancy focused on energy ... Chevron Profit Unexpectedly Falls on Exploration Costs (Update4).'
p5
aS'Dec 29, 2010 - ... majors -- Exxon Mobil Corp., Royal Dutch Shell Plc, Chevron Corp., Total SA ... also very prolific, said Philipp Chladek, a London-based energy analyst with ...'
p6
aS"Dec 29, 2010 - Deaths make the news, but layoffs don't. Valero's large refinery on ... News Release. Gouged California Drivers Bankroll Chevron's Best US Refining Year Ever."
p7
aS'Dec 29, 2010 - Vision  Contact  News ... A collaboration between Chevron Phillips Chemicals International NV ... A solar collector converts sunlight to usable heat energy for domestic hot water ... Chevron Phillips Chemical Company LLC is equally owned by Chevron Corporation and ConocoPhillips, and is headquartered in The ...'
p8
aS"Dec 28, 2010 - Currencies  Comm & Energy  Futures  Funds ... of the United States, Rare Element Resources Ltd of Canada and Lynas Corp of Australia. ... by a unit of the oil company Chevron Corp, stopped in 2002, in part because of the price collapse. ... Thomson Reuters is the world's largest international multimedia news agency, ..."
p9
aS'Dec 28, 2010 - dit le 28/12/2010 - Plus de news de "JACOBS" - Voir la fiche entreprise de "JACOBS" ... and gas, refining & chemicals, mining & metals and energy & environmental. ... 08/12/2010 - Jacobs Receives Contract from CPC Corporation, Taiwan for .... chevron china cnooc cnpc co2 commission-europeenne compressor congo ...'
p10
a.