(lp0
S'Dec 22, 2010 - oil and gas news and contracts for contractors and engineers in the ... Talisman Energy Announces Strategic Partnership With Sasol in Montney Shale C$ ... Chevron Corporation sanction development of its $4 billion Big Foot project in the ...'
p1
aS"Dec 21, 2010 - Chevron CFO Patricia Yarrington on the gulf spill, the future of fossil fuels, and ... From an energy standpoint, it's very important to have the moratorium lifted. .... It was in the news recently because the plaintiffs increased their demand to more ..."
p2
aS"Dec 22, 2010 - 30000 natives fight for compensation against Texaco (now Chevron), accused of 3 decades of ... OSCAR LEON: Welcome to The Real News. ... JAMES CRAIG, MEDIA ADVISOR FOR LATIN AMERICA, CHEVRON CORP. .... they can fund their little games, Free energy has available for a hundred years it's time for a change."
p3
aS"Dec 21, 2010 - 21 December 2010. Week 50. Issue 370.  News.  Analysis.  Intelligence. Published by ... Chevron eyes Nigeria investment for. 2011. 5 ... Nigeria's indigenous Seven Energy is focused on domestic ...... National Petroleum Corp. (CNPC) in."
p4
aS"Dec 22, 2010 - ... Co's 290,000 bpd, which is jointly-owned by PetroChina and Chevron Corp. One of China's four national oil firms -- PetroChina , Sinopec Corp , CNOOC ... The Chinese energy giant also owns nearly half of the 295,000-bpd Singapore Refining Co. ... Thomson Reuters is the world's largest international multimedia news ..."
p5
aS'Dec 22, 2010 - Market News Highlights ... Officers of the Corporation: Harold McGraw III, Chairman, President and Chief ..... a cluster of major companies  including Chevron,.'
p6
aS'Dec 21, 2010 - WikiLeaks suggest Chevron sought illegal oil deal with Tehran. By Cameron Scott on December 21, 2010 ... New Mexico will build renewable energy ghost town ...'
p7
aS'Dec 21, 2010 - LATEST NEWS ... In this exclusive interview with The Energy Report, Richard shares some ... Strong fundamentals in the refining industry have also provided an important tailwind for major integrated oil companies such as Chevron Corp .'
p8
aS"Dec 21, 2010 - In this issue: ICSID tribunal dismisses RSM Production Corporation's claim against ... Tribunal rejects Ecuador's jurisdictional objections in dispute with Chevron ... Award is publicly released in failed Energy Charter Treaty claim against the ..."
p9
aS'Dec 22, 2010 - Chevron. 102.38. +1.87%. +1.88. ConocoPhillips. 47.55. +1.04%. +0.49. Occidental Pet ... Read the analysis from Rystad Energy here. toggle footer display ...'
p10
a.