(lp0
S'Dec 31, 2010 - Valero Energy Corporation to Participate in the Credit Suisse Energy Summit ...... (BUSINESS WIRE)--Chevron Corporation (NYSE: CVX) today announced that ...'
p1
aS'Dec 30, 2010 - industry: Chevron is the third largest energy company in the world with a market cap .... drop market cap greater than 1% upon news of a judgment represents a ...'
p2
aS'Dec 31, 2010 - Coal Slump Sends Mining Giant Peabody Energy Into Bankruptcy ... Chevron Corp. and Hewlett-Packard Co. fell 0.4 percent each to lead declines in the ... Education stocks declined after Bloomberg News reported that for-profit colleges are ...'
p3
aS'Dec 30, 2010 - Chevron, Amoco, Texaco, Arco, Phillips, Unocal, and Oryx exhibited average .... and Thrall, R.M., "Comparative Site Evaluations for Locating High Energy Lab in Texas," TIMS Interfaces, 1986, pp. ... International news for oil and gas professionals ... Chevron Corp. has signed a nonbinding heads of agreement with China ...'
p4
aS'Dec 30, 2010 - +0.11. Chevron. 95.24. -1.13%. -1.09. ConocoPhillips. 41.19. -0.10%. -0.04. Occidental Pet ... Next Article | Energy and infrastructure attorney Stark joins Ballard Spahr ... Get All the Oil & Gas Financial Journal News Delivered to Your Inbox for free. Subscribe to .... Copyright  2007-2016 Pennwell Corporation, Tulsa, OK.'
p5
aS"Dec 31, 2010 - Get All the Offshore Magazine News Delivered to Your Inbox for free ... Lockheed Martin has selected SeaRobotics Corp. as the original equipment ... Noble Energy Inc. is P&A'ing the Silvergate exploration well, drilled on Mississippi Canyon ... Chevron temporarily halts Gorgon LNG production due to mechanical issues."
p6
aS'Dec 30, 2010 - 1990 News story: ... Expenses for foreign exploration of petroleum and geothermal energy will increase to $111 million in 1990 from $76 million in 1989, the ... Oil giant Chevron Corp. completed its $17.9 billion purchase of Unocal Corp.'
p7
aS'Dec 30, 2010 - Texas oil refineries and other facilities are operated by: BP Amoco, Chevron, ..... Corporation; Reliant Energy Hlandp; Webster Power Plant; Webster School ...'
p8
aS'Dec 31, 2010 - REGIONAL NEWS ... Platinum Explorer, commenced operations for Oil & Natural Gas Corporation ... Ophir Energy plc announces that drilling operations have now concluded on the .... Pacific Khamsin Starts Drilling for Chevron in Nigeria.'
p9
aS"Dec 30, 2010 - ConocoPhillips is Alaska's largest oil producer and has been a leader in oil and gas exploration and development in the state for more than 50 years."
p10
a.