(lp0
S'Dec 30, 2010 - Energy News ... Exxon Mobil Corp and Chevron Corp are building mammoth chemical crackers to process polyethylene from natural gas, and logistics firms ...'
p1
aS'Dec 29, 2010 - Senator, Energy Investigators Slam Refinery Price Manipulation ... that nearly bankrupted California just took aim at oil refining giants including Chevron and BP. .... Sign up for email updates and get the latest news about what Big Oil is up to.'
p2
aS'Dec 30, 2010 - industry: Chevron is the third largest energy company in the world with a market cap .... drop market cap greater than 1% upon news of a judgment represents a ...'
p3
aS'Dec 30, 2010 - Chevron, Amoco, Texaco, Arco, Phillips, Unocal, and Oryx exhibited average .... and Thrall, R.M., "Comparative Site Evaluations for Locating High Energy Lab in Texas," TIMS Interfaces, 1986, pp. ... International news for oil and gas professionals ... Chevron Corp. has signed a nonbinding heads of agreement with China ...'
p4
aS"Dec 29, 2010 - Energy News ... He was the youngest deputy energy minister in Soviet history. ... Lukoil is Russia's largest independent energy company and the world's second .... BP, Shell, Chevron  Saudi Arabia Said To Pick JPMorgan, Banker Klein For ..."
p5
aS"Dec 29, 2010 - The Gulf disaster inspired companies from Chevron to Spirit Airlines -- to run ad and ... employees talk about how they're helping solve the world's energy problems. ... Chevron, Shell (RDS), and ConocoPhillips (COP), ran full-page newspaper ..."
p6
aS'Dec 29, 2010 - ... majors -- Exxon Mobil Corp., Royal Dutch Shell Plc, Chevron Corp., Total SA ... also very prolific, said Philipp Chladek, a London-based energy analyst with ...'
p7
aS"Dec 29, 2010 - Deaths make the news, but layoffs don't. Valero's large refinery on ... News Release. Gouged California Drivers Bankroll Chevron's Best US Refining Year Ever."
p8
aS'Dec 30, 2010 - +0.11. Chevron. 95.24. -1.13%. -1.09. ConocoPhillips. 41.19. -0.10%. -0.04. Occidental Pet ... Next Article | Energy and infrastructure attorney Stark joins Ballard Spahr ... Get All the Oil & Gas Financial Journal News Delivered to Your Inbox for free. Subscribe to .... Copyright  2007-2016 Pennwell Corporation, Tulsa, OK.'
p9
aS'Dec 30, 2010 - 1990 News story: ... Expenses for foreign exploration of petroleum and geothermal energy will increase to $111 million in 1990 from $76 million in 1989, the ... Oil giant Chevron Corp. completed its $17.9 billion purchase of Unocal Corp.'
p10
a.