(lp0
S'Dec 2, 2010 - 2, 2010  Chevron Corporation today announced the award of major ... "Chevron has been a key part of the energy sector in Indonesia for more than 80 years ...'
p1
aS'Dec 2, 2010 - Chevron awarded engineering contracts for a deepwater natural-gas project that will be its biggest single ... DOW JONES, A NEWS CORP COMPANY.'
p2
aS"Dec 2, 2010 - DOW JONES, A NEWS CORP COMPANY .... China Petrochemical Corp. has struck a deal with Chevron Corp. CVX 1.51 ... The International Energy Agency predicts China's gas consumption will more than quadruple in the 2008-2035 period."
p3
aS'Dec 3, 2010 - REGIONAL NEWS ... Chevron Corporation today announced the award of major front-end ... Chevron is involved in virtually every facet of the energy industry.'
p4
aS'Dec 2, 2010 - UPRR and BNY Mellon Shareowner Services allegedly misled Massachusetts investors that owned stock in the energy giant Chevron Corporation. Investors ...'
p5
aS'Dec 2, 2010 - News Clipping ... Chevron Profit Soars, Fueled By Summer Surge In Oil Prices The energy giant nets $7.9 billion in the third ... By Marla Dickerson, LOS ANGELES TIMES November 01, 2008 Chevron Corp. on Friday announced earnings of ...'
p6
aS'Dec 3, 2010 - Chevron is selling an 18 per cent stake in its Indonesian deepwater gasfields to Sinopec for $680m. ... globally significant resource that will play a role in servicing the long-term energy needs of rapidly growing economies, ... NEWS BY EMAIL.'
p7
aS"Dec 2, 2010 - SALT LAKE CITY  An outraged Mayor Ralph Becker said the Chevron pipeline should be shut down ... By Amy Joi O'Donoghue, Deseret News .... News, specializing in coverage of issues that affect land, air, water and energy development."
p8
aS'Dec 3, 2010 - Beyondenergynews.com - Perusahaan minyak Amerika Chevron Corporation mengumumkan pemenang kontrak Front-End Engineering & Design (FEED) ...'
p9
aS'Dec 2, 2010 - ... Kimberly-Clark (KMB), Philip Morris International (PM)  energy  Chevron (CVX) and Conoco Phillips (COP)  and telecommunications  AT&T (T) and ...'
p10
a.