(lp0
S'Dec 6, 2010 - 30, the Amazon Defense Front issued a press release stating that Chevron attorneys are violating a court order by ... BBC News  Ecuador crime fears see soldiers used for police duties ... in conjunction with corrupt judges and officials in Ecuador attempted to extort billions of dollars from the energy giant. ... Chevron Corp.'
p1
aS"Dec 6, 2010 - Waste Management's new direction. ... No wonder executives at Waste Management (WM, Fortune 500), America's biggest trash hauler, got nervous when Subaru's TV commercials boasted that its Indiana auto plant sent nothing to the landfill. ... That's why David Steiner, Waste Management's ..."
p2
aS'Dec 6, 2010 - Jakarta (ANTARA News) - State oil company PT Pertamina eventually chose ... to develop East Natuna through Energy and Natural Resources Ministry`s letter no ... Total SA, Chevron Corp, StatOil, China National Petroleum Corp (CNPC), ...'
p3
aS"Dec 6, 2010 - Also a partner in the project is Chevron Phillips Chemical Co. ... Dazhou Huixin Energy's 36-MMscfd LNG facility, near the city of Chengdu, started up in July. ... In LNG news, China National Offshore Oil Corp. began building its fourth LNG ..."
p4
aS'Dec 6, 2010 - Energy - The HTC Energy Program provides strategic and tactical management advice to Houston ... In the News ... chevron-web-small_1.jpg, shell-web_2.jpg ...'
p5
aS'Dec 6, 2010 - Selling energy  and prosperity? ... D.C, area where he worked for the Center for Public Integrity, a nonprofit, nonpartisan, investigative news organization.'
p6
aS'Dec 5, 2010 - Upstream oil and gas news for exploration and production professionals ... energy-pedia development and production ... In 2008 Indonesia named eight potential partners for Natuna: Petronas, Exxon Mobil, Chevron, Total, Royal Dutch Shell, ...'
p7
aS'Dec 5, 2010 - Stock quote and company snapshot for CHESAPEAKE ENERGY CORP (CHK/PD), including profile, stock chart, recent news and events, analyst opinions, and ...'
p8
aS'Dec 7, 2010 - More Unconventional Resources News ... president of Professional Directional, added "Diamond Castle\'s financial resources and energy expertise made them ...'
p9
aS'Dec 5, 2010 - news.info/technology/biofuels/ethanol-  fuel/ .... Oryxe Energy International. 16. ..... Companies such as Exxon Mobil, Chevron and NewMarket Corp have been.'
p10
a.