(lp0
S"Dec 6, 2010 - Waste Management's new direction. ... No wonder executives at Waste Management (WM, Fortune 500), America's biggest trash hauler, got nervous when Subaru's TV commercials boasted that its Indiana auto plant sent nothing to the landfill. ... That's why David Steiner, Waste Management's ..."
p1
aS'Dec 6, 2010 - Energy - The HTC Energy Program provides strategic and tactical management advice to Houston ... In the News ... chevron-web-small_1.jpg, shell-web_2.jpg ...'
p2
aS'Dec 6, 2010 - 30, the Amazon Defense Front issued a press release stating that Chevron attorneys are violating a court order by ... BBC News  Ecuador crime fears see soldiers used for police duties ... in conjunction with corrupt judges and officials in Ecuador attempted to extort billions of dollars from the energy giant. ... Chevron Corp.'
p3
aS"Dec 8, 2010 - 29% each; Itochu Corp. and Socar 20% each; and Saudi Arabia's Delta Nimir 2%. .... International news for oil and gas professionals ... Chevron Corp. plans a $26.6-billion capital and exploratory investment ... Customer Experience Management for Energy Companies: The Path to Happy Customers & Greater Results."
p4
aS'Dec 8, 2010 - News; . Investment Policy ... Block A is held by Chevron, Moeco, GS Caltex and Kris Energy. Chevron is the operator. A production ...'
p5
aS'Dec 8, 2010 - Energy Future Holdings. Paul A. Broman, Attorney, ... Occidental Petroleum Corporation. Kimberly A. ... CITGO Petroleum Corporation ... Chevron Corporation.'
p6
aS"Dec 6, 2010 - Chevron Corporate Offices in Houston TX (Photo thanks to Flickr user jonathan ... Chevron Corporation is one of the world's leading integrated energy and ..."
p7
aS'Dec 7, 2010 - More Unconventional Resources News ... president of Professional Directional, added "Diamond Castle\'s financial resources and energy expertise made them ...'
p8
aS'Dec 7, 2010 - But checking a HAARP monitoring website after seeing the news about the heavy ..... drilling huba joint- venture of Royal Dutch Shell Plc (RDSB), Chevron Corp. ... The Foreign Ministry and Energy Ministry wish to stress that they are taking ...'
p9
aS'Dec 6, 2010 - Development Corporation (RDC). INTRD funding will help ..... Energy, Suncor and Chevron Canada. _ pails and ..... We publishC-CORE News quarterly for our ...'
p10
a.