(lp0
S'Dec 9, 2010 - Breaking News : ... Chevron Corporation gasoline tank trucks deliver gas to a Chevron service station in Redondo Beach, California August 10, ... And that estimate came before it agreed to buy U.S. natural gas producer Atlas Energy ATLS.'
p1
aS"Dec 8, 2010 - Currencies  Comm & Energy  Futures  Funds ... China International United Petroleum & Chemical Corp. (Unipec), China's top oil trader, hired Chevron senior oil trader Bill Chalker and Statoil crude trader Mark ... Thomson Reuters is the world's largest international multimedia news agency, providing investing news, world ..."
p2
aS"Dec 9, 2010 - Chevron is throwing money at the hunt for oil and gas. ... clearly betting on exploration and Asia's insatiable energy appetite to pump up profits in the long term."
p3
aS"Dec 9, 2010 - ... engineering and design for Chevron's South Nemba Auxiliary (SNX) project. ... Wood Group (John Wood Group PLC) is an international energy services ..."
p4
aS"Dec 9, 2010 - MailOnline US - news, sport, celebrity, science and health stories .... a foothold in the oil-rich Niger Delta, a vital component of the U.S.' energy plans. ... The same February cable quotes Andrew Fawthrop, managing director of Chevron Corp."
p5
aS"Dec 8, 2010 - The government gave Chevron the go-ahead in September to drill in the North Sea ... The news comes in a week that US investigations into BP's disastrous ... sent to the Department of Energy and Climate Change, which approved the drill."
p6
aS'Dec 8, 2010 - Burleson Cooke L.L.P., a Houston-based energy law firm, has hired Michael Browning ... major companies such as Chevron, Exxon and Texaco had offices here. ... Chesapeake Energy Corp. of Oklahoma City recently opened an office in San ...'
p7
aS'Dec 8, 2010 - David Hager, Devon Energy Executive Vice President of Exploration and Development, is a ... After graduation, he went to work for Mobil Corp., which has a respected geophysics training program. .... Chevron Accelerates Sale of Shallow .'
p8
aS'Dec 10, 2010 - Photo courtesy of Federal Container Corp. ... The first North American companies to use ex situ regeneration were Union Oil Co. of California (Unocal), Chevron Corp., and .... Get All the Oil and Gas Journal News Delivered to Your Inbox ... Customer Experience Management for Energy Companies: The Path to Happy ...'
p9
aS'Dec 8, 2010 - based Chevron Corp. about five years ago conducted an energy audit for ... This past August, Johnson Controls, which works with the city on energy ..... Text alerts: Sign up to get breaking news, weather alerts or sports updates on your phone.'
p10
a.