(lp0
S"Jan 13, 2010 - Read more about SHV Energy acquires Chevron's Indian arm on Business Standard. Hyderabad-headquartered SHV Energy India has acquired Caltex Gas ..."
p1
aS'Jan 13, 2010 - Daily News and Analysis ... oil and gas major, has acquired Caltex Gas India, a wholly-owned subsidiary of the US-based Chevron Group, in an all cash deal.'
p2
aS'Jan 12, 2010 - Chevron Corp. is paying nearly $500,000 a day to the owner of the Clear Leader, .... If you read or listen to energy market news for very long, you should begin to ...'
p3
aS'Jan 13, 2010 - "We expect 2010 to be an exciting year in the energy sector," said Jonathan Dison, ... the deal will be Exxon\'s largest since it bought Mobil Corp in 1999. ... which is good news for our customers and shareholders," said Sam Laidlaw chief executive ... fields, as well as part of the stake in the Erskine field operated by Chevron.'
p4
aS"Jan 12, 2010 - Chevron Corp (CVX. ... Chevron says SF-Bay refinery flaring -filing ... Thomson Reuters is the world's largest international multimedia news agency, providing ..."
p5
aS'Jan 12, 2010 - ConocoPhillips and Chevron Corp. have already abandoned some Gulf prospects ... testimony before the Senate Energy and Natural Resources Committee.'
p6
aS'Jan 12, 2010 - Trusted market intelligence for the global chemical, energy and fertilizer industries .... HOUSTON (ICIS news)--Chevron Phillips Chemical restarted its Port Arthur ...'
p7
aS'Jan 12, 2010 - Please fill out and submit the information below to automatically receive news releases from Vermilion Energy Inc. You may unsubscribe at any time by clicking ...'
p8
aS"Jan 13, 2010 - Upstream oil and gas news for exploration and production professionals ... energy-pedia licensing ... In recent months firms including France's Total, U.S. major Chevron, Spain's Repsol, India's Oil and Natural Gas Corp (ONGC), Petronas from ..."
p9
aS"Jan 13, 2010 - Further, the regimes and elites that economically benefit from rich energy resources rarely ... The CNA Corporation's Military Advisory Board determined in 2007 that Climate change ... In 2008 Chevron made a profit of $23.9 billion while nearly half of its imports138 ... Subscribe to Energy and Environment News Alerts ..."
p10
a.