(lp0
S"Jan 13, 2010 - Read more about SHV Energy acquires Chevron's Indian arm on Business Standard. Hyderabad-headquartered SHV Energy India has acquired Caltex Gas ..."
p1
aS'Jan 13, 2010 - Daily News and Analysis ... oil and gas major, has acquired Caltex Gas India, a wholly-owned subsidiary of the US-based Chevron Group, in an all cash deal.'
p2
aS'Jan 13, 2010 - "We expect 2010 to be an exciting year in the energy sector," said Jonathan Dison, ... the deal will be Exxon\'s largest since it bought Mobil Corp in 1999. ... which is good news for our customers and shareholders," said Sam Laidlaw chief executive ... fields, as well as part of the stake in the Erskine field operated by Chevron.'
p3
aS'Jan 15, 2010 - FORESTS Palm Oil Paper  ENERGY Coal Tar Sands  CHALLENGING CORPORATIONS Chevron Cargill ... Chevron is responsible for one of the largest environmental disasters in history  the deliberate dumping of a ... A toxic waste pit left by Texaco (now Chevron) near Dureno, Ecuador in .... view all related news  ...'
p4
aS'Jan 14, 2010 - W. R. Grace & Co. (GRA) Sells 5% Interest in Advanced Refining Tech Joint Venture to Chevron (CVX) ... FREE Breaking News Alerts from StreetInsider.com!'
p5
aS"Jan 13, 2010 - Further, the regimes and elites that economically benefit from rich energy resources rarely ... The CNA Corporation's Military Advisory Board determined in 2007 that Climate change ... In 2008 Chevron made a profit of $23.9 billion while nearly half of its imports138 ... Subscribe to Energy and Environment News Alerts ..."
p6
aS'Jan 14, 2010 - See who you know at C2C Energy Solutions, leverage your professional network, ... Join LinkedIn to get the latest news, insights, and opportunities from over 3 ...'
p7
aS'Jan 13, 2010 - EIC, reflecting the ever-increasing importance of China as an energy market. Australia is also .... Land Development Corporation in Darwin and Chevron. Pty Ltd ...'
p8
aS"Jan 14, 2010 - Enhance Energy's carbon capture and storage project benefits from federal and provincial environmental ... Chevron. 101.69. +1.18%. +1.19. ConocoPhillips. 47.08. +0.04%. +0.02 .... Get All the Oil & Gas Financial Journal News Delivered to Your Inbox for free .... Copyright  2007-2016 Pennwell Corporation, Tulsa, OK."
p9
aS"Jan 13, 2010 - Newfield Exploration Co. and Anadarko Petroleum Corp. will jointly acquire TXCO Resources Inc.'s ... -0.54%. -0.46. Chevron. 97.23. -0.77%. -0.75. ConocoPhillips. 43.70. -1.18% .... Get All the Oil & Gas Financial Journal News Delivered to Your Inbox for free ... Southwestern Energy elects Rathert to board of directors."
p10
a.