(lp0
S'Jan 15, 2010 - Chevron, and its marketing brand Caltex, demonstrates our commitment to Singapore through ... Energy for Learning is a long-term initiative by Chevron and its retail brand, Caltex, to support ... News & Community ... Chevron Corporation ...'
p1
aS'Jan 15, 2010 - U.S. News asked S&P to look at the major spending categories and provide its ... TUP, Tupperware Brands, Consumer Goods. CVX, Chevron Corp. Energy.'
p2
aS'Jan 15, 2010 - News & Resources ... Environmental expertise is critical to the success of companies in the energy industry because of the significant ... Chevron has repeatedly been cited for allegedly harmful environmental practices: ... Royal Bank of Canada, Sealed Air Corporation, Smuckers, Southern Company, Southwestern Energy ...'
p3
aS'Jan 15, 2010 - ... Chevron. industry: Oil & Energy ... IEM Shift Lead at Bibiyana Gas Plant , Chevron Bangladesh. industry ... Senior Gas Plant Operations Specialist at Chevron Bangladesh. industry .... Discover news and ideas ... LinkedIn Corporation  2016.'
p4
aS'Jan 15, 2010 - FORESTS Palm Oil Paper  ENERGY Coal Tar Sands  CHALLENGING CORPORATIONS Chevron Cargill ... Chevron is responsible for one of the largest environmental disasters in history  the deliberate dumping of a ... A toxic waste pit left by Texaco (now Chevron) near Dureno, Ecuador in .... view all related news  ...'
p5
aS"Jan 15, 2010 - Chevron's Seismic Activities in Bangladesh. No Significant .... In other news, which bodes well for the future ...... Is it possible for a large energy corporation to live."
p6
aS'Jan 14, 2010 - W. R. Grace & Co. (GRA) Sells 5% Interest in Advanced Refining Tech Joint Venture to Chevron (CVX) ... FREE Breaking News Alerts from StreetInsider.com!'
p7
aS'Jan 15, 2010 - In 2008 Chevron made a profit of $23.9 billion while nearly half of its ... or keep an eye on sector-specific news by getting our (also free) solar energy newsletter, ...'
p8
aS'Jan 15, 2010 - Cover photos: Left: NREL has dispatched clean energy experts to Hawaii and Alaska to work as advisors ...... week, they tested it, then broke the news to their group leader, ..... NREL and Chevron Corporation are working under a Coop-.'
p9
aS'Jan 15, 2010 - Once upon a time a retired Chevron CEO traveled to the Nigerian Delta where he was ... to research and develop 100 percent carbon free green energy technologies. .... HARRIS POLL  News-less newspapers continue to lose readers.'
p10
a.