(lp0
S'Jan 19, 2010 - Buy, sell and hold ratings for Chevron Corporation (CVX) stock -- includes historical recommendations and average analyst recommendations.'
p1
aS'Jan 18, 2010 - Moderate economic growth will spur a small recovery in US energy demand this year. ... Get All the Oil and Gas Journal News Delivered to Your Inbox ... Chevron Corp. has started LNG and condensate production at the Gorgon project on ...'
p2
aS'Jan 19, 2010 - Energy News ... FR), Marathon Corp. (MRO), Nexen Corp. (NXY), OMV AG (OMV. ... Ministry of Petroleum and Energy Unveils 21st Licensing Round (Jun 23) ...'
p3
aS'Jan 19, 2010 - MANILA,Philippines  Pilipinas Shell, Petron, Chevron, and Seaoil ... Manila News | Tagged Add new tag, Angelo Reyes, chevron, Department of Energy, Flying V, ... On Tuesday, Petron Corp., Pilipinas Shell Petroleum Corp., Chevron Corp., ...'
p4
aS'Jan 19, 2010 - Exxon Mobil Corp., the largest U.S. energy company, hid the risk that workers cleaning used ... Bloomberg News ... including Shell Oil Co., Chevron USA Inc. and KBR Inc. A trial against Shell Oil on these allegations is set for trial in May. Exxon ...'
p5
aS'Jan 18, 2010 - Chevron. 98.70. +1.51%. +1.47. ConocoPhillips. 45.00. +2.97%. +1.30 ... Five energy companies, including Occidental, BP, and XTO have relinquished ... Get All the Oil & Gas Financial Journal News Delivered to Your Inbox for free ... senior vice president and COO of Eagle Ford Shale-focused Sanchez Energy Corp. has ...'
p6
aS'Jan 19, 2010 - Toggle navigation. AES | Energy Storage  ADVANCION ... In the News  Contact.  2013-2014 The AES Corporation. All rights reserved. English  Espaol ...'
p7
aS"Jan 18, 2010 - Apple's New Smart-Home Dashboard Saves Money, Energy ... or keep an eye on sector-specific news by getting our (also free) solar energy newsletter, electric ..."
p8
aS'Jan 19, 2010 - Waste-to-energy electricity generation concentrated in Florida and Northeast  ... Dallas Morning News Energy & Env. Page  Calgary Herald Energy Page ...'
p9
aS'Jan 18, 2010 - ... Agency for International Corporation (NORAD) in 2008 concluded that the profit-share ... The transition to a sustainable energy economy will be put back two decades or more, ... Oil always promises growth, affordable energy and employment; from ..... 2016 Guardian News and Media Limited or its affiliated companies.'
p10
a.