(lp0
S'Jan 20, 2010 - Chevron will cut an unspecified number of jobs in its refining business and consider exiting ... DOW JONES, A NEWS CORP COMPANY .... Valero Energy Corp.'
p1
aS"Jan 20, 2010 - Leading U.S. refiner Valero Energy Corp (VLO. ... Chevron's largest U.S. refinery is on the Gulf Coast, inPascagoula, Mississippi, while its second-largest is ..."
p2
aS'Jan 20, 2010 - Chevron Corp. plans to restructure its global downstream business in a move company officials ... Get All the Oil and Gas Journal News Delivered to Your Inbox.'
p3
aS'Jan 20, 2010 - Hawaii news photo - The Honolulu Advertiser ... Chevron Corp. said it will restructure a major part of its global business this year and that will ... as the state attempts to lower oil consumption by aggressively pursuing renewable energy options.'
p4
aS"Jan 20, 2010 - ... BP PLC's Tiber field, which might hold 3 billion barrels of oil, and Chevron Corp. ... McMoRan's other partners include Hamilton, Bermuda-based Energy XXI ..."
p5
aS'Jan 20, 2010 - Industry News Energy ... Gulf Oil, relegated to a branded chain of gasoline stations in the Northeast since Chevron acquired it 26 years ago, has gained ...'
p6
aS'Jan 19, 2010 - Energy News ... FR), Marathon Corp. (MRO), Nexen Corp. (NXY), OMV AG (OMV. ... Ministry of Petroleum and Energy Unveils 21st Licensing Round (Jun 23) ...'
p7
aS'Jan 19, 2010 - MANILA,Philippines  Pilipinas Shell, Petron, Chevron, and Seaoil ... Manila News | Tagged Add new tag, Angelo Reyes, chevron, Department of Energy, Flying V, ... On Tuesday, Petron Corp., Pilipinas Shell Petroleum Corp., Chevron Corp., ...'
p8
aS'Jan 19, 2010 - Exxon Mobil Corp., the largest U.S. energy company, hid the risk that workers cleaning used ... Bloomberg News ... including Shell Oil Co., Chevron USA Inc. and KBR Inc. A trial against Shell Oil on these allegations is set for trial in May. Exxon ...'
p9
aS'Jan 20, 2010 - Natural gas is set to become a far more important fuel in the global energy mix in ... Chevron (NYSE: CVX)Buy @ 85 ... More recently, Toyota Motor Corp (NYSE: TM) was mocked when it ..... Your guide to understanding and profiting from the major trends, industry news and worldwide events that are driving the market ...'
p10
a.