(lp0
S'Jan 20, 2010 - Chevron will cut an unspecified number of jobs in its refining business and consider exiting ... DOW JONES, A NEWS CORP COMPANY .... Valero Energy Corp.'
p1
aS"Jan 20, 2010 - Leading U.S. refiner Valero Energy Corp (VLO. ... Chevron's largest U.S. refinery is on the Gulf Coast, inPascagoula, Mississippi, while its second-largest is ..."
p2
aS'Jan 20, 2010 - Chevron Corp. plans to restructure its global downstream business in a move company officials ... Get All the Oil and Gas Journal News Delivered to Your Inbox.'
p3
aS'Jan 20, 2010 - Hawaii news photo - The Honolulu Advertiser ... Chevron Corp. said it will restructure a major part of its global business this year and that will ... as the state attempts to lower oil consumption by aggressively pursuing renewable energy options.'
p4
aS"Jan 20, 2010 - ... BP PLC's Tiber field, which might hold 3 billion barrels of oil, and Chevron Corp. ... McMoRan's other partners include Hamilton, Bermuda-based Energy XXI ..."
p5
aS'Jan 21, 2010 - News & Analysis  News & Analysis ... BIG ENERGY COMPANIES DISPLAY BIG MONEY. With President ... Chevron, meanwhile, increased its spending on federal lobbying by 60 percent during 2009. Over the ... Chevron Corp. $12,994,000 ...'
p6
aS'Jan 22, 2010 - Oil marketer, Chevron Oil Nigeria Plc, has changed its name to MRS Oil Nigeria ... African Energy Company, recognised by its people, excellence and values..'
p7
aS'Jan 21, 2010 - Upstream oil and gas news for exploration and production professionals ... cfd now, an official at Indonesian energy watchdog BPMIGAS said on Thursday. ... Inpex Corp has a 35 percent stake, and Chevron owns the remaining 25 percent.'
p8
aS'Jan 21, 2010 - Market manipulation and excessive speculation should end, but energy providers ... Chevron. 97.39. +2.26%. +2.15. ConocoPhillips. 43.45. +5.49%. +2.26 .... Get All the Oil & Gas Financial Journal News Delivered to Your Inbox for free ... A subsidiary of ENGlobal Corp., a provider of energy-related project delivery solutions ...'
p9
aS'Jan 20, 2010 - Industry News Energy ... Gulf Oil, relegated to a branded chain of gasoline stations in the Northeast since Chevron acquired it 26 years ago, has gained ...'
p10
a.