(lp0
S"Jan 25, 2010 - Several of Devon Energy's partners in two U.S. Gulf of Mexico deepwater oil fields pushed ... Upstream oil and gas news for exploration and production professionals ... Chevron Corp., Statoil and Petrobras, sources familiar with the matter say."
p1
aS"Jan 24, 2010 - Watch for news from the US Supreme Court ... essential to continued development of the technology that has been critical in supplying the world's energy needs."
p2
aS"Jan 25, 2010 - There was no good way to break the news that Nigerian militants had issued the oil ... who caused so much trouble for Royal Dutch Shell and Chevron  claimed it wanted ... whose foundation of Afren marked his first foray into the energy sector. ... when working for the World Bank's International Finance Corporation (IFC), ..."
p3
aS'Jan 26, 2010 - ... billion, according to state-owned energy company KazMunaiGaz National Co. ... stake, while Chevron Corp. has a 20 percent interest and OAO Lukoil 15 percent. ... two people familiar with the matter told Bloomberg News in December.'
p4
aS'Jan 24, 2010 - CHEVRON will pay more than $45 million to settle charges that it, Texaco and ... D.C., national and international news networks, or residents facing the shock of ...'
p5
aS"Jan 25, 2010 - Energy News ... On August 31, 2009, the operator of the Siri field, DONG Energy, decided to stop ... DONG Energy's partners in the area are Noreco and RWE. ... BP, Shell, Chevron  LGO Energy Commences Production Increase Operations at ..."
p6
aS'Jan 24, 2010 - ... what folks in the energy industry term OCTG  oil country tubular goods. ... Sumitomo Corp. of America in 2003 won a contract to provide tubular goods and ...'
p7
aS'Jan 25, 2010 - Partners in SC 56 are operator ExxonMobil on 50% and Mitra Energy and BHP Billiton, each holding 25%. ... Get All the Oil and Gas Journal News Delivered to Your Inbox ... Pembina Pipeline Corp. has agreed to acquire sour gas processing ... The Chevron Australia-led joint venture at the Gorgon and Jansz-Io field project ...'
p8
aS'Jan 26, 2010 - Advertising, Aerospace, Agribusiness, Alternative energy, Automotive, Brokerage/securities, Chemicals, ... Chevron Corporation. 5 ..... News Corporation.'
p9
aS'Jan 25, 2010 - tap new energy resources, Chevron is now operating in more difficult and ... 30,000 natives of the indigenous tribe claim Chevron workers illegally dumped.'
p10
a.