(lp0
S'Jan 26, 2010 - Chevron Corporation, through an Australian subsidiary, today announced further ... Upstream oil and gas news for exploration and production professionals ... to Chevron\'s energy portfolio," said George Kirkland, vice chairman, Chevron.'
p1
aS"Jan 26, 2010 - Read Chevron Australia's statements to the media and latest news. ... Chevron is one of the world's leading integrated energy companies and through its ... This press release of Chevron Corporation contains forward-looking statements ..."
p2
aS'Jan 27, 2010 - 2015-10-13; Chevron Launches Program to Control Particle Contamination  Noria news wires ..... 2014-06-05; Green4All Energy Solutions Unveils New Oil Additive  Noria news ..... 2012-02-16; SKF to Acquire General Bearing Corporation'
p3
aS'Jan 26, 2010 - Posted by Big Gav in arrow energy, australia, chevron, coal seam gas, lng, natural gas. The Australian ... Energy Business News (Au)  EV World  Gas 2.0'
p4
aS"Jan 25, 2010 - There was no good way to break the news that Nigerian militants had issued the oil ... who caused so much trouble for Royal Dutch Shell and Chevron  claimed it wanted ... whose foundation of Afren marked his first foray into the energy sector. ... when working for the World Bank's International Finance Corporation (IFC), ..."
p5
aS'Jan 26, 2010 - ... billion, according to state-owned energy company KazMunaiGaz National Co. ... stake, while Chevron Corp. has a 20 percent interest and OAO Lukoil 15 percent. ... two people familiar with the matter told Bloomberg News in December.'
p6
aS"Jan 25, 2010 - Energy News ... On August 31, 2009, the operator of the Siri field, DONG Energy, decided to stop ... DONG Energy's partners in the area are Noreco and RWE. ... BP, Shell, Chevron  LGO Energy Commences Production Increase Operations at ..."
p7
aS"Jan 26, 2010 - National Chevron Phillips (NCP) Saudi Arabia is the first project for which the ... generation as a 'clean energy source' meeting the requirements of proposed ..."
p8
aS'Jan 26, 2010 - Advertising, Aerospace, Agribusiness, Alternative energy, Automotive, Brokerage/securities, Chemicals, ... Chevron Corporation. 5 ..... News Corporation.'
p9
aS'Jan 26, 2010 - Gases and certain energy and utility services, and capital expenditures ... Chevron Corp.  Pipeline ... rights, News America marketing, and capital expenditures.'
p10
a.