(lp0
S"Jan 28, 2010 - Chevron Corp. said it will move forward with the Papa Terra project off the coast of Brazil, the company's second deepwater development there and a sign of the ..."
p1
aS'Jan 28, 2010 - Chevron Corp. confirmed a fire on its unmanned Erskine platform on North Sea ... International news for oil and gas professionals ... Customer Experience Management for Energy Companies: The Path to Happy Customers & Greater Results.'
p2
aS"Jan 27, 2010 - Chevron Corporation is one of the world's leading integrated energy companies, with subsidiaries that conduct business worldwide. The company's success is ..."
p3
aS'Jan 29, 2010 - 76, Chevron, CFN, Spirit, Pacific Fuel Transport Inc. Recycle, Eco Power. VOCI News/Announcements/Updates. Jubitz And VOCI A New Era Of Service  VOCI Now Supplies Green Lubricant  NYMEX Market Updates on Energy Futures ...'
p4
aS'Jan 27, 2010 - Case opinion for TX Court of Appeals IN RE: CHEVRON U.S.A.. ... See In re Valero Energy Corporation, 968 S.W.2d 916, 916-17 (Tex.1998) (instructing .... Providence Newspaper Guild, 271 F.3d 16 (1st Cir.2001) (extending Hart Surgical to ...'
p5
aS'Jan 27, 2010 - NEWS CORP .... Valero Energy is negotiating to sell this Delaware refinery, which it bought in 2005 and ... Diversified oil companies, from Chevron Corp.'
p6
aS'Jan 28, 2010 - JFE Steel Corporation & Marubeni-Itochu Steel Inc. Received 172000 tons of Line Pipe Order for Chevron Gorgon Project. ... steel pipe that is valued by its customers as it seeks to contribute to the development of global energy resources.'
p7
aS'Jan 28, 2010 - The Azerbaijani leader and the vice-president of the Chevron Corporation, Jay Pryor, discussed energy and praised the current level of cooperation between the ...'
p8
aS"Jan 27, 2010 - A6 NEWS/NORTH, June, 2009. The amount of ... March of 2008, Chevron's. Fort Liard ..... International Frontier Resour- ces Corp. and Pacific Rodera. Energy."
p9
aS'Jan 27, 2010 - More Details for Centerpoint Energy Resources Corp ... Chevron Corporation ... With the latest News & Advice from Manta, you can stay ahead of the trends and ...'
p10
a.