(lp0
S'Jan 4, 2010 - CHEVRON CVX 1.511879049676026% Chevron Corp. ... by being one of the "oiliest" of the world\'s major energy producers, as crude oil prices, up 75% in 2009 ...'
p1
aS"Jan 4, 2010 - Home > News ... Pacific Energy to Sell Key Alaska Oil, Gas Assets for $8.1MM ... Woodside's partners in the Browse joint venture are Chevron Corp. (CVX), BHP ..."
p2
aS'Jan 4, 2010 - Kuwait Energy signs Export Oil Sales Agreement for Block 9. 18-10-15. Kuwait Energy plc announces the commencement of oil production from Faihaa-1 well in ...'
p3
aS'Jan 3, 2010 - In October 2007, Shell sold Shell Solar Lanka Ltd to Environ Energy Global PTE Ltd. .... MANCHESTER EVENING NEWS ARTICLE: Fears for Shell: 30 Dec 2007 ..... COM ARTICLE: Chevron A Safer Bet Than Shell: 13 April 2015 ..... positions in the Presidency, the Nigerian National Petroleum Corporation (NNPC), and the ...'
p4
aS"Jan 5, 2010 - We catch up on energy news that may have slipped through the tines of the ..... The article uses Chevron's Tahiti platform (pictured above) as the base of reporting. ... a deal to fork over $7 billion in cash for a chunk of Devon Energy Corp."
p5
aS'Jan 4, 2010 - Chevron selects Blackford rig for North Sea  Dolphin Drililng  Offshore.no/International .... Dart Energy; GdF Suez  Offshore.no/International  Dart completes ...'
p6
aS'Jan 3, 2010 - CHEVRON INAUGURATES LARGE SCALE STEAM INJECTION PILOT ... (SBU) Chevron states it is the only large international energy company with a ...'
p7
aS'Jan 3, 2010 - Chevron USA .... Gary-Williams Energy Corp .... With the latest News & Advice from Manta, you can stay ahead of the trends and challenges affecting your ...'
p8
aS"Jan 4, 2010 - The main news today is the Chinese manufacturing PMI out on New Year's Day, 56.6 after ... improved prospects for an economic recovery in the U.S., the biggest energy consumer. ... Exxon (NYSE:XOM) and Chevron (NYSE:CVX) are naturally bid in early New Yorktime on this. .... Time To Take Profits At VSE Corporation."
p9
aS'Jan 3, 2010 - news, companies must often overcome a reluctance to ask questions, the answers to .... ix These jury trials involved claims against Chevron arising from its use of .... Talisman Energy, Inc., .... Exxon Mobil Corp., et al, 573 F.Supp. 2d 16 (D.D.C. ...'
p10
a.