(lp0
S'Jan 4, 2010 - CHEVRON CVX 1.511879049676026% Chevron Corp. ... by being one of the "oiliest" of the world\'s major energy producers, as crude oil prices, up 75% in 2009 ...'
p1
aS'Jan 6, 2010 - Plains Exploration & Production was an American petroleum company based in Houston, ... In 2007, it was the fourth-largest oil producer in California (behind Chevron Corp., Aera Energy, and Occidental Petroleum). It was acquired by ...'
p2
aS'Jan 5, 2010 - Anchorage, AK -- CIRI Development Corp. acquired North Wind Inc., ... of Energy, Department of Defense, Bechtel Corp., NASA, Chevron Phillips Chemical, ...'
p3
aS"Jan 5, 2010 - The Company's principal investors include Energy Ventures; Chevron Technology Ventures, a unit of Chevron Corporation; Altira Group; Nomura Clean Technology Ventures, a unit of Nomura ... The news you need, when you need it."
p4
aS"Jan 4, 2010 - Home > News ... Pacific Energy to Sell Key Alaska Oil, Gas Assets for $8.1MM ... Woodside's partners in the Browse joint venture are Chevron Corp. (CVX), BHP ..."
p5
aS'Jan 6, 2010 - PricewaterhouseCoopers LLP, global energy and mining, conducted a study identifying the sources of value ... Majors are the large players such as ExxonMobil Corp. or Chevron Corp. .... International news for oil and gas professionals ...'
p6
aS"Jan 5, 2010 - ... Jasmine Project and Chevron's Rosebank Project (INTECSEA) in the United Kingdom. ... Our European power operations also continue in renewable energy with ongoing work in the solar sector in Spain. ... an Indefinite Delivery Agreement with the International Finance Corporation that has already ... News Highlights ..."
p7
aS"Jan 5, 2010 - Major global resource firms such as Chevron (CVX. ... An energy ministry official, who declined to be identified, said previously a target of producting ... Thomson Reuters is the world's largest international multimedia news agency, providing ..."
p8
aS'Jan 4, 2010 - Kuwait Energy signs Export Oil Sales Agreement for Block 9. 18-10-15. Kuwait Energy plc announces the commencement of oil production from Faihaa-1 well in ...'
p9
aS'Jan 5, 2010 - Noria news wires 2016-02-04; Lubrizol Unveils New Additive Packages ... Wes Cash, Noria Corporation 2015-06- ... 2013-09-17; Chevron Expands Compressor Oil Line ..... Arnold Shugarman  Justify Lubricant Upgrades with Energy Savings'
p10
a.