(lp0
S'Jan 7, 2010 - Construction of "Hachinohe LNG Terminal" and signing of HOA with Chevron for ... As a comprehensive energy supplier, Nippon Oil Corporation will continue its ...'
p1
aS'Jan 7, 2010 - Chevron Corporation has announced that its Australian subsidiaries and Nippon Oil Corporation have signed a Heads of ... Upstream oil and gas news for exploration and production professionals ... energy-pedia development and production.'
p2
aS"Jan 8, 2010 - Renewable energy has got buzz, growth and growing government support. ... see an Exxon Mobil Corp., Chevron Corp. or ConocoPhilips of renewables? ... The World's #1 Renewable Energy Network for News, Information, and Companies."
p3
aS'Jan 7, 2010 - Chevron and other major oil companies are moving ever farther from shore in search of oil. ... DOW JONES, A NEWS CORP COMPANY ..... Devon Energy Corp.'
p4
aS'Jan 7, 2010 - The LNG will be produced from the Gorgon Project which Chevron has been ... As a comprehensive energy supplier, Nippon Oil Corporation will continue its ...'
p5
aS'Jan 8, 2010 - ERHC Energy confirmed that Addax Petroleum, the operator of Nigeria-Sao Tome & Principe Joint Development Zone (JDZ) Block 4, has finished drilling the Oki ...'
p6
aS'Jan 7, 2010 - ... delta, general national news, politics, business, energy, sports, entertainment, ... KEFFES is an acronym for communities where Chevron operates in Bayelsa ...'
p7
aS'Jan 8, 2010 - "I don\'t fully know who\'s right and who\'s wrong down there,\'\' Mr Abbott told Sky News of the Antarctic clashes. .... Chevron celebrates first gas from Gorgon.'
p8
aS"Jan 7, 2010 - News XOM Exxon Mobil: Rotterdam Refinery Units Shut For Maintenance New ... Exxon Mobil Share News ... XOM Company Information  Exxon Mobil Corp. ... 04/13/2016, 16:52:00, Energy Up After Supplies Data -- Energy Roundup ... 04/05/2016, 23:28:00, Mechanical Issue Temporarily Halts Output at Chevron's Gorgon."
p9
aS'Jan 7, 2010 - ... Basin (Utah)  Reporting  News  Modeling  Library  Laboratory  Uploads  Tasks  Staff ... Center for Energy & Economic Development (CEED). Chevron. Colorado Geological. Survey. Colorado School of Mines ... Energy & Geoscience Institute (EGI). Gas Technology Institute ... Xcel Energy. Yates Petroleum Corporation.'
p10
a.