(lp0
S"Feb 12, 2010 - Chevron's risky decision to stay in Venezuela paid off when it won a contract to ... to lead another project with Petronas of Malaysia and India's Oil & Natural Gas Corp. ... FT's Energy Source criticized Chevron for encouraging governments in other .... Powered and implemented by Interactive Data Managed Solutions News ..."
p1
aS"Feb 11, 2010 - Chevron Corp. and Repsol YPF won bids to lead the development of two heavy crude blocks in Venezuela's Orinoco Belt as partners with ... Upstream oil and gas news for exploration and production professionals ... energy-pedia licensing."
p2
aS'Feb 11, 2010 - Chevron Alumni-An online networking community targeting professionals. ... News ... So when he retired from Chevron Corp. two years ago after spending 36 ... disciplines supported by Upstream, Global Gas, and the Energy Technology ...'
p3
aS"Feb 10, 2010 - Chevron-Led Consortium to Acquire 40 Percent Interest in Orinoco Belt Heavy Oil Project ... Chevron Corporation is one of the world's leading integrated energy ..."
p4
aS'Feb 10, 2010 - In Peru, for example, Chevron Corp. and Shell have hired well-known anthropologists to design .... with Susan Reider in 1993 to help energy companies manage their stakeholder relations. ... International news for oil and gas professionals ...'
p5
aS'Feb 10, 2010 - An analysis by Sheffield Energy & Resources Information Services (Seris), .... License partners led by Chevron Corp. intend to conduct a seismic survey on the ...'
p6
aS'Feb 11, 2010 - Strong energy prices and demand worldwide in 2000 buoyed worldwide gas processing ... (60%; NNPC) and Chevron Corp. unit Chevron Nigeria Ltd. (40%) moved nearer its ..... COMPANY NEWS: Devon to buy Mitchell Energy for $3.1 billion ...'
p7
aS"Feb 11, 2010 - Chevron and Repsol to invest $30 billion to develop Venezuela's Orinoco belt ... led by Spanish oil company Repsol and US Chevron Corp where they will invest with its ... date said at the ceremony, Rafael Ramirez energy minister and PDVSA president. ... And always stay informed of the latest company news and events!"
p8
aS"Feb 11, 2010 - Chevron, the American oil giant, led a group of companies that won one of the ... in a partnership with the Oil & Natural Gas Corporation of India and Petronas of Malaysia. ... said Roger Tissot, an expert on Venezuela's energy industry at Gas Energy, ... News. World  U.S.  Politics  N.Y.  Business  Tech  Science  Health ..."
p9
aS'Feb 11, 2010 - So when he retired from Chevron Corp. two years ago after spending 36 years in offshore production and operations in the United States, South America, Asia ...'
p10
a.