(lp0
S"Feb 17, 2010 - Chevron is one of the world's leading integrated energy companies, with subsidiaries that conduct business around the globe. Our success is driven by the ..."
p1
aS'Feb 17, 2010 - OnQuest will provide six waste heat recovery units to recover energy from the ... Chevron Australia has 50 percent ownership in the project. ... More News  ... OnQuest is a subsidiary of Primoris Services Corporation (NASDAQ: PRIM), one of ...'
p2
aS"Feb 16, 2010 - Holloman Energy: Focused on Finding and Producing Oil in Australia's Cooper Basin. More than 1,000,000 Acres of exploration licenses in the most prolific ..."
p3
aS'Feb 16, 2010 - Data Center news and technical articles from Oil & Gas Financial Journal. Search Data ... Energy crisis: What does it mean for your data center ? The advent of ...'
p4
aS'Feb 16, 2010 - The official logo of Devon Energy Corporation, photo courtesy of Devon ... international oil companies such as Chevron and ExxonMobil are seen as ... Pingback: Devon Energy Sells Off Brazil Assets | The Rio Times | brazil News Station.'
p5
aS'Feb 17, 2010 - Energy News ... BP and China National Petroleum Corp. signed a 20-year technical service contract in November last year to develop the field. An Iraqi oil ... ITF JIP Enters Trial Phase with Support from Total, BP, Shell, Chevron (Apr 20)'
p6
aS'Feb 17, 2010 - Energy News  Most Popular  Headlines ... Operates 32 Offshore Rigs. - ITF JIP Enters Trial Phase with Support from Total, BP, Shell, Chevron (Apr 20)'
p7
aS"Feb 16, 2010 - Apache Corp has announced that oil production has commenced at the Van Gogh ... Upstream oil and gas news for exploration and production professionals ... energy-pedia development and production ... Apache also has agreed to supply gas from its Julimar and Brunello discoveries to Chevron's Wheatstone liquefied ..."
p8
aS"Feb 17, 2010 - Last year, it was Australia that drew Chinese suitors seeking energy, metals and coal deals. ... PetroChina's parent, China National Petroleum Corp (CNPC) -- in addition to Chevron (CVX.N) and Eni ... Our top news photography last month."
p9
aS'Feb 17, 2010 - Morris and Sussex residents are reporting that Able Energy, a residential and ... Rockaway fuel oil company Able Energy leaves N.J. customers fuming .... From local news to politics to entertainment and sports, the twice daily Right Now ...'
p10
a.