(lp0
S'Feb 18, 2010 - Operator Chevron Nigeria Ltd. believes that the Escravos project will enable the joint .... International news for oil and gas professionals ... Chevron Corp. has signed a nonbinding heads of agreement with China Huadian Green Energy Co. ... Customer Experience Management for Energy Companies: The Path to Happy ...'
p1
aS'Feb 18, 2010 - Chevron U.K. Ltd. sold its interests in two British sector blocks to Repsol Exploration. ... British Energy Minister Colin Moynihan said acreage for the 14th licensing round .... International news for oil and gas professionals ... Chevron Corp. has signed a nonbinding heads of agreement with China Huadian Green Energy Co.'
p2
aS'Feb 18, 2010 - Get information, directions, products, services, phone numbers, and reviews on Chevron Corp in Carlsbad, NM. Discover more Petroleum Refining companies in ...'
p3
aS'Feb 19, 2010 - Mr Engdhahl has written on issues of energy, politics and economics for more ... profit of Exxon Mobil, Chevron, whatever, but it has been a geopolitical question.'
p4
aS"Feb 19, 2010 - In the News and Medias of Freeport McMoRan Copper and Gold Inc. .... 12/11/2015, Freeport-McMoRan's Cuts Energy Capex but Spares Mining Proje... 12/11/2015 ... 12/10/2015, Chevron, Conoco, Freeport Slash 2016 Capital Budgets."
p5
aS"Feb 18, 2010 - The head of Libya's National Oil Corp., Shokri Ghanem, has his eye on ... International investors were also a little unnerved by the Verenex Energy Inc. fiasco, ..."
p6
aS"Feb 19, 2010 - energy-pedia general news. Azerbaijan flag ... Japan's Itochu Corp. and Inpex Corp., which are partners in the field, may also bid, the sources said. Devon, the ..."
p7
aS'Feb 19, 2010 - DOW JONES, A NEWS CORP COMPANY ..... limiting the options of young start-ups, Mike Brooks, venture executive at Chevron Technology Ventures, said he is ...'
p8
aS'Feb 18, 2010 - Chesapeake Energy Corp (CHK) ... Get News Alerts More Headlines ... 6:36PM UTC; Watch for Shares of Chesapeake Energy (CHK) to Approach Resistance at ...'
p9
aS'Feb 18, 2010 - If you have news, comments or suggestions feel free to send them. .... Scorpion Offshore Ltd. is a Bermuda based corporation founded in 2005 to own and operate ..... From the call transcript http://seekingalpha.com/article/186993-teco-energy-inc-q4-2009- ..... Chevron, Ecuador Plaintiffs Spar Over Arbitration In Court. Feb 1 ...'
p10
a.