(lp0
S'Feb 23, 2010 - (oil sands insitu) and Pengrowth Energy Corporation (Canadian oil and gas), and a ... In his last assignment with Chevron, he was Manager of Well Engineering ...'
p1
aS'Feb 22, 2010 - energy-pedia general news ... GS Caltex, equally owned by GS Holdings Corp. and Chevron, the second-largest U.S. oil company, has stakes in six exploration ...'
p2
aS'Feb 21, 2010 - Realistic training prepares workers for the worst as energy companies raise their .... said John Sanclemente, a senior drilling superintendent at Chevron Corp.'
p3
aS'Feb 22, 2010 - DOW JONES, A NEWS CORP COMPANY .... The General Atomics reactor, which is dubbed EM2 for Energy Multiplier Module, would be about one-quarter the ...'
p4
aS'Feb 21, 2010 - Keith Chevron Corporation\'s multi-million dollar "Human Energy" advertising campaign touts how much Chevron values people. Chevron\'s website promotes the ...'
p5
aS'Feb 22, 2010 - News release via Canada NewsWire. Attention Business Editors: Anterra Energy acquires Cardium and Bakken lands. TSXV Symbol: AE.A 244,488,032 Class A ...'
p6
aS'Feb 22, 2010 - Trusted market intelligence for the global chemical, energy and fertilizer industries .... Companies like Chevron Oronite are investigating the use of Group II base oils in ... Take a free trial to ICIS news for breaking chemical news as it happens ...'
p7
aS"Feb 22, 2010 - Chevron. 98.70. +1.51%. +1.47. ConocoPhillips. 45.00. +2.97%. +1.30 .... Get All the Oil & Gas Financial Journal News Delivered to Your Inbox for free ... Paradigm Energy Partners LLC's wholly owned subsidiary, Paradigm Midstream Services  ND LLC, has .... Copyright  2007-2016 Pennwell Corporation, Tulsa, OK."
p8
aS'Feb 22, 2010 - Chevron CEO John Watson conspiring with Colonel Quaritch from the movie Avatar. ... Enter the RDA corporation on Pandora and the Chevron oil corporation in ...'
p9
aS'Feb 22, 2010 - The oil majors (Petron, Chevron and Shell) accounted for 62.8 percent of the ... Petron Corp., Chevron Phils. and Pilipinas Shell Petroleum Corp. maintained ...'
p10
a.