(lp0
S'Feb 25, 2010 - Chevron is a US oil company engaged in the exploration, production, ... Shortcut: Key Contacts | Shareholders | Subsidiaries Related Projects | Related News.'
p1
aS'Feb 24, 2010 - Brand. News Releases; Financials ... 22 /CNW/ - PanWestern Energy Inc. ("PanWestern" or the "Corporation") (TSX-V: "PW") is .... Prior to joining Verenex, he had a successful 28 year career with Chevron Corporation in Canada, the US Gulf of ...'
p2
aS'Feb 23, 2010 - Pangaea (Peru) Energy Ltd. said Block 71 is believed to offer reserve potential of billions of barrels of oil. ... International news for oil and gas professionals ... Chevron Corp. plans a $26.6-billion capital and exploratory investment program for ...'
p3
aS'Feb 24, 2010 - The announcement from ExxonMobil Corp. said RasGas 3 Train 7 is the fourth ... Get All the Oil and Gas Journal News Delivered to Your Inbox ... Chevron Corp. has started LNG and condensate production at the Gorgon project on Barrow ... Customer Experience Management for Energy Companies: The Path to Happy ...'
p4
aS'Feb 24, 2010 - Chevron Training is Irelands most comprehensive information source on the renewable energy sector. In order to keep learners up to date with this fast paced ...'
p5
aS'Feb 24, 2010 - Home | News | Press releases ... Chevron announced this week that the company will install a one megawatt CPV solar power plant ... With their high direct normal irradiance and their high energy demand, the Southwestern states of the USA ...'
p6
aS"Feb 23, 2010 - Qatar Petroleum and Exxon Mobil Corporation confirmed today that the Al Khaleej ... of Energy and Industry, Chairman and Managing Director of Qatar Petroleum, said, ... Qatar Petroleum to Acquire Part of Chevron's Moroccan Assets (Feb 8)"
p7
aS"Feb 24, 2010 - Energy News  Most Popular ... Exxon Mobil Corp. |. Wednesday ... Qatar Petroleum to Acquire Part of Chevron's Moroccan Assets (Feb 8) - Keppel FELS ..."
p8
aS'Feb 24, 2010 - Chevron. 101.69. +1.18%. +1.19. ConocoPhillips. 47.08. +0.04%. +0.02 ... Previous Article |GE Energy partners with Marlin, Sequel to acquire reserves for $200M ... Salamander Energy plc has launched its 2010 drilling program in Laos with the ... Get All the Oil & Gas Financial Journal News Delivered to Your Inbox for free.'
p9
aS"Feb 23, 2010 - The conference 'The Politics of Central Asian and Caspian Energy' will discuss the ... With both East and West seeking to secure reliable and affordable energy, the ... Chevron Corporation .... Publications, research projects, news & events."
p10
a.