(lp0
S'Feb 25, 2010 - Chevron is a US oil company engaged in the exploration, production, ... Shortcut: Key Contacts | Shareholders | Subsidiaries Related Projects | Related News.'
p1
aS'Feb 24, 2010 - Brand. News Releases; Financials ... 22 /CNW/ - PanWestern Energy Inc. ("PanWestern" or the "Corporation") (TSX-V: "PW") is .... Prior to joining Verenex, he had a successful 28 year career with Chevron Corporation in Canada, the US Gulf of ...'
p2
aS'Feb 24, 2010 - Chevron Training is Irelands most comprehensive information source on the renewable energy sector. In order to keep learners up to date with this fast paced ...'
p3
aS'Feb 24, 2010 - The announcement from ExxonMobil Corp. said RasGas 3 Train 7 is the fourth ... Get All the Oil and Gas Journal News Delivered to Your Inbox ... Chevron Corp. has started LNG and condensate production at the Gorgon project on Barrow ... Customer Experience Management for Energy Companies: The Path to Happy ...'
p4
aS'Chevron Vice President for Exploration Bobby Ryan discusses the importance of the Outer Continental Shelf ...'
p5
aS'Feb 25, 2010 - Chevron USA Inc. and U.S. Steel Corp. could be on the hook for cleanup costs at a polluted manufacturing site in upstate New York, with a federal appeals court ...'
p6
aS'Feb 25, 2010 - Energy News, Analysis & Opinion .... director of its global climate and energy campaign. The move worried - and in ...... When oil giant Chevron Corp. announced ...'
p7
aS"Feb 24, 2010 - Energy News  Most Popular ... Exxon Mobil Corp. |. Wednesday ... Qatar Petroleum to Acquire Part of Chevron's Moroccan Assets (Feb 8) - Keppel FELS ..."
p8
aS'Feb 24, 2010 - DONG Energy to Slash a Third of Jobs at Oil Unit ahead of IPO (Feb 29). Company: Exxon Mobil Corporation, more info. Operates 14 Offshore ... ITF JIP Enters Trial Phase with Support from Total, BP, Shell, Chevron (Apr 20) - Shell Says Theft ...'
p9
aS'Feb 25, 2010 - THE PUNCH Newspaper- Obinna Ezeobi. Chevron Nigeria has commenced the process of building a 750 megawatts independent ... the Nigerian National Petroleum Corporation, will be worked out after the tenders have come back. ... So when you start looking for 5-10 per cent of GDP, then the energy and power growth ...'
p10
a.