(lp0
S"Feb 25, 2010 - Chevron Corporation is one of the world's leading integrated energy companies, with subsidiaries that conduct business worldwide. The company's success is ..."
p1
aS'Feb 25, 2010 - Energy News, Analysis & Opinion .... director of its global climate and energy campaign. The move worried - and in ...... When oil giant Chevron Corp. announced ...'
p2
aS'Chevron Vice President for Exploration Bobby Ryan discusses the importance of the Outer Continental Shelf ...'
p3
aS'Feb 25, 2010 - Chevron USA Inc. and U.S. Steel Corp. could be on the hook for cleanup costs at a polluted manufacturing site in upstate New York, with a federal appeals court ...'
p4
aS'Feb 26, 2010 - Make a computer simulation to predict the amount and flow of petroleum and natural gas through an oil field. Computer simulation, Determine what type of ...'
p5
aS'Feb 25, 2010 - "Duane Grubert is an outstanding addition to our Energy sector coverage," said Jack Micenko, SFG\'s Director ... His oil industry experience includes 17 years working for Unocal (now part of Chevron). ... The news you need, when you need it.'
p6
aS"Feb 26, 2010 - Atlantic Canada's offshore oil and gas industry is one of the fastest growing sectors in the country. Propelled by such mega-projects as Hibernia, Sable and ..."
p7
aS"Feb 26, 2010 -  // Alternative energy. Chevron's gigantic revolutionary solar power plant launched in USA. A subsidiary of oil giant Chevron Corp. plans to build what ..."
p8
aS'Feb 25, 2010 - THE PUNCH Newspaper- Obinna Ezeobi. Chevron Nigeria has commenced the process of building a 750 megawatts independent ... the Nigerian National Petroleum Corporation, will be worked out after the tenders have come back. ... So when you start looking for 5-10 per cent of GDP, then the energy and power growth ...'
p9
aS'Feb 26, 2010 - ->Major polysilicon suppliers to the solar industry include MEMC Electronic Materials, LDK Solar, and Renewable Energy Corporation. Wind. Wind energy ...'
p10
a.