(lp0
S'Feb 2, 2010 - More News From Greenwire ... Oil companies, including Exxon Mobil Corp., report those costs in lobbying totals, but ... "Through our lobbying efforts, we work to help shape an effective and responsible U.S. energy policy," Chevron spokesman ...'
p1
aS"Feb 2, 2010 - It also has a joint venture with Pennsylvania General Energy that holds about 290,000 gross acres in the ... based Chevron Corp. and Houston's ConocoPhillips, which also blamed weaker quarterly ... Why stocks need more really bad news."
p2
aS"Feb 2, 2010 - Superior Energy Services now has ownership of Shell's Gulf of Mexico Bullwinkle platform, and related assets. Superior will plug and abandon the 29 wells associated with Bullwinkle, which is the deepest fixed-leg production platform on the Outer Continental Shelf. Installed in 1988 ..."
p3
aS'Feb 1, 2010 - Chevron. 101.40. -0.29%. -0.29. ConocoPhillips. 46.23. -1.81%. -0.85 ... (rig rates, lease activity, worldwide consumption, energy stockpiles, capital availability, etc.) .... Get All the Oil & Gas Financial Journal News Delivered to Your Inbox for free ... Exterran Corp. plans to close a facility near Houston, eliminating 241 jobs, ...'
p4
aS'Feb 1, 2010 - energy-pedia general news ... in Karachaganak Petroleum, each with a 32.5 percent stake, while Chevron Corp. has a 20 percent interest and Lukoil 15 percent.'
p5
aS"Feb 2, 2010 - Bonds  Currencies  Comm & Energy  Futures  Funds  Earnings ... N) and Chevron Corp (CVX.N) and ... Nonetheless, Exxon and Chevron reported downstream losses. ... Thomson Reuters is the world's largest international multimedia news ..."
p6
aS'Feb 1, 2010 - The global energy consultancy PFC Energy has published the top 50 energy companies of the world for 2009 based on market cap. ... 8, Chevron, CVX, $154.50, Integrated IOC, US ... Why Declining Consumer Sentiment Is Bad News In 3 Charts ... David Alton Clark; Prospect Capital Corporation: A Free $.46 Per Share For ...'
p7
aS'Feb 2, 2010 - Learn more about U.S. Energy Development Corporation. "We know the drill." Learn ... Vist the News section for recent news, notable achievements and more.'
p8
aS"Feb 2, 2010 - as a useful source of energy for the United ... from Chevron's Kuito field in late 1999, ..... that have dominated news stories for the .... Corp. of Denver in 2008."
p9
aS"Feb 2, 2010 - DOW JONES, A NEWS CORP COMPANY. News Corp is a ..... It is also working with Canada's Iogen Corp. to produce fuel from wheat straw. Part of the logic of ..."
p10
a.