(lp0
S'Feb 2, 2010 - More News From Greenwire ... Oil companies, including Exxon Mobil Corp., report those costs in lobbying totals, but ... "Through our lobbying efforts, we work to help shape an effective and responsible U.S. energy policy," Chevron spokesman ...'
p1
aS"Feb 2, 2010 - It also has a joint venture with Pennsylvania General Energy that holds about 290,000 gross acres in the ... based Chevron Corp. and Houston's ConocoPhillips, which also blamed weaker quarterly ... Why stocks need more really bad news."
p2
aS"Feb 2, 2010 - Superior Energy Services now has ownership of Shell's Gulf of Mexico Bullwinkle platform, and related assets. Superior will plug and abandon the 29 wells associated with Bullwinkle, which is the deepest fixed-leg production platform on the Outer Continental Shelf. Installed in 1988 ..."
p3
aS"Feb 2, 2010 - Bonds  Currencies  Comm & Energy  Futures  Funds  Earnings ... N) and Chevron Corp (CVX.N) and ... Nonetheless, Exxon and Chevron reported downstream losses. ... Thomson Reuters is the world's largest international multimedia news ..."
p4
aS'Feb 4, 2010 - Share Information  News Releases  Financials  Presentation  Tax Information ... positions of increasing responsibility with Chevron Canada Resources for 13 ... Prior to joining DualEx, Lorne was the Controller of Stratic Energy Corporation.'
p5
aS'Feb 2, 2010 - Learn more about U.S. Energy Development Corporation. "We know the drill." Learn ... Vist the News section for recent news, notable achievements and more.'
p6
aS"Feb 2, 2010 - as a useful source of energy for the United ... from Chevron's Kuito field in late 1999, ..... that have dominated news stories for the .... Corp. of Denver in 2008."
p7
aS'Feb 3, 2010 - Get All the Oil and Gas Journal News Delivered to Your Inbox ... Chevron Corp. has started LNG and condensate production at the Gorgon project on Barrow ... Customer Experience Management for Energy Companies: The Path to Happy ...'
p8
aS"Feb 2, 2010 - DOW JONES, A NEWS CORP COMPANY. News Corp is a ..... It is also working with Canada's Iogen Corp. to produce fuel from wheat straw. Part of the logic of ..."
p9
aS'Feb 3, 2010 - SunEdison Shares at 24 Cents on WSJ Bankruptcy News .... Chevron Energy Solutions, a division of the oil major Chevron Corporation, develops both solar and ...'
p10
a.