(lp0
S'Feb 4, 2010 - Chesapeake Energy Corp announced the execution of an agreement for a $2.25 ... contract with Cabinda Gulf Oil Company, a Chevron subsidiary, in Q1 2010.'
p1
aS'Feb 4, 2010 - Bryan Pechersky joined Cloud Peak Energy in January 2010 as its Senior Vice ... an international energy company acquired by Chevron Corporation in 2005.'
p2
aS'Feb 4, 2010 - Colorado Breaking News, Sports, Weather, Traffic ... sections of well casing while drilling in unincorporated Washington County for Delta Petroleum Corp.'
p3
aS'Feb 5, 2010 - Chevron and Valero Energy have deployed a similar system across their wholly .... He joined Invensys Operations Management after SAT Corporation was ...'
p4
aS'Feb 5, 2010 - DOW JONES, A NEWS CORP COMPANY. News Corp .... The downstream operation posted a loss of $427 million, echoing similar losses at Exxon Mobil Corp.'
p5
aS'Feb 6, 2010 - Canon, Inc.  Carpenter Technologies  Cisco Systems, Inc.  Dialogic Corp. ... Inc.  AkzoNobel  BASF  BOC Group ConocoPhillips, Inc.  Covanta Energy  Chevron  Chevron Phillips Chemical Company  Entergy Corp. ... Related News.'
p6
aS"Feb 5, 2010 - Oil Field Services: Egypt Oil & Gas news in Africa, AOC to Develop Schedule for NW ... included a pledge to finance Egypt Energy Sector with more then $20 Billion. ... Gulf Oil Company Limited (CABGOC), Chevron Corporation's affiliate in."
p7
aS'Feb 4, 2010 - A flood of bad news, including rising debt levels in European nations and an unexpected jump in .... Energy stocks fell as oil slid. Exxon Mobil Corp. fell $1.88, or 2.8 percent, to $64.72, while Chevron Corp. fell $1.84, or 2.5 percent, to $71.37.'
p8
aS'Feb 4, 2010 - The primary sequence of a protein defines its free-energy landscape and .... Second, we used the chevron plots alone to determine rate constants for GDN = 0 (that is, for kf = ku). ..... Nature Structural Biology News and Views (01 Mar 1994).'
p9
aS"Feb 4, 2010 - By Rowena Mason Energy Last updated: February 4th, 2010 ... BP, ExxonMobil and Chevron have all been unveiling losses or severely .... Today's News."
p10
a.