(lp0
S"Feb 7, 2010 - Chevron Corporation is one of the world's leading integrated energy and technology companies, with subsidiaries that conduct business worldwide under the ..."
p1
aS'Feb 8, 2010 - Of the major integrated oil companies, Chevron gets most of its income from oil ... This underrated Canadian energy trust hit the news earlier this year with the ...'
p2
aS"Feb 8, 2010 - CHEVRON CORP. The California-based energy behemoth, which is currently yielding about 3.7 per cent, is another favourite of my O'Shaughnessy-based ..."
p3
aS'Feb 8, 2010 - Walter H. Shorenstein, Chevron Corporation, The Coca-Cola Company, and General. Motors. The views ... Since few people like bad news, companies must often overcome a reluctance to .... Talisman Energy, Inc., 453 F. Supp.2d. 633, 657.'
p4
aS'Feb 9, 2010 - There are also complaints, frequently in newspaper editorials and stories, about the ... investment: the rapidly growing demand for all sources of energy, oil and gas being foremost. .... Chevron temporarily halts Gorgon LNG production due to mechanical issues .... Copyright  2007-2015 PennWell Corporation, Tulsa, OK.'
p5
aS"Feb 9, 2010 - ... determine effects of drilling-related discharges at Chevron U.S.A. Inc.'s platform Hidalgo in the ... activities in the basin until 1986 when drilling started at Unocal Corp. ..... International news for oil and gas professionals ... Chevron Corp. has signed a nonbinding heads of agreement with China Huadian Green Energy Co."
p6
aS'Feb 7, 2010 - Chevron USA Inc.; Coalition of Tulsa Area Governments; Corrections ... Lilly USA, LLC; Majority Plus LLC; OGE Energy Corp.; Oklahoma Lakes and Countries ...'
p7
aS'Feb 8, 2010 - Earth News reporter ... collaboration between marine scientists and energy companies such as BP, Shell, Chevron and Petrobras working in the Gulf of Mexico.'
p8
aS'Feb 8, 2010 - Houston, TX News - View Daily Local Business News, Resources & more in Houston, Texas. ... based Chevron Corp. ... Get Contact Information for Chevron.'
p9
aS"Feb 8, 2010 - Like Mexico, Venezuela is endowed with enormous energy resources, and could be ... include Spain's Repsol, Japan's Mitsubishi, the U.K.'s BP, and Chevron."
p10
a.