(lp0
S"Mar 12, 2010 - PV Gas, Chevron, Mitsui, and PTTEP on Thursday signed a contract for the Block B Gas Pipeline Project. ... Petrovietnam Gas Corp. ... This agreement will contribute to Vietnam's energy development in the future and to PV Gas's leading role ..."
p1
aS'Mar 11, 2010 - Britannia Operator Ltd. (BOL), a U.K. joint venture of Chevron U.K. Ltd. and Conoco ... International news for oil and gas professionals ... Chevron Corp. has signed a nonbinding heads of agreement with China Huadian Green Energy Co. ... This report will provide an overview of the state-of-the-market in the energy sector.'
p2
aS'Mar 11, 2010 - ... for Chevron U.S.A. Inc., a wholly owned subsidiary of Chevron Corporation, ... ultra-deepwater drillship Discoverer Inspiration begins contract with Chevron in ... Related News /// ... Otto Energy announces Gulf of Mexico discovery (4/20)'
p3
aS"Mar 11, 2010 - Chevron U.S.A. Inc., a wholly owned subsidiary of Chevron Corporation (NYSE: CVX) ... Chevron is one of the world's leading integrated energy companies, with ..."
p4
aS"Mar 11, 2010 - Chevron Corp may pursue an international arbitration claim over environmental pollution ... Currencies  Comm & Energy  Futures  Funds .... The cases are Republic of Ecuador v Chevron Corp and Texaco Petroleum Company, U.S. ... Thomson Reuters is the world's largest international multimedia news agency, providing ..."
p5
aS'Mar 12, 2010 - Chevron Corp. won a round Thursday in the long legal fight over oil-field contamination in Ecuador, with a U.S. judge ruling that the company can pursue ...'
p6
aS'Mar 11, 2010 - Photo Release -- Transocean Ltd. Announces Ultra-Deepwater Drillship Discoverer Inspiration Begins Five-Year Contract With Chevron ... for Chevron U.S.A. Inc., a wholly owned subsidiary of Chevron Corporation (NYSE:CVX), ... Transocean Ltd. to Present at Howard Weil Energy Conference ... other news releases in'
p7
aS'Mar 11, 2010 - Energy companies are suffering huge losses from refining because of ... This week Chevron Corp. launched an overhaul of its fuel-making and retailing ...'
p8
aS'Mar 11, 2010 - He thinks the reservoir is 20,000 feet underground and could stretch 50 miles to the north through acreage controlled by Chevron ( CVX - news - people ) (which ...'
p9
aS'Mar 11, 2010 - -J. Larry Nichols, Devon Energy Corporation ... Boeing and Bechtel, along with the largest oil companies like ExxonMobil, Shell, Hess and Chevron. ..... Watch: Ben Carson Wants Harriet Tubman on the $2 Bill, Befuddling Even Fox News ...'
p10
a.