(lp0
S'Mar 15, 2010 - Chevron Corp. is an integrated energy company, which provides administrative, financial, management and technology support to U.S. and international ...'
p1
aS'Mar 15, 2010 - Chevron Corp (NYSE:CVX). Add to Watch List. Set Alert ... Latest CVX News | Press Releases ... Chevron (CVX) to Supply Wheatstone Gas to Alinta Energy.'
p2
aS'Mar 15, 2010 - 2010 Chevron Corporation. ... Tim Veale, Manager, Renewable Energy Services ... test facility that Chevron has installed to test and evaluate different solar ...'
p3
aS'Mar 15, 2010 - Julia Baggs, Chevron Energy Technology Company. Hi, my name is Julia Baggs and I work at Chevron on a team that explores the earth for oil and natural gas.'
p4
aS'Mar 15, 2010 - This mutual fund profile of the Energy Fund Investor provides details such as the fund objective, average annual ... News & Perspectives ..... 3, Chevron Corp.'
p5
aS'Mar 15, 2010 - CHEVRON USA PRODUCTION CO; LA BARGE, WYOMING 83123; 307-386-2274 ... DEVON ENERGY CORP; RIVERTON, WYOMING 82501; 307-856-8111.'
p6
aS'Mar 15, 2010 - Independent energy company Petrohawk Energy Corp. has entered into a definitive ... +0.00. Chevron. 101.69. +0.00. +0.00. ConocoPhillips. 47.08. +0.00. +0.00 .... Get All the Oil & Gas Financial Journal News Delivered to Your Inbox for free.'
p7
aS"Mar 14, 2010 - But all has not been bad news for BP West of Shetland. Clair oil ... Dublin's Aran Energy plc took over the license, and Statoil took over Aran in 1996. ..... Chevron Corp. plans a $26.6-billion capital and exploratory investment program for 2016, ..."
p8
aS'Mar 14, 2010 - News Video  Blogs ... Chevron to pay $4.3 billion for Atlas Energy and joins Marcellus Shale field. November 10, 2010 ... Atlas Energy Inc., Moon Township, Pa. Active in the ... Chesapeake Energy Corp., Oklahoma City. ... This global energy firm is the largest leaseholder in Pennsylvania state forests, with 128,000 acres.'
p9
aS'Mar 15, 2010 - TECO Energy Inc. 77. National Grid. 78. Masco Corp. 79. Syngenta AG. 80. Marathon Oil Corp. 81. Berkshire Hathaway. 82. Chevron Corp. 83. Lubrizol Corp.'
p10
a.