(lp0
S'Mar 19, 2010 - Aker Solutions signs contract with Chevron Australia Pty Ltd to supply subsea .... Norse Energy Corp ASA: Norse Energy and Pan-Petroleum Create New South ...'
p1
aS"Mar 18, 2010 - Chevron.com  NEWS  SUPPLIERS  CONTACT ... Chevron El Segundo represents Energy That Cares. ... When they're not at work, you'll find Chevron's El Segundo Refinery employees out in the ... 2001 - 2016 Chevron Corporation."
p2
aS'Mar 18, 2010 - Chevron.com  NEWS  SUPPLIERS  CONTACT ... Chevron believes in the Power of Human Energy and puts special emphasis on support to K-12 education, particularly in the areas of math and science. ... In 2010, presented over $1 million in "Energy for Learning" grants to fund STEM ... 2001 - 2016 Chevron Corporation.'
p3
aS'Mar 18, 2010 - ... John Watson will become the new Chairman and CEO of Chevron Corporation. ... in Ecuador and transform Chevron into the responsible 21st century energy ...'
p4
aS"Mar 18, 2010 - Chevron is the largest corporation in Representative Sanchez's home state of California, and she is currently circulating ... Chevron's Human Energy ad campaign seeks to portray the oil giant as a friendly, ... Part of HuffPost on HPMG News."
p5
aS'Mar 19, 2010 - News and information on Royal Dutch Shell Plc. ... 4 are in big s***, some of them went to the Department of Energy and to Luthili House but to no avail. ..... COM ARTICLE: Chevron A Safer Bet Than Shell: 13 April 2015 ..... in the Presidency, the Nigerian National Petroleum Corporation (NNPC), and the Federal Ministry of ...'
p6
aS'Mar 18, 2010 - Total U.S. energy production increases for sixth consecutive year  ... Dallas Morning News Energy & Env. Page  Calgary Herald Energy Page  Oil and Gas ...'
p7
aS"Mar 18, 2010 - Regional news ... PDi Supports Chevron's Agbami Phase 3 Project. < > ... Forum Energy Technologies, Inc. (Forum) announces the sale of five Perry XLX Heavy ..."
p8
aS"Mar 18, 2010 - Roland Kell, the general manager at Chevron Corp. ... He will be replaced by Tom Kovar, currently the manager of Chevron's refinery in Pembroke, Wales. ... A Valero Energy Corp. executive said last week that his company will ... News  Business  Sports  High School Sports  Entertainment  Living  Old Crab  Opinion."
p9
aS"Mar 19, 2010 - 0 comments, 19/03/2010 , by John Robertson, in News ... in opening up west of Shetland gas reserves to meet Britain's future energy needs. ... The company revealed that it has bought out the interests of Chevron and ENI UK to give it an 80 ..."
p10
a.