(lp0
S'Mar 26, 2010 - While these discoveries are encouraging, the offshore energy industry had to ... Shell operates the field with 40% interest, and Chevron owns the field with 60% ...'
p1
aS'Mar 27, 2010 - The Sydney-based independent Buccaneer Energy Ltd. announced on March 25 ... In October, Stellar told Petroleum News it was seeking new funding for its ...'
p2
aS'Mar 25, 2010 - Nigerian National Petroleum Corporation, NNPC, Energy, Nigeria ... These include the Chevron Onshore Gas Plant of the Escravos Gas Project Phase 1 where ...'
p3
aS'Mar 27, 2010 - Good news can make the value of the stock increase drastically, but bad news will have .... Oppenheimer energy pair trade  buy Exxon, Chevron; sell Ensco, ...'
p4
aS'Mar 25, 2010 - MISTRAS Services Receives Chevron Safety Award. ... In the News ... to evaluate the structural integrity of critical energy, industrial and public infrastructure.'
p5
aS'Mar 26, 2010 - DOW JONES, A NEWS CORP COMPANY. News Corp is a ..... He previously worked for energy companies such as Chevron and Exxon Mobil. Share this:.'
p6
aS'Mar 25, 2010 - Chaparral Energy Inc., an independent oil and gas production and exploitation ... Get All the Oil & Gas Financial Journal News Delivered to Your Inbox for free.'
p7
aS'Mar 25, 2010 - Chevron will develop new Venezuelan energy project. Chevron confirms that a consortium led by its Venezuelan subsidiary has been selected to negotiate its ...'
p8
aS'Mar 25, 2010 - Home Firm Overview Practice Areas Attorneys Offices News & Events Contact ... Although Houston remains the energy capital of the world, the industry has ...'
p9
aS'Mar 25, 2010 - M.4479 - NEWS CORPORATION / JAMBA / OJOM ... M.489 - BERTELSMANN / NEWS INTERNATIONAL / VOX .... M.3297 - NORSK HYDRO / DUKE ENERGY'
p10
a.