(lp0
S"Mar 1, 2010 - End Dirty Energy ... News Updates ... Oil's Well That Ends Well: Parting Shots From Chevron's Charles James ... Chevron Corporation on Thursday announced the retirement of Charles James as executive vice president and a member of the ..."
p1
aS"Mar 1, 2010 - Energy News ... pioneered by smaller, independent U.S. producers such as Chesapeake Energy Corp. ... Lewis Energy didn't respond to requests for comment. ... ITF JIP Enters Trial Phase with Support from Total, BP, Shell, Chevron (Apr 20)"
p2
aS'Mar 2, 2010 - CHEVRON CORPORATION X ... The recession has really taken supply and demand in the energy business  which was quite tight, .... And there are a number of companies that are up there developing them, including Royal Dutch Shell, Exxon and Chevron. ... Get the National Post newspaper delivered to your home.'
p3
aS"Mar 2, 2010 - This contract to build solar power plants will increase the Navy's energy security, ... Energy/Solar Power Partners Inc. of Mill Valley, Calif., SunPower Corp. of ... N.J., and Chevron Energy Solutions Company, a Division of Chevron U.S.A. Inc. of Eagan, Minn. ... For more news from Naval Facilities Engineering Command, visit ..."
p4
aS'Mar 1, 2010 - ... spread of fiscal terms ranging from the one star contract Chevron signed for Block 52 versus ... A Study of Foreign Investment and Associated Risks," at the Center for Energy, Petroleum ... International news for oil and gas professionals ... Chevron Corp. plans a $26.6-billion capital and exploratory investment program for ...'
p5
aS'Mar 1, 2010 - Chevron U.S.A. Inc. employed the approach at its Sacroc unit near Snyder, Tex. This is ... International news for oil and gas professionals ... Chevron Corp. has signed a nonbinding heads of agreement with China Huadian Green Energy Co. ... Customer Experience Management for Energy Companies: The Path to Happy ...'
p6
aS"Mar 1, 2010 - Lucius lies 7.5 miles east of Chevron's 2009 Paleogene Buckskin discovery. ... GE Energy partners with Marlin, Sequel to acquire reserves for $200M ... associated with the company's recently-closed acquisition Triad Energy Corp. assets. ... Get All the Oil & Gas Financial Journal News Delivered to Your Inbox for free."
p7
aS'Mar 2, 2010 - Capital Expenditures news and technical articles from Oil & Gas Financial Journal. Search ... Chevron. 101.69. +1.18%. +1.19. ConocoPhillips. 47.08. +0.04%. +0.02 .... Chesapeake Energy Corp. has made a new natural gas discovery in the ...'
p8
aS'Mar 3, 2010 - The PUF lands are also home to wind farms operated by FPL Energy. In 2001 ... As demand for green energy increases, the number of ..... Chevron Corporation.'
p9
aS'Mar 2, 2010 - Home  Media Centre  Case studies; Private energy and utilities; Gurkha services ... The core operation in Nigeria is providing security support to Chevron ...'
p10
a.