(lp0
S"Mar 3, 2010 - We talk with Chevron's innovation specialist on how the energy giant ... Enjoy this article as well as all of our content, including E-Guides, news, tips and more. ... manager for Global Innovation Services at Chevron Corp., to find out how the oil ..."
p1
aS"Mar 3, 2010 - Indonesia energy firms welcome government forest decree ... Usman Slamet, a manager at Chevron Indonesia, a unit of Chevron Corp, said the company is ... Thomson Reuters is the world's largest international multimedia news agency, ..."
p2
aS'Mar 2, 2010 - CHEVRON CORPORATION X ... The recession has really taken supply and demand in the energy business  which was quite tight, .... And there are a number of companies that are up there developing them, including Royal Dutch Shell, Exxon and Chevron. ... Get the National Post newspaper delivered to your home.'
p3
aS"Mar 2, 2010 - This contract to build solar power plants will increase the Navy's energy security, ... Energy/Solar Power Partners Inc. of Mill Valley, Calif., SunPower Corp. of ... N.J., and Chevron Energy Solutions Company, a Division of Chevron U.S.A. Inc. of Eagan, Minn. ... For more news from Naval Facilities Engineering Command, visit ..."
p4
aS"Mar 3, 2010 - The Philippines will sell state-run PNOC Exploration Corp's stake in the Malampaya natural gas project before selling 60 percent of ... energy-pedia general news ... The rest is owned by the Shell Philippines Exploration (SPEX) and Chevron."
p5
aS'Mar 2, 2010 - Capital Expenditures news and technical articles from Oil & Gas Financial Journal. Search ... Chevron. 101.69. +1.18%. +1.19. ConocoPhillips. 47.08. +0.04%. +0.02 .... Chesapeake Energy Corp. has made a new natural gas discovery in the ...'
p6
aS'Mar 3, 2010 - 5%, and Mobil Corp. and Chevron Corp. combined 1%. ... Get All the Oil and Gas Journal News Delivered to Your Inbox. Subscribe ... Customer Experience Management for Energy Companies: The Path to Happy Customers & Greater Results.'
p7
aS'Mar 3, 2010 - Chevron USA Production Co. operates the wells in a Viosca Knoll. ... International news for oil and gas professionals ... Chevron Corp. has signed a nonbinding heads of agreement with China Huadian Green Energy Co. ... Customer Experience Management for Energy Companies: The Path to Happy Customers & Greater ...'
p8
aS"Mar 3, 2010 - In contrast, the super majors, like Exxon and Chevron, can easily absorb the clean-up ... Alberta's Energy Resources Conservation Board (ERCB) issued Directive 74, ... The RiskMetrics quantification may present good news for environmental ..."
p9
aS'Mar 2, 2010 - Home  Media Centre  Case studies; Private energy and utilities; Gurkha services ... The core operation in Nigeria is providing security support to Chevron ...'
p10
a.