(lp0
S"Mar 3, 2010 - We talk with Chevron's innovation specialist on how the energy giant ... Enjoy this article as well as all of our content, including E-Guides, news, tips and more. ... manager for Global Innovation Services at Chevron Corp., to find out how the oil ..."
p1
aS'Mar 4, 2010 - Devon Energy (NYSE" DVN) is an international, independent oil and gas ... Here\'s Why Devon Energy Corp. ... Why do you recommend this news source? .... leaseholder in the Lower Tertiary of the Gulf of Mexico (after Chevron); it was one of ...'
p2
aS"Mar 3, 2010 - Indonesia energy firms welcome government forest decree ... Usman Slamet, a manager at Chevron Indonesia, a unit of Chevron Corp, said the company is ... Thomson Reuters is the world's largest international multimedia news agency, ..."
p3
aS'Mar 4, 2010 - Kingsland Energy Corp. is a technology driven Saskatchewan based company focused ... News Release Mr. Mark Kilback reports KINGSLAND ENERGY CORP.'
p4
aS'Mar 3, 2010 - 5%, and Mobil Corp. and Chevron Corp. combined 1%. ... Get All the Oil and Gas Journal News Delivered to Your Inbox. Subscribe ... Customer Experience Management for Energy Companies: The Path to Happy Customers & Greater Results.'
p5
aS'Mar 3, 2010 - Chevron USA Production Co. operates the wells in a Viosca Knoll. ... International news for oil and gas professionals ... Chevron Corp. has signed a nonbinding heads of agreement with China Huadian Green Energy Co. ... Customer Experience Management for Energy Companies: The Path to Happy Customers & Greater ...'
p6
aS"Mar 3, 2010 - The Philippines will sell state-run PNOC Exploration Corp's stake in the Malampaya natural gas project before selling 60 percent of ... energy-pedia general news ... The rest is owned by the Shell Philippines Exploration (SPEX) and Chevron."
p7
aS"Mar 3, 2010 - In contrast, the super majors, like Exxon and Chevron, can easily absorb the clean-up ... Alberta's Energy Resources Conservation Board (ERCB) issued Directive 74, ... The RiskMetrics quantification may present good news for environmental ..."
p8
aS'Mar 4, 2010 - Wolverine Gas & Oil Corp. obtained approval Thursday to flare excess gas into the ... It was concerned only that Wolverine might be wasting energy-rich gases that produce a royalty for the state. ... But in 1999, Wolverine bought Chevron Corp. ... Our Company  News Mission  Advertising  Careers  Content Licensing ...'
p9
aS'Mar 4, 2010 - "The plaintiffs allege that defendants\' operation of energy, fossil fuels, and chemical ... to global warming," say the documents seen by the AFP news agency.'
p10
a.