(lp0
S'Mar 7, 2010 - Chevron Corp. and partners are making progress in developing new crude oil ... International news for oil and gas professionals ... Customer Experience Management for Energy Companies: The Path to Happy Customers & Greater Results.'
p1
aS"Mar 7, 2010 - Kern River's main four operators are: Texaco Inc. 95,000 b/d, Chevron Corp. ... Resources which was a spinoff from Santa Fe Resources Inc. Aera Energy LLC is a combination of Shell Oil Co. .... International news for oil and gas professionals ..."
p2
aS"Mar 7, 2010 - The move was prompted by Chevron Corp.'s plans to close its Estero ... Get All the Oil and Gas Journal News Delivered to Your Inbox. Subscribe to recieve ... Japan mulls strategic moves in changing energy landscape, forum told. 03/11/2016."
p3
aS'Mar 9, 2010 - The patent encumbrance of large automotive NiMH batteries refers to allegations that corporate ... In 2007, the National Renewable Energy Laboratory said that Li-Ion batteries may be subject to .... On July 28, 2009, Automotive News reported that Cobasys would be bought from Chevron and Energy Conversion Devices by ...'
p4
aS'Mar 7, 2010 - In October, Korean National Oil Corp. paid C$4.1 billion to acquire Harvest Energy Trust, gaining conventional oil assets and oil sands leases in Western ...'
p5
aS"Mar 7, 2010 - (Most of the work was done by Texaco, but Chevron bought the corporation in ... life with cutting-edge technology and about $310 million of News Corp. studio's ..."
p6
aS'Mar 8, 2010 - (PhysOrg.com) -- An offshore slug flow control system that could save millions lost in oil production each year has won the 2010 East of England Energy Group ...'
p7
aS'Mar 7, 2010 - energy-pedia general news ... Operators of Karachaganak, a huge deposit developed by BG, Eni, Chevron and LUKOIL, declined immediate comment.'
p8
aS'Mar 8, 2010 - News & Events  Photo Gallery ... Oil, Energy and Mining ... The Geological Researches General Corporation, The Electricity and Water General Corporation ...'
p9
aS'Mar 7, 2010 - In the Fayetteville Shale, BP bought a 25% interest from Chesapeake Energy ... Chevron Corp. ... Subscribe to News To Use for the latest insights and analysis ...'
p10
a.