(lp0
S'Mar 9, 2010 - Chevron Corp. spilled between three and five tons of molten sulfur from a pipeline in ... News Updates ... Chevron part of new $6 billion oil project in Azerbaijan ... alongside partners including Chevron, Azerbaijani state energy firm SOCAR, ...'
p1
aS"Mar 9, 2010 - Chevron Deutschland is participating in HANNOVER MESSE from 25 to 29 Apr. 2016 in ... Chevron Corporation is one of the world's leading integrated energy ..."
p2
aS'Mar 9, 2010 - Chevron Corp (CVX.N), the second-largest U.S. oil company, put some of its downstream operations up for sale, including its Pembroke refinery in the UK, and ...'
p3
aS"Mar 9, 2010 - Natural gas crystals: Energy under the sea ... On the right, unlocking its energy.By Steve ... BP (BP) at a site in Alaska's North Slope and Chevron (CVX, Fortune 500) in the Gulf of Mexico. ... Bank of America Corp. ... 2016 Cable News Network."
p4
aS"Mar 9, 2010 - Groups for and against a proposed $1 billion expansion of Chevron's ... [NATL] Top News Photos of the Week ... for the creation of a clean energy and jobs program, according to a statement from Asian Pacific Environmental Network, or APEN."
p5
aS'Mar 9, 2010 - Exxon Corp. has started production from its $2 billion expanded development ... similar to those experienced by the nearby Chevron group Point Arguello project. .... International news for oil and gas professionals ... Customer Experience Management for Energy Companies: The Path to Happy Customers & Greater Results.'
p6
aS'Mar 10, 2010 - Because of limits on investment resources, the Ministry of Fuel and Energy expects ..... International news for oil and gas professionals ... Chevron Corp. has signed a nonbinding heads of agreement with China Huadian Green Energy Co.'
p7
aS'Mar 9, 2010 - The patent encumbrance of large automotive NiMH batteries refers to allegations that corporate ... In 2007, the National Renewable Energy Laboratory said that Li-Ion batteries may be subject to .... On July 28, 2009, Automotive News reported that Cobasys would be bought from Chevron and Energy Conversion Devices by ...'
p8
aS'3/9/2010-On Tuesday, Chevron Corp. (NYSE:CVX) said it will eliminate 2,000 positions this year and that it ...'
p9
aS'Mar 9, 2010 - energy-pedia general news ... Emerging Lower Tertiary Trend (Chevron: 2007) ... later this year together with the Chevron-operated Jack development.'
p10
a.