(lp0
S"Apr 11, 2010 - Right now, on the outer edge of the Gulf of Mexico, Chevron Corp. is making a big ... Chevron's big push in the Gulf of Mexico. ENERGY. Brett Clanton, Hearst ..."
p1
aS'Apr 12, 2010 - China Petrochemical Corp. agreed to pay ConocoPhillips $4.65 billion for its stake in ... The International Energy Agency on March 12 raised its forecast for fuel ... Exxon Mobil Corp., based in Irving, Texas, and Chevron Corp., based in San .... Minister Paolo Gentiloni said Monday, according to Italian news wire Ansa.'
p2
aS"Apr 12, 2010 - HOME > News Releases > 2010 > JOGMEC participates in an extra heavy oil ... Japan Oil, Gas and Metals National Corporation (JOGMEC, President: Hirobumi ... of Chevron Corporation, and a subsidiary of Suelopetrol C.A.,S.A.C.A, in an extra ... The project is expected to reinforce Japan's energy security as well as to ..."
p3
aS'Apr 11, 2010 - Through the activities of Namcor, the national petroleum corporation, and Intera ECL, Namibia ... The Namibian government has formulated a national energy policy and intends to assume ... However, in 1973 a joint operation involving Chevron, Regent, and Soekor led to a .... International news for oil and gas professionals ...'
p4
aS'Apr 12, 2010 - ... advanced projects of significant scale to meet the growing energy needs of Vietnam and the region. ... Son Refinery, Long Son Refinery, Chevron Block B Off-Shore development and the Long Son Petrochem Complex. ... The Vietnam Oil and Gas Corporation was created in May 1995 by the prime ... Services  News.'
p5
aS'Apr 12, 2010 - Chevron is just one of several companies and African governments taking a fresh look at West African prospects as ... News listings. energy-pedia exploration.'
p6
aS'Apr 12, 2010 - energy at work ... April 12th 2010: Bominflot Bunker Oil Corp. ... Prior to joining Bominflot, Alexander Massa has worked for Chevron Global Marine Products ...'
p7
aS"Apr 12, 2010 - ... energy companies joined the new administration to form the Cheney Energy Task ... ExxonMobil, Chevron, BP, ConocoPhillips and other major oil companies ... Korea Gas Corp., was awarded Iraq's Zubair oil field with estimated reserves of ..."
p8
aS'Apr 11, 2010 - Chevron Corporation  China National Petroleum Corp. (CNPC) ... International & Indian Energy industry with Petroleum related business in India. Aban Loyd ...'
p9
aS'Apr 13, 2010 - Evaluate Energy is a leading provider of oil & gas information including an M&A database, Company ... Deal News ..... Chevron Corporation (April 12, 2016).'
p10
a.