(lp0
S'Apr 12, 2010 - China Petrochemical Corp. agreed to pay ConocoPhillips $4.65 billion for its stake in ... The International Energy Agency on March 12 raised its forecast for fuel ... Exxon Mobil Corp., based in Irving, Texas, and Chevron Corp., based in San .... Minister Paolo Gentiloni said Monday, according to Italian news wire Ansa.'
p1
aS'Apr 13, 2010 - ... Bloomberg Television  Bloomberg Radio  Bloomberg Mobile Apps  News Bureaus .... The Cablevision Systems Corp. headquarters stand in Bethpage, New York, .... Energy Future Holdings Corp., the Texas electricity provider formerly known as ... ConocoPhillips and Chevron Corp. have already abandoned some Gulf ...'
p2
aS"Apr 12, 2010 - HOME > News Releases > 2010 > JOGMEC participates in an extra heavy oil ... Japan Oil, Gas and Metals National Corporation (JOGMEC, President: Hirobumi ... of Chevron Corporation, and a subsidiary of Suelopetrol C.A.,S.A.C.A, in an extra ... The project is expected to reinforce Japan's energy security as well as to ..."
p3
aS'Apr 12, 2010 - ... advanced projects of significant scale to meet the growing energy needs of Vietnam and the region. ... Son Refinery, Long Son Refinery, Chevron Block B Off-Shore development and the Long Son Petrochem Complex. ... The Vietnam Oil and Gas Corporation was created in May 1995 by the prime ... Services  News.'
p4
aS'Apr 13, 2010 - BP Exploration and Chevron USA in March confirmed an oil discovery on the Sourdough ... Pan American Petroleum Corp. discovered Redoubt Shoal field in .... International news for oil and gas professionals ... Customer Experience Management for Energy Companies: The Path to Happy Customers & Greater Results.'
p5
aS'Apr 12, 2010 - Processing News.  ... SK Energy is the most active player in upstream investment. ..... GS Caltex is a 50:50 joint venture between GS Holdings and Chevron. ... which are used for hybrid electric vehicles, in partnership with Nippon Oil Corp.'
p6
aS"Apr 12, 2010 - John Litynski, sequestration division manager with DOE's National Energy Technology .... Get All the Oil and Gas Journal News Delivered to Your Inbox ... of Mexico properties from Chevron Corp. that include 19 oil and gas fields and assoc."
p7
aS'Apr 13, 2010 - Evaluate Energy is a leading provider of oil & gas information including an M&A database, Company ... Deal News ..... Chevron Corporation (April 12, 2016).'
p8
aS'Apr 13, 2010 - Join LinkedIn to get the latest news, insights, and opportunities from over 3 million ... Shell is a global group of energy and petrochemicals companies. It consists ...'
p9
aS"Apr 12, 2010 - ... energy companies joined the new administration to form the Cheney Energy Task ... ExxonMobil, Chevron, BP, ConocoPhillips and other major oil companies ... Korea Gas Corp., was awarded Iraq's Zubair oil field with estimated reserves of ..."
p10
a.