(lp0
S'Apr 13, 2010 - ... Bloomberg Television  Bloomberg Radio  Bloomberg Mobile Apps  News Bureaus .... The Cablevision Systems Corp. headquarters stand in Bethpage, New York, .... Energy Future Holdings Corp., the Texas electricity provider formerly known as ... ConocoPhillips and Chevron Corp. have already abandoned some Gulf ...'
p1
aS'Apr 14, 2010 - A few months ago, Chevron turned to The Audit, the business-news desk of the ... of Ecuador, the Minister of Energy and Mines, the president of Petroecuador ...'
p2
aS"Apr 14, 2010 - The Company's principal investors include Energy Ventures; Chevron Technology Ventures, a unit of Chevron Corporation; Altira Group; Nomura Clean Technology Ventures, a unit of Nomura ... The news you need, when you need it."
p3
aS'Apr 13, 2010 - BP Exploration and Chevron USA in March confirmed an oil discovery on the Sourdough ... Pan American Petroleum Corp. discovered Redoubt Shoal field in .... International news for oil and gas professionals ... Customer Experience Management for Energy Companies: The Path to Happy Customers & Greater Results.'
p4
aS'Apr 13, 2010 - Join LinkedIn to get the latest news, insights, and opportunities from over 3 million ... Shell is a global group of energy and petrochemicals companies. It consists ...'
p5
aS'Apr 13, 2010 - ... known as J-Power, Mitsubishi Materials Corp. and Mitsubishi Gas Chemical Co. have set up a ... In news from Japan, Electric Power Development Co., known as J-Power, ... using a well of New Energy and Industrial Technology Development Organization, ... Pertamina joins the bidding for geothermal assets by Chevron.'
p6
aS'Apr 14, 2010 - +0.00. Chevron. 101.69. +0.00. +0.00. ConocoPhillips. 47.08. +0.00. +0.00 ... Prior to joining RBC, Akins was co-head of Energy Investment Banking for KeyBanc ... Get All the Oil & Gas Financial Journal News Delivered to Your Inbox for free ... Hunter Resources Corp. in an all-stock transaction valued at roughly $98 million.'
p7
aS"Apr 13, 2010 - Partners. Energy Planet Alternative Energy News ... Entries Tagged as 'Hydrogen Energy'. Energy Perspective. April 13th, 2010  5 Comments. After reviewing ..."
p8
aS'Apr 13, 2010 - Energy/Natural Gas Industry ... The Quest: Energy, Security, and the Re ... Dallas Morning News Energy & Env. Page  Calgary Herald Energy Page  Oil and Gas .... Energy (40); American Clean Skies Foundation (10); American Exploration Corp. ... Cheniere Energy (25); Chesapeake Energy (498); Chevron (19); Classic ...'
p9
aS'Apr 13, 2010 - At the close of 2009, Spectra Energy Corp. signed binding precedent agreements .... TGPC Could Be First To Carry Marcellus Shale Gas, 2010 Budget News.'
p10
a.