(lp0
S'Apr 20, 2010 - UC Berkeley News View of Campanile and Golden Gate Bridge ... Expertise: Henshaw worked for Chevron Corp. for 29 years as a geologist, managing both ... and alternative marine renewable energy from tidal current and ocean waves.'
p1
aS'Apr 21, 2010 - Energy News  Most Popular  Headlines ... Map: Ganal, Rapak PSC, Chevron ... Image Description: Ganal and Rapak Concessions, Chevron. Keywords: Ganal ...'
p2
aS'Apr 21, 2010 - Kevin Ricketts, Project Manager, Chevron. Jim Raney, Director of Engineering & Technology, Anadarko Petroleum Corp. ... Membership includes a subscription to our weekly newspaper providing in-depth news from the energy industry, plus ...'
p3
aS"Apr 20, 2010 - News & Info. Headlines  Press ... Chevron Corporation (CVX). Watchlist ... Analyzing Chevron's Segmental Outlook before Its 1Q16 Earnings. Market Realist ..."
p4
aS'Apr 21, 2010 - energy-pedia general news ... Two other large projects with tax stability clauses are Chevron-led Tengiz and Karachaganak, which is developed by Eni, BG, ...'
p5
aS'Apr 21, 2010 - Geothermal Power Investing News ... Kalinga bids to be geothermal energy producer ... worlds leading geothermal energy producers once a ground steam project supported by Chevron Corp. in three towns here begins to generate electricity.'
p6
aS'Apr 21, 2010 - News Release: [04/21/2010] ... A list of the 57 mines follows this news release. ... DISTRICT 04, 4608759, Eagle Mine, Newtown Energy Inc. Robert E Ellis ... 100759, North River #1 Underground Mine, Chevron Mining Inc. Chevron Corp.'
p7
aS'Apr 20, 2010 - Manager, Legislative, Regulatory and Political Affairs, Chevron Corp. ... Republican staff director of the House Energy and Commerce Committee (20072008), ...'
p8
aS"Apr 20, 2010 - CSR values into their companies' core values, including Chevron, Marathon, and Indian Oil, but it is not mandatory (Chevron Corporation, 2013; Marathon Oil Corporation, 2013;. Indian Oil ..... The organization now known as the Bureau of Ocean Energy .... http://money.cnn.com/2006/04/25/news/companies/bp_fine/. Cohen ..."
p9
aS'Apr 20, 2010 - (Bloomberg) -- Renewable Energy Corp. ... oil line that leaked oil into a wildlife refuge, a spokesman for operator Chevron Corp said Tuesday. .... fell 600,000 barrels in the U.S. last week as imports slowed, a Bloomberg News survey showed.'
p10
a.