(lp0
S"Apr 26, 2010 - Operating within the challenge and uncertainty of the current energy environment, Chevron Phillips Chemical Company LP's Executive Vice President Mark ..."
p1
aS'Apr 26, 2010 - DOW JONES, A NEWS CORP COMPANY. News Corp is a network of leading .... Exxon, Shell, BP and Chevron declined to comment. A spokesman for the FTC ...'
p2
aS'Apr 25, 2010 - DOW JONES, A NEWS CORP COMPANY .... Starting around July, U.K. oil company Cairn Energy PLC is set to drill the first exploration well in ... Since the 1970s, companies including Chevron Corp. and Statoil ASA of Norway have tried ...'
p3
aS"Apr 25, 2010 - Amarillo Globe-News ... Exxon's renewed focus on North America follows nationalist energy policies in Venezuela and ... They have filed a lawsuit against Exxon and Chevron Corp., which pumps oil and gas on a smaller section of the spread."
p4
aS'Apr 27, 2010 - Get detailed financial information on Huadian Energy Company Ltd. ... Chevron Lines Up Chinese Buyer for Liquefied Natural Gas From Australia Projects.'
p5
aS"Apr 26, 2010 - Retired Chevron CFO Steve Crowe, BS 69, MBA 70, will share his knowledge and expertise in both the energy and finance fields with students and faculty as the school's third Haas executive fellow. ... Media Experts  News Releases."
p6
aS'Apr 26, 2010 - News  World  Africa ... The Nigerian National Petroleum Corporation (NNPC) claims to have reduced ... But a confidential report by international energy consultants, seen by The Independent, puts the figure at 2.5 bscf, or 40 per cent of total production. ... Oil companies such as Shell, Exxon, Chevron and Agip argue that the ...'
p7
aS"Apr 25, 2010 - The Chevron professor of chemical engineering at MIT and winner of the field's ... deputy director of the MIT Energy Initiative (MITEI) since. 2006. A native of Baton ... neersBob's father, Wallace, worked for Ethyl Corporation, a major chemical ..."
p8
aS"Apr 26, 2010 - FACTS Global Energy's base-case scenario expects Turkmenistan's gas exports to Iran to .... Get All the Oil and Gas Journal News Delivered to Your Inbox ... Chevron Corp. has started LNG and condensate production at the Gorgon project on ..."
p9
aS'Apr 26, 2010 - ConocoPhillips and Chevron Corp. have already abandoned some Gulf prospects ... testimony before the Senate Energy and Natural Resources Committee.'
p10
a.