(lp0
S"Apr 26, 2010 - Operating within the challenge and uncertainty of the current energy environment, Chevron Phillips Chemical Company LP's Executive Vice President Mark ..."
p1
aS'Apr 26, 2010 - DOW JONES, A NEWS CORP COMPANY. News Corp is a network of leading .... Exxon, Shell, BP and Chevron declined to comment. A spokesman for the FTC ...'
p2
aS"Apr 27, 2010 - The California State Court of Appeal has ruled that the Environmental Impact Report (EIR) for the expansion of the Chevron Corporation's refinery in Richmond, ..."
p3
aS'Apr 27, 2010 - Call for Burma Energy Data ... We the undersigned ... urge Total, Chevron, and PTTEP to commit to practice full revenue transparency in .... RSS News Feeds'
p4
aS'Apr 27, 2010 - Get detailed financial information on Huadian Energy Company Ltd. ... Chevron Lines Up Chinese Buyer for Liquefied Natural Gas From Australia Projects.'
p5
aS'Apr 26, 2010 - News  World  Africa ... The Nigerian National Petroleum Corporation (NNPC) claims to have reduced ... But a confidential report by international energy consultants, seen by The Independent, puts the figure at 2.5 bscf, or 40 per cent of total production. ... Oil companies such as Shell, Exxon, Chevron and Agip argue that the ...'
p6
aS"Apr 26, 2010 - FACTS Global Energy's base-case scenario expects Turkmenistan's gas exports to Iran to .... Get All the Oil and Gas Journal News Delivered to Your Inbox ... Chevron Corp. has started LNG and condensate production at the Gorgon project on ..."
p7
aS'Apr 26, 2010 - ConocoPhillips and Chevron Corp. have already abandoned some Gulf prospects ... testimony before the Senate Energy and Natural Resources Committee.'
p8
aS'Apr 26, 2010 - Chevron partnered with Solazyme last year to develop and test algae for biodiesel ... Valero Energy Corp. announced last year it plans to build a 135 MMgy ...'
p9
aS"Apr 27, 2010 - Weatherford is one of the largest international oil and natural gas service companies. ... In 1972, the separate company of Energy Ventures, Inc. was founded as an ... Precision Drilling Corporation's Precision Energy Services and International ... In July 2007, the company was featured in news media reports questioning ..."
p10
a.