(lp0
S"Apr 30, 2010 - Walter Energy has agreed to buy Chevron Mining's North River No. 1 Mine, an ... letter of intent to buy the mine, which is owned by a subsidiary of Chevron Corp."
p1
aS'Apr 29, 2010 - News & Analysis ... Nonetheless, business associations, health interests, energy companies and Wall Street firms all still invested more than ... Chevron Corp.'
p2
aS'Apr 30, 2010 - Today Hibernia is owned by ExxonMobil Canada (33.125%), Chevron ... Petro-Canada (20%), Canada Hibernia Holding Corporation (8.5%), Murphy Oil ... Husky Energy owns 68.875% of the White Rose development and is the operator.'
p3
aS'Apr 30, 2010 - Find Energy Companies and a complete list of ...'
p4
aS'Apr 29, 2010 - climate change  wildlife  energy ... Chevron oil demands Crude filmmaker hand over unseen footage ... The oil giant Chevron is trying to force a filmmaker to hand over hundreds of hours of documentary footage about pollution ... More news ...'
p5
aS'Apr 29, 2010 - Oil Spill in Gulf, Energy Policy, Effects of Gas Prices on Economy Prompt Request for Oil Heads ... Oil profits are also up for the top five oil companies  Exxon Mobil, BP, ConocoPhillips, Shell and Chevron. ... Part of HuffPost on HPMG News.'
p6
aS'Apr 30, 2010 - A BP executive said the corporation would "take help from anyone. ... Companies like Chevron and ConocoPhillips have facilities nearby, and some ... against Transocean, BP, Halliburton Energy Services Inc. and Cameron International Corp.'
p7
aS'Apr 29, 2010 - Source: Chevron Australia Pty Ltd. ... remote island off northwest Australia, where oil companies led by Chevron Corp. are poised to inject pollutants 2 kilometers ...'
p8
aS'Apr 29, 2010 - Chevron Qatar Energy Technology QSTP-B, an affiliate of Chevron .... and three rounds of chemo, we discovered alarming news about our insurance plan. ..... Photo: GP Sampath Kumar The National Thermal Power Corporation is set to enter ...'
p9
aS"Apr 30, 2010 - ... site for Canadian rigsChevronEnbridgeEncanaEnform - Training, Certification ... EnergySuncor EnergySyncrudetoughnecks.com - Precision Corporation's ..."
p10
a.