(lp0
S'Apr 5, 2010 - Included are Chevron Products Co., which operates five major U.S. refineries and markets ... The Power of Human Energy ... News. Read the Latest Issue of Our Community Newsletter, Richmond Today ... 2001 - 2016 Chevron Corporation.'
p1
aS"Apr 5, 2010 - Lawyers for the plaintiffs suing Chevron Corp. ... Chevron is one of the world's leading integrated energy companies, with subsidiaries that conduct business ..."
p2
aS'Apr 5, 2010 - Justice News ... Chevron Corporation, Texaco and Unocal Incorporated for $45.5 million and Dominion ... that taxpayers receive their fair share of royalty revenues from energy production that ... Chevron USA, Inc. et al., 5:03-CV-264 (E.D. Tex.).'
p3
aS'Apr 5, 2010 - http://www.cbs7.com/news/details.asp?ID=50449. Chevron Energy Solutions and Sun Edison is now in Presidio, Texas. a 10 mega watt solar electrical ...'
p4
aS'Apr 5, 2010 - Owned in equal parts by BP PLC and Husky Energy Inc., the company plans to start work later this year and complete .... (PV Gas) has formed a partnership with a Chevron Corp. ... Get All the Oil and Gas Journal News Delivered to Your Inbox.'
p5
aS'Apr 4, 2010 - This Wednesday, Chevron confirmed first oil at Perdido in the Gulf of Mexico! ... of participants, rather than one corporation bearing the brunt of the costs. ... http://finance.yahoo.com/news/Chevron-Confirms-First-Oil-bw-2191634903.html?x=0&.'
p6
aS'Apr 4, 2010 - News ... it easy to find much information, though he went on to form Electrofrac Corp. ... The results suggest a 3-to-1 ratio of energy recovered over energy expended to ... In contrast Chevron has looked at sending hot gases that are surface ...'
p7
aS'Apr 4, 2010 - With its recent EnCana Corporation contract, Cougar Helicopters has set itself up as ... term and also companies like ConocoPhillips and Chevron which do sporadic exploration wells. ... Shale, Renewables, and the New Energy Paradigm.'
p8
aS'Apr 6, 2010 - Upstream oil and gas news for exploration and production professionals ... Major global resources firms such as Chevron, ConocoPhillips and Total operate in ...'
p9
aS'Apr 4, 2010 - Chevron Corporation Works Hard to Protect the Environment ... never been clearer for a comprehensive clean energy and climate bill that cuts pollution, creates ...'
p10
a.