(lp0
S'Apr 5, 2010 - Included are Chevron Products Co., which operates five major U.S. refineries and markets ... The Power of Human Energy ... News. Read the Latest Issue of Our Community Newsletter, Richmond Today ... 2001 - 2016 Chevron Corporation.'
p1
aS"Apr 5, 2010 - Lawyers for the plaintiffs suing Chevron Corp. ... Chevron is one of the world's leading integrated energy companies, with subsidiaries that conduct business ..."
p2
aS'Apr 6, 2010 - Read the complete story, Developing Esprit de Corp Keeps Colleagues Safe, ... their unit could become "the global energy company most admired for its people, ...'
p3
aS'Apr 5, 2010 - Justice News ... Chevron Corporation, Texaco and Unocal Incorporated for $45.5 million and Dominion ... that taxpayers receive their fair share of royalty revenues from energy production that ... Chevron USA, Inc. et al., 5:03-CV-264 (E.D. Tex.).'
p4
aS'Apr 5, 2010 - http://www.cbs7.com/news/details.asp?ID=50449. Chevron Energy Solutions and Sun Edison is now in Presidio, Texas. a 10 mega watt solar electrical ...'
p5
aS'Apr 7, 2010 - In the downstream sector, a team from Chevron Co. U.S.A. is working for YPF at .... Though Esso S.A.P.A., the Exxon Corp. affiliate, and Shell Cia. Argentina de ..... 02/15/2016. International news for oil and gas professionals ... This report will provide an overview of the state-of-the-market in the energy sector. Specifically, ho.'
p6
aS'Apr 5, 2010 - Owned in equal parts by BP PLC and Husky Energy Inc., the company plans to start work later this year and complete .... (PV Gas) has formed a partnership with a Chevron Corp. ... Get All the Oil and Gas Journal News Delivered to Your Inbox.'
p7
aS'Apr 6, 2010 - HOME  News and Multimedia. Chevron "Cooked" Evidence in Environmental Trial, According to Oil Giant\'s Own Contractor .... 10-11; The energy giant used him to set up four dummy companies to make them appear to be independent of ...'
p8
aS"Apr 6, 2010 - news / 2. Around the Service / 30 curator's corner / 28. Field Journal / 29. Our People / 39 .... SCott CoviNGtoN, Refuge System energy Program, .... Corporation Commission hasn't really ..... marsh restoration project. both Chevron and."
p9
aS'Apr 7, 2010 - Chevron, BP, Exxon Mobil Corp and all other oil companies are leaving too many ... (10 miles) southeast of Venice, Louisiana, a Coast Guard news release said.'
p10
a.