(lp0
S"Apr 8, 2010 - Prime Minister Hun Sen pressed Chevron on Tuesday to get crude flowing from this impoverished country's first major oil discovery, ... Upstream oil and gas news for exploration and production professionals ... energy-pedia exploration."
p1
aS'Apr 6, 2010 - Read the complete story, Developing Esprit de Corp Keeps Colleagues Safe, ... their unit could become "the global energy company most admired for its people, ...'
p2
aS'Apr 6, 2010 - Chevron Richmond is committed to contributing to the social and economic development in the surrounding ... Chevron Richmond Today, the Official News Magazine of Chevron in Richmond, CA. ... 2001 - 2016 Chevron Corporation.'
p3
aS"Apr 7, 2010 - Chevron's original intent was to tap this part of the field with a second platform, but .... International news for oil and gas professionals ... Chevron Corp. has signed a nonbinding heads of agreement with China Huadian Green Energy Co. ... Customer Experience Management for Energy Companies: The Path to Happy ..."
p4
aS'Apr 7, 2010 - In the downstream sector, a team from Chevron Co. U.S.A. is working for YPF at .... Though Esso S.A.P.A., the Exxon Corp. affiliate, and Shell Cia. Argentina de ..... 02/15/2016. International news for oil and gas professionals ... This report will provide an overview of the state-of-the-market in the energy sector. Specifically, ho.'
p5
aS"Apr 6, 2010 - news / 2. Around the Service / 30 curator's corner / 28. Field Journal / 29. Our People / 39 .... SCott CoviNGtoN, Refuge System energy Program, .... Corporation Commission hasn't really ..... marsh restoration project. both Chevron and."
p6
aS'Apr 7, 2010 - ... Production, a state-owned company, according to a Basell news release at the time. ... Chevron Phillips Chemical Co. executive, as well as a former Chevron Corp. ... And just like China a decade ago, India is trying to hedge its future energy ...'
p7
aS'Apr 7, 2010 - The tribunal awarded Chevron Corporation, who bought Texaco in 2001, ... By Fernando Cabrera Diaz, Investment Treaty News, 11 March 2010, available here:.'
p8
aS'Apr 6, 2010 - HOME  News and Multimedia. Chevron "Cooked" Evidence in Environmental Trial, According to Oil Giant\'s Own Contractor .... 10-11; The energy giant used him to set up four dummy companies to make them appear to be independent of ...'
p9
aS'Apr 7, 2010 - Chevron, BP, Exxon Mobil Corp and all other oil companies are leaving too many ... (10 miles) southeast of Venice, Louisiana, a Coast Guard news release said.'
p10
a.