(lp0
S"Apr 8, 2010 - ... on the outer edge of the Gulf of Mexico, Chevron Corp. is making a very big bet that, nearly ... Leta K. Smith, director of IHS-Cambridge Energy Research Associates' E&P Trends Forum in Houston. ... Why stocks need more really bad news."
p1
aS"Apr 8, 2010 - Prime Minister Hun Sen pressed Chevron on Tuesday to get crude flowing from this impoverished country's first major oil discovery, ... Upstream oil and gas news for exploration and production professionals ... energy-pedia exploration."
p2
aS"Apr 8, 2010 - Chevron secured Venezuela's approval to develop natural gas from an ambitious offshore project, a new step in the ... Upstream oil and gas news for exploration and production professionals ... energy-pedia development and production."
p3
aS'Apr 8, 2010 - Fred Pearce: Chevron plans to use solar energy to power pumps at one of the oldest and dirtiest oilfields on the planet. ... Solar panels are used to power Chevron Corp. ..... 2016 Guardian News and Media Limited or its affiliated companies.'
p4
aS"Apr 7, 2010 - Chevron's original intent was to tap this part of the field with a second platform, but .... International news for oil and gas professionals ... Chevron Corp. has signed a nonbinding heads of agreement with China Huadian Green Energy Co. ... Customer Experience Management for Energy Companies: The Path to Happy ..."
p5
aS'Apr 8, 2010 - Ozires Silva, infrastructure minister for mines, energy, and transportation, and former Petrobras president, also has called .... s Pecten International Co., Chevron Corp., and Marathon Oil Co. .... International news for oil and gas professionals ...'
p6
aS"Apr 7, 2010 - Description: Chevron is a company that doesn't truly care about the environment. It only cares about profit, future profit, and making sure that people think they ..."
p7
aS'Apr 7, 2010 - ... Production, a state-owned company, according to a Basell news release at the time. ... Chevron Phillips Chemical Co. executive, as well as a former Chevron Corp. ... And just like China a decade ago, India is trying to hedge its future energy ...'
p8
aS'Apr 7, 2010 - The tribunal awarded Chevron Corporation, who bought Texaco in 2001, ... By Fernando Cabrera Diaz, Investment Treaty News, 11 March 2010, available here:.'
p9
aS'Apr 7, 2010 - (Bloomberg) -- U.S. carbon dioxide emissions from energy use will climb 2.1 percent this .... Natural gas futures have risen on news that the production data are being .... Oil giant Chevron Corp. said this week that lawyers for groups of people ...'
p10
a.