(lp0
S"Apr 8, 2010 - ... on the outer edge of the Gulf of Mexico, Chevron Corp. is making a very big bet that, nearly ... Leta K. Smith, director of IHS-Cambridge Energy Research Associates' E&P Trends Forum in Houston. ... Why stocks need more really bad news."
p1
aS'Apr 8, 2010 - Fred Pearce: Chevron plans to use solar energy to power pumps at one of the oldest and dirtiest oilfields on the planet. ... Solar panels are used to power Chevron Corp. ..... 2016 Guardian News and Media Limited or its affiliated companies.'
p2
aS"Apr 8, 2010 - Chevron secured Venezuela's approval to develop natural gas from an ambitious offshore project, a new step in the ... Upstream oil and gas news for exploration and production professionals ... energy-pedia development and production."
p3
aS"Apr 9, 2010 - Rigzone highlights Chevron's high profile Wheatstone development as well as the Greater Gorgon project offshore Australia. ... Energy News ... Chevron holds an approximate 75% interest in the project with Apache Corp. holding 16.25%, and ..."
p4
aS'Apr 9, 2010 - In 1973, global energy giant Chevron was in a difficult situation with its then 50 percent stake in affiliate, Caltex, in South Africa. The United States Congress, ...'
p5
aS'Apr 9, 2010 - UPI delivers the latest headlines from around the world: Top News, ... A Chevron logo is seen at a Chevron gas station in Sunnyvale, California on April 9, 2010. ... reports on key topics of geopolitical importance, including energy and security.'
p6
aS'Apr 8, 2010 - Vattenfall, one of the largest energy companies around is running into local ... Calif., local residents have fought tooth and nail against a Chevron refinery ...'
p7
aS'Apr 8, 2010 - Ozires Silva, infrastructure minister for mines, energy, and transportation, and former Petrobras president, also has called .... s Pecten International Co., Chevron Corp., and Marathon Oil Co. .... International news for oil and gas professionals ...'
p8
aS'Apr 9, 2010 - In September 1994, he was elected a Vice President of Chevron Corp., ... He is a past Chairman of the U.S. Energy Association and past Director of the ...'
p9
aS'Apr 9, 2010 - Chevron. 102.64. +0.94%. +0.95. ConocoPhillips. 47.08. +0.00. +0.00 ... SCF has invested $1.3 billion in 47 energy service and equipment transactions and more than 200 add-on ... Get All the Oil & Gas Financial Journal News Delivered to Your Inbox for free .... Copyright  2007-2016 Pennwell Corporation, Tulsa, OK.'
p10
a.