(lp0
S'May 9, 2010 - Large companies such as BP, Chevron and ExxonMobil said they generally ... consideration in the newspaper, send comments to letters@usatoday.com.'
p1
aS'May 10, 2010 - DOW JONES, A NEWS CORP COMPANY ..... This work is done for major oil producers such as BP, Chevron Corp. and Exxon Mobil Corp. XOM 0.50 ...'
p2
aS'May 9, 2010 - Genesis Spar [17726 bytes] Chevron U.S.A. Production Co. and partners are advancing a ... the Gulf of Mexico for Oryx Energy Co., Dallas, and CNG Producing Co., New Orleans. ... Get All the Oil and Gas Journal News Delivered to Your Inbox ... Pason Systems Corp. knows a thing or two about information and intelligence.'
p3
aS'May 10, 2010 - In comments made to the Globe and Mail last week, Calgary energy analyst Ian Doig worried that if Chevron gets into problems with its well, there would be no ...'
p4
aS'May 9, 2010 - Company, November 19, 2009, Senate Committee on Energy and Natural Resources Hearing ... American Petroleum Institute, February 9, 2009, Targeted News Service ... Exploration and Production Company, February 25, 2009, Chevron.'
p5
aS'A Forum for Opinions on News, Politics, and Life ... the Kutubu oil field that a subsidiary of the large international oil company Chevron Corporation .... Offshore drilling provides for a third of our energy needs, it is a fairly safe procedure, and the ...'
p6
aS'May 10, 2010 - We are deeply grateful to Chevron Corporation for ... Schools an "Energy for Learning" grant as part of its ...'
p7
aS'May 10, 2010 - News & Statements .... Apr. 20, 2009, Matt Simmons, Vice President & Controller, PPL Corporation ... Controller and Chief Accounting Officer, CMS Energy Corporation and Consumers Energy Company .... Apr. 16, 2009, Mark A. Humphrey, Chevron Corporation, Vice President and Comptroller, Chevron Corporation.'
p8
aS"May 10, 2010 - Chevron Corporation has named Jeffrey K. Lehrmann as President of Chevron ... Chevron is one of the world's leading integrated energy companies, with ..."
p9
aS'May 9, 2010 - As the US Gulf coast brace for an impending oil slick, the news from the south ... BP during a demonstration in front of the BP Amoco Corporation Government .... in the Gulf of Mexico Friday, as energy giant BP battled the slick lapping ashore on ... from four other oil companies, Exxon Mobil, Chevron, Shell and Anadarko.'
p10
a.