(lp0
S'May 11, 2010 - Chevron has increased its own energy efficiency by 30 percent since 1992. ... Join 100,000+ subscribers who gain a competitive advantage with our news and ...'
p1
aS"May 12, 2010 - Chevron Canada has begun drilling the country's deepest offshore oil well. ... and Labrador Natural Resources Minister Kathy Dunderdale told CBC News."
p2
aS'May 10, 2010 - DOW JONES, A NEWS CORP COMPANY ..... This work is done for major oil producers such as BP, Chevron Corp. and Exxon Mobil Corp. XOM 0.50 ...'
p3
aS'May 11, 2010 - Aromatics plants are in the planning stage in Saudi Arabia (Saudi Chevron Petrochemical Co.) ... International news for oil and gas professionals ... Chevron Corp. has signed a nonbinding heads of agreement with China Huadian Green Energy Co. ... Customer Experience Management for Energy Companies: The Path to ...'
p4
aS'May 10, 2010 - In comments made to the Globe and Mail last week, Calgary energy analyst Ian Doig worried that if Chevron gets into problems with its well, there would be no ...'
p5
aS'May 10, 2010 - Chevron Canada Ltd. has begun work on the deepest oil well ever drilled in Canadian waters. A spokesperson for the company told CBC News on Monday that ...'
p6
aS"May 10, 2010 - Chevron Corporation has named Jeffrey K. Lehrmann as President of Chevron ... Chevron is one of the world's leading integrated energy companies, with ..."
p7
aS'May 10, 2010 - News & Statements .... Apr. 20, 2009, Matt Simmons, Vice President & Controller, PPL Corporation ... Controller and Chief Accounting Officer, CMS Energy Corporation and Consumers Energy Company .... Apr. 16, 2009, Mark A. Humphrey, Chevron Corporation, Vice President and Comptroller, Chevron Corporation.'
p8
aS'May 10, 2010 - We are deeply grateful to Chevron Corporation for ... Schools an "Energy for Learning" grant as part of its ...'
p9
aS"May 11, 2010 - gas lawyers and the co-leader of the firm's Energy and Oil & Gas. Group. Over the ... resource for news and trends affecting the energy industry. Mark has ... Oklahoma Corporation. Commission ... Chevron U.S.A., Inc., Appeal No. 98,063 (Okla ..."
p10
a.