(lp0
S'May 11, 2010 - Chevron has increased its own energy efficiency by 30 percent since 1992. ... Join 100,000+ subscribers who gain a competitive advantage with our news and ...'
p1
aS'May 12, 2010 - Chevron inherited the David and Goliath lawsuitit\'s worth $27 billionwhen it .... said Chevron\'s claims against Cabrera are another attempt for the leading energy ... Berlinger Fights Against Chevron\'s SubpoenaJune 27, 2010In "Water News" ... allow Chevron Corp. access to Joe Berlinger\'s 600 hours of raw footage from ...'
p2
aS"May 12, 2010 - Chevron Canada has begun drilling the country's deepest offshore oil well. ... and Labrador Natural Resources Minister Kathy Dunderdale told CBC News."
p3
aS'May 12, 2010 - In addition, China National Petrochemical Corp. and China National Petroleum Corp. have added ... Isodewaxing, developed by Chevron Research & Technology Co., Richmond, Calif. .... International news for oil and gas professionals ... This report will provide an overview of the state-of-the-market in the energy sector.'
p4
aS'May 11, 2010 - Aromatics plants are in the planning stage in Saudi Arabia (Saudi Chevron Petrochemical Co.) ... International news for oil and gas professionals ... Chevron Corp. has signed a nonbinding heads of agreement with China Huadian Green Energy Co. ... Customer Experience Management for Energy Companies: The Path to ...'
p5
aS'May 12, 2010 - CVP has a 60% stake in Petroindependencia, Chevron has 34%, Japan Carabobo has 5% and Suelopetrol (1%). ... The Energy and Petroleum Ministry is evaluating whether to open up ... loan and CNPC (China National Petroleum Corporation) also won a minority stake ... Keep up to date with Venezuelan news and views:.'
p6
aS'May 11, 2010 - Energy News ... Montreal (AFP) May 11, 2010 - Chevron Canada has begun drilling the ... Chevron Canada Limited has a 50 percent stake in the venture.'
p7
aS"May 12, 2010 - Chevron and the city have jousted for years over how much tax the refinery should ... a move that could have meant millions more in local taxes on the energy giant. ... Among Chevron's victories is a stipulation that insulates the corporation from ... Richmond Confidential is an online news service produced by the Graduate ..."
p8
aS'May 12, 2010 - ... first exploration and production assets in the United States through a merger with Erskine Energy Production Company, now renamed Tecpetrol Corporation, ...'
p9
aS'May 11, 2010 - The energy industry says fracking fluids consist mostly of water and sand, with only small ... The petition names Calfrac Well Services Corp., BJ Services Co., Halliburton Energy Services Inc., Frac Tech Services and ... Grand Junction News'
p10
a.