(lp0
S'May 13, 2010 - Chavez is trying to tap offshore gas reserves to power thermoelectric plants amid an energy crisis. Repsol YPF SA, Eni SpA and Chevron Corp. are also ...'
p1
aS'May 12, 2010 - Chevron inherited the David and Goliath lawsuitit\'s worth $27 billionwhen it .... said Chevron\'s claims against Cabrera are another attempt for the leading energy ... Berlinger Fights Against Chevron\'s SubpoenaJune 27, 2010In "Water News" ... allow Chevron Corp. access to Joe Berlinger\'s 600 hours of raw footage from ...'
p2
aS'May 13, 2010 - Chevron Corp. News CVX Chevron Laying Off 1500 As Part Of Downstream Restructuring New York Stock Exchange Announcements, Company Reports ...'
p3
aS'May 13, 2010 - Richmond officials and Chevron Corp. have reached a deal to settle tax disputes that created some - but not all - of the tension between the hard-scrabble city ...'
p4
aS'May 12, 2010 - CVP has a 60% stake in Petroindependencia, Chevron has 34%, Japan Carabobo has 5% and Suelopetrol (1%). ... The Energy and Petroleum Ministry is evaluating whether to open up ... loan and CNPC (China National Petroleum Corporation) also won a minority stake ... Keep up to date with Venezuelan news and views:.'
p5
aS'May 12, 2010 - In addition, China National Petrochemical Corp. and China National Petroleum Corp. have added ... Isodewaxing, developed by Chevron Research & Technology Co., Richmond, Calif. .... International news for oil and gas professionals ... This report will provide an overview of the state-of-the-market in the energy sector.'
p6
aS'May 14, 2010 - ... for the Venezuelan Carabobo Project 3 as a member of the consortium with Mitsubishi Corp, Chevron and Suelopetrol on 12 May 2010. ... Upstream oil and gas news for exploration and production professionals ... energy-pedia licensing.'
p7
aS'May 13, 2010 - ... such as BP, ExxonMobil, and Chevron that would be profitable even without government subsidies. ... The Energy Policy Act of 2005 created this tax subsidy, which allows companies to ... Subscribe to Energy and Environment News Alerts ...'
p8
aS'May 13, 2010 - NEWS CORP .... "The good news is that the 95 workers are safe." ... and Chevron to develop crude reserves at the Orinoco Belt in Venezuela. ... for new ways to supply energy to the domestic market, and natural gas is one of its main targets.'
p9
aS"May 12, 2010 - Chevron and the city have jousted for years over how much tax the refinery should ... a move that could have meant millions more in local taxes on the energy giant. ... Among Chevron's victories is a stipulation that insulates the corporation from ... Richmond Confidential is an online news service produced by the Graduate ..."
p10
a.