(lp0
S'May 13, 2010 - Chavez is trying to tap offshore gas reserves to power thermoelectric plants amid an energy crisis. Repsol YPF SA, Eni SpA and Chevron Corp. are also ...'
p1
aS'May 14, 2010 - Chavez is trying to tap offshore gas reserves to power thermoelectric plants amid an energy crisis. Repsol YPF SA, Eni SpA and Chevron Corp. are also ...'
p2
aS'May 13, 2010 - Chevron Corp. News CVX Chevron Laying Off 1500 As Part Of Downstream Restructuring New York Stock Exchange Announcements, Company Reports ...'
p3
aS'May 13, 2010 - ... such as BP, ExxonMobil, and Chevron that would be profitable even without government subsidies. ... The Energy Policy Act of 2005 created this tax subsidy, which allows companies to ... Subscribe to Energy and Environment News Alerts ...'
p4
aS'May 14, 2010 - ... for the Venezuelan Carabobo Project 3 as a member of the consortium with Mitsubishi Corp, Chevron and Suelopetrol on 12 May 2010. ... Upstream oil and gas news for exploration and production professionals ... energy-pedia licensing.'
p5
aS"May 14, 2010 - News. UC Davis takes the lead on clean energy, with Schwarzenegger's backing ... Desmond King, president, Chevron Technology Ventures; Nancy McFadden, ... Peter Van Deventer of SynapSense Corp., which makes energy controls for ..."
p6
aS'May 14, 2010 - By David R. Baker and Chronicle News Services ... Chevron Corp. will cut 925 jobs in the Bay Area as part of a previously announced reorganization of its ...'
p7
aS'May 13, 2010 - Richmond officials and Chevron Corp. have reached a deal to settle tax disputes that created some - but not all - of the tension between the hard-scrabble city ...'
p8
aS'May 13, 2010 - NEWS CORP .... "The good news is that the 95 workers are safe." ... and Chevron to develop crude reserves at the Orinoco Belt in Venezuela. ... for new ways to supply energy to the domestic market, and natural gas is one of its main targets.'
p9
aS'May 14, 2010 - Cambridge Energy Research Associates- CERA. Cambridge MA ... Chevron Corporation. ... FOX Evening News July 2010- http://foxcbs.com/?p=799#more-799.'
p10
a.