(lp0
S'May 17, 2010 - Industry News Energy ... Enlarge. Chevron Corp. will lay off 570 workers in the Houston area while HighMount Exploration & Production LLC plans to let go of 84 ...'
p1
aS'May 17, 2010 - 2007 (May 1), Venezuela nationalizes part of oil industry by taking over operating control of oilfields operated by ConocoPhillips, Chevron, ExxonMobil, BP, ...'
p2
aS"May 18, 2010 - Today, many of the world's largest oil companies, including BP, Chevron, and ... Product News ... Navarik Corp. to attend The Leadership For Energy Automated Processing (LEAP) General Meeting on September 27-28, 2011 in London, UK."
p3
aS'May 16, 2010 - ... Global; Chevron Phillips Chemical; Chevron USA; Chrysaor; CNR International UK ... Kaneka Texas Corp; Karachaganak Development; King Street Energy ...'
p4
aS"May 16, 2010 - But on the West Side of the Chevron refinery is the city's best kept secret  a small, ... the third most profitable corporation in the U.S.; and a slice of the $5.1 billion .... If one were to read the news reports of the project, one would get the sense that ... Exxon, Chevron Win in a Loser Year for Top 500 Companies | BNET Energy ..."
p5
aS"May 17, 2010 - Dow components ExxonMobil (XOM) and Chevron (CVX), as well as ConocoPhillips ... But EDA is a key part of these energy companies' stock-price woes."
p6
aS"May 18, 2010 - Russian energy projects in Kazakhstan's oil and gas sector ... Chevron-Sponsored Audiobook Application Brings Kazakh Literature to ... Kazakhstan News."
p7
aS'May 17, 2010 - Get All the Oil & Gas Financial Journal News Delivered to Your Inbox for free ... Oil Markets; A&D Monitor; Energy Players; Regulatory Monitor; Upstream and ... BP, Chevron (CVX), ExxonMobil (XOM), Royal Dutch Shell (RDS) and Total (TOT) have ... China National Offshore Oil Corporation (CNOOC) has signed production ...'
p8
aS'May 18, 2010 - Edward C. Chow is a Senior Fellow in the Energy and National Security Program at the Center for. Strategic ... Chow spent 20 years with Chevron Corporation in U.S. and overseas assignments. He was ... (newspaper) in Japan. Previously, he ...'
p9
aS'May 17, 2010 - In December 2009, a boiler at the Valero Energy Corp. Star Site refinery in Texas City failed ... Chevron Phillips, Port Arthur - Chevron Phillips, Orange - Entergy ...'
p10
a.