(lp0
S'May 17, 2010 - Industry News Energy ... Enlarge. Chevron Corp. will lay off 570 workers in the Houston area while HighMount Exploration & Production LLC plans to let go of 84 ...'
p1
aS'May 18, 2010 - DOW JONES, A NEWS CORP COMPANY .... In 2008, Chevron was plagued with accidents while using the Discoverer Deep Seas rig in more than 7,000 feet of ...'
p2
aS"May 18, 2010 - More than 20 defendants, including Chevron Corp (CVX. ... on July 22, 2008, in the wake of $3.2 billion of losses on energy futures and derivatives trades. .... Thomson Reuters is the world's largest international multimedia news agency, ..."
p3
aS'May 18, 2010 - Dallas-based Foundation Energy Management LLC, a manager of oil and gas ... Chevron. 102.64. +0.94%. +0.95. ConocoPhillips. 47.08. +0.00. +0.00 .... Get All the Oil & Gas Financial Journal News Delivered to Your Inbox for free ... Sanchez Energy Corp., an independent oil and gas company targeting onshore US Gulf ...'
p4
aS'May 17, 2010 - 2007 (May 1), Venezuela nationalizes part of oil industry by taking over operating control of oilfields operated by ConocoPhillips, Chevron, ExxonMobil, BP, ...'
p5
aS'May 18, 2010 - Some of the best known names in the industry rely on CB&I to design and build their downstream oil and gas processing facilities.'
p6
aS'May 18, 2010 - CB&I has served the oil & gas industry since the early 20th century, when we began building storage tanks for the young but flourishing oil business.'
p7
aS"May 18, 2010 - CB&I designs, engineers and constructs some of the world's largest energy infrastructure projects, providing EPC solutions and proven technologies."
p8
aS"May 18, 2010 - Today, many of the world's largest oil companies, including BP, Chevron, and ... Product News ... Navarik Corp. to attend The Leadership For Energy Automated Processing (LEAP) General Meeting on September 27-28, 2011 in London, UK."
p9
aS'May 18, 2010 - Read about Western Energy Production in the news, with company releases and related articles.'
p10
a.