(lp0
S'May 19, 2010 - Upstream oil and gas news for exploration and production professionals. Daily Newsletter ... energy-pedia seismic. United Kingdom flag United ... United Kingdom. UK: Chevron awards Rosebank field node survey West of Shetland to Seabird ...'
p1
aS'May 20, 2010 - A subsidiary of energy colossus Chevron, Chevron Mining owns and operates coal mines in Alabama (North River), New Mexico (McKinley), and Wyoming ...'
p2
aS'May 20, 2010 - DOW JONES, A NEWS CORP COMPANY. News Corp is a .... Top WSJ Stories on Japan: Toshiba, Renewable Energy, Christmas Chicken. Dec 21, 2015 8:56 ...'
p3
aS"May 19, 2010 - Giants George Kontos to DL; more bad bullpen news - Photo .... The True Cost of Chevron: An Alternative Annual Report was written by contributors from 16 ... but did you know that Chevron is the 5th largest corporation on the planet? ... All the while, Chevron continues to promote itself as a 'green' energy company ..."
p4
aS'May 20, 2010 - CSPnet.com - Convenience Store News .... Ray Grace, 90, founder of Grace Energy Corp., passed away earlier this week ... Chevron convenience store hawaii.'
p5
aS'May 20, 2010 - ConocoPhillips and Chevron Corp. have already abandoned some Gulf ... An analysis conducted by consulting firms Quest Offshore and Blade Energy Partners ...'
p6
aS'May 19, 2010 - ... the Houston-based Halliburton Corporation has its own gated compound on the outskirts of Coca. ... A coalition of 30,000 indigenous people is suing Chevronwhich merged ... President Correa appointed Acosta Minister of Energy in 2007. ... To me, the black-and-white news report, shot about the same time Lucia was ...'
p7
aS'May 19, 2010 - Chevron. 101.69. +1.18%. +1.19. ConocoPhillips. 47.08. +0.04%. +0.02 ... Get All the Oil & Gas Financial Journal News Delivered to Your Inbox for free ... Sanchez Energy Corp., an independent oil and gas company targeting onshore US Gulf ...'
p8
aS'May 21, 2010 - Communications services leader AT&T (News  Alert) has been selected by international ... ARGUS FSU ENERGY ARTICLE: Shell weights its options: 27 Oct 2006 ..... COM ARTICLE: Chevron A Safer Bet Than Shell: 13 April 2015 ..... in the Presidency, the Nigerian National Petroleum Corporation (NNPC), and the Federal ...'
p9
aS'May 19, 2010 - Kuwait Energy Data, Statistics and Analysis - Oil, Gas, Electricity, Coal. 7/15/ ... Kuwait is represented by the Wafra Joint Operations Group, and Saudi Arabia is represented by Chevron. .... Exploration Company (KUFPEC) - foreign exploration; and Kuwait Oil Tanker Corporation (KOTC) - ... Dow Jones News Wire service.'
p10
a.