(lp0
S'May 21, 2010 - News Room ... CapRock supports a wide range of customers in the energy, maritime and government industries, including Chevron, Diamond Offshore, ExxonMobil, Halliburton, MODEC, Shell, Transocean, KBR, Green Reefers, Gulf Offshore, ...'
p1
aS"May 20, 2010 - (NYSE: XOM), Chevron Corp. (NYSE: CVX), Encana Corp. (NYSE: ECA), Britain's Cairn Energy, Canada's Husky Energy, and both Danish and Greenlander ..."
p2
aS'May 20, 2010 - ConocoPhillips and Chevron Corp. have already abandoned some Gulf ... An analysis conducted by consulting firms Quest Offshore and Blade Energy Partners ...'
p3
aS'May 22, 2010 - Professor Rolf Gubner, Chevron-Woodside Chair in Corrosion Engineering and Director of the Corrosion Centre for Education, Research & Technology at Curtin ...'
p4
aS"May 21, 2010 - More Oil News ... of Mexico, forcing new restrictions on Chevron Corp's operations off Newfoundland. ... A round up of depressing facts from Deep Sea News."
p5
aS'May 21, 2010 - Harris Corporation to Acquire CapRock Communications, a Global Provider of Mission-Critical, End-to-End Managed Communications Services ... CapRock supports a wide range of customers in the energy, maritime and government industries, including Chevron, Diamond .... View all news by Energy Energy Categories ...'
p6
aS'May 21, 2010 - Energy News  Most Popular .... Chevron and Total each have 19 rigs, Statoil has 15, ExxonMobil has 10, and ConocoPhillips has 6 rigs contracted in the field.'
p7
aS'May 21, 2010 - Chevron. 102.64. +0.94%. +0.95. ConocoPhillips. 47.08. +0.00. +0.00 .... Get All the Oil & Gas Financial Journal News Delivered to Your Inbox for free ... Oil and gas software maker Energy Navigator has added three new ... Following its latest unsuccessful attempt at recapitalization plan, Goodrich Petroleum Corp. filed for ...'
p8
aS'May 21, 2010 - Company News ... Likewise, Mr. Olawepo is the President of Transnational Energy Corporation, TEC in the USA, which specializes in Oil ... Richard Matzke, former Vice Chairman of Board of Chevron Overseas Inc. is TEC Chairman of Board.'
p9
aS'May 21, 2010 - Communications services leader AT&T (News  Alert) has been selected by international ... ARGUS FSU ENERGY ARTICLE: Shell weights its options: 27 Oct 2006 ..... COM ARTICLE: Chevron A Safer Bet Than Shell: 13 April 2015 ..... in the Presidency, the Nigerian National Petroleum Corporation (NNPC), and the Federal ...'
p10
a.