(lp0
S'May 26, 2010 - Chevron Corp. spilled between three and five tons of molten sulfur from a .... For more Network news, visit the True Cost of Chevron site. ... End Dirty Energy.'
p1
aS'May 26, 2010 - ... or IOC, as people often see them in financial news media across the world. ... ExxonMobil (USA); Royal Dutch Shell (UK/Netherlands); BP (BP plc - UK); Chevron Corp. (USA) ... Texaco and Chevron merged in 2001, Phillips Petroleum and Conoco ... The Big Oil majors are often associated and linked to the Energy Lobby.'
p2
aS"May 25, 2010 - Chevron Corp. ... Though Chevron has no ownership in BP's Macondo well  still spewing oil into the Gulf after a ... drilling is too important to U.S. energy supplies and the economy not to go forward. .... Why stocks need more really bad news."
p3
aS"May 26, 2010 - Chevron holds 25pc of the North Belut gas field offshore Indonesia, expected to peak ... more information about Argus' energy news, data and analysis services."
p4
aS'May 26, 2010 - A weekly oil & gas newspaper based in Anchorage, Alaska. Week of March 21, 2010 .... America to adopt an ordinance requiring energy efficiency tai- lored to the local .... Chevron (Nabors Alaska Drilling labor contract)  428 .... Finance Corp.'
p5
aS'May 26, 2010 - Producing energy that people need to heat their homes, cook their food, take their ... Ron Sugar, retired chairman and CEO of Northrop Grumman Corporation.'
p6
aS'May 26, 2010 - Chevron. 102.64. +0.94%. +0.95. ConocoPhillips. 47.08. +0.00. +0.00. Occidental Pet ... John Krenicki, vice chairman of GE and president and CEO, GE Energy, said, Moving beyond ... Get All the Oil & Gas Financial Journal News Delivered to Your Inbox for free .... Copyright  2007-2016 Pennwell Corporation, Tulsa, OK.'
p7
aS"May 26, 2010 - More than 50 activists gathered at Chevron's Louisiana Street headquarters  the former Enron towers  to protest ... LATEST NEWS ... Last year, Chevron saw a 25 percent increase in revenue, making it the fifth largest global corporation."
p8
aS"May 25, 2010 - ExxonMobil shed light on how it is expanding the world's energy supply ... director of social research and advocacy at Trillium Asset Management Corp., said ... Shareholders Convince Chevron to Track Product Carbon Content featured image ..."
p9
aS'May 25, 2010 - Chevron Corp., the development corporations seeking to build a casino at Point ... as evidenced by a recent deal struck between the city and the global energy .... Richmond Confidential is an online news service produced by the Graduate ...'
p10
a.