(lp0
S'May 26, 2010 - Chevron Corp. spilled between three and five tons of molten sulfur from a .... For more Network news, visit the True Cost of Chevron site. ... End Dirty Energy.'
p1
aS'May 26, 2010 - ... or IOC, as people often see them in financial news media across the world. ... ExxonMobil (USA); Royal Dutch Shell (UK/Netherlands); BP (BP plc - UK); Chevron Corp. (USA) ... Texaco and Chevron merged in 2001, Phillips Petroleum and Conoco ... The Big Oil majors are often associated and linked to the Energy Lobby.'
p2
aS"May 26, 2010 - Chevron holds 25pc of the North Belut gas field offshore Indonesia, expected to peak ... more information about Argus' energy news, data and analysis services."
p3
aS'May 27, 2010 - Environment News Service latest environmental news, global warming, water, food, ... HOUSTON, Texas, May 26, 2010 (ENS) - At Chevron\'s annual shareholder ... and displayed banners with slogans such as, "Chevron Energy Costs Lives. ... Shelley Alpern, vice-president at Trillium Asset Management Corporation said, ...'
p4
aS'May 26, 2010 - A weekly oil & gas newspaper based in Anchorage, Alaska. Week of March 21, 2010 .... America to adopt an ordinance requiring energy efficiency tai- lored to the local .... Chevron (Nabors Alaska Drilling labor contract)  428 .... Finance Corp.'
p5
aS'May 26, 2010 - Producing energy that people need to heat their homes, cook their food, take their ... Ron Sugar, retired chairman and CEO of Northrop Grumman Corporation.'
p6
aS'May 27, 2010 - Dengan ini diumumkan bahwa PT. CHEVRON PACIFIC INDONESIA, CHEVRON MAKASSAR LIMITED & CHEVRON INDONESIA COMPANY untuk keperluan ...'
p7
aS'May 26, 2010 - Chevron. 102.64. +0.94%. +0.95. ConocoPhillips. 47.08. +0.00. +0.00. Occidental Pet ... John Krenicki, vice chairman of GE and president and CEO, GE Energy, said, Moving beyond ... Get All the Oil & Gas Financial Journal News Delivered to Your Inbox for free .... Copyright  2007-2016 Pennwell Corporation, Tulsa, OK.'
p8
aS'May 27, 2010 - PHOTOS: Animal rescue efforts | PHOTOS: Cleanup, Containment, Hearings. Recent News: U.S. nuclear advocates try to limit political impact of Japa.'
p9
aS'May 27, 2010 - Especially this day in age when moves towards alternate sources of energy are being made ... which blew, it could easily have been Royal Dutch Shell or Chevron or anyone else. ... of symbolically giving the finger to yet another heartless corporation. .... As is the case with most local news viewer comments web pages, the ...'
p10
a.