(lp0
S'May 27, 2010 - Environment News Service latest environmental news, global warming, water, food, ... HOUSTON, Texas, May 26, 2010 (ENS) - At Chevron\'s annual shareholder ... and displayed banners with slogans such as, "Chevron Energy Costs Lives. ... Shelley Alpern, vice-president at Trillium Asset Management Corporation said, ...'
p1
aS'May 28, 2010 - Chevron,; Chevron Corporation,; Camara Venezolana de Empresas Mayoristas del Mercado ... which involved extensive interaction between the Ministry of Energy and the International and ..... Publisher at Challenges News Magazine (Haiti) ...'
p2
aS'May 28, 2010 - oil and gas news and contracts for contractors and engineers in the engineering and energy industries.'
p3
aS'May 28, 2010 - Faced with just the threat of nudity, Chevron gave in. ... seize their profits and use them for the clean up and then to invest in clean energy. ... the coastal residents and the wildlife, not the corporation at fault for the disaster. ... News That Matters ...'
p4
aS'May 28, 2010 - Energy News .... Its first contract started March 11, 2010 for Chevron in the GOM. Chevron has contracted the drillship for a rate in the $470s through March 2015 ...'
p5
aS'May 27, 2010 - Swift Energy continues to monitor events related to the oil spill in the Gulf of Mexico and says it has yet ... Energy News .... Chevron Accelerates Sale of Shallow .'
p6
aS'May 27, 2010 - Dengan ini diumumkan bahwa PT. CHEVRON PACIFIC INDONESIA, CHEVRON MAKASSAR LIMITED & CHEVRON INDONESIA COMPANY untuk keperluan ...'
p7
aS'May 27, 2010 - PHOTOS: Animal rescue efforts | PHOTOS: Cleanup, Containment, Hearings. Recent News: U.S. nuclear advocates try to limit political impact of Japa.'
p8
aS'May 28, 2010 - House Committee on Energy and Commerce ... Chevron Corporation, ConocoPhilips, and the Presidents of BP America and Shell Oil Company; June 17, 2010, ...'
p9
aS'May 27, 2010 - Especially this day in age when moves towards alternate sources of energy are being made ... which blew, it could easily have been Royal Dutch Shell or Chevron or anyone else. ... of symbolically giving the finger to yet another heartless corporation. .... As is the case with most local news viewer comments web pages, the ...'
p10
a.