(lp0
S'May 3, 2010 - REGIONAL NEWS ... Follow Offshore Energy Today .... Chevron Corporation announced that it has contributed $1.5 million to the American Red Cross to ...'
p1
aS"May 3, 2010 - Ship traffic isn't restricted at the Port of Pascagoula, which serves Chevron's refinery, ... Valero Energy Corp., the largest U.S. independent refiner, operates five ..."
p2
aS'May 4, 2010 - HOUSTON--(BUSINESS WIRE)--A combination of safe, reliable operations and superior execution helped Chevron Corporation (NYSE:CVX) generate value for ...'
p3
aS'May 4, 2010 - dit le 04/05/2010 - Plus de news de "AMEC" - Voir la fiche entreprise de "AMEC" ... successful relationship with delivering projects for Chevron and in Angola, further ... 19/08/2010 - AMEC awarded 60m contract by EDF Energy for gas storage .... Keppel Corporation, Kinder Morgan, Klesch, Kongsberg, Kosmos Energy ...'
p4
aS'May 4, 2010 - Former CIO Austin Energy. Peggy Colsman CIO Chevron Phillips Chemical Company. Stephen Craft VP, IT Spectra Energy Corp. Howard Davis VP, CAO, & CIO'
p5
aS"May 4, 2010 - If this isn't a tap on the shoulder to focus on different sources for energy I'm not ..... According to Chevron, there is enough oil there to supply the entire world, ..."
p6
aS'May 4, 2010 - You are Home  News  View Article. Chevron - Mega Project execution requires disciplined approach to application of project management systems. Tuesday ...'
p7
aS'May 4, 2010 - Chevron USA, Inc. v. ... Helix Energy Solutions Group, Inc.; AAA/ICDR Arbitration in Houston, Texas (pending) (dispute involving ... Davis Petroleum Corporation; Arbitration before the American Arbitration Association ... News. February 24 2016. Hicks Thomas Sues on Behalf of Cowboy Seeking Payment of $1 Million Purse.'
p8
aS'May 4, 2010 - In news from the Philippines, The municipal government of [Benguet] rejected the ... project to be constructed by the Clean Rock Renewable Energy Resources Corporation. ... Pertamina joins the bidding for geothermal assets by Chevron.'
p9
aS"May 4, 2010 - Attempting to pressure news outlets to silence critics: Chevron has used .... Environmentalists and clean energy advocates are hoping that BP's disaster in the Gulf .... I've never had to deal with any corporation suing me to find out how I gather ..."
p10
a.