(lp0
S'Jun 13, 2010 - A leak in an oil pipeline in Salt Lake City owned by Chevron sent as much as 500 barrels of crude oil into the Red ... DOW JONES, A NEWS CORP COMPANY.'
p1
aS'Jun 13, 2010 - Chevron Corporation. Chevron. 1004 North Big Spring St Midland, TX 79701 ... Diamondback Energy Inc ... With the latest News & Advice from Manta, you can stay ahead of the trends and challenges affecting your industry and help your small ...'
p2
aS"Jun 14, 2010 - Group Home | media | oando in the news | Oando Says May Buy Nigerian Oil ... Oando PLC, Nigeria Oil & Gas Company, Energy services, refining and ... which include Royal Dutch Shell Plc, Chevron Corp. and Eni SpA's Agip Ltd., he said."
p3
aS'Jun 13, 2010 - Network News ... "The next generation will not be held hostage to energy sources from the last century," Obama declared in a ... In addition to BP\'s "Beyond petroleum" slogan, there\'s Chevron\'s "Finding newer, cleaner ways to power the world ...'
p4
aS'Jun 14, 2010 - By Stacy Feldman, InsideClimate News ... Rather, we must transition to a clean energy economy to get our country off of ... Five major oil CEOs from BP, ExxonMobil, Shell, ConocoPhillips and Chevron, will testify before the House Energy and ...'
p5
aS'Jun 14, 2010 - ... oil and gas companies, like Chevron Corporation and Exxon Mobile, are integrated. ... Learn about the Fidelity Select Energy Portfolio mutual fund, its costs, ...'
p6
aS"Jun 13, 2010 - Censored Gulf news: People bleeding internally, millions poisoned says 'EPA ..... Witnesses  Rex Tillerson, chairman and CEO, ExxonMobil  John Watson, chairman and CEO, Chevron Corp. .... BP Spill the Tail Wagging the Energy Tax Dog."
p7
aS'Jun 14, 2010 - Get All the Oil and Gas Journal News Delivered to Your Inbox ... Chevron Corp. has started LNG and condensate production at the Gorgon project on Barrow ... Customer Experience Management for Energy Companies: The Path to Happy ...'
p8
aS'Jun 14, 2010 - Company News  Energy Sector  Featured  TNM. Chevron-Corp Chevron Corp. has shut the pipeline that carries crude oil from Colorado into the Salt Lake ...'
p9
aS'Jun 14, 2010 - Shell, BP, Exxon Mobil, Chevron and the rest of the club have been queuing for ... Greenland has exercised its freedom from Denmark by giving the go-ahead to Cairn Energy to drill two wells in its Arctic territory, ... Business Latest News  ... A worker of Gujarat State Petroleum Corporation checks oil flow of well PK-2 during ...'
p10
a.