(lp0
S"Jun 15, 2010 - Get premium, high resolution news photos at Getty Images. ... the topic of 'Drilling Down On America's Energy Future: Safety, Security And Clean Energy. ... Exxon Mobil Corp., ConocoPhillips, Chevron Corp. and Royal Dutch Shell Plc are as ..."
p1
aS'Jun 15, 2010 - Several E&P companies, including Canada\'s Encana Corp. are moving forward ... Chevron. 97.98. +0.39%. +0.38. ConocoPhillips. 44.22. +1.47%. +0.64 .... Atlas Energy has acreage in the region in what it calls the "Collingwood Utica Shale. .... of ExxonMobil, said this conclusion of the agreement is good news for the US.'
p2
aS'Jun 15, 2010 - Chevron Corporation. Statement Before the United States House of Representatives Committee on Energy and Commerce, Subcommittee on Energy and ...'
p3
aS'Jun 15, 2010 - News and information on Royal Dutch Shell Plc. Skip to Content . Home  Contact ... one filed by Exxon Mobil Corp. He said Exxon Mobil, Chevron Corp. .... ARGUS FSU ENERGY ARTICLE: Shell weights its options: 27 Oct 2006  INTERFAX ...'
p4
aS'Jun 15, 2010 - From left, ExxonMobile Chairman and CEO Rex Tillerson, Chevron Chairman ... Tuesday, June 15, 2010, prior to testifying before the House Energy and Environment ... and BP, reports CBS News investigative correspondent Sharyl Attkisson.'
p5
aS'Jun 15, 2010 - By Dan Farber CBS News June 15, 2010, 5:46 PM ... As oil executives are testifying before the House Energy and Commerce environment ... It would appear that BP, ExxonMobil, Chevron, ConocoPhillips and Shell Oil are cutting some ...'
p6
aS"Jun 14, 2010 - Group Home | media | oando in the news | Oando Says May Buy Nigerian Oil ... Oando PLC, Nigeria Oil & Gas Company, Energy services, refining and ... which include Royal Dutch Shell Plc, Chevron Corp. and Eni SpA's Agip Ltd., he said."
p7
aS'Jun 15, 2010 - By Abby Schultz, InsideClimate News ... Over the weekend a Chevron Corp. pipeline in Utah broke, sending an estimated ... and according to J. Brian Duggan, an energy officer in the State Department, a final decision is expected in the Fall.'
p8
aS"Jun 15, 2010 - Hayward's appearance before a House Energy Committee panel on June 17 will ... of BP America Inc., today joined executives from Exxon Mobil Corp., Chevron ..."
p9
aS"Jun 15, 2010 - An oil spill that briefly threatened Utah's Great Salt Lake last weekend may have been caused by an electrical arc burning a small hole in a Chevron Corp."
p10
a.