(lp0
S'Jun 16, 2010 - Production in the NWBU had peaked at around 5,500 barrels a day back in the mid-1970s after then-operator Chevron Corporation implemented secondary ...'
p1
aS"Jun 16, 2010 - Chevron, like other energy companies and various interests in the gulf, wants the ... San Ramon's Chevron Corp. is the largest leaseholder in the Gulf of Mexico."
p2
aS"Jun 16, 2010 - ... told the House energy and commerce sub-committee Exxon-Mobil, Chevron, ... one of the world's biggest and deepest off-shore fields, join BBC World News ..."
p3
aS'Jun 17, 2010 - An early contender was American Mobile Satellite Corp. offering service for North ..... By this time, two US government agencies, Departments of Defense and Energy, signed on. ... Also connected for the test were Chevron Corp. and Sandia National ... Get All the Offshore Magazine News Delivered to Your Inbox for free.'
p4
aS'Jun 16, 2010 - WASHINGTONTop executives from Exxon Mobil Corp., Chevron Corp. ... The finger-pointing came hours before news that the oil spill was even worse than ... at a witness table for a House Energy and Commerce Committee hearing led by ...'
p5
aS'Jun 16, 2010 - ... the leaders of Exxon Mobil, Chevron, Shell and ConocoPhillips insisted at a Congressional hearing that they ... before a panel of the same committee  the House Energy and Commerce Committee  at which the chief ... NEWS ANALYSIS.'
p6
aS'Jun 17, 2010 - LiveBlogging the Energy & Commerce Hearing with Oil Executives This ... largest oil companies in the U.S.  ExxonMobil, Chevron, ConocoPhillips, BP America, and ... 11-7-08 by dugan The big consumer news today is continuously dropping ...'
p7
aS'Jun 17, 2010 - A drilling rig takes core samples at Western Lithium USA Corp. ... prospects for energy independence, according to developer Western Lithium USA Corp. ... The site was first explored in the late 1970s by Chevron Corp., which drilled hundreds ...'
p8
aS'Jun 17, 2010 - Although details of the refining assets for Chevron and Texaco have not been ... A 180,000-b/cd capacity change in the Reliance refinery and a 74,000-b/cd upgrade in Hindustan Petroleum Corp. ... International news for oil and gas professionals ... ExxonMobil: Energy outlook sees demand up, carbon intensity down.'
p9
aS'Jun 17, 2010 - ENERGY INSECURITY. How Total, Chevron, and PTTEP Contribute to Human Rights Violations,. Financial Secrecy ..... Overseas Chinese Banking Corporation (OCBC) and. DBS Group ...... This news came just one month after a leaked UN.'
p10
a.