(lp0
S'Jun 19, 2010 - Chevron Corp. sold its interest in Point Arguello field in the Santa Barbara Channel to Plains ... In the other deal, Houston`s Nuevo Energy Co. has continued its purchases of California .... International news for oil and gas professionals ...'
p1
aS'Jun 18, 2010 - Chevron. 102.38. +1.87%. +1.88. ConocoPhillips. 47.55. +1.04%. +0.49 ... Next Article | Far East Energy Shouyang gas production increases .... Get All the Oil & Gas Financial Journal News Delivered to Your Inbox for free ... Following its latest unsuccessful attempt at recapitalization plan, Goodrich Petroleum Corp. filed for ...'
p2
aS"Jun 18, 2010 - The group's fingerprints extend as far as the Amazon, where Chevron Corp. has ... For more news on energy and the environment, visit www.greenwire.com."
p3
aS"Jun 18, 2010 - News, Opinion & Analysis ... Likewise, Roy Blunt is on the House Energy and Commerce Committee, and Boren is a member of the House ... Though Exxon Mobil, Chevron, and BP didn't donate to a member directly, contributions from people ..."
p4
aS'Jun 18, 2010 - Chevron Hallmark - Human Energy. Home  Find ... Chevron drilling and completion jobs are available for: Drill site and ... Chevron has operations around the world. Your career ... Chevron Corporation |  2001 - 2016 Chevron Corporation.'
p5
aS'Jun 19, 2010 - PRODUCT DESCRIPTION Rando HD oils are formulated with premium base oil technology and designed to give robust protection to hydraulic pumps in ...'
p6
aS'Jun 17, 2010 - A drilling rig takes core samples at Western Lithium USA Corp. ... prospects for energy independence, according to developer Western Lithium USA Corp. ... The site was first explored in the late 1970s by Chevron Corp., which drilled hundreds ...'
p7
aS'Jun 17, 2010 - ... Health  Education  Video  News Blogs  Sponsored: CA Clean Energy .... Photo: Kevin Thrash, Bloomberg News ... Oracle Corp. faces a lawsuit brought by a whistle-blower and the U.S. Justice ... sign an accord today with Chevron Corp. on the development of a Black Sea oil block, said two people familiar with the talks.'
p8
aS"Jun 18, 2010 - CB&I designs, engineers and constructs some of the world's largest energy infrastructure projects, providing EPC solutions and proven technologies."
p9
aS'Jun 17, 2010 - ENERGY INSECURITY. How Total, Chevron, and PTTEP Contribute to Human Rights Violations,. Financial Secrecy ..... Overseas Chinese Banking Corporation (OCBC) and. DBS Group ...... This news came just one month after a leaked UN.'
p10
a.