(lp0
S'Jun 22, 2010 - The oil spill in the Gulf of Mexico strikes close to home for Chevron as it faces a $27 billion lawsuit brought on ... Chevron Corporation ... Honda Motor received the highest number of clean energy patents (30) in the first quarter of 2010 and has ...'
p1
aS"Jun 22, 2010 - OEC News 1. OEC Golf ... projects. Vision 2016 has been very successful due to the Offshore Energy. Center's .... Homer is aided by Tournament Directors Louis Jones, Hess, Corp., .... with Chevron, and Douglas Stephens with Schlumberger."
p2
aS'Jun 22, 2010 - Russia Oil Spill Water Energy Komi Siberia Pollution Contamination ... Royal Shell Co., the Nigerian National Petroleum Corporation and Chevron all have ...'
p3
aS"Jun 22, 2010 - Both Anadarko Petroleum Corp (APC) and Norwegian state-controlled Statoil ... Other U.S. Gulf customers, such as Chevron (CVX) and Australia's BHP Billiton, are ... reasoning that the energy company could honor its obligation by redeploying the ... A Bloomberg news report yesterday confirmed that the Brazilian state-run ..."
p4
aS'Jun 22, 2010 - "The world does need the oil and the energy that is going to have to come from ... Chevron executive Jay Pryor, also at the London conference, said the U.S. ... Anadarko Petroleum Corp., which has a 25 percent stake in the well, has said BP ...'
p5
aS'Jun 22, 2010 - RIGZONE News - leading source for the latest news and information for the oil and gas industry. ... RIGZONE Empowering People in Oil and Gas  Energy News.'
p6
aS'Jun 21, 2010 - BioFuel Energy gets a B grade in Portfolio Grader overall, and highest marks for its ... Magellan Petroleum Corporation ( MPET ) is a more conventional energy ... Chevron CEO Says LNG Demand To Increase 35% Over Next 20 Years ... NASDAQ.com  Company News /; Annual Report /; Contact /; Advertise on Nasdaq.com.'
p7
aS'Jun 22, 2010 - Jay Pryor, Chevron\'s global vice president for business development, told ... need the oil and the energy that is going to have to come from deepwater production going forward." ... More Gulf Coast news reports about oil spill, environment, cleanup ... Shukri Ghanem, the head of Libya\'s National Oil Corp. who serves as the ...'
p8
aS"Jun 22, 2010 - Isn't it strange that, no matter how terrible the news from the Gulf, the media still can't help .... As a result, BP, Chevron, Exxon, and the rest of the energy giants launched a drive to ..... Tomgram: Adam Hochschild, A Corporation Goes to War."
p9
aS"Jun 22, 2010 - CB&I designs, engineers and constructs some of the world's largest energy infrastructure projects, providing EPC solutions and proven technologies."
p10
a.