(lp0
S'Jun 22, 2010 - The oil spill in the Gulf of Mexico strikes close to home for Chevron as it faces a $27 billion lawsuit brought on ... Chevron Corporation ... Honda Motor received the highest number of clean energy patents (30) in the first quarter of 2010 and has ...'
p1
aS"Jun 22, 2010 - OEC News 1. OEC Golf ... projects. Vision 2016 has been very successful due to the Offshore Energy. Center's .... Homer is aided by Tournament Directors Louis Jones, Hess, Corp., .... with Chevron, and Douglas Stephens with Schlumberger."
p2
aS'Jun 23, 2010 - Chevron plans to start production from its Mobile 991 No. ... In the rest it holds 50-80% interests, mainly in partnership with Samedan Oil Corp., Ardmore, Okla. ... International news for oil and gas professionals ... Customer Experience Management for Energy Companies: The Path to Happy Customers & Greater Results.'
p3
aS'Jun 22, 2010 - Russia Oil Spill Water Energy Komi Siberia Pollution Contamination ... Royal Shell Co., the Nigerian National Petroleum Corporation and Chevron all have ...'
p4
aS"Jun 23, 2010 - BP's Gulf Spill Drawing New Attention to Chevron's Oil Disaster in Ecuador, Shell's in Nigeria ... BODO, Nigeria  Big oil spills are no longer news in this vast, tropical land. ... Chevron Corporation ... Last week two protesters were arrested during a House Energy Committee meeting after attempting to give a bottle of ..."
p5
aS"Jun 22, 2010 - Both Anadarko Petroleum Corp (APC) and Norwegian state-controlled Statoil ... Other U.S. Gulf customers, such as Chevron (CVX) and Australia's BHP Billiton, are ... reasoning that the energy company could honor its obligation by redeploying the ... A Bloomberg news report yesterday confirmed that the Brazilian state-run ..."
p6
aS'Jun 22, 2010 - "The world does need the oil and the energy that is going to have to come from ... Chevron executive Jay Pryor, also at the London conference, said the U.S. ... Anadarko Petroleum Corp., which has a 25 percent stake in the well, has said BP ...'
p7
aS'Jun 22, 2010 - RIGZONE News - leading source for the latest news and information for the oil and gas industry. ... RIGZONE Empowering People in Oil and Gas  Energy News.'
p8
aS"Jun 23, 2010 - BP's Steve Westwell said that although regulations will change, energy from deep-water ... Jay Pryor, Chevron's global vice president for business development, told ... which also barred a news photographer from reentering the conference."
p9
aS"Jun 23, 2010 - After this project, Chevron UK sees its future more in Norway. ... to clear, this is good news for Albanian plans for gas-fired power circa 2013. .... However, Norway's Energy Ministry will not launch its next full licensing round, the 16th, until after 2000. .... offshore and onshore maintenance and repair services to Apache Corp."
p10
a.