(lp0
S'Jun 23, 2010 - Chevron plans to start production from its Mobile 991 No. ... In the rest it holds 50-80% interests, mainly in partnership with Samedan Oil Corp., Ardmore, Okla. ... International news for oil and gas professionals ... Customer Experience Management for Energy Companies: The Path to Happy Customers & Greater Results.'
p1
aS"Jun 24, 2010 - More News From Greenwire ... A blog about energy, the environment and the bottom line. ... At the time of the spill, BP was a finalist for the agency's SAFE award, along with Eni US Operating Co. and Exxon Mobil Corp. ... From 2004 to 2008, Chevron's Gulf of Mexico average spill volume rate was seven times lower than the ..."
p2
aS"Jun 23, 2010 - BP's Gulf Spill Drawing New Attention to Chevron's Oil Disaster in Ecuador, Shell's in Nigeria ... BODO, Nigeria  Big oil spills are no longer news in this vast, tropical land. ... Chevron Corporation ... Last week two protesters were arrested during a House Energy Committee meeting after attempting to give a bottle of ..."
p3
aS'Jun 23, 2010 - As a result, BP, Chevron, Exxon, and the rest of the energy giants launched a drive to obtain traditional fuels from hazardous locations, setting the stage for the ...'
p4
aS"Jun 23, 2010 - After this project, Chevron UK sees its future more in Norway. ... to clear, this is good news for Albanian plans for gas-fired power circa 2013. .... However, Norway's Energy Ministry will not launch its next full licensing round, the 16th, until after 2000. .... offshore and onshore maintenance and repair services to Apache Corp."
p5
aS'Jun 24, 2010 - Fox News is BP oil spill misinformation clearinghouse .... authored the Gulf spill response plans for BP, ConocoPhillips, Chevron, Shell Oil, and Exxon Mobil. ... In testimony before the House Energy and Environment Subcommittee on June 15, ...'
p6
aS"Jun 24, 2010 - Chevron Corporation ... Chevron's top three producing fields in the UK are the Captain field which is 68 miles north of ... making it the third-largest integrated energy company in the US and the fifth-largest refiner and the ..... News Centre."
p7
aS"Jun 23, 2010 - BP's Steve Westwell said that although regulations will change, energy from deep-water ... Jay Pryor, Chevron's global vice president for business development, told ... which also barred a news photographer from reentering the conference."
p8
aS"Jun 24, 2010 - DOW JONES, A NEWS CORP COMPANY .... Owen Kratz, chief executive officer of Helix Energy Solutions, one of the company's working to contain the spill for ..."
p9
aS'Jun 24, 2010 - The Yadana gas field is an offshore gas field in the Andaman Sea. It is located about 60 ... operated by Total S.A., a French energy group, with Chevron Corporation, a United States-based company, ... Jump up to: Environment News Service.'
p10
a.