(lp0
S'Jun 29, 2010 - Network News ... So for now the supermajor champ in minimizing spills is Chevron, with the runner-up slot going to Exxon. ... Others are powering some of their plants with renewable energy and investing in such things as algae-based biofuel.'
p1
aS'Jun 28, 2010 - Chervon execs also say the company will continue its Human Energy campaign, ... and secure energy future, says Chevron spokesperson Morgan Crinklaw.'
p2
aS'Jun 29, 2010 - A blog about energy, the environment and the bottom line. ... avian cleaning products -- IBRRC founder Alice Berkner used a grant from Chevron Corp. to conduct her ... For more news on energy and the environment, visit www.greenwire.com.'
p3
aS'Jun 28, 2010 - ... with our national interests," said Energy and Mineral Resources Minister Darwin Zahedy Saleh. ... Get All the Oil and Gas Journal News Delivered to Your Inbox ... Chevron Corp. has started LNG and condensate production at the Gorgon ...'
p4
aS"Jun 28, 2010 - 94 in the nation in a U.S. News & World Report 2010 survey. .... biggest oil majors -- Exxon Mobil Corp., Royal Dutch Shell Plc, Chevron Corp., Total SA and ... but it's also very prolific, said Philipp Chladek, a London-based energy analyst with ..."
p5
aS"Jun 28, 2010 - Three of the world's largest energy companies had their credit ratings ... Chevron Corp. and Royal Dutch Shell Plc had their ratings reduced by one level, while ..."
p6
aS"Jun 28, 2010 - Energy News ... Collectively we view the news between Noble, Frontier, and Shell as quite constructive and bullish for long-term dayrates. ... Noble Corp to Spin Off Older Drilling Rigs into New Company (Sep 25) ... to Reach Pre-Sanctions Level by June  Chevron Signs Up Australia's Alinta To Buy Gas From Wheatstone."
p7
aS'Jun 28, 2010 - RIGZONE News - leading source for the latest news and information for the oil and gas ... With its insatiable appetite for energy resources, the United States is the ... Chevron Company Owned, Company Operated (COCO) Compliance Lead ...'
p8
aS'Jun 28, 2010 - Chevron\'s "Will You Join Us" ad campaign, for example, apparently tries to convey the ... The corporation at the center of the Gulf oil disaster, BP, promoted itself as being ... going "beyond petroleum" by investing (modestly) in renewable energy sources. .... Common Dreams has been providing breaking news & views for the ...'
p9
aS"Jun 28, 2010 - The U.S. oil giant ExxonMobil Corp. ... The new organization will retain its identity as XTO Energy Inc. and will keep its head office in Fort Worth, Texas. ... Moreover, the merger undoubtedly brings good news for Americans as it is a step forward in the ... Analyzing Chevron's Segmental Outlook before Its 1Q16 Earnings."
p10
a.