(lp0
S'Jun 2, 2010 - In Japan, the U.K. and the U.S., green energy advocates and some ... Exxon Mobil Corp. threw its weight behind algae in July 2009. ... percent by 2030, says Jeffrey Jacobs, vice president of Chevron Technology Ventures. .... Bloomberg News.'
p1
aS'Jun 1, 2010 - The Deloitte Center for Energy Solutions has added former Chevron executive Peter ... and senior managing director for Tullett Prebon Americas Holding Corp. .... Get All the Oil & Gas Financial Journal News Delivered to Your Inbox for free.'
p2
aS"Jun 1, 2010 - Confusion reigned Tuesday as energy companies struggled to figure out what's included in the Interior ... Chevron Corp. has one exploratory rig that will be subject to the shutdown, and will have to delay plans on ... Your Regional News Pages."
p3
aS"Jun 1, 2010 - By Carlson Wagonlit Travel's estimates, the energy sector spends about $4.3 ... air travel in the United States, serving as the agency of record for BP, Chevron, ... fare consolidator that supplements corporation-specific negotiated rates with ..."
p4
aS"Jun 2, 2010 - Home; Report on Business; Industry News; Energy & Resources ... The federal-provincial regulatory board has increased its supervision of Chevron Corp. ... After drilling through the rock under the seabed, Chevron must pause its drilling operation before ... News. Woman pleads not guilty to live-streaming friend's rape ..."
p5
aS'Jun 1, 2010 - DOW JONES, A NEWS CORP COMPANY .... Small, offshore-oriented independent producers ATP Oil and Gas Corp. and ... two decades, majors such as BP and Chevron Corp. and large independents ... Energy research firm Tudor Pickering Holt placed Cobalt International Energy, a deepwater drilling company backed by ...'
p6
aS'Jun 1, 2010 - Get detailed financial information on Oakridge Energy Inc (OTCMKTS:OAKR) including real-time stock quotes, historical charts & financial news, all for free! ... CVX  Chevron Corporation, 98.75, +1.52, 1.56%, 184.69B ...'
p7
aS"Jun 2, 2010 - Energy News  Most Popular  Headlines ... By comparison, Exxon Mobil's market value is $278 billion, Chevron's is $145 billion and Shell's is about $163 billion."
p8
aS'Jun 2, 2010 - Operators such as Statoil, Clyde Petroleum, Burlington, and Chevron used suction piles on .... sources such as wind, solar and wave energy to avoid emissions and reduce operating costs. .... Get All the Offshore Magazine News Delivered to Your Inbox for free ..... Copyright  2007-2015 PennWell Corporation, Tulsa, OK.'
p9
aS'Jun 1, 2010 - The Green Gauge: Chevron slides on oil spill news Ecuadorean workers cleaning ... Last week two protesters were arrested during a House Energy Committee ..... Gannett Company, Hearst Corporation, the Daily News, the Directors Guild of ...'
p10
a.