(lp0
S'Jun 29, 2010 - Network News ... So for now the supermajor champ in minimizing spills is Chevron, with the runner-up slot going to Exxon. ... Others are powering some of their plants with renewable energy and investing in such things as algae-based biofuel.'
p1
aS'Jun 29, 2010 - A blog about energy, the environment and the bottom line. ... avian cleaning products -- IBRRC founder Alice Berkner used a grant from Chevron Corp. to conduct her ... For more news on energy and the environment, visit www.greenwire.com.'
p2
aS'Jun 30, 2010 - Alternative Energy, news about Non-Hydocarbon-burning energy source ... If a news items does not fit in a category, please select the default one: General Ideas.'
p3
aS'Jun 30, 2010 - Current News. Technology, Relationships Deliver Success at the Beta Project (a.k.a. Coelacanth) 04.08.2016; Walter Oil & Gas Announces Successful ...'
p4
aS"Jun 30, 2010 - By ABC News. June 30 .... Across the globe, Shell, Chevron, Exxon and smaller adversaries were holding similar .... BP could not commission any trials unless a rival corporation agreed to share the expenditure. ..... For those govern- ments, local politics and world prices were more important than America's energy needs."
p5
aS'Jul 1, 2010 - JX Nippon Oil & Energy website. ... you with the information on Corporate Profile, CSR report, and Products of JX Nippon Oil & Energy. ... News Release.'
p6
aS'Jun 30, 2010 - ... Bloomberg Television  Bloomberg Radio  Bloomberg Mobile Apps  News Bureaus ..... Novick, who had worked with Fink at New York-based First Boston Corp., came ... ConocoPhillips and Chevron Corp. have already abandoned some Gulf ... An analysis conducted by consulting firms Quest Offshore and Blade Energy ...'
p7
aS'Jul 1, 2010 - Production is divided among several international oil companies, with Shell and ExxonMobil holding the largest stakes in the Brent fields, while Chevron and ...'
p8
aS"Jun 29, 2010 - An environmental forum on America's Energy Coast was sponsored by Chevron, Texaco and Shell. ... immediate action, does BP want to be the corporation that gives Sandra Bullock's baby a hacking cough? ... Part of HuffPost on HPMG News."
p9
aS'Jun 30, 2010 - Live Business News ..... Chevron Corporation  Executives Biographies  Exxon Mobil Corporation  Miscellanoeous  News  The Western Union Company ...'
p10
a.