(lp0
S'Jul 13, 2010 - Chevron Corporation (NYSE: CVX) today announced a new exploration drilling ... to build a leading natural gas business to supply energy to Australia and the ...'
p1
aS'Jul 15, 2010 - Chevron PE Ratio (TTM) (CVX) charts, historical data, comparisons and ... CVX News ... Stocks Mixed as IBM Weighs on Tech While Oil Rally Boosts Energy'
p2
aS'Jul 15, 2010 - Chevron has a Market Cap of 192.08B. Chevron Market Cap (CVX) charts, historical data, comparisons and more. ... defraud Chevron SA Breaking News 04/21 18:37 ET ... Stocks Mixed as IBM Weighs on Tech While Oil Rally Boosts Energy'
p3
aS'Jul 13, 2010 - Even if rumors that ExxonMobil and Chevron have their sights set on BP turn out to ... Perhaps one of the least-loved companies in the world right now, the energy ... Sunday Times newspaper published an article saying that both Chevron and ... in 2006  to Houston company Apache Corp., which specializes in buying old, ...'
p4
aS'Jul 13, 2010 - Tesoro Corp. and Valero Energy Corp., both of San Antonio, Tx., have spent a combined $1.5 million or 79 percent of the funds collected in ... Chevron employs 65,000 worldwide and CJI is not going to change this. ... Energy Manager News.'
p5
aS'Jul 15, 2010 - Senior Process Engineer at Chevron ... Current. Chevron. Previous. Analytic Energy Systems,; Nanjing University of Aeronautics and ... Gas to Liquids news ...'
p6
aS'Jul 14, 2010 - To create a culture that reflects the values of Communispace Corporation, (client dedication, excellence, integrity, respect, adventure, energy, and ownership), ... Chevron CorporationThe Chevron Way: Engineering Opportunities for Women ... Media Announcements  Media Toolkit  Catalyst In the News  Catalyst App ...'
p7
aS"Jul 14, 2010 - Either the CEO of Bridge Resources Corp. is incredibly humble or he'd make an excellent poker player. ... the 20th century, and some of the biggest names in the energy biz soaked hundreds of thousands of dollars into their operations. Chevron, Conoco, Exxon, Shell and Texaco all drilled into Idaho's crust. .... More News ."
p8
aS'Jul 14, 2010 - July 14th, 2010 Author amphora no comments News. Amphora, Inc., the foremost developer of global energy trading and risk ... to crude oil trading, noted Vlad Zeman, chief information officer at Noble Americas Corp. ... to clients such as Chevron, Koch Supply & Trading, China Oil, ENI SA, Enel, ERG, PMI and many others.'
p9
aS'Jul 15, 2010 - Mamdouh Nagati International Petroleum Corp. ... Suakin-1, which was drilled by Chevron in 1976, achieved a stabilized flow of 6.9 MMcfd of gas and 1, 158 b/d ...'
p10
a.