(lp0
S"Jul 20, 2010 - Read Chevron Australia's statements to the media and latest news. ... PERTH, Western Australia, July 20, 2010  Chevron Corporation (NYSE: CVX) ... Chevron is one of the world's leading integrated energy companies and through its ..."
p1
aS'Jul 19, 2010 - Industries & Tags: Retailing & Restaurants,  Energy ... A decision by Chevron Corp. to leave the Kentucky market has opened the door for ... The news took Charlie Miller, the owner of Miller Oil Co., 4504 Bells Lane, completely by surprise.'
p2
aS'Jul 20, 2010 - Granite Wash oil production and exploration news, resources and oil company ... Chevron. 101.69. +0.00. +0.00. ConocoPhillips. 47.08. +0.00. +0.00 ... Linn Energy, Forest Oil, Apache Corp., BNK Petroleum, Devon Energy, and Cordillera ...'
p3
aS'Jul 20, 2010 - Woodford shale oil production and exploration news, resources and oil company stocks ... Chevron. 101.40. -0.29%. -0.29. ConocoPhillips. 46.23. -1.81%. -0.85 ... Devon Energy Corp. has agreement to sell its non-core Mississippian assets in ...'
p4
aS'Jul 20, 2010 - Eric Taylor Craig J. Tester Cronus Development Corp. ... One such field, Crystal field in Montcalm County, is the focus of a U. S. Department of Energy (DOE) Class 2 Reservoir .... He was previously a senior research associate with Chevron Oil Field Research Co., where he ... International news for oil and gas professionals ...'
p5
aS'Jul 19, 2010 - ExxonMobil Corp. indicated production from the 45-tcf Natuna D-Alpha field may ... the large Husky Energy Inc. gas discoveries such as Liwan that contains 4-6 .... Chevron Corp. ... Get All the Oil and Gas Journal News Delivered to Your Inbox.'
p6
aS'Jul 19, 2010 - Chevron Oil Refinery, El Segundo, Calif. Decades of leaking .... Global Business and Financial News, Stock Quotes, and Market Data and Analysis. Data also ...'
p7
aS'Jul 20, 2010 - Mr. Williams joined DevX Energy, Inc. on October 6, 2000. He served as the President and Chief Executive Officer of MCN Investment Corp., from July 1998 to ...'
p8
aS'Jul 20, 2010 - This afternoon comes news that BP is selling $7 billion of assets, and none of ... in the latter project include Exxon Mobil, ConocoPhillips and Chevron Corp.'
p9
aS'Jul 19, 2010 - Like BP, Chevron was in the final stages of drilling a well aboard Transocean rig Discoverer Deep Seas. Because of the blowout, drillers lost 500000 gallons of ...'
p10
a.