(lp0
S"Jul 21, 2010 - The duty will for the first time levy exports from Chevron Corp. ... Total SA, is the world's fifth-largest field, according to the U.S. Energy Information Administration."
p1
aS"Jul 21, 2010 - ... Gulf of Mexico was announced today by Chevron, ConocoPhillips, ExxonMobil and Shell. ... with the public's confidence that the energy we need will be produced safely and reliably, said John Watson, ... 2001  2016 Chevron Corporation."
p2
aS'Jul 21, 2010 - And the news clearly troubled Chinese authorities, who quickly questioned the credibility of ... Valero Energy Corp (NYSE: VLO)Buy @ 20, Stop @ 14.95 ..... Chevron has most exposure to oil; Royal Dutch Shell and ConocoPhillips (NYSE: ...'
p3
aS'Jul 22, 2010 - Exxon Mobil, Chevron, Royal Dutch Shell and ConocoPhillips are creating a strike force to stanch oil spills in the ... DOW JONES, A NEWS CORP COMPANY.'
p4
aS'Jul 21, 2010 - Latest JX Nippon Oil & Gas Exploration Corporation (NOEX) News ... the following update on drilling operations as advised by the operator of the Roc-1 well, Quadrant Energy. ... Cox Oil Offshore acquires Gulf of Mexico assets from Chevron.'
p5
aS'Jul 22, 2010 - Vienna-based consultancy JBC Energy forecasts that refineries handling 3.4 million ... refinery in the U.K. and its Gothenburg plant in Sweden, Chevron Corp.'
p6
aS'Jul 22, 2010 - MAXUS ENERGY Corp. ..... International news for oil and gas professionals ... Chevron Corp. has signed a nonbinding heads of agreement with China Huadian ...'
p7
aS"Jul 22, 2010 - Occidental Petroleum Corp., the high bidder, has already expressed interest in a second chapter (OGJ, Oct. 13, 1997, p. ... with impending sale of the U.S. Department of Energy's 78% interest in the field. ... DOE and Chevron decided to recast the well as a horizontal hole. .... International news for oil and gas professionals ..."
p8
aS'Jul 21, 2010 - Network News ... Exxon Mobil, Royal Dutch Shell, ConocoPhillips and Chevron announced Wednesday a ... The joint response plan is in part a response to recent hearings of the House Energy and Commerce Committee, whose members ...'
p9
aS'Jul 21, 2010 - Exxon Mobil (XOM), Chevron (CVX), Shell (RDS) and ConocoPhillips (COP) will initially put $1 billion into the venture, called the Marine Well ... Market Wrap: Stocks End Sharply Lower; Energy Leads Drop ... News You Need to Know ...'
p10
a.