(lp0
S'Jul 29, 2010 - Chevron Energy Solutions, along with the city of Brea, has started ... Home ; News ; Updated: Chevron and City of Brea begin construction on 1.8 MW solar ...'
p1
aS'Jul 28, 2010 - The IOCs include: NORTH AMERICA: Chevron Corp.; ConocoPhillips; ExxonMobil Corp.; Marathon Oil Corp.; Valero Energy Corp.; Occidental Petroleum Corp.; ...'
p2
aS"Jul 28, 2010 - Read Chevron Australia's statements to the media and latest news. ... Chevron is one of the world's leading integrated energy companies and through its ... This press release of Chevron Corporation contains forward-looking statements ..."
p3
aS'Jul 28, 2010 - News in Focus .... Jul 28, 2010, 10:01 ET from Marathon Oil Corporation ... Beginning in 1984, he joined Chevron where he worked for approximately 25 years ...'
p4
aS"Jul 29, 2010 - Exxon Mobil Corp. reported quarterly earnings Thursday that easily beat analysts' expectations as ... The world's largest public energy company reported net income of $7.56 billion, or $1.60 a ... Chevron Corp. .... 2016 Cable News Network."
p5
aS'Jul 28, 2010 - DOW JONES, A NEWS CORP COMPANY. News Corp is a network of leading .... A host of companiesincluding Agco Corp. AGCO 0.14 % , Chevron Corp.'
p6
aS'Jul 28, 2010 - Resources Daily | US oil major Chevron has cemented the credentials of its $25 ... Enjoy unlimited access to business news and market insights across desktop, ...'
p7
aS'Jul 29, 2010 - Tags: energy prices, environment, taxes ... as executives from Chevron, Covanta Energy Corp., AES North America Pacific, Shell Oil, Calpine Corp., RRI Energy, ...'
p8
aS'Jul 29, 2010 - Last week, Ellora Energy announced that the company had reached an ... post items I find interesting, but I will not maintain the data or keep the news current.'
p9
aS'Jul 29, 2010 - Chevron has released a draft environmental impact statement (EIS) for the Wheatstone ... Company news: Woodside, Origin, AGL, Beach Energy, AWE, Clough.'
p10
a.