(lp0
S"Jul 1, 2010 - The US Marine Corps Logistics Base (MCLB) at Albany, Georgia, and Chevron Energy Solutions are to develop the Department of Navy's first landfill gas ..."
p1
aS'Jul 1, 2010 - Tristream Energy Announces Acquisition of East Texas Processing Assets ..... (BUSINESS WIRE)--The Board of Directors of Chevron Corporation (NYSE:CVX) ...'
p2
aS'Jul 2, 2010 - DOW JONES, A NEWS CORP COMPANY ..... The Oiltech Investment Network, created by Chevron Technology Ventures, Energy Ventures, Epi-V, Lime Rock ...'
p3
aS'Jul 1, 2010 - Chevron. 101.69. +1.18%. +1.19. ConocoPhillips. 47.08. +0.04%. +0.02 ... Walter Oil & Gas Corp. and LLOG Exploration Co. each inched up one spot to rest at No. ... 4-ranked Hilcorp Energy Co. has partnered with Kohlberg Kravis Roberts & Co ... Get All the Oil & Gas Financial Journal News Delivered to Your Inbox for free.'
p4
aS'Jul 2, 2010 - The agency, now known as the Bureau of Ocean Energy Management, Regulation and ... Apache Corp. and Chevron Corp. are among oil producers that have ...'
p5
aS'Jul 1, 2010 - ... Statoil ASA and Chevron Corp., which all produce in Campos, the basin that ... over storage facilities with BP Plc, which agreed to buy Devon Energy Corp.'
p6
aS"Jul 1, 2010 - Launched in 2007, the KPMG Global Energy Institute (GEI) has been ... Corporation, presented his company's outlook for energy to 2030. As in years past, we ..."
p7
aS'Jul 2, 2010 - In 2008, the Haynesville shale made headlines after Chesapeake Energy reported ... Mainland is offsetting a well drilled by Chevron in 1981, which encountered a deep ... A subsidiary of EnCana Corp. acquired interests in this project in 2007.'
p8
aS"Jul 2, 2010 - It seems like every day there is another news story about the wreckage left behind ... We want to know if you've changed your energy habits in the months since the BP ... It does not help that in the USA, companies like Chevron hold the rites to ..."
p9
aS'Jul 1, 2010 - ESP Petrochemicals will assist McFreeport in the procurement of business opportunities within companies like Exxon Mobil Corporation, Chevron Corporation ...'
p10
a.