(lp0
S'Jul 6, 2010 - To the list of Big Oil companies with p.r. problems add two more: Chevron and French energy giant Total. In a report published on Monday, the NGO EarthRights ...'
p1
aS'Jul 6, 2010 - Corporate Controller at SND Energy Company, Inc. .... Caltex Petroleum Corporation ... Caltex had been a joint venture of Chevron and Texaco but is now a wholly-owned sub of Chevron ... Evening Co-Anchor/Reporter -Black HIls Fox News.'
p2
aS'Jul 7, 2010 - The U.S. Bureau of Ocean Energy Management, Regulation and ... Mintz, a spokesman for Apache Corp., which has at least 2,100 abandoned wells in the Gulf, ... Added spokeswoman Margaret Cooper of Chevron U.S.A., which has at least ...'
p3
aS"Jul 7, 2010 - Given the high entry costs relating to many oil and gas industry operations, many of the world's largest oil and gas companies, like Chevron Corporation and ..."
p4
aS'Jul 7, 2010 - ... a spokesman for Apache Corp., which has at least 2,100 abandoned wells in the Gulf, ... Added spokeswoman Margaret Cooper of Chevron U.S.A., which has at least ... Greg Rosenstein, a vice president at Superior Energy Services, a New ...'
p5
aS"Jul 8, 2010 - Upstream oil and gas news for exploration and production professionals ... Australian Audax Resources, Canada's Avere Energy, Chevron Romania E&P, UK's ..."
p6
aS"Jul 7, 2010 - The line is operated by NOVA Corp. of Alberta's Alberta Gas Transmission Division, Calgary. ... on the ejected section of 36-in. carrier pipe revealed chevron markings, from two directions, .... -5 C.) was measured with an average Charpy V-notch energy of 24.4 ft-lb at 23 F. .... International news for oil and gas professionals ..."
p7
aS'Jul 7, 2010 - ... turn over to the Chevron Corporation 600 hours of footage collected for his 2009 film, ... Chevron sought disclosure of the footage in connection with an ongoing .... Associated Press, Dow Jones & Company and 11 other news organizations, .... press and divert time and energy away from important newsgathering activity.'
p8
aS'Jul 6, 2010 - Interview with Clyde Michael Bandy, Chairman and CEO, Chemoil Corporation ... For the energy business, the years 2008 and 2009 were remarkable in terms of market ... With my previous experience at Chevron-Texaco, I understand what impact such ... The good news for Chemoil is that the new growth markets under ...'
p9
aS'Jul 7, 2010 - Corporate News    Contact Us. Ralph Curton - CEO of Thurston Energy Operating Company LLC ... Mr. Zhang Kai worked for China National Offshore Oil Corporation (CNOOC) and its cooperating group with AGIP, Chevron and ...'
p10
a.