(lp0
S'Jul 8, 2010 - The Chevron Pulse Report analyzes the state of online conversation about ... July 2008  December 2009 Edition  2010 Chevron Corporation Table of Contents 1. ... The Online Conversation About: ENERGY AND TECHNOLOGY Chevron ..... of contributing energy experts weigh-in on relevant energy news, resources, ...'
p1
aS'Jul 7, 2010 - The U.S. Bureau of Ocean Energy Management, Regulation and ... Mintz, a spokesman for Apache Corp., which has at least 2,100 abandoned wells in the Gulf, ... Added spokeswoman Margaret Cooper of Chevron U.S.A., which has at least ...'
p2
aS'Jul 7, 2010 - ... a spokesman for Apache Corp., which has at least 2,100 abandoned wells in the Gulf, ... Added spokeswoman Margaret Cooper of Chevron U.S.A., which has at least ... Greg Rosenstein, a vice president at Superior Energy Services, a New ...'
p3
aS'Jul 8, 2010 - Chevron Corp rescinded its bid to cancel a drilling rig contract after the oil giant ... The approval of the new wells by the Bureau of Ocean Energy Management, ... and Holt called drilling contractor Hercules\' statement "good news," although it ...'
p4
aS"Jul 8, 2010 - Bulletin records show Daylight Energy Ltd. rig released a horizontal well targeting .... ConocoPhillips and Chevron Corp., is viewed as the world's energy capital."
p5
aS'Jul 8, 2010 - Western Australian Energy Research Alliance ... Alliance Members  Industry Alliance Partners  News  e-News Subscription ... Woodside Chevron  Shell.'
p6
aS"Jul 8, 2010 - Upstream oil and gas news for exploration and production professionals ... Australian Audax Resources, Canada's Avere Energy, Chevron Romania E&P, UK's ..."
p7
aS'Jul 7, 2010 - ... turn over to the Chevron Corporation 600 hours of footage collected for his 2009 film, ... Chevron sought disclosure of the footage in connection with an ongoing .... Associated Press, Dow Jones & Company and 11 other news organizations, .... press and divert time and energy away from important newsgathering activity.'
p8
aS'Jul 7, 2010 - The energy industry is very much in the news after Deepwater Horizon, a drilling unit ... Shares of ExxonMobil (XOM) and Chevron (CVX) yield 3.1% and 4.3%, ...'
p9
aS'Jul 7, 2010 - Corporate News    Contact Us. Ralph Curton - CEO of Thurston Energy Operating Company LLC ... Mr. Zhang Kai worked for China National Offshore Oil Corporation (CNOOC) and its cooperating group with AGIP, Chevron and ...'
p10
a.