(lp0
S"Aug 10, 2010 - Learn more about Apache Corporation's background. Includes contact ... Learn more about Atlas Energy Resources' background. Includes contact ... Learn more about Chevron's background. Includes contact ... Mineral News  Anti-Fracking ..."
p1
aS'Aug 9, 2010 - ... Gas Processing Plant, a refinery and storage facility operated by Chevron Corp. subsidiary Sabine ... Get premium, high resolution news photos at Getty Images.'
p2
aS'Aug 9, 2010 - Energy industry analysts are predicting a global shale gas boom that could turn the ... Sebastian Brinkmann, a research analyst with MSCI told SolveClimate News. ... In July, the state-owned China National Petroleum Corporation announced ... oil and gas companies, including U.S. companies such as Exxon and Chevron, ...'
p3
aS'Aug 9, 2010 - Tiger Oil & Energy (OTCBB: TGRO), headquartered in Las Vegas is an oil and gas ... News. TIGER OIL ANNOUNCES DEFORE LEASE PRODUCING OIL.'
p4
aS'Aug 9, 2010 - Cooling to subambient temperatures consumes more energy and involves higher cost ... Davis Chemical Corp. have reported developing an additive that reduces H2SO4 ..... has been developing a solid-acid slurry alkylation process jointly with Chevron, ... Kirschner, E.M., Chemical & Engineering News, Apr. 8, 1996, pp.'
p5
aS'Aug 9, 2010 - Upstream oil and gas news for exploration and production professionals ... energy-pedia development and production ... CNOOC Ltd. holds 83.8% interest and acts as the Operator, while Chevron holds the remaining 16.2% interest.'
p6
aS'Aug 9, 2010 - Oil refining is one of the most important business segments in the energy industry, ... as ExxonMobil Corp (NYSE: XOM), BP (NYSE: BP) and Chevron (NYSE: CVX) .... News of increased demand for refined products is a positive for the refiners.'
p7
aS'Aug 10, 2010 - ... International Corp Alberta Energy Company Ltd ... Anadarko Petroleum Corporation ... Canadian Tire Corporation Limited ... Chevron Canada Resources Ltd'
p8
aS'Aug 10, 2010 - She has served as a consultant to the Nuclear Energy Agency of France, the Korean Atomic Energy Research ... Elaine S. Yamaguchi, Chevron Corporation.'
p9
aS'Aug 10, 2010 - Atomic Energy of Canada Ltd. Shaw Stone & Webster, Mustang Engineering. Aircraft Appliances & Equipment ... Chevron Canada, Zeton, Inc. Pall Corporation.'
p10
a.