(lp0
S'Aug 11, 2010 - On the Gulf of Mexico\'s shelf, Chevron is reaping a "second harvest" in mature fields ... A harvest field, explains Chevron Asset Manager Phil Durrett, is one a major feels has .... Get All the Offshore Magazine News Delivered to Your Inbox for free ... Stirling Group has partnered with the EU Iraq Energy Centre to provide risk ...'
p1
aS"Aug 11, 2010 - Nigerian joint ventures (Nigerian National Petroleum Corp. and foreign oil companies) have .... Chevron's Ewan field at 32 gravity will be the most likely field development to change a blend. ... International news for oil and gas professionals ... Customer Experience Management for Energy Companies: The Path to Happy ..."
p2
aS'Aug 11, 2010 - BP Plc Exxon Mobil ConocoPhilips Royal Dutch Shell and Chevron Strength in Q2 ... By way of comparison, Evaluate Energy estimates that ExxonMobil could currently ... As per our Terms of Use, Stockopedia is a financial news & data site, ...'
p3
aS'Aug 10, 2010 - She has served as a consultant to the Nuclear Energy Agency of France, the Korean Atomic Energy Research ... Elaine S. Yamaguchi, Chevron Corporation.'
p4
aS'Aug 10, 2010 - Search  Images  Maps  Play  YouTube  News  Gmail  Drive  More ... circulating flue gas into said energy conversion unit to form a carbon dioxide enriched stream; ..... US4116610, Oct 26, 1976, Sep 26, 1978, Columbia Chase Corporation ..... Dec 26, 1995, Chevron U.S.A. Inc. Heavy hydrocarbon emulsions and stable ...'
p5
aS"Aug 11, 2010 - Valero Energy Corp. and Tesoro Corp. have contributed more than $4.5 million to Proposition 23, ... Chevron called, they support your boycott of the other oil companies. .... HOT Off The Press: 29 Photos Of TV's Sexiest Female News Anchors."
p6
aS"Aug 10, 2010 - Natural gas fuels over half of Western Australia's primary energy needs and 60 per cent ... facilities to support development of Chevron's Wheatstone project and activities in the Browse Basin, Mr Barnett said. ..... Subscribe to the free e-news."
p7
aS'Aug 11, 2010 - By Dr. Kent Moors, Global Energy Strategist, Oil & Energy Investor  @KentMoors_OEI .... Dr. Kent Moors News Stories; Money Morning Special News Report:'
p8
aS'Aug 11, 2010 - 1992 - Mineral and energy resource assessment (no significant reserves); ... Shell Canada, Mobil Canada (now ExxonMobil Canada) and Chevron Canada.'
p9
aS"Aug 10, 2010 - Home  About us  Products  Training  Recertification  Hire  News  Contact ... on the Tartan A (initially Texaco and now Talisman Energy (UK) Limited ). ... The answer came from DONUT Safety System's technical team and Chevron UK, a key sponsor in relation to Chevron's single fall survival craft in the North Sea."
p10
a.