(lp0
S"Aug 16, 2010 - SAN RAMON, Calif., August 16, 2010 - Chevron Corp. ... Chevron is one of the world's leading integrated energy companies, with subsidiaries that conduct ..."
p1
aS'Aug 17, 2010 - Daily news for the downstream oil and gas industry providing coverage of events in the ... off the west coast of Australia announced this week by Chevron Corp. ... for cleaner-burning fuels from developing Asian economies is prompting energy ...'
p2
aS"Aug 17, 2010 - ... hydrocarbon basin. The Acme-1 discovery represents Chevron's ninth discovery in 12 months offshore Western Australia. ... Upstream oil and gas news for exploration and production professionals ... energy-pedia exploration. Australia flag ..."
p3
aS'Aug 17, 2010 - Halliburton Energy Services has agreed to plead guilty to destroying evidence ... Exxon Mobil Corp, Chevron Corp and Royal Dutch Shell Plc - in state court on ...'
p4
aS"Aug 17, 2010 - Coastal Louisiana accounts for 27 percent of U.S. energy production while an .... At Harry Bourg's muskrat marsh, the only good news lately is that oil from the BP ... now part of Chevron Corp., Theriot rejects the argument that jobs and taxes ..."
p5
aS"Aug 18, 2010 - See who you know at Caltex Energy Inc., leverage your professional network, and get hired. ... Join LinkedIn to get the latest news, insights, and opportunities from over 3 million companies. It's free! ... Caltex Australia; Caltex Resources Ltd. Chevron; Shell; Total; Velvet Energy Ltd. ... LinkedIn Corporation  2016."
p6
aS'Aug 17, 2010 - Californians Against Higher Taxes received $38 million from Chevron, $32 million from Aera Energy, a joint ... BP, Chevron, ConocoPhillips, Encana Oil & Gas, ExxonMobil and Noble Energy ... Get news, videos, tips and more from Sunlight.'
p7
aS'Aug 17, 2010 - Backed chiefly by two Texas oil companies, Valero Energy Corporation and Tesoro, ... In November, vote no on Proposition 23, the Dirty Energy Proposition.'
p8
aS'Aug 17, 2010 - Business In The News: Business, Sixth Canadian Edition .... Exxon, ConocoPhillips Ltd., Chevron Corp., and Royal Dutch Shell PLC were grilled by U.S. legislators ... For example, a well failure at Devon Energy Corp. in mid-July 2010 caused ...'
p9
aS"Aug 18, 2010 - Unocal Corp., Reinecke field, Borden County, Tex. ... partly funded by the U.S. Department of Energy's technology transfer program for Class II shallow shelf carbonate reservoirs. ... Get All the Oil and Gas Journal News Delivered to Your Inbox."
p10
a.