(lp0
S'Aug 17, 2010 - Daily news for the downstream oil and gas industry providing coverage of events in the ... off the west coast of Australia announced this week by Chevron Corp. ... for cleaner-burning fuels from developing Asian economies is prompting energy ...'
p1
aS'Aug 17, 2010 - Halliburton Energy Services has agreed to plead guilty to destroying evidence ... Exxon Mobil Corp, Chevron Corp and Royal Dutch Shell Plc - in state court on ...'
p2
aS'Aug 18, 2010 - energy-pedia general news ... The 5.63 per cent stake held by Devon Energy Caspian Corporation in the ... INPEX, Chevron and Itochu exercised preferential rights in relation to the share purchase transaction between BP and Devon Energy.'
p3
aS'Aug 17, 2010 - Business In The News: Business, Sixth Canadian Edition .... Exxon, ConocoPhillips Ltd., Chevron Corp., and Royal Dutch Shell PLC were grilled by U.S. legislators ... For example, a well failure at Devon Energy Corp. in mid-July 2010 caused ...'
p4
aS"Aug 17, 2010 - Coastal Louisiana accounts for 27 percent of U.S. energy production while an .... At Harry Bourg's muskrat marsh, the only good news lately is that oil from the BP ... now part of Chevron Corp., Theriot rejects the argument that jobs and taxes ..."
p5
aS'Aug 17, 2010 - Backed chiefly by two Texas oil companies, Valero Energy Corporation and Tesoro, ... In November, vote no on Proposition 23, the Dirty Energy Proposition.'
p6
aS"Aug 18, 2010 - See who you know at Caltex Energy Inc., leverage your professional network, and get hired. ... Join LinkedIn to get the latest news, insights, and opportunities from over 3 million companies. It's free! ... Caltex Australia; Caltex Resources Ltd. Chevron; Shell; Total; Velvet Energy Ltd. ... LinkedIn Corporation  2016."
p7
aS'Aug 17, 2010 - As a result, a number of exploration licenses have been awarded over the past five years with EnCana, ExxonMobil, Chevron, DONG, Husky Energy and Cairn ...'
p8
aS'Aug 17, 2010 - Californians Against Higher Taxes received $38 million from Chevron, $32 million from Aera Energy, a joint ... BP, Chevron, ConocoPhillips, Encana Oil & Gas, ExxonMobil and Noble Energy ... Get news, videos, tips and more from Sunlight.'
p9
aS'Aug 18, 2010 - Gregory M. Mulvany, Ndoma Ntela Chevron Overseas Petroleum Inc. San Ramon, Calif. ... International news for oil and gas professionals ... Chevron Corp. has signed a nonbinding heads of agreement with China Huadian Green Energy ... This report will provide an overview of the state-of-the-market in the energy sector.'
p10
a.