(lp0
S'Aug 18, 2010 - producing energy and oranges ... chevron steamflooding produces oil and distributes water to farmers. In Kern County ... 2001  2016 Chevron Corporation.'
p1
aS'Aug 19, 2010 - Petroleos de Venezuela SA has a 61% stake in the block and Chevron Corp. has 39%. ConocoPhillips was ... International news for oil and gas professionals ...'
p2
aS'Aug 19, 2010 - But I recently spoke with a small Texas firm, called Texas Energy Network, that ... Sign up for our FREE newsletter for more news like this sent to your inbox! ... the power distributors and the owners, I.e. Duke Energy or Chevron and the likes.'
p3
aS'Aug 18, 2010 - DOW JONES, A NEWS CORP COMPANY ..... Today, the 10 largest dividend payers in the U.S. are AT&T, Exxon Mobil, Chevron, Procter & Gamble, Johnson ...'
p4
aS"Aug 18, 2010 - In June 2010 Cheniere's subsidiary Cheniere Energy Partners, L.P. announced that it ... Apr 01, 2013 - Yokogawa Electric Corporation announced Friday that it has been selected .... Praxair Develops Nitrogen Supply System for Chevron, Total"
p5
aS'Aug 19, 2010 - The prized 2.5bn barrel three-field complex was awarded this year to Cnooc Ltd, the Hong Kong-listed unit of China National Offshore Oil Corp, and state-run ...'
p6
aS'Aug 20, 2010 - Energy. Financial. Foundations/Public Interest/Universities. Government. Health Care/ ... Corporation for Public Broadcasting ... U.S. News & World Report Viacom ... Chevron Coca-Cola Enterprises, Inc. Cole-Haan Constellation Brands'
p7
aS'Aug 18, 2010 - #9, RBC Callable Reverse Convertible Notes, due June 10, 2013 (Linked to Chevron Corporation), 78008SBY1. #10, RBC Callable Reverse Convertible Notes, ...'
p8
aS'Aug 19, 2010 - MEDIA COVERAGE (OVER 100 NEWS STORIES) AND BOOKS (NEARLY 40) CITING ... ARGUS FSU ENERGY ARTICLE: Shell weights its options: 27 Oct 2006 ..... COM ARTICLE: Chevron A Safer Bet Than Shell: 13 April 2015 ..... positions in the Presidency, the Nigerian National Petroleum Corporation (NNPC), and the ...'
p9
aS'Aug 19, 2010 - News Front Page; SECTIONS; Army National Guard  Army Reserve  Community Relations  Current Operations  Energy  Environment  Health  Human ...'
p10
a.