(lp0
S'Aug 23, 2010 - News & Analysis  News & ... Energy and climate change became major issues for both groups following the Democratic sweep of the congressional mid-year elections in 2006. ... ConocoPhillips, Chevron Corp, ExxonMobil and U.S. petroleum ...'
p1
aS'Aug 23, 2010 - International News for oil and gas professionals. ... Woodside Energy Ltd. and Chevron Corp. have announced their second separate gas finds in as many ...'
p2
aS'Aug 23, 2010 - Energy and climate change became major issues for both groups ... ConocoPhillips, Chevron Corp, ExxonMobil and U.S. petroleum .... News That Matters ...'
p3
aS'Aug 24, 2010 - Oil Industry Water Energy Sierra Nevada Drought Kern County Agriculture Farm .... Chevron Corp. reached agreement with farmers in 1994 to treat and recycle ...'
p4
aS"Aug 23, 2010 - Bonds  Currencies  Comm & Energy  Futures  Funds  Earnings ... That's what local farmers and indigenous tribes want from U.S. oil giant Chevron Corp (CVX. ... Fact box: Chevron's $27 billion Ecuador damages case. Chevron inherited the case when it bought Texaco in 2001. ... Our top news photography last month."
p5
aS"Aug 23, 2010 - While not currently as undervalued as ExxonMobil, Chevron offers the highest ... Concerns over the company's recent acquisition of XTO Energy and the ..."
p6
aS"Aug 23, 2010 - Home > News > Saudi Aramco makes twelve new appointments to Board of Directors ... former Chairman and CEO of Chevron Corporation, and Amin H. Nasser, ... Chevron into one of the world's most formidable energy companies with an ..."
p7
aS"Aug 23, 2010 - s Halliburton Energy Services and the other contractors on the well, known as the ... Royal Dutch Shell Plc's U.S. president, Marvin Odum, and Chevron Corp."
p8
aS"Aug 23, 2010 - The weekly EIA report is widely watched by the energy industry, often moving oil .... News. A superpark hides in Toronto's Don Valley, waiting to be discovered ..."
p9
aS"Aug 24, 2010 - Woodside Energy has delayed its final investment decision on the Pluto LNG ... of Woodside's mixed exploratory drilling results compared to Chevron Corp., the ..."
p10
a.