(lp0
S"Aug 26, 2010 - Learn what Chevron is doing to meet the world's growing demand for oil and ... Investors  News  Careers  Worldwide  Contact ... According to the U.S. Department of Energy, global energy demand is .... 2001 - 2016 Chevron Corporation."
p1
aS'Aug 27, 2010 - Peter J. Robertson, independent senior advisor with the Deloitte Center for Energy Solutions and a former Chevron Corp. vice president, said it was important to ...'
p2
aS'Aug 27, 2010 - News & Analysis ... This comes at a time of notable congressional scrutiny of energy- and oil industry-related issues, from ... Together, investments in ExxonMobil, Royal Dutch Shell, Chevron, ConocoPhillips and BP accounted for 54 percent of ...'
p3
aS'Aug 28, 2010 - News & Analysis ... returned a $1,000 donation to Chevron Corp. because it was made during his run for the House  and FEC rules prohibit using funds raised ...'
p4
aS"Aug 26, 2010 - Alberta's Energy Resources Conservation Board has tightened its regulations ... Its partners are Chevron Corp and Marathon Oil Co Corp with 20 percent each. ... Thomson Reuters is the world's largest international multimedia news agency, ..."
p5
aS"Aug 27, 2010 - News and information on Royal Dutch Shell Plc. ... United Press International - News. Analysis. Insight. ... Last week they blocked access to Chevron Corp.'s new ... ARGUS FSU ENERGY ARTICLE: Shell weights its options: 27 Oct 2006"
p6
aS'Aug 27, 2010 - ... of Ocean Energy Management, Regulation and Enforcement in Houston, Texas. .... Dutch Shell Plc and Chevron Corp., acquired Vastar in 2000, bringing Guide .... Minister Paolo Gentiloni said Monday, according to Italian news wire Ansa.'
p7
aS'Aug 26, 2010 - Mercer will serve as vice president of LNG and integration for Arrow Energy, ... the A$43 billion Gorgon LNG project led by Chevron Corp. and plans to become ...'
p8
aS'Aug 27, 2010 - Sign up for email updates and get the latest news about what Big Oil is up to. ... 40mpg.com  Chevron Toxico  CorpWatch Energy Pages  Exxon Secrets by ...'
p9
aS'Aug 26, 2010 - The company just bought out the 5.63% interest held by Devon Energy (NYSE:DVN) in this field development, ... Other operators with interests in this field include Chevron (NYSE:CHV), Statoil (NYSE:STO), Exxon Mobile and Hess Corporation (NYSE:HES) ... Subscribe to News To Use for the latest insights and analysis ...'
p10
a.