(lp0
S'Aug 1, 2010 - Others in the play are Hess Corp., Marathon Oil, SM Energy, Newfield Exploration, and ... Get All the Oil & Gas Financial Journal News Delivered to Your Inbox for free ... Chevron Canada Ltd., the Canadian subsidiary of Chevron Corp. (NYSE: ...'
p1
aS'Aug 2, 2010 - An Assessment of the Energy Return on Investment (EROI) of Oil Shale ... Findings show oil shale is, at best, a marginal energy source. ... E-News Signup.'
p2
aS'Aug 1, 2010 - Alba partners are operator Chevron 33.17%, Oryx U.K. Energy Co. 15.5%, Fina ... International news for oil and gas professionals ... Chevron Corp. has signed a nonbinding heads of agreement with China Huadian Green Energy Co. Ltd. for ...'
p3
aS'Aug 2, 2010 - Mobil will obtain CO2. from Shell Pipeline Corp. ... In December 1992, Chevron started CO2 injection in a McElroy field pilot project. .... Petroleum Co., is part of a 4 year project jointly funded by unit working interest owners, the U.S. Department of Energy and New Mexico. ... International news for oil and gas professionals ...'
p4
aS'Aug 2, 2010 - CGG and Spectrum Geophysical Corp. have requested preliminary authorizations to ... International news for oil and gas professionals ... Chevron Corp. has signed a nonbinding heads of agreement with China Huadian Green Energy Co. ... This report will provide an overview of the state-of-the-market in the energy sector.'
p5
aS'Aug 2, 2010 - "Gas Rush" is an occasional series about the biggest U.S. energy boom in ... Chevron and Exxon shareholder activists lose \'fracking\' proposal but stir debate.'
p6
aS'Aug 2, 2010 - Fuel Fix Headlines & Alerts (oil & gas, energy). Auto News & Listings. Real Estate News & Listings. Career News & Job Listings. SUBSCRIBER NEWSLETTERS.'
p7
aS'Aug 2, 2010 - News  Our Knowledge  Knowing Our Customers  Customer Testimonials  ISOCLEAN ... [2001 - 2016 Chevron U.S.A. Inc. All rights reserved.] Terms of Use ...'
p8
aS"Aug 2, 2010 - Iran is an energy superpower and the Petroleum industry in Iran plays an important part in it. In 2004 Iran produced 5.1 percent of the world's total crude oil (3.9 ..."
p9
aS'Aug 2, 2010 - The first day of the month brought a stream of news that reassured investors who have ... Energy companies rose as the price of oil gained on expectations that a ... ExxonMobil Corp. rose $2.26, or 3.8 percent, to $61.94, while Chevron Corp.'
p10
a.