(lp0
S'Aug 30, 2010 - Chevron Corp. is putting more emphasis on U.K. North Sea operations. ... Chevron and Ninian partners Murphy Petroleum Ltd. and Oryx U.K. Energy Co. exercised their preemptive rights to .... International news for oil and gas professionals ...'
p1
aS"Aug 30, 2010 - Chevron Nigeria Ltd.'s offshore operations comprise five offshore living platforms and .... International news for oil and gas professionals ... Chevron Corp. has signed a nonbinding heads of agreement with China Huadian Green Energy Co. ... Customer Experience Management for Energy Companies: The Path to Happy ..."
p2
aS'Aug 31, 2010 - Locate a Chevron or Texaco station or send feedback about your recent visit. ... Chevron Hallmark - Human Energy ... 2001 - 2016 Chevron Corporation.'
p3
aS'Aug 30, 2010 - ... all stock screening tools do not know about news events such as an oil spill, ... Chevron (CVX) ($74.93) is the fifth-largest integrated energy company in the world. ... this highly competitive corporation is engaged in every aspect of the oil and ...'
p4
aS'Aug 29, 2010 - The Chevron Corporation have officially authorized CC Lubricants Ltd to distribute their ... Chevron Lubricants is a premier supplier of lubricants, coolants and ...'
p5
aS'Aug 29, 2010 - Brinderson is now a wholly-owned subsidiary of Aegion Corporation. Concentrating primarily on energy projects in the private sector, Brinderson serves a broad ...'
p6
aS"Aug 30, 2010 - After playing dead on top of oil-black plastic sheets outside a Chevron office, ... to the headquarters of Chevron Energy Solutions, the oil giant's solar power arm. ... other news, 100 protesters marched down the streets of San Francisco to ..."
p7
aS"Aug 29, 2010 - zz_SUB - Subscriber Content Don't use anymore NEWS ... Mr. Jonas' IDT Corp. was a pioneer in driving down the cost of long-distance calls, becoming ... It would relieve the U.S. of the worst dependence on energy sold to us by hostile ... oil from Colorado's shale rocks to Shell, Chevron and Mr. Perry's small operation."
p8
aS"Aug 30, 2010 - Highly efficient energy systems and power plants as well as comprehensive ... NEWS. 6. News in brief. 10. Global gas wrap. 12. Funding for gas research. 14 ..... before Chevron's Gorgon and Wheatstone LNG projects go into ... Corporation."
p9
aS'Aug 30, 2010 - According to news reports as well as experts interviewed by staff, the oil industry committed ... Renewable Energy Test Facility), which provides full-scale oil spill response equipment testing .... Chevron Corporation, Annual Report (Form 10-K),.'
p10
a.