(lp0
S"Aug 31, 2010 - Chevron says it has finished drilling Canada's deepest ever exploration well off ... CVX-N Chevron Corp. Latest Price ... Chevron wins bid to explore for energy in Beaufort Sea ... News. These birds of prey help keep you safe at Toronto airport ..."
p1
aS'Aug 31, 2010 - Locate a Chevron or Texaco station or send feedback about your recent visit. ... Chevron Hallmark - Human Energy ... 2001 - 2016 Chevron Corporation.'
p2
aS"Aug 31, 2010 - Chevron Canada used the Stena Carron to carry out a 106-day drilling program northeast of St. John's. ... Chevron told CBC News that its work on the Lona O-55 prospect well wrapped up last Thursday after ... Outgoing Nalcor board chair Ken Marshall on developments at the crown corporation. ... Nalcor Energy CBC file."
p3
aS'Aug 31, 2010 - SEIA  Solar News: First Solar Projects on BLM Land Tuesday, August 31 ... Company: Chevron Energy Solutions and Solar Millennium LLC Location: Riverside ...'
p4
aS'Aug 30, 2010 - ... all stock screening tools do not know about news events such as an oil spill, ... Chevron (CVX) ($74.93) is the fifth-largest integrated energy company in the world. ... this highly competitive corporation is engaged in every aspect of the oil and ...'
p5
aS'Aug 31, 2010 - ... Corp 4.88 0.25 94.3 COP ConocoPhillips 4.18 0.55 19.7 CVX Chevron Corp 3.90 ... 0.09 17.3 CNX Consol Energy Inc 1.25 0.10 33.9 VLO Valero Energy Corp ... NWSA News Corp 1.22 0.07 23.4** DIS Walt Disney Co/The 1.08 0.35 77.4* ...'
p6
aS'Aug 31, 2010 - Back to News & Media. Climbers scale rig in freezing seas as energy giants eye Arctic oil rush ... If the Edinburgh-based company strikes oil, analysts expect a new Arctic oil rush, with Exxon, Chevron and other energy giants already buying up ...'
p7
aS'Aug 30, 2010 - Following the agreement signed with Noble Energy Mediterranean (Noble) in 2009, for the rental of the Sedco Express drilling rig, following to the seismic ...'
p8
aS'Aug 31, 2010 - ... Questar, Chevron, Sawmill Canyon, Briggs, and Kukui Operating Company. ... Red Willow was the operator of the wells with Houston Energy as our partner. ... Occidental Petroleum Corporation (OXY) and Concho Resources (CXO) are ...'
p9
aS'Aug 31, 2010 - In a very interesting news piece from India it is reported that, Indias fist Geothermal ... the aegis of the Non-conventional Energy Development Corporation of Andhra Pradesh ... Pertamina joins the bidding for geothermal assets by Chevron.'
p10
a.