(lp0
S'Aug 4, 2010 - Chevron to sell Hawaii refinery to private equity group .... Independence Energy Corporation holds three properties Warner, Taber and Diamond in Southern ...'
p1
aS'Aug 4, 2010 - Then, I was recruited by Chevron Corporation to plan, create and execute ... energy industry by visiting Chevron facilities, attending petroleum seminars, ... Advise senior station leadership on news strategy, future planning and staffing issues.'
p2
aS'Aug 4, 2010 - Energy and the Environment in the 21st Century. September ... Chevron, however, has profoundly changed over the past ... corporation . . . in both its operations and its workforce. A simple ... in the news . . . and in our respective pocketbooks .'
p3
aS"Aug 3, 2010 - ... and processes to Exxon's, says Deutsche Bank energy analyst Paul Sankey. .... In July, Exxon, Royal Dutch Shell, Chevron and ConocoPhillips announced a $1 ... consideration in the newspaper, send comments to letters@usatoday.com."
p4
aS'Aug 3, 2010 - Iraq must invest in natural gas processing and transport infrastructure before awarding contracts for three major gas fields, company executives said here on the ...'
p5
aS'Aug 4, 2010 - Two Ecofys consultants, Dr. Niklas Hhne, Director Energy & Climate Policy, and Dr. Monique Hoogwijk, ... Chevron. 101.69. +1.18%. +1.19. ConocoPhillips. 47.08. +0.04%. +0.02 .... Get All the Oil & Gas Financial Journal News Delivered to Your Inbox for free .... Copyright  2007-2016 Pennwell Corporation, Tulsa, OK.'
p6
aS"Aug 3, 2010 - Amazon Defense:Chevron Outed for Corporate Espionage Spy Scandal in Ecuador's Amazon Rainforest/Atlantic Magazine Exposes Offer to Journalist to."
p7
aS'Aug 3, 2010 - The authors thank the management of Pertamina in Jakarta, Department of Energy of the Republic of Indonesia, ... in Jakarta, Chevron Corp. in San Francisco, Amerada Hess Corp. in Tulsa, .... International news for oil and gas professionals ...'
p8
aS"Aug 4, 2010 - The best news: The Fiesta gives a good drive. .... ConocoPhillips and Chevron Corp. have already abandoned some Gulf prospects because they wouldn't be ..."
p9
aS'Aug 3, 2010 - GE and Lake Erie Energy Development Corporation Announce Great Lakes Offshore Wind Partnership ... SOLAR  TECHNOLOGY NEWS .... Chevron Energy Solutions and San Dieguito Union High School District Announce 2 MW Solar ...'
p10
a.