(lp0
S'Aug 5, 2010 - Mr. MacInnis said Chevron would be "at the table" as the National Energy Board conducts its review, ... Nellie Cournoyea, chief executive officer of the Inuvialuit Regional Corp. ... News. Woman pleads not guilty to live-streaming friend\'s rape ...'
p1
aS'Aug 6, 2010 - Oil companies: Apache Corporation stock prices, news and trends for oil and gas investors. Oil and Gas Financial Journal, the source for oil company investment news and stocks. ... Energy Players ... Chevron. 101.69. +1.18%. +1.19. ConocoPhillips. 47.08. +0.04%. +0.02. Occidental Pet. 75.07. +0.28%. +0.21. Apache.'
p2
aS'Aug 7, 2010 - Home  News  Magazine ... to foreign investment in energy, a strategic sector for Russia," President Putin told the International Economic Forum in 2012.'
p3
aS'Aug 6, 2010 - Lou Ann Hammond has a work history in the energy and transportation field. Starting with Chevron Corp. in finance and accounting from 1978 to 1986.'
p4
aS'Aug 5, 2010 - Get detailed financial information on Flyers Energy, LLC () including real-time stock quotes, ... The company is also a wholesale distributor to retail and wholesale customers for Valero, Chevron, and Shell. ... PILOT CORPORATION, Private ...'
p5
aS'Aug 6, 2010 - Nova Scotia Department of Energy. Chevron plans to drill an oil well in 2,600m of water and 4,150m below the ea floor. The BP Horizon ... Racing News, 2010.'
p6
aS'Aug 5, 2010 - The first event was bad news for future U.S. Arctic development (and perhaps for ... by other Arctic nations), while the second was good news for energy development. ... The fact that ExxonMobil, Chevron, Shell and ConocoPhillips are putting ...'
p7
aS'Aug 7, 2010 - In September 1991, Chevron Nigeria Ltd. and Nigerian National Petroleum Corp. .... International news for oil and gas professionals ... Chevron Corp. has signed a nonbinding heads of agreement with China Huadian Green Energy Co. ... Customer Experience Management for Energy Companies: The Path to Happy ...'
p8
aS"Aug 6, 2010 - Chevron.com  News ... Global Technology Centre  Chevron's Energy Technology Company  Energy Industry ... In 2011, the Chevron-operated Wheatstone Project welcomed environmental approval ... Chevron Australia is committed to seeing the Wheatstone Project developed in an .... 2001 - 2016 Chevron Corporation."
p9
aS"Aug 5, 2010 - NEW YORK, Aug 5 (Reuters) - Chevron Corp (CVX.N: Quote) urged a federal appeals court not to force it into Ecuador's courts to defend a $27.4 billion lawsuit ..."
p10
a.