(lp0
S"Sep 20, 2010 - Chevron Corporation (NYSE:CVX) announced today that its Turkish subsidiary has ... Chevron is one of the world's leading integrated energy companies, with ..."
p1
aS'Sep 20, 2010 - REGIONAL NEWS ... Chevron Corporation announced that its Turkish subsidiary has signed a Joint Operation Agreement with ... Follow Offshore Energy Today.'
p2
aS'Sep 21, 2010 - Home  News  Feature Stories; Activists stop Chevron deepwater drilling ship off the ... The ship is operated by oil giant Chevron and was due to sail for a site 200km north ... deep water drilling rig operated by Edinburgh-based Cairn Energy.'
p3
aS'Sep 20, 2010 - Chevron Vice President Jay Pryor has met in New York with the Turkmen President ... and review them with a view to long-term programs to develop and modernize the energy secto in the country. ... Contact our journalist at news@trend.az'
p4
aS'Sep 21, 2010 - Details: Category: News: Published: 21 September 2010 ... Additionally to Cairn Energy, Exxon Mobil Corp and Chevron Corp also own rights in Greenland.'
p5
aS'Sep 20, 2010 - Eric Smith, associate director of Tulane Energy Institute in New Orleans, said regulators ... Major oil companies including Exxon Mobil Corp., Chevron Corp. and ...'
p6
aS'Sep 20, 2010 - "Chevron\'s investment in the CEED program has given us an insight into the pool of talent available ... Current project partners include Woodside Energy, Water Corporation, Main Roads WA, ... Published in UWA News, 20 September 2010 ...'
p7
aS'Sep 20, 2010 - Oil companies: Boots and Coots Services stock prices, news and trends for oil and gas investors ... Chevron. 101.40. -0.29%. -0.29. ConocoPhillips. 46.23. -1.81%. -0.85 ... On September 19, Chesapeake Energy Corp.announced the executive ...'
p8
aS"Sep 21, 2010 - That's the news for our energy future and for the future of great-power politics on ... of California, became Chevron - today, the third richest American corporation."
p9
aS'Sep 20, 2010 - And Dow Jones component Chevron (NYSE: CVX ) is barely keeping pace with the ... Lucas Energy (AMEX: LEI ) is an independent oil and gas company.'
p10
a.