(lp0
S'Sep 27, 2010 - Chevron Corp., ConocoPhillips, ExxonMobil Corp., and Royal Dutch Shell PLC pooled $1 .... Gran Tierra Energy Inc. will pay $22.6 million to Alvorada Petroleo SA to receive a .... Get All the Oil and Gas Journal News Delivered to Your Inbox.'
p1
aS'Sep 27, 2010 - See full data on how much energy companies and trade associations spent on oil ... ConocoPhillips (2), Chevron (3), BP (5), Koch Industries (6), and Shell (7).'
p2
aS'Sep 27, 2010 - Chevron first in line to explore two north Atlantic prospects, with BP to follow. ... The environmental group fears the Department of Energy and Climate Change (Decc) could make a decision as early as tomorrow for the first wells ... More news ...'
p3
aS"Sep 27, 2010 - Posted by ENS in Latest News on September 27, 2010 5:24 am / no comments ... Chevron's lawyers argued successfully that the pod hanging on the Stena Carron's ... and the world needs to move beyond oil to cleaner sources of energy."
p4
aS'Sep 27, 2010 - Energy News ... "Chevron North Sea appeals to Greenpeace to end its new protest at the Stena Carron while it is going about its lawful ... Newcastle Port Corp. estimated that Newcastle\'s coal exports would reach 10 million tons for this month.'
p5
aS'Sep 27, 2010 - Four Greenpeace environmental campaigners swim out in front of a giant oil drilling ship, operated by the US energy giant Chevron, in open seas in an effort to ...'
p6
aS'Sep 27, 2010 - Agusan Petroleum and Minerals Corporation, an affiliate of San Miguel ... Miguel has several coal interests through its energy unit, San Miguel Energy Corporation which .... Posted in Manila Bulletin News, tagged San Miguel on September 7, 2010 .... The other companies are Chevron Philippines, PNOC-Exploration Corp., ...'
p7
aS'Sep 27, 2010 - According to a news report, the U.S. Court of Appeals for the Federal Circuit rejected an ..... In late 2006, Shell and its partners in Sakhalin Energy reached an agreement with ...... COM ARTICLE: Chevron A Safer Bet Than Shell: 13 April 2015 ...'
p8
aS"Sep 27, 2010 - Think GeoEnergy  Geothermal Energy News ... Chevron geothermal power plant Tiwi, Albay, Philippines (source: flickr/sherwin_magayanes) ... Reported from the Philippines, AboitizPower Corp., the Aboitiz family's holding firm for ... that it is already supplying clean energy to San Fernando Electric Light and Power Co."
p9
aS'Sep 27, 2010 - NREL and Chevron Corp. are collaborating to develop techniques to improve the ... National Laboratories. Details can be found at apps1.eere.energy.gov/news/.'
p10
a.