(lp0
S'Sep 29, 2010 - Daily news for the downstream oil and gas industry providing coverage of events ... According to Chevron, the Energy and Hydrogen Renewal Project involves four steps. ... Mar 11, 2008 - Executives with Chevron Corp. said Tuesday that the ...'
p1
aS"Sep 29, 2010 - The U.S. Office of Fossil Energy's National Energy Technology Laboratory will ... oil in U.S. fields is estimated at 35 percent, according to the news release. ... 30 years of experience in drilling research for companies such as Chevron Corp."
p2
aS'Sep 28, 2010 - Get All the Oil & Gas Financial Journal News Delivered to Your Inbox for free ... Swift Energy Co. and Petrohawk Energy Corp. will jointly develop and operate an ... Chevron Australia starts gas production from $2.1B onshore LNG facility.'
p3
aS'Sep 28, 2010 - US oil giant Chevron wins injunction ordering protest group to stop direct action preventing ... Then four Greenpeace climbers scaled a Cairn Energy drilling platform and ... 2016 Guardian News and Media Limited or its affiliated companies.'
p4
aS'Sep 29, 2010 - ... ship 100 miles off Shetland after oil company Chevron wins a second court order. ... Cairn Energy strikes oil off Greenland ... From other local news sites ...'
p5
aS'Sep 28, 2010 - Punj Lloyd (India); Italian-Thai Development (Thailand); Excelerate Energy (US); ... Mitsui & Co/JGC Corporation (Japan); Chevron (US); IHI Corporation (Japan)'
p6
aS'Sep 28, 2010 - Clean energy and climate legislation would create jobs and stimulate the growth of ... ConocoPhillips (2), Chevron (3), BP (5), Koch Industries (6), and Shell (7).'
p7
aS"Sep 28, 2010 - Activists seeking to condemn Chevron Corp. ... far  from mainstream media and wire stories to ad industry and energy outlets to political blogs. ... News' The Upshot: 'New Chevron 'We Agree' ad campaign hijacked by anti-corporate tricksters'"
p8
aS"Sep 28, 2010 - The PetroSkills Alliance consists of over twenty global energy companies and is ... Mr. Dowdell, a founder of Career Education Corporation, which grew from a ... the world's largest energy companies, including BP, Shell, Chevron, Halliburton, ... NEWS  CONTACT. COPYRIGHT 2010 -2016. BV INVESTMENT PARTNERS."
p9
aS"Sep 28, 2010 - Sharp Electronic Corporation is growing it's presence in the U.S. solar market. ... Together with Eurus Energy America and NRG Solar, we are turning land that once ..... Posted in Biodiesel, bioenergy, biofuels, Cellulosic, Ethanol, News, Opinion ... ConocoPhillips (2), Chevron (3), BP (5), Koch Industries (6), and Shell (7)."
p10
a.