(lp0
S"Sep 1, 2010 - Chevron Corp (CVX.N)has finished drilling Canada's deepest-ever offshore well, aproject that became the target of heightened scrutiny after theBP Plc (BP."
p1
aS'Sep 1, 2010 - +0.59. Chevron. 101.69. +1.18%. +1.19. ConocoPhillips. 47.08. +0.04%. +0.02 ... Notable energy industry figure Matt Simmons dead at 67 ... Occidental Petroleum Corp. has made changes in executive management, naming James M. Lienert .... Get All the Oil & Gas Financial Journal News Delivered to Your Inbox for free.'
p2
aS"Sep 1, 2010 - WRA report examines the adverse effects to Utah's water, air, energy, and local ... Spring  Stopping Red Leaf  Stopping Tom Co  Chevron Tar Sands & Water Use ... Tar sands and oil shale would be among the most carbon intensive energy sources, further contributing to climate change. ... Sign Up For E-News & Updates ..."
p3
aS"Sep 1, 2010 - The govt has selected one of the world's largest oil companies, Chevron, as lead ... A team from the Chevron Corporation has concluded a fact-finding mission in ... news organizations and our own reporters to an African and global public."
p4
aS'Sep 2, 2010 - ConocoPhillips and Chevron Corp. have already abandoned some Gulf ... An analysis conducted by consulting firms Quest Offshore and Blade Energy Partners ...'
p5
aS"Sep 1, 2010 - A logo sign outside of the headquarters of the Peabody Energy Corporation, in St. ... Chevron, the second-largest U.S. oil company, was forced to lease ... That's bad news for the towns' non-resources workers, who earn about a third of the ..."
p6
aS'Sep 2, 2010 - Britain faces an energy challenge in the coming decades which is unprecedented, and all the more formidable for being double-faced. It would be bad enough if ...'
p7
aS'Sep 1, 2010 - Get All the Oil and Gas Journal News Delivered to Your Inbox ... Chevron Corp. has started LNG and condensate production at the Gorgon project on Barrow ... Customer Experience Management for Energy Companies: The Path to Happy ...'
p8
aS'Sep 1, 2010 - Ophir Energy has contracted the new deepwater semi Maersk Deliverer to ... According to a report by Iranian news service Shana, construction of the ... Chevron has discovered more gas in the Exmouth Plateau area of the Carnarvon basin off Western Australia. ..... Copyright  2007-2015 PennWell Corporation, Tulsa, OK.'
p9
aS'Sep 1, 2010 - Bridge Energy and Silverstone merged in March to become Bridge Energy UK. Dana Petroleum acquired the Netherlands assets of PetroCanada, ...'
p10
a.