(lp0
S'Sep 3, 2010 - ... Li-Ion Battery Electrolyte Solutions https://t.co/EJSg3LER4W | More News ... socially responsible automotive issues related to energy, the environment and safety. ... Tesla Motors; five energy companies  BP America, Chevron Corporation, ...'
p1
aS'Sep 3, 2010 - A federal judge has upheld a slander suit brought by a fired Chevron USA ... California; Employment; Energy ... BP p.l.c.; Chevron Corporation; ConocoPhillips ...'
p2
aS'Sep 2, 2010 - ConocoPhillips and Chevron Corp. have already abandoned some Gulf ... An analysis conducted by consulting firms Quest Offshore and Blade Energy Partners ...'
p3
aS"Sep 3, 2010 - The Houston Chronicle's energy news blog  and really all of our energy news and information  will be relocating to a new online home starting today: ..."
p4
aS'Sep 2, 2010 - Britain faces an energy challenge in the coming decades which is unprecedented, and all the more formidable for being double-faced. It would be bad enough if ...'
p5
aS'Sep 2, 2010 - An explosion occurred on the morning of Sept. 2 at a fixed platform operated by Mariner Energy in Vermilion Block 380 offshore Louisiana.'
p6
aS'Sep 2, 2010 - Chevron. 97.51. +2.38%. +2.27. ConocoPhillips. 43.47. +5.54%. +2.28 .... NBH/Panoro Energy ASA is an international independent oil & gas company with offices in Rio de Janeiro, ..... Get All the Oil & Gas Financial Journal News Delivered to Your Inbox for free .... Copyright  2007-2016 Pennwell Corporation, Tulsa, OK.'
p7
aS'Sep 4, 2010 - Current Winners  Previous Winners. With real Core Values we create a culture that people enjoy being part of. Home > News & Events > Media Centre.'
p8
aS'Sep 3, 2010 - Chevron is one of the world\'s largest integrated energy companies. ... It subsequently took on the name "Chevron when it acquired Gulf Oil Corporation in 1984, .... Nyuan Bayjay - Monrovia Liberia JENKINS SCOTT IS DEAD, BURIED: News ...'
p9
aS'Sep 3, 2010 - A Taste of Colorado to Feature Hydrogen Vehicle and Alternative Energy Exhibit ... No deaths or serious injuries were reported, The Buffalo News said. ...... and the Beijing Public Transportation Corporation and Beijing Bashi Corporation ... known firms: HP, Columbia Chemical, Phelps Dodge, Chevron, Apple, AT&T, IBM.'
p10
a.