(lp0
S'Sep 7, 2010 - Oil company Chevron Corp. has invested in Solazyme. And Exxon Mobil Corp. last year announced a $600 million algae program with Synthetic Genomics Inc., ...'
p1
aS"Sep 7, 2010 - Chevron is also a partner with China National Petroleum Corporation in an onshore ... Chevron is one of the world's leading integrated energy companies, with ..."
p2
aS'Sep 7, 2010 - Project description. Bayou Casotte Energy LLC, a wholly owned Chevron subsidiary, filed for regulatory approval with FERC for the Casotte Landing Project in ...'
p3
aS'Sep 6, 2010 - Production. Reserves Production. 1 BP PLC. (w). 309.0. 3,073.0. 237.0. 2 OCCIDENTAL PETROLEUM CORP. (w). 93.7. 1,606.0. 99.0. 3 CHEVRON CORP. (w).'
p4
aS'Sep 7, 2010 - Chevron persuaded a U.S. federal judge last month to grant a subpoena of ... Health  Education  Video  News Blogs  Sponsored: CA Clean Energy .... Pablo Fajardo before a news conference in San Francisco, Calif. on Tuesday, April 24, 2007. ... Mired in a $27 billion environmental lawsuit in Ecuador, Chevron Corp. has ...'
p5
aS'Sep 6, 2010 - Aspen Exploration Corp. and Dominion Energy Inc. no longer appear in the compilation .... Chevron leads the OGJ150 firms in US production of crude, condensate, and NGL with ... Get All the Oil and Gas Journal News Delivered to Your Inbox.'
p6
aS'Sep 7, 2010 - Chevron Corp. selected Mustang, a Wood Group company, for doing the detail design ... Get All the Oil and Gas Journal News Delivered to Your Inbox ... The US Bureau of Ocean Energy Management proposed new air-quality requirements ...'
p7
aS'Sep 7, 2010 - ... with Chevron China (Chevron), BP China (BP) and Devon Energy Corporation (Devon) for deepwater blocks 42/05, ... Pingback: World Wide News Flash.'
p8
aS'Sep 7, 2010 - DOW JONES, A NEWS CORP COMPANY ..... Oil company Chevron Corp. ... Sapphire Energy Inc., a key algae player focused on "green crude production," is ...'
p9
aS'Sep 7, 2010 - dit le 07/09/2010 - Plus de news de "Engen" - Voir la fiche entreprise de "Engen" ... Reunion and Zimbabwe, as well as the assets of Chevron in Mozambique. .... Ansaldo Energia, ANTARGAZ, APACHE, Aquaterra Energy, ASCO, ATKINS .... Industries Compressor Corporation and Mitsubishi Hitachi Power Systems to ...'
p10
a.