(lp0
S"Sep 8, 2010 - Chevron has been granted approval by the Liberian government to acquire a 70 ... Upstream oil and gas news for exploration and production professionals ... 'We are very pleased to participate in Liberia's emerging energy sector,' said ..."
p1
aS'Sep 9, 2010 - An Idaho gas wholesaler has filed suit against Chevron USA Inc., alleging that the oil giant violated antitrust laws and interfered with contracts by giving ...'
p2
aS'Sep 8, 2010 - The News  Contact Us ... The Claimant Parties brought their Energy Charter Treaty claim after Kazakhstan seized .... such as ExxonMobil, Royal Dutch Shell, BP, Chevron Corporation, ConocoPhillips and Total S.A., operating in Kazakhstan.'
p3
aS"Sep 8, 2010 - News in Focus .... of Ascom's investments in Kazakhstan, in direct contravention of the international Energy Charter Treaty. .... such as ExxonMobil, Royal Dutch Shell, BP, Chevron Corporation, ConocoPhillips and Total S.A., all of which have ..."
p4
aS'Sep 9, 2010 - More Details for Gross Energy Corporation ... Chevron Corporation ... With the latest News & Advice from Manta, you can stay ahead of the trends and ...'
p5
aS'Sep 9, 2010 - Venture Executive at Chevron Technology Ventures ... Unocal Corp ... Finance Plus: Private Equity, Venture Capital and M&A news  Energy Professionals ...'
p6
aS"Sep 9, 2010 - Home / News / Chevron to expand West Africa presence with entry to Liberian ... We are very pleased to participate in Liberia's emerging energy sector, said ..."
p7
aS'Sep 9, 2010 - Department of Energy an application for blanket authorization to export LNG for a ... Chevron is a Pennsylvania corporation with its principal place of business in ...'
p8
aS"Sep 8, 2010 - Even LinkedIn Corp., the Mountain View professional social network, now gives ... Numerous news stories referred to Glassdoor's report that at 34 percent, Hurd ..."
p9
aS'Sep 8, 2010 - Innovation, Renewable Energy, and Macroeconomic Growth. Peter R. Hartley, Ph.D., ... Chevron Corporation. ConocoPhillips ...... news release, August 6, 2010, ...'
p10
a.