(lp0
S'VLO | Barchart Opinion for Valero Energy Corp - Barchart.com'
p1
aS'Apparent suicide at downtown clinic - San Antonio Express ...'
p2
aS'Valero Texas Open Final Day - San Antonio Express-News'
p3
aS'Mass honors Gomez for his service to S.A. - San Antonio ...'
p4
aS'Breaking News - Explosion at Lyondell plant in SW Houston ...'
p5
aS'Steering Committee - UT College of Liberal Arts'
p6
aS'Some refineries earn inspection exemption - Beaumont ...'
p7
aS'Iran makes nuclear offer, but West unconvinced | Reuters'
p8
aS'Israel Fears Iran Nuclear Deal Will Delay UN Sanctions ...'
p9
aS'Iran uranium deal met with suspicion in West - Telegraph'
p10
a.