(lp0
S"Home energy audits: Doctor's checkups for a house - San ..."
p1
aS'Perez family mourns those lost to crash - San Antonio ...'
p2
aS"UIW's Rios ready to fight for job - San Antonio Express-News"
p3
aS'Couple accused of beating, kidnapping and robbing woman ...'
p4
aS'[PDF]\nAugust 2010 Issue - Pipelinejobs'
p5
aS'Cash Grain Bids - Markets | Agweb.com'
p6
aS'Value Investing: The Case for Oil Refining Stocks  XOM ...'
p7
aS'Mortgage Refinancing: Rumors of News; News of Rumors ...'
p8
aS'POP goes the Pointsmith signs - Houston Business Journal'
p9
aS'J & C Tower Service - Manta'
p10
a.