(lp0
S'Chevron to Cut Refining Jobs in Restructuring - WSJ'
p1
aS"UPDATE 1-Chevron's Richmond refinery likely to close ..."
p2
aS'mySouTex.com - Valero Energy Corporation celebrates 30 ...'
p3
aS'Conoco Phillips Alliance RFNRY Belle Chasse LA, 70037 ...'
p4
aS'Learning to Love Roadkill | East Bay Express'
p5
aS'Learning Medicine the Cuban Way | East Bay Express'
p6
aS'Care Packages Make All the Difference | Article | The United ...'
p7
aS'Thomson Reuters CRB Energy Producers Index'
p8
aS"Tears of joy: CNN's uplifting Haiti story of S.A. mom, kids ..."
p9
aS'Anglican Church in lawsuit limbo - Standard-Times'
p10
a.