(lp0
S'BP Spill Threatens Gulf of Mexico Oil, Gas Operations ...'
p1
aS'Frost president for S.A. named - San Antonio Express-News'
p2
aS'Parents sue over death of their son - San Antonio Express ...'
p3
aS'Rough start to a new life - San Antonio Express-News'
p4
aS'IRDA will launch vehicle insurance tracking system | TopNews'
p5
aS'IRDA asks Maruti to make changes in the Insurance biz ...'
p6
aS'The Big 4 - Golf Digest'
p7
aS'Wild Weekly Wrap Up: Cash Is King | Seeking Alpha'
p8
aS'Solo Debut for Flamenco Dancer Rebeca Tomas - NewsBlaze'
p9
aS'HISD auctions off buses, fridges, other items | Texas Watchdog'
p10
a.