(lp0
S"Investor O'Malley Seeks Hat Trick in Return to U.S. Oil ..."
p1
aS'EnSys Energy Netbacks Archives | EnSys Energy'
p2
aS'PBF to Acquire Delaware City Refinery | Business Wire'
p3
aS'Snus News & Other Tobacco Products: C-store owner ...'
p4
aS'Mexicans facing reduced U.S. visa limits - San Antonio ...'
p5
aS'Blind Marine re-enlists - San Antonio Express-News'
p6
aS'IRS warns public about unscrupulous tax preparers - San ...'
p7
aS'Off-duty S.A. officer arrested after crash - San Antonio ...'
p8
aS'Texas oil firms oppose California climate law - USA Today'
p9
aS'Extracting Minerals from Seawater: An Energy Analysis'
p10
a.