(lp0
S'California Braces for Showdown on Emissions - The New ...'
p1
aS'Refiners Campaign Against Greenhouse-Gas Law - WSJ'
p2
aS'Oil Watchdog | Archive | Valero'
p3
aS'Texas olive growers juiced up - San Antonio Express-News'
p4
aS'Clark Refining Ohio | Mesothelioma and Asbestos Jobsites'
p5
aS'Orion Refining | Mesothelioma and Asbestos Jobsites'
p6
aS'French nationals among seven workers kidnapped in Niger ...'
p7
aS"A seance with Errol Morris | Roger Ebert's Journal | Roger ..."
p8
aS'Eat like Steve Nash - NBC Sports'
p9
aS'Petrol d.d. Ljubljana company : Shareholders, managers ...'
p10
a.