(lp0
S'Valero Rewards Club - Convenience Store News'
p1
aS'Santa Barbara Weighs In for Clean Energy'
p2
aS'Chocolate career worth waiting for - San Antonio Express ...'
p3
aS"Slain man's daughter grieves for him, her siblings - San ..."
p4
aS'A sea of glass - San Antonio Express-News'
p5
aS'Preventing graffiti through art - San Antonio Express-News'
p6
aS'US Organizational Culture Articles - HRM Guide USA'
p7
aS'[PDF]\nHardening and Resiliency: US Energy Industry Response to ...'
p8
aS'The dangerous reality of climate change justifies global ...'
p9
aS"Ballard Spahr Moves NJ Office to Cherry Hill's Woodland Falls"
p10
a.