(lp0
S'CPS Energy fires three employees - San Antonio Express ...'
p1
aS'Texas on a deadly pill-popping bender - San Antonio ...'
p2
aS'<p>Lorne Chan</p> 397991 - San Antonio Express-News'
p3
aS'World Fuel Services Corp (INT.N) Quote| Reuters.com'
p4
aS'Keystone XL stories: Karla Land - Updates: news releases ...'
p5
aS'Dreaming of a vintage Christmas - Standard-Times'
p6
aS'Best Buy, Worst Day - Yahoo'
p7
aS'[PDF]\nAnnual Report - Environment America'
p8
aS'Toph Peterson | Golf Channel'
p9
aS"Jane Lynch To Record For 'The Simpsons' | TopNews"
p10
a.