(lp0
S'Valero now selling E85 fuel - San Antonio Express-News'
p1
aS'Interim CPS boss rewarded - San Antonio Express-News'
p2
aS'Private Equity Loses Fund Commitments as Tony James ...'
p3
aS"Kroger expands customers' gas rewards to Shell | Dallas ..."
p4
aS"Weathernews on the Forbes Asia's 200 Best Under A Billion ..."
p5
aS'AXP  American Express | Corporate Bond  Yields, Rates ...'
p6
aS'Anti-Prop 23 campaign taps out-of-state donors | Grist'
p7
aS'Gas Pump Programmed To Say "An American Company. No ...'
p8
aS'Three Birmingham clergymen exiled before papal visit ...'
p9
aS'[PDF]\nJuly 2010 Monitor - the Louisiana Section of the A&WMA'
p10
a.