(lp0
S'DownstreamToday.com - News and Information for the ...'
p1
aS'Valero oil refinery to link to Cushing hub soon | Reuters'
p2
aS'Ex-teacher gives $22 million to UTSA - San Antonio Express ...'
p3
aS'Why Do Texas Energy Companies Hate California?'
p4
aS"Report Highlights Prop. 23 Backers' Pollution History - The ..."
p5
aS'LED Associates - LED Lighting News'
p6
aS'Marathon sells Minn. facilities for $900M - StarTribune.com'
p7
aS"No on Prop 23 campaign takes in $5 million to oil industry's ..."
p8
aS'A stronger Sun actually cools the Earth - Telegraph'
p9
aS'Who Is Tesoro? | Sightline Institute'
p10
a.