(lp0
S"PBF Energy Agrees to Buy Sunoco's Toledo Refinery ..."
p1
aS'UPDATE 2-Sunoco to sell Toledo refinery to PBF | Reuters'
p2
aS'Sunoco to sell Ohio refinery, shed 175 jobs - philly-archives'
p3
aS'Baker Botts LLP'
p4
aS"Karnes' newly rich get wealth of advice - San Antonio ..."
p5
aS'Sea World lays off 17 in San Antonio - San Antonio Express ...'
p6
aS'Brooks Discovery - San Antonio Express-News'
p7
aS'Trainer helps seniors stay strong - San Antonio Express-News'
p8
aS'Oil Watchdog | Archive | Occidental'
p9
aS'PETROCHEMICALS - Oil & Gas Journal'
p10
a.