(lp0
S'Valero taking several paths with renewable energy - San ...'
p1
aS'New danger in sky over the border? - San Antonio Express ...'
p2
aS'Churchill charging into the future - San Antonio Express-News'
p3
aS'ThirdQuarter 2010 - Solar Times'
p4
aS'[PDF]\nmidstreamnews - PLS'
p5
aS'A Texas oil company is pumping money into California to ...'
p6
aS"High Times Medical Cannabis Cup in SF Is Cool, But It Ain't ..."
p7
aS"Big Oil's Hazardous Landscape on AB 32 Repeal  Calbuzz"
p8
aS'Oil Watchdog | Archive | Conoco'
p9
aS'Joan Rivers: A Piece of Work Movie Review (2010) | Roger ...'
p10
a.