(lp0
S'Schertz honors, mourns employee - San Antonio Express ...'
p1
aS'Burbank grad becomes acclaimed chef - San Antonio ...'
p2
aS'Tax scheme nets S.A. man prison term - San Antonio ...'
p3
aS'NuStar Energy fined for lacking plan to contain oil spills ...'
p4
aS'Dharmendra admitted to hospital for chest pain | TopNews'
p5
aS'Videocon and its big telecom dreams | TopNews'
p6
aS'L&T wins ONGC project worth Rs.1,013 crore | TopNews'
p7
aS'Sony MGS Peace Walker to hit stores | TopNews'
p8
aS'Boxers from India clicked at CW championship | TopNews'
p9
aS'Electric cars and 40 new nuclear power stations to meet ...'
p10
a.