(lp0
S'Making Money with Mobile Workforce Management - Pipeline'
p1
aS"Refining Weakness Hurts Shell's Results - WSJ"
p2
aS'Valero Energy Stock Ticker Symbol and Information ...'
p3
aS'Lotto luck pays off in custom chopper - Standard-Times'
p4
aS'Aurobindo Pharma Receives Nod For Anti  Allergic Drug ...'
p5
aS'Aishwarya Rai Bachchan Is The Highest Paid Actress In ...'
p6
aS'Uhlaender Overcomes Tragedy, Injury to Make US Skeleton ...'
p7
aS'Valve Company Expands On Artesia | | gazettes.com'
p8
aS'[PDF]\nU.S. Refinery Benzene Emissions Increase in 2008:'
p9
aS'India forms new climate change body - Telegraph'
p10
a.