(lp0
S'A go-to guy now is going nowhere in Bexar jail cell - San ...'
p1
aS'Oil spill may benefit Texas - San Antonio Express-News'
p2
aS'Deadly, ultra-pure heroin arrives in U.S. - San Antonio ...'
p3
aS'Sexy drinks for the city - San Antonio Express-News'
p4
aS'Bunkerworld Directory - Port - Corpus Christi'
p5
aS"Bob's Auto Norwood NY, 13668  Manta.com"
p6
aS"US oil, gas firms' 1Q earnings rebound from year-earlier loss ..."
p7
aS'Oil Watchdog | Archive | May'
p8
aS'New golf event to raise money for charity'
p9
aS'Who supplies the gasoline for HEB Gas Stations? | Austin | Yelp'
p10
a.