(lp0
S'Biofuel Firms Seek New Life Amid Changes - Memphis ...'
p1
aS'In Depth: Outlook and Perspective - Ethanol Producer ...'
p2
aS'Plants in Transition - Ethanol Producer Magazine  The ...'
p3
aS'Time to Stop Subsidizing Ethanol - Huffington Post'
p4
aS'Sunoco Ethanol Fuel Plant - Chemicals Technology'
p5
aS"America's Dirtiest Cities - Forbes"
p6
aS'Doctor sues Fresenius over her dismissal - San Antonio ...'
p7
aS'Former president of Trinity among highest paid - San ...'
p8
aS'4 firefighters injured when fire truck flips - San Antonio ...'
p9
aS'China Debuts New Passenger Jet - VOA'
p10
a.