(lp0
S'Valero Energy Corp. (VLO) Earnings - StreetInsider.com'
p1
aS'Former mayors focuson better education - San Antonio ...'
p2
aS'San Antonio a dumb city? - San Antonio Express-News'
p3
aS'Greens Vs. Big Oil and Prop. 23 | L.A. Weekly'
p4
aS'Arnold Schwarzenegger flexes muscles to defend climate ...'
p5
aS'Oil Watchdog | Tag Archive | profiteering'
p6
aS'here. - Flyers Energy, LLC'
p7
aS'New Recycling Carts Roll into Berkeley | East Bay Express'
p8
aS"This election isn't just red vs. blue, it's California vs. Texas: W..."
p9
aS'Alisto Engineering Group, Inc. | LinkedIn'
p10
a.