(lp0
S'VLO Analyst Opinion | Valero Energy Corporation Commo ...'
p1
aS'Shareholder Overview for VLO Valero Energy Corp ...'
p2
aS"Boxer's deaths leaves questions in Venezuela ..."
p3
aS'Boxer Valero kills himself in jail, police say ...'
p4
aS'edwin-valero Topic | ABS-CBN News'
p5
aS'Boxer Edwin Valero commits suicide in jail after stabbing ...'
p6
aS'The Resurrection Business  The Site Selection Energy ...'
p7
aS'20 biggest money losers - 13. MetLife (13) - FORTUNE'
p8
aS'20 biggest money losers - 5. Symantec (5) - FORTUNE'
p9
aS'Edwin Valero Found Dead In Jail Cell On Day of ...'
p10
a.