(lp0
S'Less oil, more corn -- Valero Energy is milking the ethanol ...'
p1
aS'U Force Private Brand Energy From Valero - My Private Brand'
p2
aS"Vecenergy's Port Everglades Terminal Enters Second Year ..."
p3
aS"Spurs' Duncan struggling with long grind - San Antonio ..."
p4
aS'Cold case heats up with indictment - San Antonio Express ...'
p5
aS'Solar Energy News: March 2010'
p6
aS"UPDATE 1-Tesoro names ConocoPhillips' Greg Goff CEO ..."
p7
aS'Salisbury News: 03/30/10'
p8
aS"Oil conglomerate 'secretly funds climate change deniers ..."
p9
aS"Newer - Sigalon's Environment/Energy Soup"
p10
a.