(lp0
S'Shell Shuts 24-Inch Bengal Products Line After Leak ...'
p1
aS'White supremacist gang suspects indicted - San Antonio ...'
p2
aS'Husband gets 10-year sentence in wife?s death - San ...'
p3
aS"State halts new funeral home's operations - San Antonio ..."
p4
aS'Valero Renewable Fuels Company Jefferson WI, 53549 ...'
p5
aS'Continental Carbon to Invest $60 Million in Cogen Projects ...'
p6
aS'Japanese told to go to bed an hour early to cut carbon ...'
p7
aS'Serving God through music - Standard-Times'
p8
aS"Friends of Ballona Wetlands  Friday's Regional Round-Up ..."
p9
aS'Tech Tips Newsletter Archive - Crane Tech'
p10
a.