(lp0
S'oil may be headed toward Texas - San Antonio Express-News'
p1
aS'Edson, 71, collected Japanese art - San Antonio Express ...'
p2
aS'Jeanne Jakle: Anchorwomen going to greater lengths - San ...'
p3
aS'A flood of old iPhones - San Antonio Express-News'
p4
aS'Human Resources: CEO as Culture Setter * Putting ...'
p5
aS'Will Justice Prevail for Oscar Grant?  News4usonline'
p6
aS'Thomas Cook Inks Deal with Delhi International Air | TopNews'
p7
aS'Marquette Hall of Famer Ellis hosts charity golf outing'
p8
aS'Suco Voice Overs by Susana Ballesteros - Clients ...'
p9
aS'Colts win first in homestand - Standard-Times'
p10
a.