(lp0
S"Making Room for the Oakland A's? | East Bay Express"
p1
aS'Journalists Refuse to Be Interviewed | East Bay Express'
p2
aS"The Cancer in the Oakland Mayor's Race | East Bay Express"
p3
aS'Make adorable (and easy!) food charms from polymer clay ...'
p4
aS"methane | KQED's Climate Watch"
p5
aS'Evolution of Catalysts Directed by Genetic Algorithms in a ...'
p6
aS'[PDF]\nForest Footprint Disclosure - CDP'
p7
aS'[PDF]\nTMEA Convention Schedule'
p8
aS'Computer Architecture Operating System Interface | BSC-CNS'
p9
aS"Pictures - Saints' Sports Illustrated Covers From the Past ..."
p10
a.