(lp0
S'Petroplus, Tamoil Are Among World Refiners to Shut Sites ...'
p1
aS'Change of Command Ceremony - San Antonio Express-News'
p2
aS'Well still is spewing - San Antonio Express-News'
p3
aS'Segura inherited her passion for education from her father ...'
p4
aS'Oil Watchdog | Tag Archive | cash register politics'
p5
aS'FAVNR - Fidelity VIP Energy | Fidelity Investments'
p6
aS'FSENX Composition - Fidelity  Select Energy Portfolio ...'
p7
aS'Richmond Park Wins $2 Million in Funding | East Bay Express'
p8
aS'Jean the Giant-Killer | East Bay Express'
p9
aS'USW 10-1 - OSHA News Releases'
p10
a.