(lp0
S'Refinery Status: Valero May Restart Aruba Refinery In ...'
p1
aS'Oil Industry : http://www.curacao.name - Curacao News and ...'
p2
aS'Conoco, Murphy to Sell, Convert European Oil Refineries ...'
p3
aS'Conspirator in bank fraud gets probation - San Antonio ...'
p4
aS'Juvenile jailer faces sex charges - San Antonio Express-News'
p5
aS'Suspected MS-13 gangster busted near Natalia - San ...'
p6
aS'Old times not forgotten - San Antonio Express-News'
p7
aS'Conocophillips Company Taft CA, 93268  Manta.com'
p8
aS'Beat goes on for foursome - Standard-Times'
p9
aS'USW 10-1 - OSHA News Releases'
p10
a.