(lp0
S'Tesoro to name new chief soon - San Antonio Express-News'
p1
aS'PSX - Phillips 66 Stock quote - CNNMoney.com'
p2
aS'Less oil, more corn -- Valero Energy is milking the ethanol ...'
p3
aS"UPDATE 1-Tesoro names ConocoPhillips' Greg Goff CEO ..."
p4
aS'Salisbury News: 03/30/10'
p5
aS'News Release - Southeastern Louisiana University'
p6
aS'CEVA receives Supplier Recognition Award in Logistics ...'
p7
aS'Solar Energy News: March 2010'
p8
aS"Oil conglomerate 'secretly funds climate change deniers ..."
p9
aS'Visual Practice  News Articles | visualbloh'
p10
a.