(lp0
S'S.A. families host troops for Thanksgiving - San Antonio ...'
p1
aS'Man wanted in connection to Northeast Side slaying - San ...'
p2
aS'Online, in line and in stores - San Antonio Express-News'
p3
aS'Helotes centralizes with Communications Center - San ...'
p4
aS'Exxon Mobil Share News - ADVFN.com'
p5
aS'2 Characteristics of the refining sector | Global CCS Institute'
p6
aS'Technology Enables Small Artists to Compete for Big Bucks'
p7
aS"Shall I compare thee to a summer's day? | Balder and Dash ..."
p8
aS'A layer correlation technique for pion energy calibration at ...'
p9
aS'CHRISTMAS AT FORT CONCHO: Birth of a tradition'
p10
a.