(lp0
S"Police 'fusion center' on the way for S.A. - San Antonio ..."
p1
aS"Slain man's daughter grieves for him, her siblings - San ..."
p2
aS'Vending machines with style - San Antonio Express-News'
p3
aS'Top 100 Defense contractors - Magazine - GovExec.com'
p4
aS'US Organizational Culture Articles - HRM Guide USA'
p5
aS'American Beacon Bridgeway Large Cap Value Fund ...'
p6
aS'AMAP News - August 2010 - Constant Contact'
p7
aS'[PDF]\nHardening and Resiliency: US Energy Industry Response to ...'
p8
aS'The dangerous reality of climate change justifies global ...'
p9
aS"Ballard Spahr Moves NJ Office to Cherry Hill's Woodland Falls"
p10
a.