(lp0
S'Refiner Valero Restarts $3 Billion in Projects | 2010-09-30 ...'
p1
aS'PBF to Acquire Valero Energy Refinery in Paulsboro, N.J.'
p2
aS'October 2010 ~ Oil & Energy News'
p3
aS"I'm A Cabbage, That's What I Think. What Do You Think?"
p4
aS'News - 12 News'
p5
aS"What's On - WREX.com  Rockford's News Leader"
p6
aS'Prop 23 battle heats up in California as Schwarzenegger ...'
p7
aS'Schwarzenegger vs. Big Oil and The Billionaire Koch ...'
p8
aS'Higher U.S. ethanol blends may face road blocks | Reuters'
p9
aS'[PDF]\nZeaChem'
p10
a.