(lp0
S"Exxon Mobil says it's not forsaking oil for natural gas ..."
p1
aS"Why We're Losing the News - The Intersection : The ..."
p2
aS'EIP Report: U.S. Refinery Emissions of Carcinogen ...'
p3
aS'India bags six more gold medals in SAG | TopNews'
p4
aS'German president to visit India February 2010 | TopNews'
p5
aS'Oil Watchdog | Archive | February'
p6
aS'US Northeast Hit with Snow Again - VOA'
p7
aS"O'Neal to Break Ground on Donated Elevator at Shepherd's ..."
p8
aS"BBC criticised for scientific 'cheap sensationalism' - Telegraph"
p9
aS'A Comeback for Corn Ethanol? | Greentech Media'
p10
a.