(lp0
S'The Brothers Koch and AB 32 - The New York Times'
p1
aS'Fort Hood soldier suicides at record level - San Antonio ...'
p2
aS'Lacombe hearing delayed - San Antonio Express-News'
p3
aS'Enrollment, diversity on the rise at universities - San Antonio ...'
p4
aS'Koch Industries Backs California Proposition 23 - Greenpeace'
p5
aS'US chemical profile: Toluene - ICIS.com'
p6
aS'COMMUNITY PROFILE: Eldorado braves tough economy'
p7
aS"Danny's Motors & Detail Center Blair OK, 73526  Manta.com"
p8
aS'Betty Kwan Chinn Serves Up Meals for 500 - VOA'
p9
aS"Susan Sarandon would love to be a part 'Glee' | TopNews"
p10
a.