(lp0
S'Tootelian Associates - Huffington Post'
p1
aS'Coke dealing gets woman 10 years - San Antonio Express ...'
p2
aS'Jay star Ross still living the dream - San Antonio Express ...'
p3
aS'Wood Bioenergy News | Spring 2010'
p4
aS'(SPANISH INT) Coalition for Clean Air at Valero gas station ...'
p5
aS'Sierra Club California at Sacramento Valero gas station to ...'
p6
aS'US Faces Challenges and Weaknesses in Foreign ... - VOA'
p7
aS'What the hell are they thinking? - Sacramento News & Review'
p8
aS'HIGH SCHOOL BASKETBALL: Austin bound - Standard-Times'
p9
aS'New evidence for man-made global warming - Telegraph'
p10
a.