(lp0
S'2016 Annual Meeting - Conferences & Exhibitions'
p1
aS'Catamount Constructors opens S.A. office - San Antonio ...'
p2
aS'Tortillas getting some serious competition from flatbreads ...'
p3
aS'Restaurateur hungry for success - San Antonio Express-News'
p4
aS'News - San Diego Home Inspection'
p5
aS'Is San Francisco Bay Fished Out? | East Bay Express'
p6
aS'Can the New Parkway Reopen the Beloved Theater? | East ...'
p7
aS'[PDF]\nSpecial Report - Hart Energy'
p8
aS'Cancun climate summit: UN calls for worldwide phase out of ...'
p9
aS'Top French diplomat quits Hong Kong post after 4,000 ...'
p10
a.