(lp0
S'Noria news wires - Machinery Lubrication'
p1
aS'Buying Below Book Value (TSO, VLO, FTO, WINN ...'
p2
aS'Memoir Follows Baxter, a Therapy Dog with a Healing Touch'
p3
aS'Oil Watchdog | Archive | January'
p4
aS'arubalife.net  Valero Still Closed'
p5
aS"Na'vi sex scene found. How they do it: For Your Consideration"
p6
aS'Courtney Valerio, Jody Feldman - Weddings and Celebrations'
p7
aS'Austin - SW - Austin Gas Prices'
p8
aS'Bereaved Cotto tests Foreman June 12, Madison Square ...'
p9
aS'Office Space Baytown | Real Estate Baytown | Commercial ...'
p10
a.