(lp0
S'Tech firms buying space - San Antonio Express-News'
p1
aS'Five ounces at a time - San Antonio Express-News'
p2
aS'Recruiter charged with intoxication manslaughter - San ...'
p3
aS"No place like (the St. PJ's Children's) home: Stars come out ..."
p4
aS'Jabari Brown Soldiers On | East Bay Express'
p5
aS"AC Transit's Duplication of Service | Politics & Government ..."
p6
aS'Acon Investments Plans Downstream Debut - Private Equity ...'
p7
aS"'Our Challenges Are Shared; So, Too, Is Our Commitment to ..."
p8
aS'College Notebook: Tarleton golf has occasions to recruit ...'
p9
aS'Rajiv Dube may join M&M | TopNews'
p10
a.