(lp0
S'The Green Gauge: Sinar Mas under fire - Reuters'
p1
aS'[PDF]\nassault on america - Mother Jones'
p2
aS'Seguin native lives dream in CFL - San Antonio Express-News'
p3
aS'National debate prompts breakup at flagship Episcopal church'
p4
aS'PharmARC to hit the markets for fresh capital | TopNews'
p5
aS'[PDF]\nWorldwide Refining Business Digest Weekly.e'
p6
aS'CLIQ Stock Quote - Cliq Digital AG Stock Price Today (CLIQ ...'
p7
aS'USW 10-1 - OSHA News Releases'
p8
aS'Invasive Asian Carp Threaten Ecosystems in Midwestern ...'
p9
aS'Netherlands : LyondellBasell names Carroll, Smith & Meer ...'
p10
a.