(lp0
S'CVX - Business and Financial News - CNN Money'
p1
aS'Houston Grand Champion Steer auctioned for $175,000 ...'
p2
aS'Paella cooks compete for a good cause - San Antonio ...'
p3
aS'Native plants are good landscaping alternatives - San ...'
p4
aS'The Toxic 100: Top Corporate Air Polluters in the United ...'
p5
aS"Want to Go 'Resorting'? - VOA"
p6
aS'Paul Eisman | alonusa.com'
p7
aS'Napa-Solano county industrial: Some new demand in 2010 ...'
p8
aS'I AM WEST TEXAS: A little taste of Puerto Rico in San Angelo'
p9
aS'King & King Enterprises Kansas City MO, 64158  Manta.com'
p10
a.