(lp0
S'DSAOC Center News  DSA|OC Blog'
p1
aS'Healthcare  DSA|OC Blog'
p2
aS'US Sweepstakes & Fulfillment | LinkedIn'
p3
aS'The Ultramar Jean-gaulin Refinery Is Pictured In Levis ...'
p4
aS'Neighborhood Comes Together Around New Market | East ...'
p5
aS"UCO Bank's third quarter net interest margin rises | TopNews"
p6
aS'Angry eunuch drinks poison at Haryana police headquarters ...'
p7
aS'Shah Rukh to perform at awards function | TopNews'
p8
aS'Japanese whaler rams Sea Shepherd boat - UPI.com'
p9
aS'Clean Fuels Clearinghouse  RFS'
p10
a.