(lp0
S'Plcido Domingo returning to SA - San Antonio Express-News'
p1
aS'High court rejects S.A. music case appeal - San Antonio ...'
p2
aS'Man killed during Universal City police pursuit - San Antonio ...'
p3
aS"Trey's House brings hope - San Antonio Express-News"
p4
aS'Charge dropped in murder case - San Antonio Express-News'
p5
aS'Texting ban could have unintended consequences - San ...'
p6
aS'Refinery Shift Superintendent - Division Operations ...'
p7
aS'NEPA exemptions: The dirty dozen list | Center for Public ...'
p8
aS'Is San Francisco Bay Fished Out? | East Bay Express'
p9
aS"Defeating California's Dirty Energy Initiative - Environmental ..."
p10
a.