(lp0
S'[PDF]\nWeekly News 031310 - Photos'
p1
aS'PE class marches to different beat - San Antonio Express ...'
p2
aS"Affordable housing developer's tactics artful - San Antonio ..."
p3
aS"It's never too late to jump, even at 80 - San Antonio Express ..."
p4
aS'MP Chief Minister helicopter lost its way | TopNews'
p5
aS'Fish can reduce the risk of brain disorders for babies in the ...'
p6
aS'Reliance Communication pays its due for 3G spectrum ...'
p7
aS"Google's search engine usage up 70% in India | TopNews"
p8
aS'-Valerolactone Ring-Opening and Decarboxylation over ...'
p9
aS'Andrew F. Kenner: Executive Profile & Biography ...'
p10
a.