(lp0
S'Qteros News and Press Releases - Qteros - Cellulosic ...'
p1
aS'UMass researchers receive patent for getting Q Microbe to ...'
p2
aS'Olives Ol? festival to showcase Texas? newest cash crop ...'
p3
aS"Paul Premack: Thanks to 'Lady Bird deed,' children own ..."
p4
aS'Bluefin Tuna Ban - Huffington Post'
p5
aS'Cold, windy day deters a few golfers; others shine'
p6
aS'Girls Inc. 4th Annual Science Festival Presented by Valero ...'
p7
aS'Deepika Padukone unfazed by rumours of link-ups | TopNews'
p8
aS'Entropy | Free Full-Text | Application of Thermoeconomics to ...'
p9
aS'Chico Gas Prices - Find Cheap Gas Prices in California'
p10
a.