(lp0
S'Valero in Paradis, Louisiana with Reviews & Ratings - YP.com'
p1
aS'Valero in Marrero, Louisiana with Reviews & Ratings - YP.com'
p2
aS'Hillary dares Iran to hold town hall meeting to discuss Israel ...'
p3
aS'Perella Weinberg Hires Longtime Energy Banker - The New ...'
p4
aS'About - LeitaHart.com'
p5
aS'Winter Olympic Souvenirs Sell Out Fast - VOA'
p6
aS'PSEA.org - PACE Myth vs. FACT'
p7
aS"Don't feed the parking meter today - The Downtown Blog"
p8
aS'Israeli tennis star gets visa to play in Dubai | TopNews'
p9
aS'TDDFT Study of the Optical Properties of Cy5 and Its ... - ACS'
p10
a.