(lp0
S'Carbon Capture and Storage Projects Awarded USD 1 Billion'
p1
aS'Teen killed in South Side crash Friday identified - San ...'
p2
aS'Lemler was a longtime Joske?s exec - San Antonio Express ...'
p3
aS'Fathers hand down wisdom drawn from their own experiences'
p4
aS'Mexican businessman indicted in fraud plot - San Antonio ...'
p5
aS'Landa Park reopens after flooding - San Antonio Express ...'
p6
aS'An unlikely casino in the heart of Louisiana swampland ...'
p7
aS"Are the Flyers making a bad choice with 'Stay Classy' shirts ..."
p8
aS'City of Arlington, Sullo & Bobbitt law firm tussle over records ...'
p9
aS'Appleton golfer recalls hole-in-one at Pebble Beach'
p10
a.