(lp0
S'Biodiesel Magazine - The Latest News and Data About ...'
p1
aS'Local solar farm gets powered up - San Antonio Express ...'
p2
aS'Tragedy shines light on bike safety - San Antonio Express ...'
p3
aS'Meatloaf brings back memories - San Antonio Express-News'
p4
aS'Suit aimedat the CEOof refinery - San Antonio Express-News'
p5
aS'Dudley was a longtime community, civil rights leader - San ...'
p6
aS'LINE  Linn Energy, LLC | Corporate Bond  Yields, Rates ...'
p7
aS'BREAKING NEWS: Huge flare-ups at the Tesoro refinery ...'
p8
aS'Links - OMB Valves SpA'
p9
aS'Stock Reports - Morningstar'
p10
a.