(lp0
S'Dividend-News - Daily Dividend News for Investors in ...'
p1
aS'Project Profiles  CB&I'
p2
aS'[PDF]\nmidstreamnews - PLS'
p3
aS'Special Report: Amid the Gulf crisis, Wall St touted BP stock ...'
p4
aS'Eye kept on calendar during flood cleanup - San Antonio ...'
p5
aS'Churchill charging into the future - San Antonio Express-News'
p6
aS'Authorities search for state jail escapee - San Antonio ...'
p7
aS"Big Oil's Hazardous Landscape on AB 32 Repeal  Calbuzz"
p8
aS'Oil Watchdog | Archive | Conoco'
p9
aS'Does the Bush family own valero gas company? | Yahoo Answers'
p10
a.