(lp0
S'Global warming ballot initiative: Teamsters and cities weigh in'
p1
aS'Today Earth Day is Family Day for Me | NRDC'
p2
aS"Chupacabras hard to find, unless you're at El Mercado - San ..."
p3
aS'All part of plan or not, Cantu poised to run - San Antonio ...'
p4
aS"Zee's news channels post Rs. 2.82 crore profit in Q4 ..."
p5
aS"HDFC Bank becomes India's top private retail bank | TopNews"
p6
aS'Ashok Leyland- Nissan alliance not to take on Ace | TopNews'
p7
aS"Sacramento News & Review - Faber's way - Feature Story ..."
p8
aS'CTL: Dividend Date & History for CenturyLink Inc.'
p9
aS'Russian Adoption Scandal Shocks US Parents - VOA'
p10
a.