(lp0
S'Cathy and Clay Killinger - Latest Updates - Giving to UTSA'
p1
aS'Felon guilty of shooting ex-girlfriend during burglary - San ...'
p2
aS'Windcrest evidence seized - San Antonio Express-News'
p3
aS'Cooking on a budget: Calabacita - San Antonio Express-News'
p4
aS'New Hispanic-lifestyle themed mall coming - San Antonio ...'
p5
aS'Saenz finds niche biz in S.A. - San Antonio Express-News'
p6
aS'Officer cleared but wife indicted in dispute - San Antonio ...'
p7
aS'Cool makes hot launch - San Antonio Express-News'
p8
aS'Alon USA Energy Krotz Springs LA, 70750  Manta.com'
p9
aS'Who Will Vote to Tax Cannabis in 2010? | East Bay Express'
p10
a.