(lp0
S"Posco's Indian Steel Project in Doubt After Report - Bloomberg"
p1
aS'First contracts awarded for a new Wilford Hall - San Antonio ...'
p2
aS'Man killed in Northwest Side motorcycle crash - San Antonio ...'
p3
aS'City could settle with SAPD cop - San Antonio Express-News'
p4
aS"Mexican borough makes world's biggest enchilada - San ..."
p5
aS"Study says pickups aren't safer than sedans for teen drivers ..."
p6
aS'Oil Watchdog | Tag Archive | junk science'
p7
aS'The good times rolled at chef gala - Houston Chronicle'
p8
aS'Steve Pearce | EnergyCorrespondent.com - Part 10'
p9
aS'Pipeline Energy Dynamics | Pipeline Scheduling | Pipeline ...'
p10
a.