(lp0
S'Green Technology | Cleantech and Renewable Energy ...'
p1
aS'Northrop Grumman spinoff plans growth - San Antonio ...'
p2
aS'Canyon foursome eyes grand finale - San Antonio Express ...'
p3
aS'Zamora arguably the best athlete in South San High ...'
p4
aS'June 2010 ~ Oil & Energy News'
p5
aS'Super Scholars | Northside Independent School District'
p6
aS'Sacramento News & Review - Barter Town - Feature Story ...'
p7
aS"Milwaukee's Colbert first African-American member at ..."
p8
aS'Consumers For Peace :: What is the BP Spill Trying to Tell Us?'
p9
aS'[PDF]\nShell World'
p10
a.