(lp0
S'Tesoro to name new chief soon - San Antonio Express-News'
p1
aS'PSX - Phillips 66 Stock quote - CNNMoney.com'
p2
aS"Jarrett on Health Care: 'Business Will Come Out ... - US News"
p3
aS'CEVA receives Supplier Recognition Award in Logistics ...'
p4
aS'News Release - Southeastern Louisiana University'
p5
aS'Visual Practice  News Articles | visualbloh'
p6
aS'Hindenblog: BURN: Thug-ugly Waxman Mau-Maus Law ...'
p7
aS'How Oil Drums are Manufactured - Machinery Lubrication'
p8
aS'Japan Offers US New Proposal on Okinawa Military Base'
p9
aS'Sami Nassif Ebrahim - Dallas Business Journal'
p10
a.