(lp0
S'The Brothers Koch and AB 32 - The New York Times'
p1
aS'Young amputee fulfills dream of running - San Antonio ...'
p2
aS'Lacombe hearing delayed - San Antonio Express-News'
p3
aS'Defendant blames friend for Quiznos murder - San Antonio ...'
p4
aS'Koch Industries Backs California Proposition 23 - Greenpeace'
p5
aS'US chemical profile: Toluene - ICIS.com'
p6
aS'[PDF]\npersonalizing the corporation  strategies for in-house ...'
p7
aS"Danny's Motors & Detail Center Blair OK, 73526  Manta.com"
p8
aS'Operations | Rama Tika - Rama Tika Management'
p9
aS'Patent US7799494 - Polyhedral oligomeric silsesquioxane ...'
p10
a.