(lp0
S'Frost president for S.A. named - San Antonio Express-News'
p1
aS'Man fatally shot by police was burglary suspect - San ...'
p2
aS'VA nurses may have to return pay raises - San Antonio ...'
p3
aS'Motorcyclist being pursued by deputy dies in crash - San ...'
p4
aS'BP Spill Threatens Gulf of Mexico Oil, Gas Operations ...'
p5
aS'IRDA will launch vehicle insurance tracking system | TopNews'
p6
aS'L&T Signs JV With Howden | TopNews'
p7
aS'High-Tech Transportation for a Growing Nation | Center for ...'
p8
aS'Hot List Golf Balls: The Process - Golf Digest'
p9
aS'Nonprofit Conservation Group Has Ties to Oil Interests, Gulf ...'
p10
a.