(lp0
S'Ethanol Producer Magazine  The Latest News and Data ...'
p1
aS'Californians Know Better | NRDC'
p2
aS"Customers mourn death of ?old-school' barber - San ..."
p3
aS'Cole names new football coach - San Antonio Express-News'
p4
aS"Haven for Hope's arrival worries some - San Antonio ..."
p5
aS'Chrysler still the king of the minivans - San Antonio Express ...'
p6
aS'[PDF]\nBMN 04-10 - Birmingham Medical News'
p7
aS'CNBNEWS.NET: April 2010'
p8
aS'The mob should lay off. The pope is innocent | Jack Valero ...'
p9
aS"The Global Expansion of Russia's Energy Giants - JIA SIPA"
p10
a.