(lp0
S'Renewable Refining | 2010 No. 4 | BenchMark | Insights ...'
p1
aS"Victim's mom tells of murder-suicide - San Antonio Express ..."
p2
aS'Jury recommends probation for ex-PEC boss - San Antonio ...'
p3
aS"Armstrong's work, sacrifice helped build SAS shoes - San ..."
p4
aS'Postal service looking to fill temporary positions - San ...'
p5
aS'Angel gives dying father wedding moment - San Antonio ...'
p6
aS"Bexar County Jail to be featured on 'Lockdown' - San ..."
p7
aS'Top 5 Greentech Media Articles of 2010: Bloom Energy, 50 ...'
p8
aS'The Miracle Portraits | East Bay Express'
p9
aS'Fighting Bad Air with Cellphones | East Bay Express'
p10
a.