(lp0
S'Man fatally shot Sunday night identified - San Antonio ...'
p1
aS'Quiznos murder nets 40-year prison term - San Antonio ...'
p2
aS'Priest accused of sex crimes faces murder-for-hire count ...'
p3
aS'Consider what foods you donate - San Antonio Express-News'
p4
aS'New archbishop takes helm of San Antonio diocese - San ...'
p5
aS'Petco plansto add 400jobs in SA - San Antonio Express-News'
p6
aS'New company acquires Alamo Hospice - San Antonio ...'
p7
aS'[PDF]\nThe U.S. Oil Refining Industry: Background in Changing ...'
p8
aS'Oil Watchdog | Tag Archive | catastrophes'
p9
aS'Oil Watchdog | Archive | November'
p10
a.