(lp0
S'White supremacist gang suspects indicted - San Antonio ...'
p1
aS'Leader of the pack - San Antonio Express-News'
p2
aS"State halts new funeral home's operations - San Antonio ..."
p3
aS'Shell Shuts 24-Inch Bengal Products Line After Leak ...'
p4
aS'Ali Sharaf Biography | Victron'
p5
aS'Open Season on California Halibut | East Bay Express'
p6
aS'Little Mac Vs. Big Mac | East Bay Express'
p7
aS'Liz Figueroa Lies About Her Residence | Politics ...'
p8
aS'Japanese told to go to bed an hour early to cut carbon ...'
p9
aS'FLDS TRIALS: Jeffs gets 17 years in assault - Standard-Times'
p10
a.