(lp0
S'Nuveen Energy MLP Total Return Fund: NYSE:JMF quotes ...'
p1
aS'Jack Valero | The Guardian'
p2
aS'Battle Over California Climate Law Will Have National ...'
p3
aS'30 years of Tejano - San Antonio Express-News'
p4
aS'Fenstermaker?s varied interests made for a full life - San ...'
p5
aS'Rio Grande pounds border cities - San Antonio Express-News'
p6
aS'Questions, animosity surround multimillionaire?s death ...'
p7
aS'[PDF]\nJuly- August 2010 News & Views.pub'
p8
aS'Foes of Hayward Power Plant Fight Back | East Bay Express'
p9
aS"The Closure of Berkeley's Willard Pool | East Bay Express"
p10
a.