(lp0
S'Chevron Corporation'
p1
aS'Chevron Corporation'
p2
aS'United States Department of Justice'
p3
aS'Oil & Gas Journal'
p4
aS'Bloomberg L.P.'
p5
aS'United States Fish and Wildlife Service'
p6
aS'ThinkProgress'
p7
a.