(lp0
S'Reuters'
p1
aS'Chevron Corporation'
p2
aS'CBS News'
p3
aS'The Bakersfield Californian'
p4
aS'Oil & Gas Journal'
p5
aS'Oil & Gas Journal'
p6
aS'The Wall Street Journal'
p7
aS'Business Insider'
p8
a.