(lp0
S'Center for Responsive Politics'
p1
aS'Oil & Gas Journal'
p2
aS'Common Dreams'
p3
aS'Seeking Alpha'
p4
aS'Reuters'
p5
aS'Bloomberg L.P.'
p6
aS'The Globe and Mail'
p7
aS'Rig Zone'
p8
aS'World Oil'
p9
a.