(lp0
S'Forbes'
p1
aS'The Globe and Mail'
p2
aS'BBC'
p3
aS'John F. Kennedy School of Government'
p4
aS'The Oklahoman'
p5
aS'Oil & Gas Journal'
p6
aS'Oil & Gas Journal'
p7
aS'Business Insider'
p8
aS'IRIN'
p9
a.