(lp0
S'The New York Times'
p1
aS'Oil & Gas Journal'
p2
aS'Oil & Gas Journal'
p3
aS'Rig Zone'
p4
aS'Bloomberg L.P.'
p5
aS'Bloomberg L.P.'
p6
aS'Common Dreams'
p7
aS'Chicago Bridge & Iron Company'
p8
aS'Der Spiegel'
p9
aS'The Daily Telegraph'
p10
a.