(lp0
S'Oil & Gas Journal'
p1
aS'University of California, Berkeley'
p2
aS'Houston Chronicle'
p3
aS'Advertising Age'
p4
aS'Purdue University'
p5
aS'Milken Institute'
p6
aS'University of South Florida'
p7
aS'The Oil Drum'
p8
a.