(dp0
(I11
I23
I2015
tp1
F0.6570541414611336
s(I9
I23
I2015
tp2
F0.4941080975984914
s(I8
I6
I2015
tp3
F0.6942458911412744
s(I7
I7
I2015
tp4
F0.6995135010931975
s(I2
I13
I2015
tp5
F0.5835867010201754
s(I1
I30
I2015
tp6
F0.8082930006298896
s(I5
I7
I2015
tp7
F0.7121640859645468
s(I9
I10
I2015
tp8
F0.5784411594195038
s(I12
I30
I2015
tp9
F0.4703944911363911
s(I7
I22
I2015
tp10
F0.6366676560333205
s(I11
I13
I2015
tp11
F0.7112366893759116
s(I3
I23
I2015
tp12
F0.773966753569291
s(I5
I22
I2015
tp13
F0.3637831850913509
s(I9
I25
I2015
tp14
F0.4716660117687806
s(I4
I7
I2015
tp15
F0.6521013740622609
s(I8
I12
I2015
tp16
F0.6998280342969907
s(I12
I11
I2015
tp17
F0.5206246163051074
s(I1
I16
I2015
tp18
F0.7570147188855849
s(I6
I30
I2015
tp19
F0.8458367470422862
s(I10
I27
I2015
tp20
F0.45923253043783224
s(I5
I1
I2015
tp21
F0.38523663291547705
s(I11
I3
I2015
tp22
F0.7102622711596508
s(I8
I19
I2015
tp23
F0.6966329785979192
s(I9
I3
I2015
tp24
F0.46502945210257646
s(I4
I13
I2015
tp25
F0.440139689552948
s(I1
I9
I2015
tp26
F0.5132143858782227
s(I12
I1
I2015
tp27
F0.6828341716238373
s(I11
I24
I2015
tp28
F0.6274122470761032
s(I6
I16
I2015
tp29
F0.5376703713100016
s(I10
I5
I2015
tp30
F0.6015693606771012
s(I5
I11
I2015
tp31
F0.5551500425491789
s(I12
I18
I2015
tp32
F0.5893217752189774
s(I7
I10
I2015
tp33
F0.7611964690908654
s(I3
I17
I2015
tp34
F0.6553289573923451
s(I8
I25
I2015
tp35
F0.6227092793707919
s(I3
I3
I2015
tp36
F0.8146879245194133
s(I5
I26
I2015
tp37
F0.6764779200526486
s(I3
I18
I2015
tp38
F0.6500544535410582
s(I2
I27
I2015
tp39
F0.5969856666838839
s(I11
I30
I2015
tp40
F0.6299651993983968
s(I6
I10
I2015
tp41
F0.7019016943694384
s(I10
I15
I2015
tp42
F0.5594552772219591
s(I12
I8
I2015
tp43
F0.3732917610621568
s(I8
I31
I2015
tp44
F0.26818737550948385
s(I3
I9
I2015
tp45
F0.8950738438909221
s(I10
I28
I2015
tp46
F0.4918585681885156
s(I5
I4
I2015
tp47
F0.6793910506741879
s(I9
I15
I2015
tp48
F0.5297220866640794
s(I1
I5
I2015
tp49
F0.8103053500117003
s(I3
I24
I2015
tp50
F0.7492746434188073
s(I11
I20
I2015
tp51
F0.5199631649619668
s(I6
I12
I2015
tp52
F0.7734331287755357
s(I10
I9
I2015
tp53
F0.7021760097647644
s(I9
I16
I2015
tp54
F0.4418546578166332
s(I4
I24
I2015
tp55
F0.9283014979118426
s(I8
I5
I2015
tp56
F0.8501173576180477
s(I6
I29
I2015
tp57
F0.7093945587357581
s(I10
I6
I2015
tp58
F0.6673278910315084
s(I5
I14
I2015
tp59
F0.6136494811427079
s(I2
I12
I2015
tp60
F0.6708610480059232
s(I3
I30
I2015
tp61
F0.6331437051245815
s(I12
I29
I2015
tp62
F0.5367035696763675
s(I7
I23
I2015
tp63
F0.7161531171487597
s(I11
I10
I2015
tp64
F0.5960370375748316
s(I1
I14
I2015
tp65
F0.38280594761413406
s(I4
I20
I2015
tp66
F0.5965715625380292
s(I4
I6
I2015
tp67
F0.6913077741777903
s(I8
I11
I2015
tp68
F0.6745567241120268
s(I6
I23
I2015
tp69
F0.5734991534126881
s(I5
I8
I2015
tp70
F0.7081113019358153
s(I2
I6
I2015
tp71
F0.8469282782800748
s(I4
I23
I2015
tp72
F0.7673596894163242
s(I8
I28
I2015
tp73
F0.6301533821778716
s(I3
I4
I2015
tp74
F0.7835990110307879
s(I7
I13
I2015
tp75
F0.6944649676852677
s(I9
I28
I2015
tp76
F0.6883338153724086
s(I7
I28
I2015
tp77
F0.6354222839747113
s(I11
I19
I2015
tp78
F0.565946865209697
s(I6
I9
I2015
tp79
F0.5595097676200268
s(I10
I22
I2015
tp80
F0.5138902311717761
s(I4
I29
I2015
tp81
F0.6504661721953382
s(I3
I10
I2015
tp82
F0.8802301347053245
s(I12
I17
I2015
tp83
F0.7105222089548444
s(I11
I6
I2015
tp84
F0.6497375455916863
s(I1
I26
I2015
tp85
F0.7985000835072101
s(I10
I21
I2015
tp86
F0.4508675718939427
s(I5
I27
I2015
tp87
F0.6283457555811143
s(I4
I10
I2015
tp88
F0.42043738609088394
s(I11
I9
I2015
tp89
F0.5429001185365397
s(I6
I3
I2015
tp90
F0.8050127922885327
s(I3
I19
I2015
tp91
F0.7305985446049358
s(I2
I26
I2015
tp92
F0.6782845363673319
s(I9
I21
I2015
tp93
F0.6058520450254063
s(I4
I27
I2015
tp94
F0.5278191477225523
s(I12
I15
I2015
tp95
F0.5636248861874534
s(I7
I1
I2015
tp96
F0.76168338623952
s(I2
I11
I2015
tp97
F0.6665159657381973
s(I1
I28
I2015
tp98
F0.7500868180257514
s(I5
I5
I2015
tp99
F0.6901770580686166
s(I9
I8
I2015
tp100
F0.4292877973388206
s(I12
I24
I2015
tp101
F0.7098364974480552
s(I7
I16
I2015
tp102
F0.7066120192686055
s(I6
I5
I2015
tp103
F0.7155694670850414
s(I3
I25
I2015
tp104
F0.5345252145043645
s(I2
I20
I2015
tp105
F0.45511130542470213
s(I5
I20
I2015
tp106
F0.6332140353746794
s(I4
I1
I2015
tp107
F0.64648626033537
s(I8
I14
I2015
tp108
F0.6903818870681108
s(I2
I5
I2015
tp109
F0.7980851267625891
s(I1
I22
I2015
tp110
F0.4381832784878478
s(I5
I15
I2015
tp111
F0.6037909039545376
s(I12
I22
I2015
tp112
F0.6079884688641541
s(I7
I14
I2015
tp113
F0.5734367144059471
s(I11
I5
I2015
tp114
F0.4988125566939269
s(I8
I21
I2015
tp115
F0.46041015057908813
s(I3
I31
I2015
tp116
F0.6666214241264988
s(I11
I25
I2015
tp117
F0.5373072306878125
s(I9
I1
I2015
tp118
F0.22566516844163437
s(I4
I15
I2015
tp119
F0.2945092918164981
s(I1
I15
I2015
tp120
F0.4059352180972346
s(I12
I3
I2015
tp121
F0.5904568670308403
s(I6
I22
I2015
tp122
F0.5371533741642716
s(I4
I22
I2015
tp123
F0.5617279664723651
s(I8
I27
I2015
tp124
F0.224079022886072
s(I3
I5
I2015
tp125
F0.4924972363216691
s(I10
I16
I2015
tp126
F0.643642890667921
s(I9
I11
I2015
tp127
F0.5112438816645232
s(I3
I20
I2015
tp128
F0.7410650733899629
s(I2
I25
I2015
tp129
F0.6522745589938952
s(I6
I26
I2015
tp130
F0.6336250823728464
s(I11
I16
I2015
tp131
F0.7932706252512484
s(I6
I8
I2015
tp132
F0.4925626831182158
s(I10
I13
I2015
tp133
F0.5371346495623756
s(I12
I10
I2015
tp134
F0.5151796718671924
s(I7
I2
I2015
tp135
F0.6365161578036466
s(I4
I28
I2015
tp136
F0.6235159049801204
s(I3
I11
I2015
tp137
F0.7274988044518628
s(I6
I25
I2015
tp138
F0.7629468198177017
s(I10
I26
I2015
tp139
F0.6052026692983009
s(I1
I27
I2015
tp140
F0.732417823956197
s(I8
I18
I2015
tp141
F0.5914991447998722
s(I3
I26
I2015
tp142
F0.4580929341850309
s(I2
I19
I2015
tp143
F0.4335028092999361
s(I7
I27
I2015
tp144
F0.617039221791499
s(I6
I2
I2015
tp145
F0.7205113381271269
s(I9
I22
I2015
tp146
F0.5025395957965075
s(I8
I7
I2015
tp147
F0.7123086479405507
s(I12
I28
I2015
tp148
F0.4414617510322618
s(I6
I19
I2015
tp149
F0.5715542028674766
s(I5
I12
I2015
tp150
F0.476922807324391
s(I2
I10
I2015
tp151
F0.19967652511883208
s(I1
I29
I2015
tp152
F0.7749377536001182
s(I8
I24
I2015
tp153
F0.7501491813957805
s(I12
I31
I2015
tp154
F0.36844499677852927
s(I7
I17
I2015
tp155
F0.6519288372756216
s(I11
I12
I2015
tp156
F0.6689639299745136
s(I6
I4
I2015
tp157
F0.7639981188460947
s(I1
I12
I2015
tp158
F0.5160518918476934
s(I5
I21
I2015
tp159
F0.5730286241325653
s(I9
I24
I2015
tp160
F0.500720288408322
s(I8
I13
I2015
tp161
F0.6617561527361797
s(I10
I14
I2015
tp162
F0.6054143073099109
s(I2
I4
I2015
tp163
F0.5330615274893368
s(I1
I23
I2015
tp164
F0.5209450273930708
s(I4
I17
I2015
tp165
F0.6333385240548168
s(I3
I6
I2015
tp166
F0.5629898112618951
s(I7
I29
I2015
tp167
F0.5258033660221882
s(I12
I21
I2015
tp168
F0.5655808612211382
s(I7
I15
I2015
tp169
F0.6349535976809453
s(I11
I2
I2015
tp170
F0.7349525268672564
s(I1
I6
I2015
tp171
F0.6719201321848678
s(I9
I2
I2015
tp172
F0.19609312676746632
s(I4
I14
I2015
tp173
F0.49652870099297547
s(I7
I30
I2015
tp174
F0.6006238123624016
s(I6
I15
I2015
tp175
F0.6929269562466215
s(I10
I8
I2015
tp176
F0.7134303687300648
s(I9
I17
I2015
tp177
F0.5322859760832597
s(I8
I4
I2015
tp178
F0.8099297111123196
s(I3
I12
I2015
tp179
F0.7084831409982392
s(I10
I19
I2015
tp180
F0.637497059296382
s(I9
I4
I2015
tp181
F0.6116489499072766
s(I7
I20
I2015
tp182
F0.595833435740338
s(I11
I11
I2015
tp183
F0.6445577003652622
s(I6
I1
I2015
tp184
F0.8331260638805997
s(I2
I24
I2015
tp185
F0.6442839912088911
s(I8
I10
I2015
tp186
F0.7185334906849546
s(I12
I9
I2015
tp187
F0.5843334187129084
s(I2
I9
I2015
tp188
F0.24860607567201073
s(I6
I24
I2015
tp189
F0.6956443307919992
s(I10
I29
I2015
tp190
F0.5784624080829571
s(I9
I14
I2015
tp191
F0.5015096600228949
s(I8
I17
I2015
tp192
F0.49534260915946476
s(I3
I27
I2015
tp193
F0.572381460504184
s(I2
I18
I2015
tp194
F0.47775260332732566
s(I5
I18
I2015
tp195
F0.5133754350775827
s(I9
I29
I2015
tp196
F0.6883338153724086
s(I12
I7
I2015
tp197
F0.4373966989971351
s(I2
I3
I2015
tp198
F0.5779093442947029
s(I1
I20
I2015
tp199
F0.8018308349048424
s(I6
I18
I2015
tp200
F0.5395228027819722
s(I10
I7
I2015
tp201
F0.8219824948694838
s(I5
I13
I2015
tp202
F0.586449021062034
s(I12
I16
I2015
tp203
F0.6853254093150983
s(I7
I8
I2015
tp204
F0.7857309660102583
s(I10
I20
I2015
tp205
F0.42736825663952177
s(I5
I28
I2015
tp206
F0.5971379819256143
s(I4
I9
I2015
tp207
F0.42594787495583747
s(I1
I13
I2015
tp208
F0.642969602304239
s(I3
I16
I2015
tp209
F0.5414407799239029
s(I10
I1
I2015
tp210
F0.7823061773177973
s(I12
I14
I2015
tp211
F0.5771218347637863
s(I7
I6
I2015
tp212
F0.641917771725464
s(I4
I16
I2015
tp213
F0.4634540993533925
s(I10
I30
I2015
tp214
F0.6268232404593602
s(I5
I6
I2015
tp215
F0.7727058053044185
s(I9
I9
I2015
tp216
F0.6759352446921061
s(I1
I7
I2015
tp217
F0.5304119030055224
s(I2
I23
I2015
tp218
F0.7177880764471402
s(I7
I31
I2015
tp219
F0.6761398784947602
s(I11
I18
I2015
tp220
F0.4354128599763579
s(I12
I4
I2015
tp221
F0.5027268337168428
s(I9
I18
I2015
tp222
F0.6155973140468092
s(I4
I30
I2015
tp223
F0.4866791771047155
s(I8
I3
I2015
tp224
F0.7517011769284484
s(I3
I13
I2015
tp225
F0.5873906691932528
s(I8
I20
I2015
tp226
F0.6545454286912978
s(I2
I17
I2015
tp227
F0.5733840345641114
s(I7
I21
I2015
tp228
F0.5707523653968238
s(I1
I8
I2015
tp229
F0.4894785552878074
s(I12
I2
I2015
tp230
F0.6916714125794001
s(I11
I27
I2015
tp231
F0.7072789631317706
s(I6
I17
I2015
tp232
F0.42788774823368136
s(I10
I2
I2015
tp233
F0.53262482925076
s(I4
I21
I2015
tp234
F0.4706002508165276
s(I8
I26
I2015
tp235
F0.28131261168123145
s(I3
I2
I2015
tp236
F0.6449088561424625
s(I1
I2
I2015
tp237
F0.5305762165997563
s(I5
I19
I2015
tp238
F0.6390288923683455
s(I9
I30
I2015
tp239
F0.8324879264745078
s(I4
I2
I2015
tp240
F0.7725264164714682
s(I11
I17
I2015
tp241
F0.42912887941083133
s(I6
I11
I2015
tp242
F0.8519010385193082
s(I10
I12
I2015
tp243
F0.4750816674389556
s(I2
I2
I2015
tp244
F0.639464085098545
s(I1
I21
I2015
tp245
F0.46259359780919895
s(I12
I23
I2015
tp246
F0.7077779867915486
s(I7
I9
I2015
tp247
F0.8742266014690377
s(I11
I4
I2015
tp248
F0.607768430564137
s(I10
I23
I2015
tp249
F0.44569745194901045
s(I5
I29
I2015
tp250
F0.676243046397791
s(I4
I8
I2015
tp251
F0.5622161613383955
s(I7
I24
I2015
tp252
F0.458473673409085
s.