(lp0
(I1
I2
I2015
tp1
a(I1
I5
I2015
tp2
a(I1
I6
I2015
tp3
a(I1
I7
I2015
tp4
a(I1
I8
I2015
tp5
a(I1
I9
I2015
tp6
a(I1
I12
I2015
tp7
a(I1
I13
I2015
tp8
a(I1
I14
I2015
tp9
a(I1
I15
I2015
tp10
a(I1
I16
I2015
tp11
a(I1
I20
I2015
tp12
a(I1
I21
I2015
tp13
a(I1
I22
I2015
tp14
a(I1
I23
I2015
tp15
a(I1
I26
I2015
tp16
a(I1
I27
I2015
tp17
a(I1
I28
I2015
tp18
a(I1
I29
I2015
tp19
a(I1
I30
I2015
tp20
a(I2
I2
I2015
tp21
a(I2
I3
I2015
tp22
a(I2
I4
I2015
tp23
a(I2
I5
I2015
tp24
a(I2
I6
I2015
tp25
a(I2
I9
I2015
tp26
a(I2
I10
I2015
tp27
a(I2
I11
I2015
tp28
a(I2
I12
I2015
tp29
a(I2
I13
I2015
tp30
a(I2
I17
I2015
tp31
a(I2
I18
I2015
tp32
a(I2
I19
I2015
tp33
a(I2
I20
I2015
tp34
a(I2
I23
I2015
tp35
a(I2
I24
I2015
tp36
a(I2
I25
I2015
tp37
a(I2
I26
I2015
tp38
a(I2
I27
I2015
tp39
a(I3
I2
I2015
tp40
a(I3
I3
I2015
tp41
a(I3
I4
I2015
tp42
a(I3
I5
I2015
tp43
a(I3
I6
I2015
tp44
a(I3
I9
I2015
tp45
a(I3
I10
I2015
tp46
a(I3
I11
I2015
tp47
a(I3
I12
I2015
tp48
a(I3
I13
I2015
tp49
a(I3
I16
I2015
tp50
a(I3
I17
I2015
tp51
a(I3
I18
I2015
tp52
a(I3
I19
I2015
tp53
a(I3
I20
I2015
tp54
a(I3
I23
I2015
tp55
a(I3
I24
I2015
tp56
a(I3
I25
I2015
tp57
a(I3
I26
I2015
tp58
a(I3
I27
I2015
tp59
a(I3
I30
I2015
tp60
a(I3
I31
I2015
tp61
a(I4
I1
I2015
tp62
a(I4
I2
I2015
tp63
a(I4
I6
I2015
tp64
a(I4
I7
I2015
tp65
a(I4
I8
I2015
tp66
a(I4
I9
I2015
tp67
a(I4
I10
I2015
tp68
a(I4
I13
I2015
tp69
a(I4
I14
I2015
tp70
a(I4
I15
I2015
tp71
a(I4
I16
I2015
tp72
a(I4
I17
I2015
tp73
a(I4
I20
I2015
tp74
a(I4
I21
I2015
tp75
a(I4
I22
I2015
tp76
a(I4
I23
I2015
tp77
a(I4
I24
I2015
tp78
a(I4
I27
I2015
tp79
a(I4
I28
I2015
tp80
a(I4
I29
I2015
tp81
a(I4
I30
I2015
tp82
a(I5
I1
I2015
tp83
a(I5
I4
I2015
tp84
a(I5
I5
I2015
tp85
a(I5
I6
I2015
tp86
a(I5
I7
I2015
tp87
a(I5
I8
I2015
tp88
a(I5
I11
I2015
tp89
a(I5
I12
I2015
tp90
a(I5
I13
I2015
tp91
a(I5
I14
I2015
tp92
a(I5
I15
I2015
tp93
a(I5
I18
I2015
tp94
a(I5
I19
I2015
tp95
a(I5
I20
I2015
tp96
a(I5
I21
I2015
tp97
a(I5
I22
I2015
tp98
a(I5
I26
I2015
tp99
a(I5
I27
I2015
tp100
a(I5
I28
I2015
tp101
a(I5
I29
I2015
tp102
a(I6
I1
I2015
tp103
a(I6
I2
I2015
tp104
a(I6
I3
I2015
tp105
a(I6
I4
I2015
tp106
a(I6
I5
I2015
tp107
a(I6
I8
I2015
tp108
a(I6
I9
I2015
tp109
a(I6
I10
I2015
tp110
a(I6
I11
I2015
tp111
a(I6
I12
I2015
tp112
a(I6
I15
I2015
tp113
a(I6
I16
I2015
tp114
a(I6
I17
I2015
tp115
a(I6
I18
I2015
tp116
a(I6
I19
I2015
tp117
a(I6
I22
I2015
tp118
a(I6
I23
I2015
tp119
a(I6
I24
I2015
tp120
a(I6
I25
I2015
tp121
a(I6
I26
I2015
tp122
a(I6
I29
I2015
tp123
a(I6
I30
I2015
tp124
a(I7
I1
I2015
tp125
a(I7
I2
I2015
tp126
a(I7
I6
I2015
tp127
a(I7
I7
I2015
tp128
a(I7
I8
I2015
tp129
a(I7
I9
I2015
tp130
a(I7
I10
I2015
tp131
a(I7
I13
I2015
tp132
a(I7
I14
I2015
tp133
a(I7
I15
I2015
tp134
a(I7
I16
I2015
tp135
a(I7
I17
I2015
tp136
a(I7
I20
I2015
tp137
a(I7
I21
I2015
tp138
a(I7
I22
I2015
tp139
a(I7
I23
I2015
tp140
a(I7
I24
I2015
tp141
a(I7
I27
I2015
tp142
a(I7
I28
I2015
tp143
a(I7
I29
I2015
tp144
a(I7
I30
I2015
tp145
a(I7
I31
I2015
tp146
a(I8
I3
I2015
tp147
a(I8
I4
I2015
tp148
a(I8
I5
I2015
tp149
a(I8
I6
I2015
tp150
a(I8
I7
I2015
tp151
a(I8
I10
I2015
tp152
a(I8
I11
I2015
tp153
a(I8
I12
I2015
tp154
a(I8
I13
I2015
tp155
a(I8
I14
I2015
tp156
a(I8
I17
I2015
tp157
a(I8
I18
I2015
tp158
a(I8
I19
I2015
tp159
a(I8
I20
I2015
tp160
a(I8
I21
I2015
tp161
a(I8
I24
I2015
tp162
a(I8
I25
I2015
tp163
a(I8
I26
I2015
tp164
a(I8
I27
I2015
tp165
a(I8
I28
I2015
tp166
a(I8
I31
I2015
tp167
a(I9
I1
I2015
tp168
a(I9
I2
I2015
tp169
a(I9
I3
I2015
tp170
a(I9
I4
I2015
tp171
a(I9
I8
I2015
tp172
a(I9
I9
I2015
tp173
a(I9
I10
I2015
tp174
a(I9
I11
I2015
tp175
a(I9
I14
I2015
tp176
a(I9
I15
I2015
tp177
a(I9
I16
I2015
tp178
a(I9
I17
I2015
tp179
a(I9
I18
I2015
tp180
a(I9
I21
I2015
tp181
a(I9
I22
I2015
tp182
a(I9
I23
I2015
tp183
a(I9
I24
I2015
tp184
a(I9
I25
I2015
tp185
a(I9
I28
I2015
tp186
a(I9
I29
I2015
tp187
a(I9
I30
I2015
tp188
a(I10
I1
I2015
tp189
a(I10
I2
I2015
tp190
a(I10
I5
I2015
tp191
a(I10
I6
I2015
tp192
a(I10
I7
I2015
tp193
a(I10
I8
I2015
tp194
a(I10
I9
I2015
tp195
a(I10
I12
I2015
tp196
a(I10
I13
I2015
tp197
a(I10
I14
I2015
tp198
a(I10
I15
I2015
tp199
a(I10
I16
I2015
tp200
a(I10
I19
I2015
tp201
a(I10
I20
I2015
tp202
a(I10
I21
I2015
tp203
a(I10
I22
I2015
tp204
a(I10
I23
I2015
tp205
a(I10
I26
I2015
tp206
a(I10
I27
I2015
tp207
a(I10
I28
I2015
tp208
a(I10
I29
I2015
tp209
a(I10
I30
I2015
tp210
a(I11
I2
I2015
tp211
a(I11
I3
I2015
tp212
a(I11
I4
I2015
tp213
a(I11
I5
I2015
tp214
a(I11
I6
I2015
tp215
a(I11
I9
I2015
tp216
a(I11
I10
I2015
tp217
a(I11
I11
I2015
tp218
a(I11
I12
I2015
tp219
a(I11
I13
I2015
tp220
a(I11
I16
I2015
tp221
a(I11
I17
I2015
tp222
a(I11
I18
I2015
tp223
a(I11
I19
I2015
tp224
a(I11
I20
I2015
tp225
a(I11
I23
I2015
tp226
a(I11
I24
I2015
tp227
a(I11
I25
I2015
tp228
a(I11
I27
I2015
tp229
a(I11
I30
I2015
tp230
a(I12
I1
I2015
tp231
a(I12
I2
I2015
tp232
a(I12
I3
I2015
tp233
a(I12
I4
I2015
tp234
a(I12
I7
I2015
tp235
a(I12
I8
I2015
tp236
a(I12
I9
I2015
tp237
a(I12
I10
I2015
tp238
a(I12
I11
I2015
tp239
a(I12
I14
I2015
tp240
a(I12
I15
I2015
tp241
a(I12
I16
I2015
tp242
a(I12
I17
I2015
tp243
a(I12
I18
I2015
tp244
a(I12
I21
I2015
tp245
a(I12
I22
I2015
tp246
a(I12
I23
I2015
tp247
a(I12
I24
I2015
tp248
a(I12
I28
I2015
tp249
a(I12
I29
I2015
tp250
a(I12
I30
I2015
tp251
a(I12
I31
I2015
tp252
a.