(lp0
S'USA Today'
p1
aS'The Wall Street Journal'
p2
aS'The Christian Science Monitor'
p3
aS'New Hope Natural Media'
p4
aS"Nation's Restaurant News"
p5
aS'Times Record News'
p6
aS'Patch Media'
p7
aS'St. Louis PostDispatch'
p8
a.