(lp0
S'The Washington Post'
p1
aS'NBCNews.com'
p2
aS'USA Today'
p3
aS'CBS News'
p4
aS"Nation's Restaurant News"
p5
aS'The Wall Street Journal'
p6
aS'NPR'
p7
aS'Boston Herald'
p8
aS'Boston Herald'
p9
a.