(lp0
S'The Heartland Institute'
p1
aS'KFMBTV'
p2
aS'The Motley Fool'
p3
aS'KCNCTV'
p4
aS'South Florida Business Journal'
p5
aS'The Guardian'
p6
aS'Patch Media'
p7
aS'Patch Media'
p8
aS'Business Insider'
p9
aS'AFLCIO'
p10
a.