(lp0
S'Fox News Channel'
p1
aS'Yahoo! Finance'
p2
aS'TheStreet, Inc.'
p3
aS'The Wall Street Journal'
p4
aS'CNBC'
p5
aS'The Motley Fool'
p6
aS'South Florida Business Journal'
p7
aS'Time'
p8
aS'MarketWatch'
p9
a.