(lp0
S'The Motley Fool'
p1
aS'KCNCTV'
p2
aS'South Florida Business Journal'
p3
aS'The Denver Post'
p4
aS'Business Insider'
p5
aS'The Guardian'
p6
aS'Patch Media'
p7
aS'Patch Media'
p8
aS'AFLCIO'
p9
a.