(lp0
S'The Motley Fool'
p1
aS'The Motley Fool'
p2
aS'The Motley Fool'
p3
aS'Nashville Scene'
p4
aS'KUSA'
p5
aS'South Florida Business Journal'
p6
aS'South Florida Business Journal'
p7
aS'The VirginianPilot'
p8
a.