(lp0
S'CNBC'
p1
aS'The Motley Fool'
p2
aS"Investor's Business Daily"
p3
aS"Investor's Business Daily"
p4
aS'AM New York'
p5
aS'The Huffington Post'
p6
aS'Falls Church NewsPress'
p7
aS'NBCNews.com'
p8
a.