(lp0
S'E!'
p1
aS'Yahoo! Finance'
p2
aS'Yahoo! Finance'
p3
aS"Nation's Restaurant News"
p4
aS'Bloomberg L.P.'
p5
aS'South Florida Business Journal'
p6
aS'CNNMoney'
p7
aS'Chipotle Mexican Grill'
p8
aS'Business Insider'
p9
a.