(lp0
S'CBS News'
p1
aS'San Jose Mercury News'
p2
aS'The Wall Street Journal'
p3
aS'KMGHTV'
p4
aS'Yahoo! Finance'
p5
aS'The Wichita Eagle'
p6
aS'Reuters'
p7
aS'Las Vegas ReviewJournal'
p8
aS'The Denver Post'
p9
a.