(lp0
S'CNBC'
p1
aS'The Motley Fool'
p2
aS'Forbes'
p3
aS'Falls Church NewsPress'
p4
aS'AM New York'
p5
aS'Business Insider'
p6
aS"Investor's Business Daily"
p7
aS'Livingston County Daily Press & Argus'
p8
a.