(lp0
S'Fox News Channel'
p1
aS'Michigan Live'
p2
aS'Yahoo! Finance'
p3
aS'Business Insider'
p4
aS'WRDWTV'
p5
aS'The Telegraph'
p6
aS'South Florida Business Journal'
p7
aS'Law360'
p8
aS'Aiken Standard'
p9
a.