(lp0
S'Bloomberg L.P.'
p1
aS'South Florida Business Journal'
p2
aS'JournalNews'
p3
aS'New York Magazine'
p4
aS'The Telegraph'
p5
aS'Fox Business Network'
p6
aS'Esquire'
p7
aS'Yakima HeraldRepublic'
p8
aS'Seeking Alpha'
p9
a.