(lp0
S'NBCNews.com'
p1
aS'Yahoo! News'
p2
aS'CNBC'
p3
aS'San Jose Mercury News'
p4
aS'New York Daily News'
p5
aS'Fox News Channel'
p6
aS'MarketWatch'
p7
aS'BBC'
p8
aS'KRONTV'
p9
aS'Bloomberg L.P.'
p10
a.