(lp0
S'New York Post'
p1
aS'The Beaumont Enterprise'
p2
aS'The Motley Fool'
p3
aS'WXIXTV'
p4
aS'Bloomberg L.P.'
p5
aS'The Victoria Advocate'
p6
aS'Yahoo!'
p7
aS"Investor's Business Daily"
p8
aS'Business Insider'
p9
aS'WKRCTV'
p10
a.