(lp0
S'Chipotle Mexican Grill'
p1
aS'The Kansas City Star'
p2
aS'The Huffington Post'
p3
aS'CNBC'
p4
aS'Time'
p5
aS"Nation's Restaurant News"
p6
aS'SB Nation'
p7
aS'Cosmopolitan'
p8
aS'Business Insider'
p9
a.