(lp0
S"Nation's Restaurant News"
p1
aS'KNBC'
p2
aS'CNNMoney'
p3
aS'WMAQTV'
p4
aS'Chipotle Mexican Grill'
p5
aS'NBCNews.com'
p6
aS'WGNTV'
p7
aS'New York Daily News'
p8
aS'KMGHTV'
p9
aS'USA Today'
p10
a.