(lp0
S'Yahoo! Finance'
p1
aS'The Wall Street Journal'
p2
aS'The Wall Street Journal'
p3
aS'The Denver Post'
p4
aS'KNXVTV'
p5
aS'Erie TimesNews'
p6
aS'Knoxville News Sentinel'
p7
aS'WJETTV'
p8
aS'U.S. News & World Report'
p9
a.