(lp0
S'Yahoo! Finance'
p1
aS'Bloomberg L.P.'
p2
aS'CNNMoney'
p3
aS'South Florida Business Journal'
p4
aS'Chipotle Mexican Grill'
p5
aS'Business Insider'
p6
aS'USA Today'
p7
aS'International Business Times'
p8
aS'Fox News Channel'
p9
aS'The New York Times'
p10
a.