(lp0
S'CNNMoney'
p1
aS'USA Today'
p2
aS'WTVRTV'
p3
aS'The Wall Street Journal'
p4
aS'New York Daily News'
p5
aS'Chipotle Mexican Grill'
p6
aS"Nation's Restaurant News"
p7
aS'Bloomberg L.P.'
p8
aS'The Motley Fool'
p9
a.