(lp0
S'Bloomberg L.P.'
p1
aS'CNNMoney'
p2
aS'CNNMoney'
p3
aS'New York Daily News'
p4
aS'WTVRTV'
p5
aS'USA Today'
p6
aS'The Wall Street Journal'
p7
aS'The Wall Street Journal'
p8
aS'Yahoo! Finance'
p9
aS'Chipotle Mexican Grill'
p10
a.