(lp0
S'Fox News Channel'
p1
aS'E!'
p2
aS'New York Daily News'
p3
aS'CBS News'
p4
aS'Effingham Daily News'
p5
aS'WXIN'
p6
aS'The Huffington Post'
p7
aS'The News & Observer'
p8
aS'Chipotle Mexican Grill'
p9
a.