(lp0
S'The Motley Fool'
p1
aS'Fox News Channel'
p2
aS'Fox News Channel'
p3
aS'NJ.com'
p4
aS'Akron Beacon Journal'
p5
aS'Yahoo! News'
p6
aS'The Plain Dealer'
p7
aS'The Packer'
p8
aS'Business Insider'
p9
a.