(lp0
S'Chevron hikes spending 20 percent in search of growth ...'
p1
aS"Chevron's Spending Spree: With Profit Down, a Move to ..."
p2
aS'S.A. could become a boomtown - San Antonio Express-News'
p3
aS'News Release - Wood Group'
p4
aS"WikiLeaks: Oil giant Shell 'more powerful than Nigerian ..."
p5
aS'Chevron bags major North Sea oil contract despite safety ...'
p6
aS"NEWS | Industry Profile: Devon's Dave Hager | Rigzone"
p7
aS'Regeneration industry helps refiners control costs, limit ...'
p8
aS'Light change called bright idea | CJOnline.com'
p9
aS"Citigroup Names Obama's Orszag Vice Chairman of ..."
p10
a.