(lp0
S'Chevron Increases Total Investment to $55 Million in The ...'
p1
aS"Trading Pennies Into $7 Billion Drives High-Frequency's ..."
p2
aS'Calpers Strips BlackRock of Apartment Complex Funds ...'
p3
aS'Watching The World: Storage in Ivory Coast - Oil & Gas ...'
p4
aS'DownstreamToday.com - News and Information for the ...'
p5
aS'Petron, partner form P3.4-billion power generation company ...'
p6
aS'QUIP S.A. | LinkedIn'
p7
aS'Joint Institute for Strategic Energy Analysis: News'
p8
aS'The Oil Drum | Drumbeat: October 4, 2010'
p9
aS'NEWS | Analysis: Shale Gas Drilling Techniques ... - Rigzone'
p10
a.