(lp0
S'Chevron Announces Significant Natural Gas Find in Australia'
p1
aS'DownstreamToday.com - News and Information for the ...'
p2
aS'Australia: Chevron announces Acme-1 in Carnarvon Basin ...'
p3
aS'BP - Latest news, videos, and information - Today'
p4
aS'Collapsing Marsh Dwarfs BP Oil Blowout as Ecological ...'
p5
aS'Business In The News: Crisis Management at BP'
p6
aS'Big oil money at the state level mostly goes to influence the ...'
p7
aS'Caltex Energy Inc. | LinkedIn'
p8
aS'Santa Barbara Weighs In for Clean Energy'
p9
aS'Analysis of tank failure reveals oversight in inspection ...'
p10
a.