(lp0
S'producing energy and oranges - Chevron'
p1
aS'Venezuela signs energy accord with Trinidad and Tobago ...'
p2
aS'Energy firm proposes private LTE network for oil and gas firms'
p3
aS'Jeremy Siegel and Jeremy Schwartz: The Great American ...'
p4
aS'Sabine Pass LNG - DownstreamToday.com - News and ...'
p5
aS'Iraq Looks to Double Missan Oilfields Output - Energy News ...'
p6
aS'Clients | Sheehan Associates'
p7
aS'Autocallable RevCons - RBC Capital Markets'
p8
aS'Credit Card Skimmers Found at SoCal Shell Station  Royal ...'
p9
aS'NCOA discontinuation ceremony ends era at APG | Article ...'
p10
a.