(lp0
S'oil and gas projects and news contracts for contractors and ...'
p1
aS'Corporate funding in public education  is anyone watching ...'
p2
aS"World's Largest Environmental Lawsuit in Ecuador"
p3
aS'UPDATE 2-Trader Hin Leong plans mega refinery in ...'
p4
aS'Vanessa Nuez-Lopez - Bureau of Economic Geology - The ...'
p5
aS'[PDF]\nRead More (PDF) - Bixby Energy'
p6
aS'Big Energy Losers of 2010: Spills, Fights, Fatalities (and ...'
p7
aS'NEWS | Petrohawk Secures $650MM in Fayetteville Shale ...'
p8
aS'Gas Price Trends - Investing News Network'
p9
aS'TranSystems - Energy and Communications'
p10
a.