(lp0
S'BP Funnels Millions into Lobbying to Influence Regulation ...'
p1
aS"Greenland Oil Rush Looms as Exxon Eyes Cairn's Bet ..."
p2
aS'Chevron Corporate Responsibility Report 2009 - SlideShare'
p3
aS'Texaco partnership to offer marine 3D seismic method - Oil ...'
p4
aS'Planned oil well off Newfoundland lacks safeguards to avert ...'
p5
aS'NEWS | Murphy Makes Discovery at Dalmatian North ...'
p6
aS'BP: Dividend Date & History for BP PLC - Dividend.com'
p7
aS'[PDF]\nOffshore Energy Exploration - North Carolina General ...'
p8
aS'Northern Oil and Gas Annual Report 2009'
p9
aS'Mack Energy constructs new headquarters - Artesia News'
p10
a.