(lp0
S'Big Oil Goes to College | Center for American Progress'
p1
aS'Chinese solar pricing an appeal -Chevron | Reuters'
p2
aS'Imola Oil & Gas'
p3
aS'Big Oil goes to college: a conflict of interest? | Greenspace ...'
p4
aS'Chesapeake Energy wants to export LNG - Oil & Gas ...'
p5
aS'PPC - Bloomberg'
p6
aS"Occidental's Irani, Highest-Paid Oil CEO, to Retire - Bloomberg"
p7
aS"Event - Digital Energy: Chevron's i-Field - A Case Study SPE ..."
p8
aS'Sirius Petroleum | Media/News'
p9
aS'Assets on the block: Chevron to sell off Cook Inlet interests ...'
p10
a.