(lp0
S"SHV Energy acquires Chevron's Indian arm | Business ..."
p1
aS'Dutch oil and gas major SHV buys Caltex Gas India | Latest ...'
p2
aS'A&D Activity in Energy Sector Set to Increase in 2010 | Oil ...'
p3
aS"Chevron's Toxic Legacy in Ecuador | Rainforest Action ..."
p4
aS'C2C Energy Solutions | LinkedIn'
p5
aS'Oil Dependence Is a Dangerous Habit | Center for American ...'
p6
aS'Zinc Bromide: Mass Energy Storage for the Masses? | Green ...'
p7
aS'[PDF]\nEIC Monthly News - UTC Engenharia'
p8
aS'Alberta Carbon Trunk Line receives major funding boost ...'
p9
aS'Film review: Crude | Film | The Guardian'
p10
a.