(lp0
S'Chief Accounting Officer Articles - Oil & Gas Financial Journal'
p1
aS'United Kingdom: Total launches the development of the ...'
p2
aS'Vanoil Energy Ltd. - Kenya - Tue Apr 26, 2016'
p3
aS'Pioneering Fund Stages Second Act - WSJ'
p4
aS'Sunergy Strikes Strategic Alliance With Global Petroleum ...'
p5
aS'[PDF]\nREPORT ON ROYAL DUTCH SHELL PLC & OIL SANDS'
p6
aS'Bryan Cave - Guy W. Black'
p7
aS'[PDF]\non our site - Rockford Corporation'
p8
aS'NEWS | Cargotec Books Orders for 2 Subsea Cranes in ...'
p9
aS'Mining and Exploration Companies'
p10
a.