(lp0
S'DownstreamToday.com - News and Information for the ...'
p1
aS'BP - Latest news, videos, and information - Today'
p2
aS'Azerbaijan: INPEX acquires additional interest in the ACG ...'
p3
aS'Collapsing Marsh Dwarfs BP Oil Blowout as Ecological ...'
p4
aS'Business In The News: Crisis Management at BP'
p5
aS'Big oil money at the state level mostly goes to influence the ...'
p6
aS'Santa Barbara Weighs In for Clean Energy'
p7
aS'Caltex Energy Inc. | LinkedIn'
p8
aS'NEWS | Greenland Sees Hydrocarbons as Key to Political ...'
p9
aS'Analysis of tank failure reveals oversight in inspection ...'
p10
a.