(lp0
S'Oil and Gas Companies  Research Your Operator'
p1
aS'Shale Gas Booming Globally, Despite Chemical Dangers ...'
p2
aS'Natural Gas Drops To Five-Month Low After U.S. Stockpile ...'
p3
aS'Solid-acid alkylation process development is at crucial stage ...'
p4
aS'Tiger Oil and Energy Inc. OTCBB: TGRO - Oil Exploration ...'
p5
aS'China: CNOOC starts production at the Bozhong (BZ) 19-4 ...'
p6
aS'Value Investing: The Case for Oil Refining Stocks  XOM ...'
p7
aS'Matched Giving | United Nations Association In Canada'
p8
aS'Four selected as American Chemical Society fellows | WSU ...'
p9
aS'Hooper Welding - Client List'
p10
a.