(lp0
S'The End of Deep-Water Drilling? Not in Brazil. - WSJ'
p1
aS'US embassy cables: A stormy meeting in Kazakhstan ...'
p2
aS'Petroleum Insights: December 2010'
p3
aS'Examining Structural Shift Towards Dominance of National ...'
p4
aS'Coiled-tubing drilling technologies target niche markets - Oil ...'
p5
aS'Methodology helps analyze multiphase pumping systems ...'
p6
aS'Nikaitchuq heavy, shallow, cold; multiple challenges at new ...'
p7
aS'Eni to Search for Shale Gas in Poland, Scaroni Says | Horn ...'
p8
aS'School and Youth Organization Support - Chevron ...'
p9
aS'Chevron Corporation'
p10
a.