(lp0
S'Hazen and Sawyer Joins Chevron Energy Solutions to ...'
p1
aS'Perils and profit of offshore oil - The Globe and Mail'
p2
aS'Louisiana Oil Company Contacts - Oil Primer'
p3
aS'Before Rig Explosion in Gulf, Scant Difference Between BP ...'
p4
aS'BP/Amoco merger creates third &#39 - Oil & Gas Journal'
p5
aS'Congo exploration rebound on the horizon - Oil & Gas Journal'
p6
aS'[PDF]\nChevron Richmond Today, 2nd Quarter 2010'
p7
aS'CNOOC | LinkedIn'
p8
aS'Reliance to Buy Pioneer Shale Stake for $1.3 Billion ...'
p9
aS'Contracting in Aberdeen - SJD Accountancy'
p10
a.