(lp0
S'Chevron Sustainability News - Triple Pundit'
p1
aS'[PDF]\nENERGY VISION UPDATE 2011 A New Era for Gas - weforum.org - World ...'
p2
aS'Josh Young Finds Value in Oil and Gas E&Ps | Casey ...'
p3
aS'Petroplus, Tamoil Are Among World Refiners to Shut Sites ...'
p4
aS'Oil Industry - Producers of Energy and Disasters / La ...'
p5
aS'ExxonMobil rig attacked in Nigeria; production shut in - Oil ...'
p6
aS'How Big Oil won California  High Country News'
p7
aS'New management consulting firm opens in Houston - Oil ...'
p8
aS'Exxon Mobil Articles - Oil & Gas Financial Journal'
p9
aS'Vanguard Energy Inv (VGENX) Fund Research: Latest ...'
p10
a.