(lp0
S'OGJ Newsletter - Oil & Gas Journal'
p1
aS'Dirty Money: Big Oil and corporate polluters spent over $500 ...'
p2
aS'Meritage Midstream to extend Eagle Ford Escondido ...'
p3
aS'Shetland deepwater wells likely to be approved in face of ...'
p4
aS' Chevron Forces Greenpeacers Off Drillship Anchor Chain ...'
p5
aS'Greenpeace restarts protest on North Sea drill ship - Energy ...'
p6
aS'Greenpeace Swimmers Continue to Stop Oil Drilling Ship in ...'
p7
aS'Search News -Middle East and International Steel ...'
p8
aS'Chevron in Ecuador: October 2010'
p9
aS'Aboitiz Power delivers 70-90MW from Tiwi-MakBan | Think ...'
p10
a.