(lp0
S'Chevron, HighMount to cut 654 workers in Houston ...'
p1
aS'Disaster Plans Lacking at Deep Rigs - WSJ'
p2
aS'UPDATE 2-Goldman, BP sued over alleged SemGroup ...'
p3
aS'Foundation Energy Fund III closes at $73M - Oil & Gas ...'
p4
aS'Serinus Energy - History in brief'
p5
aS'Downstream Oil & Gas  CB&I'
p6
aS'Upstream Oil & Gas  CB&I'
p7
aS'Gas Processing Capabilities  CB&I'
p8
aS'Navarik Inspection | Navarik - Data Delivered'
p9
aS'Western Energy Production News'
p10
a.