(lp0
S'Pro-Environment Groups Outmatched, Outspent in Battle ...'
p1
aS'OGJ Newsletter - Oil & Gas Journal'
p2
aS'Pro-Environment Groups Outmatched, Outspent in Battle ...'
p3
aS'California Drought is No Problem for Kern County Oil ...'
p4
aS'Is Now the Time for the Energy Conglomerates? | Seeking ...'
p5
aS'Chevron fights potentially historic damages case | Reuters'
p6
aS"Rig Survivor Blames BP's 'Screwed-Up Plan' for Gulf Oil ..."
p7
aS'Oil Trading in the dark: Crude supply data scarce in Canada'
p8
aS'NEWS | Analysis: Voelte Bullish on Pluto LNG Despite ...'
p9
aS'Saudi Aramco makes twelve new appointments to Board of ...'
p10
a.