(lp0
S'Executive Vice President Charles A. James to Leave Chevron'
p1
aS'[PDF]\nSecondQuarter 2010 - Solar Times'
p2
aS'Chevron, Energy and the Outer Continental Shelf - YouTube'
p3
aS'Chevron May Be Liable For Superfund Site: 2nd Circ ...'
p4
aS'Petroleum Engineer - Science Buddies'
p5
aS"Chevron's gigantic revolutionary solar power plant launched ..."
p6
aS'Susquehanna Financial Group Hires Senior Research ...'
p7
aS'Offshore Overview | Natural Resources Magazine'
p8
aS'Chevron to build 750MW IPP in Lagos| IMG'
p9
aS'Green Energy - PlanetThoughts'
p10
a.