(lp0
S'Innovation strategies: How Chevron drives ingenuity'
p1
aS'Stock:Devon Energy (DVN) - Wikinvest'
p2
aS'Indonesia energy firms welcome government forest decree ...'
p3
aS'Kingsland Energy Corporation'
p4
aS'Alaskan North Slope operators shift focus from stemming ...'
p5
aS'Low-corrosion brine provides high-temperature completion ...'
p6
aS'Philippines to seek $300 million for Malampaya gas field stake'
p7
aS"Report Warns Oil Sands Investors of Toxic Wastewater's ..."
p8
aS'Second Utah oil find troubles wildcat operator - BusinessWeek'
p9
aS'Hurricane Katrina victims to sue oil companies over global ...'
p10
a.