(lp0
S'oil and gas news projects and contracts for contractors and ...'
p1
aS'Community | Chevron El Segundo Refinery'
p2
aS'Education | Community | Chevron El Segundo Refinery'
p3
aS'Letter to New Chevron CEO, John Watson: You Have an ...'
p4
aS'Oil Giant Chevron Accused of "Extortion" on Capitol Hill'
p5
aS'Who Funds The Chamber Of Commerce? HuffPost Readers ...'
p6
aS'Haynesville Play: The Haynesville Shale Resource: Forest ...'
p7
aS'MPL | Subsea World News'
p8
aS'Tom Kovar to replace Roland Kell as general manager of ...'
p9
aS'[PDF]\nExxon Mobil Corporation - SEC.gov'
p10
a.