(lp0
S'Chevron Corp. (Chevron) - BNamericas'
p1
aS'PanWestern Energy Inc. Announces Details of ... - CNW Group'
p2
aS'Renewable Energy News Channel - Chevron Training'
p3
aS'RasGas 3 starts up LNG Train 7 - Oil & Gas Journal'
p4
aS'Chevron, Energy and the Outer Continental Shelf - YouTube'
p5
aS'[PDF]\nSecondQuarter 2010 - Solar Times'
p6
aS'Chevron May Be Liable For Superfund Site: 2nd Circ ...'
p7
aS"NEWS | Norway Trims Shell's Ormen Lange Reserves by 25 ..."
p8
aS"NEWS | Qatar's RasGas Fires Up LNG Production from New ..."
p9
aS'Chevron to build 750MW IPP in Lagos| IMG'
p10
a.