(lp0
S'Walter Energy to buy Chevron mine - The Tuscaloosa News'
p1
aS'Hordes of Hired Guns Earned About $19 Million Per Day As ...'
p2
aS'NEWS | Analysis: E&P Success Continues off Atlantic ...'
p3
aS'D&C News - Drilling Contractor'
p4
aS'Chevron oil demands Crude filmmaker hand over unseen ...'
p5
aS'Oil from massive Gulf spill reaching coast - US news ...'
p6
aS'Crosby, Ovechkin, Sedin Are NHL Most Valuable Player ...'
p7
aS'Technology | Journey Home | Page 5'
p8
aS'2010 April  EHS Safety News America'
p9
aS"It's Your Life - Oil & Gas"
p10
a.