(lp0
S'Chevron wins bid to explore for energy in Beaufort Sea ...'
p1
aS'Apache Corporation Stocks, News and Research: Oil and ...'
p2
aS'Russia - Oil & Gas Financial Journal'
p3
aS'Lou Ann Hammond - Wikipedia, the free encyclopedia'
p4
aS'Flyers Energy, LLC: quotes & news - Google Finance'
p5
aS'Cheyenne Petroleum Company Houston TX, 77002  Manta ...'
p6
aS'Even With the Volcker Rule, Banks Can Still Make Big Bets ...'
p7
aS"Arctic Energy Production: Let's Move Forward, Not ..."
p8
aS'Chevron Drilling Deeper Offshore Newfoundland Oil Well'
p9
aS'ADJUSTING FLOW STATION JOB TO REMOTE NIGERIAN ...'
p10
a.