(lp0
S'Energy, and Plenty of It, for Decades to Come - The New ...'
p1
aS'Chinese Shale Gas Attracting International Investment ...'
p2
aS'SMC Dedicates Solar-Energy Efficiency Project'
p3
aS'Green Technology News'
p4
aS'Find a Well | FracFocus Chemical Disclosure Registry'
p5
aS'economics and technology help spark gulf deepwater projects'
p6
aS'Coincidence or Borderline Legal Insider Trading - Insider ...'
p7
aS'Environmental Groups and Chevron Phillips Chemical Co ...'
p8
aS'Apple Names Former Northrop CEO Ron Sugar as Director ...'
p9
aS'Capital expenditure on resources soars 21pc | The Australian'
p10
a.