(lp0
S'OGJ Newsletter - Oil & Gas Journal'
p1
aS'Chevron to plug, abandon Cook Inlet platform wells; prelude ...'
p2
aS'David Porter says Democrat Jeff Weems has record of ...'
p3
aS'Asia-Pacific to Pass North America in Ad Market Size ...'
p4
aS'Strategies are changing for unconventional gas (and oil ...'
p5
aS'BP acquires interest in Block 42/05 South China Sea | Press ...'
p6
aS'Safety and Environmental (HSE) Services for Oil and Gas ...'
p7
aS'News- Center for Responsible Business - Haas School of ...'
p8
aS'NEWS | Number of Incidents Rise on Offshore Australia ...'
p9
aS'Sponsorship | Houston'
p10
a.