(lp0
S'FY2009 Nippon Oil Corporation | News Release | JX Nippon ...'
p1
aS'Australia: Chevron and Nippon sign Gorgon gas agreement'
p2
aS'When Will Renewable Energy Companies Overtake ...'
p3
aS'Cramped on Land, Big Oil Bets at Sea - WSJ'
p4
aS'NEWS | Nippon to Construct Hachinohe LNG Terminal in ...'
p5
aS'Pacific Profile, Pt. 1 Dealer Takes All | CSPnet'
p6
aS'KEFFES youths shut Chevron office in Yenagoa - Vanguard ...'
p7
aS'Carbon Engineering & Science Research'
p8
aS'Abandoned Ady Gil still aflloat and leaking, Japan claims ...'
p9
aS'SAPREF | LinkedIn'
p10
a.