(lp0
S"Landmark's OpenWorks R5000 Software Selected as Part ..."
p1
aS'California Oil Company Contacts - Oil Primer'
p2
aS'Coca Cola, Standard Chartered and the oil industry - a force ...'
p3
aS'Get Paid By These Dividend Darlings - Forbes'
p4
aS'What drives stock prices? It may surprise you - The Globe ...'
p5
aS'CALIFORNIA STUDY COMPARES NATURAL/ DRILLING ...'
p6
aS'[PDF]\nHuman Rights Due Diligence: Is It Too Risky? - Harvard ...'
p7
aS'Effects of New SEC Rules on Oil and Gas Reserves Can Be ...'
p8
aS'Burleson Cooke extends Marcellus reach; adds five to ...'
p9
aS'BBC - Earth News - Giant bizarre deep sea fish filmed in ...'
p10
a.