(lp0
S'NEWS | Chevron Contracts DSME to Build Platform Offshore ...'
p1
aS'Industry tackles offshore decommissioning - Oil & Gas Journal'
p2
aS'Big Oil Bets On Natural Gas - The Daily Reckoning'
p3
aS'Ivan Susanto | LinkedIn'
p4
aS'Texas begins to tap the power of solar farms - Houston ...'
p5
aS'Bright Energy News'
p6
aS'Local industry suffers from overseas contracts - ABC News ...'
p7
aS'MORENO VALLEY: Canyon Springs stadium considered ...'
p8
aS'Punking Politics As Usual | BlogHer'
p9
aS'70th Anniversary Retrospective - Drilling Contractor'
p10
a.