(lp0
S'DownstreamToday.com - News and Information for the ...'
p1
aS'Oil & Industry: Connecting the Dots in the War Over ...'
p2
aS'Prometheus Energy - News + Press'
p3
aS'NETCO - NNPC'
p4
aS"Gas: Australia's biggest-ever deal looms | BG Group and ..."
p5
aS'Oiling the wheels of progress in Nigeria - China Daily'
p6
aS'MISTRAS Services Receives Chevron Safety Award'
p7
aS'CCMP Capital invests $345M in Chaparral Energy - Oil ...'
p8
aS'Drilling & Completions News - Drilling Contractor'
p9
aS'Central Gulf of Mexico oil and gas lease sale results show ...'
p10
a.