(lp0
S'Chevron | Yes Lab'
p1
aS'Oil industry | Yes Lab'
p2
aS"Chevron Punk'd! How the Big Oil Company Lost Control of ..."
p3
aS'Chevron plans to search for gas in Saudi-Kuwait border ...'
p4
aS'Critics spoof new Chevron ads promoting responsibility'
p5
aS'Chevron plans floating city of deep-water wells in Gulf ...'
p6
aS'Chevron Should Adopt Goals of Spoof PR Push - October ...'
p7
aS"Big oil's big cleanup in Brooklyn - CNN.com"
p8
aS'[PDF]\nenergy development corporation - CFA Institute'
p9
aS'Oil & Gas Data News and Analysis from Evaluate Energy'
p10
a.