(lp0
S'SHELL Philippines Exploration in Quest for More Oil ...'
p1
aS'BP Spill Threatens Gulf of Mexico Oil, Gas Operations ...'
p2
aS'May 2010 ~ Oil & Energy News'
p3
aS'2010 Houston CIO Executive Summit, May 4, 2010 - Evanta'
p4
aS'Alternative Forums | Texas Law Firm - Hicks Thomas LLP'
p5
aS'- AMEC wins Mafumeira Sul FEED contract,... - Europtrole'
p6
aS'Will oil deal final blow to besieged marshland? - U.S. News'
p7
aS'Finding Petroleum - Chevron - Mega Project execution ...'
p8
aS'Philippines: Benquet refuses geothermal exploration | Think ...'
p9
aS'Ram Power/ Polaris signs LOI on PPA negotiations in ...'
p10
a.