(lp0
S'WikiLeaks cables: Chevron discussed oil project with ...'
p1
aS'Chevron and Other Shareholders Sanction Caspian Pipeline'
p2
aS'Amberjack Pipeline Company LLC to Install 136 ... - Chevron'
p3
aS'Russia, Chevron Approve $5.4-Billion CPC Oil Pipeline ...'
p4
aS'WikiLeaks: BP Secretive Over Earlier Blowout; Chevron in ...'
p5
aS'Amberjack Pipeline Company LLC to Install 136 Mile Jack ...'
p6
aS'Norway accused of funding abuse in Burma | Europe | News ...'
p7
aS'Environmental Groups Sue ExxonMobil Over Air Emissions ...'
p8
aS'Merritt College Solar Project | The Peralta Colleges'
p9
aS'INSOURCING - Identifying businesses involved in prison ...'
p10
a.