(lp0
S"Chevron finishes Canada's deepest offshore well | Reuters"
p1
aS'Notable energy industry figure Matt Simmons dead at 67 ...'
p2
aS"Fossil Foolishness: Utah's Pursuit of Tar Sands and Oil Shale"
p3
aS'Liberia Plans Oil Exploration Deal With Chevron - allAfrica ...'
p4
aS'Enhance your career and your life: Jobs at Chevron ...'
p5
aS"Hard Times for Wall Street's 'Sell Night' Recruits - Bloomberg"
p6
aS'Fos Cavaou LNG terminal operating at full capacity - Oil ...'
p7
aS'Cheaper fuel ahead - San Antonio Express-News'
p8
aS'North West European Continental Shelf - oil & gas activity ...'
p9
aS'The Oil Drum | Drumbeat: September 2, 2010'
p10
a.