(lp0
S'Cambodia gives Chevron ultimatum on production from ...'
p1
aS'Safety & Health | Environment & Safety | Chevron El ...'
p2
aS'Community | Chevron Richmond'
p3
aS'PHILLIPS SETS SIGHTS ON NORTH SEA SATELLITES - Oil ...'
p4
aS'privatization of state company catalyzes argentine oil industry'
p5
aS"Tribunal finds Ecuador in breach of BIT for its judiciary's ..."
p6
aS'Blavatnik Creation LyondellBasell May Face U.S. Probe ...'
p7
aS'[PDF]\nFish &Wildlife News - U.S. Fish and Wildlife Service'
p8
aS'ChevronToxico | Chevron "Cooked" Evidence in Ecuador ...'
p9
aS'Chevron-BP Pipeline leaks Oil into Louisiana Wildlife ...'
p10
a.