(lp0
S'News - Decentralized Energy'
p1
aS'July 2010 ~ Oil & Energy News'
p2
aS'Connecting Oil & Gas Start-Ups With Buyers - Venture ... - U.S.'
p3
aS'OGFJ100P company update - Oil & Gas Financial Journal'
p4
aS'Shallow Gulf Drilling Grinds Toward Halt as Permits Trickle ...'
p5
aS'LLX Lures Shell, Mercuria to $40 Billion Port Project in Rio ...'
p6
aS'[PDF]\n2010 KPMG Global Energy Conference Recap'
p7
aS'NEWS | Analysis: Mainland Seeks Untapped Potential of ...'
p8
aS'BP Oil Spill Reactions: Have You Changed Your Energy ...'
p9
aS'ESP Resources, Inc. Announces Joint Venture Agreement ...'
p10
a.