(lp0
S'Chevron plans solar panel installation: report | Reuters'
p1
aS'Chevron Tests Emerging Solar Technologies in Central ...'
p2
aS'The Top Fifty Green Start-ups - CBS News'
p3
aS'Chevron project tests solar technologies - The Bakersfield ...'
p4
aS'Chevron Port Arthur ethylene expansion meets objectives ...'
p5
aS'Hibernia start-up seen as catalyst for additional Grand ...'
p6
aS'Chevron Testing Solar Technologies - The New York Times'
p7
aS'Shell, PetroChina to Buy Some Arrow Energy Assets - WSJ'
p8
aS"Tibet's Yangbajing will see a new geothermal power plant ..."
p9
aS'Natural Gas Is Now Blowing Up In Australia - Business Insider'
p10
a.