(lp0
S'True Cost of Chevron Network | Global Exchange'
p1
aS'Chevron CEO: Offshore drilling needs to continue - Houston ...'
p2
aS'Supermajors - Largest Oil Companies - Oil Prices'
p3
aS"Analysis  Oil majors tap Asia's gas resources - News Story ..."
p4
aS'[PDF]\n12 - for Petroleum News'
p5
aS'2010 Annual Meeting Remarks by John S. Watson - Chevron'
p6
aS"It's the great Chevron protest road show: Activists trail the oil ..."
p7
aS'GE signs contract, strengthens relationship with Saudi Aramco'
p8
aS'ExxonMobil Gives Green Progress Report, but Investors ...'
p9
aS'The curious case of Nat Bates | Richmond Confidential'
p10
a.