(lp0
S'Braemar Energy Ventures News: ITo Wash Hands of Palm ...'
p1
aS'Press Release | Chevron'
p2
aS'[PDF]\nTop 100 Operators - US Energy Information Administration ...'
p3
aS'Chevron keeps up pressure in Ecuador suit - SFGate'
p4
aS'China: CNOOC Signs Amendment Agreements to PSC for ...'
p5
aS'Chevron lets contract for Jack, St. Malo topsides - Oil & Gas ...'
p6
aS"OGJ150 financial results down in '09; production, reserves up"
p7
aS'Unilever Invests in Algae - WSJ'
p8
aS'Jonathan Risks Clashes in Oil-Rich Nigeria Vote Bid ...'
p9
aS'K.C. Littlefield | LinkedIn'
p10
a.