(lp0
S'Waste Management: Turning garbage into green energy ...'
p1
aS'Misleading Press Releases Aim to Obscure Overwhelming ...'
p2
aS'Chevron Corporate Offices in ... - Chevron Office Photo ...'
p3
aS'Feature: The winner for Natuna D-Alpha is.... Exxonmobil ...'
p4
aS'Construction survey shows completion date delays; projects ...'
p5
aS'New treatment enables waste-stream water reuse - Oil ...'
p6
aS'Energy - Houston Technology Center about htc Houston ...'
p7
aS'Stream Energy questioned in Ga. | www.ajc.com'
p8
aS'Diamond Castle Holdings invests in Professional Directional ...'
p9
aS'TOU Stock Quote | Tourmaline Oil Corp Stock Price (TSE ...'
p10
a.