(lp0
S'BP Loses Trading-Floor Swagger in Energy Markets - The ...'
p1
aS'LNG terminals to relieve Indonesia gas shortage - Oil & Gas ...'
p2
aS'Gas output, light-oil needs reshaping condensate trade - Oil ...'
p3
aS'NEWS | Noble Nourishing Relationship With Shell | Rigzone'
p4
aS'Hines Plans to Sell Union Bank Plaza in Downtown Los ...'
p5
aS"Princeton as 'Hedge Fund' Foiling Residents Seeking Tax ..."
p6
aS'Corporate Social Irresponsibility | Common Dreams ...'
p7
aS'Yemen LNG Cryogenic Gas Plant  CB&I'
p8
aS'Like Being Blind on the Moon: The Trouble with Deepwater ...'
p9
aS'Russia claims BP chief Tony Hayward is poised to resign ...'
p10
a.