(lp0
S'Chevron Deepwater Gas Project in Indonesia Enters Design ...'
p1
aS'Sinopec to Join Chevron Gas Project - WSJ'
p2
aS'Chevron Deepwater Gas Project in Indonesia Enters Design ...'
p3
aS'AG Recovers Money for Massachusetts Investors... - Mass.Gov'
p4
aS'Oil Watchdog | Archive | Occidental'
p5
aS'Chevron sells 18% gas field stake to Sinopec - FT.com'
p6
aS'Salt Lake mayor calls for indefinite shutdown of Chevron ...'
p7
aS'Chevron umumkan Pemenang Kontrak FEED Projek ...'
p8
aS'Dividend Stocks: 10 Companies with Big Payouts - CBS News'
p9
aS'PETROCHEMICALS - Oil & Gas Journal'
p10
a.