(lp0
S'Chevron to Cut Refining Jobs in Restructuring - WSJ'
p1
aS'Chevron plans downstream restructuring - Oil & Gas Journal'
p2
aS"UPDATE 1-Chevron's Richmond refinery likely to close ..."
p3
aS'Chevron overhaul might affect Isles | The Honolulu ...'
p4
aS"Texas oilman's urge to dig deeper pays off | www.statesman ..."
p5
aS'Gulf Oil gas stations are coming back - Washington ...'
p6
aS'chevron | The Wutz Up in the Philippines!'
p7
aS"Workers say Exxon Mobil hid cleaning job's radiation risk ..."
p8
aS'2010: The Year for Natural Gas  CVX, DRC, TGP, MSFT ...'
p9
aS'NEWS | Husky Wraps Up Phase 1 FEED at Sunrise Oil ...'
p10
a.