(lp0
S'Chevron plans solar panel installation: report | Reuters'
p1
aS'Chevron Tests Emerging Solar Technologies in Central ...'
p2
aS'Jobs | Oil & Gas Jobs in Philippines | Rigzone'
p3
aS'The Top Fifty Green Start-ups - CBS News'
p4
aS'Lime Rock Partners | Silixa Ltd. Announces Growth Capital ...'
p5
aS'Chevron project tests solar technologies - The Bakersfield ...'
p6
aS'Chevron Port Arthur ethylene expansion meets objectives ...'
p7
aS'Analysis identifies cause of pump failure - Oil & Gas Journal'
p8
aS'Chevron Testing Solar Technologies - The New York Times'
p9
aS'Canadian Operations - Marathon Oil Corporation'
p10
a.