(lp0
S'Chevron Sells Minority Interest in Colonial Pipeline ...'
p1
aS'Energy Company Research | SNL Financial LC'
p2
aS'Activists Target Every Chevron Station in San Francisco ...'
p3
aS'Australia: Apache announces agreement with Chevron and ...'
p4
aS"KKR | KKR Acquires Chevron's Stake in Colonial Pipeline"
p5
aS'Safety Officials Rarely Did Surprise Inspections of Gulf Rigs ...'
p6
aS'Cline Talking Clean as Coal Mines Supply Most Energy ...'
p7
aS'KKR in $1 Billion Pipeline Deal - The New York Times'
p8
aS'Oct 10, 2011 - AI Weekly: A weekly newsletter brought to ...'
p9
aS'Apache Promotes Janine McArdle to Senior Vice President ...'
p10
a.