(lp0
S'OGJ Newsletter - Oil & Gas Journal'
p1
aS'Dirty Money: Big Oil and corporate polluters spent over $500 ...'
p2
aS'Shetland deepwater wells likely to be approved in face of ...'
p3
aS'Greenpeace restarts protest on North Sea drill ship - Energy ...'
p4
aS' Chevron Forces Greenpeacers Off Drillship Anchor Chain ...'
p5
aS'Greenpeace Swimmers Continue to Stop Oil Drilling Ship in ...'
p6
aS'San Miguel | Philippine Energy Digest'
p7
aS'Controversies surrounding Royal Dutch Shell'
p8
aS'Aboitiz Power delivers 70-90MW from Tiwi-MakBan | Think ...'
p9
aS'[PDF]\nAlgal Biofuels; Algal Biofuels R&D at NREL (Brochure ...'
p10
a.