(lp0
S'Forensic Expert Discovers Elaborate Forgery of ... - Chevron'
p1
aS'Best Energy ad - The Internet Advertising Awards - IAC ...'
p2
aS"[PDF]\nColombia's Energy Renaissance - Americas Society"
p3
aS'Water Supplies Soaked Up By Oil Industry in California ...'
p4
aS'royal dutch shell: the most evil company on the planet?'
p5
aS'Exxon Resumes Output at Nigeria Oso Field After Attack ...'
p6
aS'Oil Giant Suspends Production in Nigeria - allAfrica.com'
p7
aS'Chevron builds up steam in the Middle East - FT.com'
p8
aS'UTEX Industries acquired by Rhone Capital - Oil & Gas ...'
p9
aS'Management-Madagascar Oil'
p10
a.