(lp0
S'BrightSource wins final OK for major solar plant | Reuters'
p1
aS"Tomorrow's Energy Today - Health, Environment ... - Chevron"
p2
aS'Conoco COO, CFO to Retire - WSJ'
p3
aS'[PDF]\nSelected companies represented in 2010: Retail ... - NACS'
p4
aS'Petrobras Busts The Price & Ignores Oil Trends (PBR, BP ...'
p5
aS"Jerry Brown's Environmental Record Runs Deep - NYTimes ..."
p6
aS'- GE Continues Expansion of USD40 Billion... - Europtrole'
p7
aS"BrightSource's Ivanpah Plant Checks the Final Box on the ..."
p8
aS'Member Companies - Welcome to UKOITC.org'
p9
aS"'Oil, Canada': Enbridge Sings Proudly - Salem-News.Com"
p10
a.