(lp0
S'Chevron part of new $6 billion oil project in Azerbaijan ...'
p1
aS'Chevron to Sell U.K. Refinery | Getty Images'
p2
aS'BP Set to Buy Devon Oil Assets - WSJ'
p3
aS'Chevron Deutschland (Hamburg) - Exhibitor - HANNOVER ...'
p4
aS'Chevron seeks UK refinery sale, to cut 2,000 jobs | Reuters'
p5
aS'Natural gas crystals: Energy under the sea - CNN Money'
p6
aS"Groups Protest Proposed Expansion of Chevron's ..."
p7
aS'News Update: Chevron (NYSE: CVX) Will Cut 2,000 Jobs in ...'
p8
aS'EXXON PUTS LONG EMBATTLED SANTA YNEZ UNIT ...'
p9
aS'Russia Struggles Toward Refinery Modernization Goals - Oil ...'
p10
a.