(lp0
S'Energy - People Blog And Shop - The Latest Hard Hitting ...'
p1
aS'Dow, up 21 . . . S&P up 1 . . . NASDAQ, down 4 - Cleveland ...'
p2
aS'Oil Watchdog | Archive | BP'
p3
aS'Brookshire - Media - 2010'
p4
aS'The BP Ad Bonanza of 2010: Best and Worst Campaigns ...'
p5
aS'Putin Bans Vacations Over Power Outages, Travel Chaos ...'
p6
aS'Valero Uses Contract Workers for Easy Layoffs | Consumer ...'
p7
aS'AVENTA launches a high performance polymer solar collector'
p8
aS'Factbox: Five facts about rare earth elements | Reuters'
p9
aS'- Jacobs Announces Definitive Agreement... - Europtrole'
p10
a.