(lp0
S'MANAGEMENT & ECONOMICS: Chevron team thinks like ...'
p1
aS'niger delta oil production, reserves, field sizes assessed'
p2
aS'BP Plc, Exxon Mobil, ConocoPhilips, Royal Dutch Shell And ...'
p3
aS'Four selected as American Chemical Society fellows | WSU ...'
p4
aS'Patent US7770640 - Carbon dioxide enriched flue gas ...'
p5
aS'Gasoline-Price Forecasting: What Sam the Gas Station ...'
p6
aS'Western Australia  an economy built on gas  Gas Today'
p7
aS'Boycott Valero and Tesoro Gas Stations. Tell Everyone You Know ...'
p8
aS'Parks Canada - News Releases and Backgrounders'
p9
aS'The TOES  Orientation and Evacuation System Proves the ...'
p10
a.