(lp0
S'Oil and Gas Interests Set Spending Record for Lobbying in ...'
p1
aS"Exxon Mobil says it's not forsaking oil for natural gas ..."
p2
aS"NEWS | Superior Snaps Up Shell's Bullwinkle Assets in ..."
p3
aS'About Us - DualEx Energy International Inc.'
p4
aS'Alamo Resources To Acquire Permian Assets From ...'
p5
aS'BP profit up as oil prices rise, misses forecasts | Reuters'
p6
aS'U.S. Energy Development Corporation | Company'
p7
aS'[PDF]\nPDF of this Issue - AAPG Home'
p8
aS'Indonesia seeks to purchase LNG carriers - Oil & Gas Journal'
p9
aS'Shell Plans $1.63 Billion Investment in Brazilian Ethanol - WSJ'
p10
a.