(lp0
S'California Drought is No Problem for Kern County Oil ...'
p1
aS'Chevron: Taking Measures To Respond To Apparent Oil ...'
p2
aS'Sturdy Houston Sees Its Market Go Wobbly - WSJ'
p3
aS'NEWS | Analysis: Voelte Bullish on Pluto LNG Despite ...'
p4
aS'Chevron refinery will improve by 2013, promises general ...'
p5
aS'SPINDLETOP SALT-CAVERN POINTS WAY FOR FUTURE ...'
p6
aS'Is Now the Time for Super Majors? | Morningstar'
p7
aS'Chevron Phillips Chemical Announces Management ...'
p8
aS'Eysink named CFO of Stork Technical Services - Oil & Gas ...'
p9
aS'[PDF]\nStructured Products Daily - Innovative Advisory Group'
p10
a.