(lp0
S"Boycott BP? Don't Bother - Newsweek"
p1
aS'refiners focus on fcc, hydroprocessing, and alkylation catalysts'
p2
aS'Oil and gas in nth america industry profile - presentations'
p3
aS'Gexa Energy - Wikipedia, the free encyclopedia'
p4
aS'Offshore accidents bring few penalties from the feds ...'
p5
aS'In UK Case, Oil Industry Faces Criminal Charges for 2005 ...'
p6
aS'[PDF]\nIssue 13'
p7
aS'2010 Annual Meeting - Corporate Eco Forum'
p8
aS'Reduce Compressor Maintenance Costs With Remote ...'
p9
aS'St. Joseph Bancorp Inc: OTCBB:SJBA quotes & news ...'
p10
a.