(lp0
S'Chevron Australia Home - Human Energy'
p1
aS"Chevron 'confident' in oil drilling safety - Canada - CBC News"
p2
aS'Oil and Gas Projects  Summit Electric Supply'
p3
aS'Back in Bankruptcy | CSPnet'
p4
aS'Setback for Chevron in attempts to seize Crude outtakes ...'
p5
aS'It Pays to Help Workers Buy a Home - Bloomberg'
p6
aS'IFC invests in Dubai-based GAC to support oil operations in ...'
p7
aS'King Consolidated appoints Ransone executive vice ...'
p8
aS'In Depth - Ethanol Producer Magazine  The Latest News ...'
p9
aS"BP oil spill: shares plummet as US warns it will 'take action ..."
p10
a.