(lp0
S'Oil & Gas News - Energy Business Review'
p1
aS"Calif. solar plant, to be world's largest, wins key approval ..."
p2
aS"BP's Competitors Face Risk of Catastrophic Accident, Too ..."
p3
aS'Refiners Campaign Against Greenhouse-Gas Law - WSJ'
p4
aS'Louisiana | Mesothelioma Cancer and Asbestos Exposure ...'
p5
aS'California Braces for Showdown on Emissions - The New ...'
p6
aS'MEG Stock Quote | MEG Energy Corp Stock Price (TSE ...'
p7
aS'Spent-caustic treating technology converts waste into ...'
p8
aS"The World's Largest Solar Plant Gets Planning Approval"
p9
aS"'Peak Oil' : Jimmy Carter's Secretary of Energy sounds the ..."
p10
a.