(lp0
S'Chevron Announces Natural Gas Discovery in Australia ...'
p1
aS'Could ExxonMobil or Chevron Take Over or Merge with BP ...'
p2
aS'Lobbyists Pull Out Checkbooks to Overturn CA Emission Law'
p3
aS'Lixin You | LinkedIn'
p4
aS'Communispace CorporationRecognizing Employees ...'
p5
aS'Hell of a Well | "Sweet," says Otter about Payette\'s big drill ...'
p6
aS"Noble Americas selects Amphora's Symphony Energy ..."
p7
aS'RED SEA OIL SHOWS ATTRACT ATTENTION TO ...'
p8
aS'Sakhalin-III - Wikipedia, the free encyclopedia'
p9
aS'Chevron Velma OK, 73491  Manta.com'
p10
a.