(lp0
S'Angola LNG Project - DownstreamToday.com - News and ...'
p1
aS'Deepwater Companies Pull Up Stakes, and Some May ...'
p2
aS'Oil Companies in Kuwait | List of Top 10 Oil Companies'
p3
aS'June 2010 ~ Oil & Energy News'
p4
aS'Chevron and the National Guard : snopes.com'
p5
aS'Total, ExxonMobil, Chevron and Lukoil race to drill for ...'
p6
aS'[PDF]\nNEWS - Energy Institute'
p7
aS'Way up north, another kind of oil controversy | newsdesk dot ...'
p8
aS'History - Welcome to KUFPEC'
p9
aS'[PDF]\nShell World'
p10
a.