(lp0
S'Chevron Nears Natural-Gas Deal With CNPC - WSJ'
p1
aS'[PDF]\nEnergy Market Consequences'
p2
aS'[PDF]\nDownload PDF - Chevron Australia'
p3
aS"Calif. solar plant, to be world's largest, wins key approval ..."
p4
aS'[PDF]\nFront Cover - Chevron Bangladesh'
p5
aS' Liquids production of top 20 U.S. oil and gas companies ...'
p6
aS'oil and gas projects and news contracts for contractors and ...'
p7
aS"BP's Competitors Face Risk of Catastrophic Accident, Too ..."
p8
aS'Nelia Daniel Dias - OGEL Journal (Oil, Gas & Energy Law ...'
p9
aS'California Braces for Showdown on Emissions - The New ...'
p10
a.