(lp0
S'About Chevron Richmond | Chevron Richmond'
p1
aS'Senator Chuck Hagel and John G. Stumpf ... - Chevron'
p2
aS'Chevron Confirms First Oil From Perdido Development ...'
p3
aS'Obama opens new oil drilling offshore in climate drive ...'
p4
aS'Shell begins production at Perdido - Oil & Gas Journal'
p5
aS'Who Funds Contrariness on Climate Change? - Scientific ...'
p6
aS"News Analysis - Risk Is Clear in Drilling - Payoff Isn't ..."
p7
aS'Increasing role of China in the oil market - Oil-price.net'
p8
aS'The NETHERLANDS: the energy hub of Europe - Oil & Gas ...'
p9
aS'April 2010 ~ Oil & Energy News'
p10
a.