(lp0
S'Jagjeet S. Bindra Joins Edison International and Southern ...'
p1
aS'[PDF]\nMSHA - News Release - 6 Kentucky coal mines forced to ...'
p2
aS'[PDF]\nMSHA Coal Impact Inspection Results'
p3
aS'[PDF]\nExploration - Chevron Australia'
p4
aS'Search Continues for Oil-Rig Workers After Blast - WSJ'
p5
aS"Jones Day Snags O'Melveny Energy Co-Chair - Law360"
p6
aS'COOEC Signs Gorgon Project Contract with Chevron AUS'
p7
aS'Goldman, UBS, SocGen, Madoff, Siemens in Court News ...'
p8
aS'10 Green Giants That Could Change the World - CBS News'
p9
aS'Challenging China in Rare Earth Mining - The New York ...'
p10
a.