(lp0
S'Kazakh Oil Too Rich for Tax to Deter Chevron: Energy Markets'
p1
aS'New Oil Spill Containment System to Protect Gulf ... - Chevron'
p2
aS'Energy Value Plays  VLO, XOM, CVX, XOM, BP ...'
p3
aS'Chevron and KOGAS Sign Major LNG And Equity ...'
p4
aS'Granite Wash News, Wells, Formation, Markets and ...'
p5
aS'Trans Energy, Republic Energy Ventures partner in Marcellus'
p6
aS'Horizontal well taps bypassed Dundee oil in Crystal field ...'
p7
aS'Marbob sold for $1.65 billion - Artesia News'
p8
aS'Big oil companies to present plan to respond to future spills'
p9
aS'Oil Giants Create $1 Billion Rapid Response Venture ...'
p10
a.