(lp0
S'Enhanced Oil Recovery Articles - Oil & Gas Journal'
p1
aS'UC Berkeley NewsCenter: Gulf oil spill experts'
p2
aS'Company Directory | Page 7 of 9 | Nogtec'
p3
aS'Energy-related deal makers turn up the heat - Houston ...'
p4
aS'Marketers Blame the Consumer in New Save-the-Planet ...'
p5
aS'[PDF]\nThe Weekly News - Purdue University'
p6
aS'Reigning in Irresponsible Oil Giants Chevron and Exxon Mobil'
p7
aS'Global Conference 2010 | Bill Koetzle  Milken Institute'
p8
aS'[PDF]\nA Stakeholder Analysis of the BP Oil Spill - University of ...'
p9
aS'The Oil Drum | Drumbeat: April 20, 2010'
p10
a.