(lp0
S'Chevron Announces Agreement to Acquire Atlas Energy ...'
p1
aS'Chevron to Buy Shale-Gas Owner Atlas for $3.2 Billion ...'
p2
aS'Chevron bets on shale gas with $3.2 billion Atlas buy | Reuters'
p3
aS'Chevron to Buy Atlas Energy for $4.3 Billion - The New York ...'
p4
aS'Chevron buying Atlas Energy for $4.3 billion - MarketWatch'
p5
aS'Chevron Agrees to Acquire Atlas Energy, Inc. in a ...'
p6
aS'NEWS | Chevron Contracts DSME to Build Platform Offshore ...'
p7
aS'Chevron 3B+ - RunningWater.us'
p8
aS'Big Oil Bets On Natural Gas - The Daily Reckoning'
p9
aS'News Release - Investors - Grace'
p10
a.