(lp0
S"For Chevron, It Could Be a Happy New Year - Barron's"
p1
aS'CIRI buys North Wind Inc. | North Wind Group'
p2
aS'Plains Exploration & Production - Wikipedia, the free ...'
p3
aS'Mark Kalman Joins DeepFlex as Vice President of ...'
p4
aS'Indonesia aims to drop oil/gas cost recovery limits | Reuters'
p5
aS'VALUE CREATION IN DOWNSTREAM US-1: Refining ...'
p6
aS'Woodside Loses PetroChina Deal On Browse Gas - Oilfield ...'
p7
aS'Kuwait Energy'
p8
aS'Europe - WorleyParsons.com'
p9
aS'Reports: Shell to exit Africa nations  Royal Dutch Shell plc ...'
p10
a.