(lp0
S'Chevron Signs $3 Million Research Agreement - Cockrell ...'
p1
aS'Brabham Oil | News'
p2
aS'Chevron Wins Supply Chain Award for Lean Six Sigma ...'
p3
aS'Review & Outlook: Shakedown in the Rain Forest - WSJ'
p4
aS'17th Africa Oil Week / 1st-5th November 2010, BMW ...'
p5
aS'Petrobras Raises $70 Billion as Investors See Growth ...'
p6
aS'Chevron, Shell, Baker Hughes Win BSI Supply Chain Awards'
p7
aS"Greenpeace: Activists preventing drill ship's launch well ..."
p8
aS'EnergyNet.com: Why EnergyNet'
p9
aS'Search Results for "Atinum Partners Co Ltd" - The Business ...'
p10
a.