(lp0
S'Chevron approves Jack/St. Malo project in the Gulf of Mexico'
p1
aS'SMC Completes Solar-Energy Efficiency Project - Info ...'
p2
aS'Prop. 23: Why did Valero launch a campaign against ...'
p3
aS'OGJ Newsletter - Oil & Gas Journal'
p4
aS'British Gas (BG) Exploration and Production is pulling out of ...'
p5
aS'Canada: Hibernia oil field reserves increased by 12 percent'
p6
aS'Oil and Gas Companies in Botswana | Botswana Oil Industry'
p7
aS'Comments on Proposed Rule: Facilitating Shareholder ...'
p8
aS'SHPE National Conference, One of the Largest of Its Kind in ...'
p9
aS'Haynesville Play: The Haynesville Shale Resource ...'
p10
a.