(lp0
S'Response and clean-up technology research and ...'
p1
aS'USPages - Oil Gas - ChevronTexaco Corporation'
p2
aS'If the $30 Billion We Give Oil Sands Went to Green Energy ...'
p3
aS'Black Sea Oil Rush - Why Not in Bulgaria? - Novinite.com ...'
p4
aS'Nigeria: Petrofac Enters into Strategic Alliance with Seven ...'
p5
aS'Tourmaline Oil Corp: Home'
p6
aS'Turkmenistan plans new refinery - News Story - Argus Media'
p7
aS'Texaco Jamaica up for sale | Business | Jamaica Gleaner'
p8
aS'Seychelles thermal history, hydrocarbon generation traced ...'
p9
aS'Port Harcourt Oil & Gas | Nigeria Heartbeat'
p10
a.