(lp0
S'CVX - Chevron Company Profile - CNNMoney.com'
p1
aS'[PDF]\nSeismic Technology: How It Works - Chevron Corporation'
p2
aS'Wyoming Oil Company Contacts - Oil Primer'
p3
aS'Petrohawk Energy to sell Terryville Field for $320M - Oil ...'
p4
aS'The Toxic 100: Top Corporate Air Polluters in the United ...'
p5
aS'Sunergy Strikes Strategic Alliance With Global Petroleum ...'
p6
aS'Pioneering Fund Stages Second Act - WSJ'
p7
aS'Special Report: LNG Update: Asia-Pacific LNG capacities ...'
p8
aS'Bryan Cave - Guy W. Black'
p9
aS'Patrick Burdett | LinkedIn'
p10
a.