(lp0
S'FTC Investigates Oil Firms Over Hiring, Wages - WSJ'
p1
aS'Call for Burma Energy Data'
p2
aS'Appeals Court: Chevron Refinery Expansion Plans Illegal ...'
p3
aS'Huadian Energy Company Ltd.: SHA:600726 quotes & news ...'
p4
aS'Retired Chevron CFO Steve Crowe, BS 69, MBA 70, Named ...'
p5
aS'Visible from space, deadly on Earth: the gas flares of Nigeria ...'
p6
aS'Development constraints limit Turkmen gas export options ...'
p7
aS'Oil groups turn focus back to traditional fields | Reuters'
p8
aS'JPMorgan Hires Oliver Who Helped Run CME Credit Swaps ...'
p9
aS'Biodiesel Magazine - The Latest News and Data About ...'
p10
a.