(lp0
S'Big Oil Goes to College | Center for American Progress'
p1
aS'Producing energy from geothermal plants  Chevron.com'
p2
aS'Imola Oil & Gas'
p3
aS'Big Oil goes to college: a conflict of interest? | Greenspace ...'
p4
aS'Chesapeake Energy wants to export LNG - Oil & Gas ...'
p5
aS"Occidental's Irani, Highest-Paid Oil CEO, to Retire - Bloomberg"
p6
aS'Energy Market Research | Enerdata'
p7
aS'Sirius Petroleum | Media/News'
p8
aS'ORIONS Money Stocks: Publicly Traded American Ethanol ...'
p9
aS'Transnational Dispute Management - TDM News Digest ...'
p10
a.