(lp0
S'Chevron Hit With Antitrust Suit From Gas Wholesaler - Law360'
p1
aS"UK: RBG Removes Fairlead form Chevron's Captain FPSO ..."
p2
aS'Barclays Hires Seven From BP to Boost Energy Sales ...'
p3
aS'Gross Energy Corporation Van TX, 75790  Manta.com'
p4
aS'Refinery Status: Motiva Port Arthur Unit Shut After Flash Fire ...'
p5
aS'Chevron to expand West Africa presence with entry to ...'
p6
aS'Chevron Challenged by Human Rights Activists to "Do Good ...'
p7
aS'[PDF]\nChevron Qonioimn - Fossil Energy - Department of Energy'
p8
aS'Eurasia Foundation Elects New Chairman and Vice ...'
p9
aS'Willbros - The FCPA Blog - The FCPA Blog'
p10
a.