(lp0
S'Chevron Corp. (Chevron) - BNamericas'
p1
aS'PanWestern Energy Inc. Announces Details of ... - CNW Group'
p2
aS"Exploration interest high in Peru's Ucayali basin - Oil & Gas ..."
p3
aS'RasGas 3 starts up LNG Train 7 - Oil & Gas Journal'
p4
aS'Renewable Energy News Channel - Chevron Training'
p5
aS'NEWS | Qatar Petroleum, ExxonMobil Initiate AKG-2 Project ...'
p6
aS"NEWS | Qatar's RasGas Fires Up LNG Production from New ..."
p7
aS'Schlumberger-Smith Deal: A $11B Bet on Hard-to-Reach Oil ...'
p8
aS'Salamander launches 2010 drilling program in Laos - Oil ...'
p9
aS'The Politics of Central Asian and Caspian Energy | Chatham ...'
p10
a.