(lp0
S'Liberia: Chevron to acquire deepwater interests offshore ...'
p1
aS'Chevron Hit With Antitrust Suit From Gas Wholesaler - Law360'
p2
aS'Tristan Oil Ltd'
p3
aS'Barclays Hires Seven From BP to Boost Energy Sales ...'
p4
aS'Ascom Takes Government of Kazakhstan to Stockholm ...'
p5
aS'Gross Energy Corporation Van TX, 75790  Manta.com'
p6
aS'Richard Williams | LinkedIn'
p7
aS'Chevron to expand West Africa presence with entry to ...'
p8
aS'[PDF]\nChevron Qonioimn - Fossil Energy - Department of Energy'
p9
aS"[PDF]\nEnergy Market Consequences - Rice University's Baker ..."
p10
a.