(lp0
S'Chevron breaks ground on Concentrix Solar CPV project ...'
p1
aS'Solar panels at Harbor College remain unused due to ...'
p2
aS'Shale Gas Costing 2/3 Less Than OPEC Oil Incites Water ...'
p3
aS"US oil, gas firms' 1Q earnings rebound from year-earlier loss ..."
p4
aS'History of Texaco | Texaco engine oils and lubricants'
p5
aS'100 Top MBA Employers 2010 - Top 100 - FORTUNE on ...'
p6
aS'How the Price of Oil Impacts Oil Company Stocks | Seeking ...'
p7
aS'Microlog Sues Ford, Others Over Call Center Patent - Law360'
p8
aS'Haynesville Play: The Haynesville Shale Resource ...'
p9
aS'Bunkerworld Directory - Country - Panama'
p10
a.