(lp0
S"majors' us retrenchment causes sale property glut - Oil ..."
p1
aS'Energy Investment And Trade Opportunities Emerging In ...'
p2
aS"After The Yes Men's Chevron Spoof, What Next For YOU?"
p3
aS"Does Chevron Think We're All Stupid? - Huffington Post"
p4
aS'Gasette | LMOP | US EPA'
p5
aS'Deepwater discoveries keep West Africa at global forefront ...'
p6
aS'Texas MBA Energy Finance Team Lights Tower | McCombs ...'
p7
aS'Chevron scholarships awarded to Heriot-Watt students | News'
p8
aS'BP Slams Oil-Spill Critics - Wall Street Journal'
p9
aS'PhD scholarships : Centre for Energy : The University of ...'
p10
a.