(lp0
S'Oil/gas firms take lead among new breed of energy ...'
p1
aS'Mobil group finds more gas off W. Australia - Oil & Gas Journal'
p2
aS'chevron named top corporation for women businesses ...'
p3
aS'Joe Laymon, Chevron Corporation | Diversity Journal'
p4
aS'Wrapping up major gas projects in Australia  Gas Today'
p5
aS'Data Center Articles - Oil & Gas Financial Journal'
p6
aS'Genesis Energy GP acquired by Quintana Capital Group ...'
p7
aS'Devon Energy Sells Off Brazil Assets | The Rio Times | Brazil ...'
p8
aS'Warming up to realities - Oil & Gas News (OGN)'
p9
aS'[PDF]\nCSU Bakersfield Geology Fall 2010 Newsletter'
p10
a.