(lp0
S'UK: Chevron gets approval to drill Lagavulin Prospect off ...'
p1
aS'Libya says Chevron and Occidental exit licences - energy ...'
p2
aS'[PDF]\nChevron Career Booklet - Center for Excellence in Education'
p3
aS'Careers: Chevron China'
p4
aS'Watching The World: Storage in Ivory Coast - Oil & Gas ...'
p5
aS'Global Taps Alliance | CSPnet'
p6
aS'Calpers Strips BlackRock of Apartment Complex Funds ...'
p7
aS'Tesoro Fined $2.39 Million for Blast at Refinery - Bloomberg'
p8
aS'Petron, partner form P3.4-billion power generation company ...'
p9
aS'show all - Executive Profiles - CEO Biographies - Senior ...'
p10
a.