(lp0
S'Houston Chevron Marathon - Your Houston News ...'
p1
aS'Noria news wires - Machinery Lubrication'
p2
aS'Chevron cuts back Nigeria oil flow after attack | Reuters'
p3
aS'Oil Watchdog | Archive | January'
p4
aS'Uni-Marts Sale Done | CSPnet'
p5
aS"Wind farms produced 'practically no electricity' during ..."
p6
aS'Coca-Cola | As You Sow'
p7
aS'The Oil Drum | Drumbeat: January 11, 2010'
p8
aS'Ensyn to participate in DOE Grant to build fast pyrolysis ...'
p9
aS'Morris, Manning & Martin Welcomes Five Litigation and ...'
p10
a.