(lp0
S'Coming Clean, Chevron Launches We Agree Ad Campaign'
p1
aS"Chevron Launches New Global Advertising Campaign: 'We ..."
p2
aS'Campaign Highlights Victims | Yes Lab'
p3
aS'Chevron Ads Evoke an Anti-Industry Attitude - WSJ'
p4
aS"Chevron Attempts to Repair Tarnished Image with 'We Agree'"
p5
aS'Hoaxers target new Chevron advertising campaign | Reuters'
p6
aS'Chevron launches ad campaign agreeing with ... - ABC7 News'
p7
aS'Big Oil Goes to College: BP, ExxonMobil, Chevron, Shell ...'
p8
aS'[PDF]\nChevron, Greenwashing, and the Myth of Green Oil ...'
p9
aS"Spain's Solar Deals on Edge of Bankruptcy as Subsidies ..."
p10
a.