(lp0
S'CVX - Chevron Company Profile - CNNMoney.com'
p1
aS'CVX - Business and Financial News - CNN Money'
p2
aS'[PDF]\nSeismic Technology: How It Works - Chevron Corporation'
p3
aS'GoM: Pacific Drilling announces Letter of Intent with ...'
p4
aS'Vanguard - Vanguard Energy Fund Investor Shares'
p5
aS'Wyoming Oil Company Contacts - Oil Primer'
p6
aS'Petrohawk Energy to sell Terryville Field for $320M - Oil ...'
p7
aS'The Toxic 100: Top Corporate Air Polluters in the United ...'
p8
aS"Northwest Europe's Operators Show Creativity In New ..."
p9
aS'Gas Drilling Going Deep In Pa., exploration companies ...'
p10
a.