(lp0
S'EPA believes Chevron was aware of violation | Alaska ...'
p1
aS'NEWS | Analysis: 2009 Top Discoveries | Rigzone'
p2
aS"Indonesia sees higher output from ConocoPhillips' North ..."
p3
aS'Chevron Oil becomes MRS Oil - Proshare'
p4
aS'New Lobbying Reports Show Big Business Keeps Spending ...'
p5
aS'Derivatives Markets Articles - Oil & Gas Financial Journal'
p6
aS'Why the Price Is Rarely Right - Bloomberg'
p7
aS'VICTORIA OIL & GAS Share Discussion | VOG Stock Discussion ...'
p8
aS'Social Responsibility - Chevron Training'
p9
aS"QuikTrip on 'Best' List | CSPnet"
p10
a.