(lp0
S'Energy Companies  Natural Gas  Penn State Extension'
p1
aS'GeoGlobal Energy Makes Key Additions to Technical Team'
p2
aS'Asphalt: The new darling of the oil industry - The Globe and ...'
p3
aS"Gas well could be 'extremely big' | Mississippi's Best ..."
p4
aS'As offshore oil war continues, quieter pollution battles being ...'
p5
aS'Chemical BPA found on cash register receipts - USA Today'
p6
aS'Evaluate Energy - Exploration Drilling Success Rate 2006-7'
p7
aS'Chevron (Thailand) Ltd.: Private Company Information ...'
p8
aS'Wayne Kim Foo B.Sc., M.Sc.: Executive Profile & Biography ...'
p9
aS'Chevron Services Company Concord CA, 94520  Manta.com'
p10
a.