(lp0
S'Jazan Refinery Project - DownstreamToday.com - News and ...'
p1
aS'Updated: Chevron and City of Brea begin construction on ...'
p2
aS'Chevron Welcomes Native Title HOA for Wheatstone Gas ...'
p3
aS'Michael W. Tweedy to Join Marathon Oil Company as Chief ...'
p4
aS'Exxon Mobil profit nearly doubles - Jul. 29, 2010 - CNN Money'
p5
aS'GE to Pay $23.5 Million to Settle SEC Kickback Charges - WSJ'
p6
aS'BP May Sell Venezuela Oil Stakes to Russian Venture ...'
p7
aS'Chevron lines up Wheatstone LNG expansion | afr.com'
p8
aS'Sacramento Bee -- The Public Eye - News Columns & Blogs'
p9
aS'Chevron spill plan questioned by expert - Newfoundland ...'
p10
a.