(lp0
S"Chevron completes Canada's deepest well - The Globe and ..."
p1
aS'Chevron completes deepsea drilling project - Newfoundland ...'
p2
aS"August | 2010 | Doug Neeper's Blog"
p3
aS'Strong Buys Among Oil Stocks - Forbes'
p4
aS'Climbers scale rig in freezing seas as energy giants eye ...'
p5
aS'Indicated Dividend Yield Ranking for the S&P 500 by Industry'
p6
aS'Red Willow Production Company - Our History'
p7
aS"Greenland's Prime Minister Lambasts Greenpeace for Raid ..."
p8
aS"GeoSyndicate plans to open India's first geothermal plant by ..."
p9
aS'Navajo headed for slow death? - Artesia News'
p10
a.