(lp0
S'Chevron Corporation - GBCHealth'
p1
aS"Nigeria's Escravos gas project starts up - Oil & Gas Journal"
p2
aS'BP TO DEVELOP NORTH SEA GAS FIELD - Oil & Gas Journal'
p3
aS'Chevron Corp Carlsbad NM, 88220  Manta.com'
p4
aS"NEWS | BP Launches Drilling Tenders for Iraq's Largest Oil ..."
p5
aS'NEWS | Shell to Develop Jurassic Gas Reserves in Kuwait ...'
p6
aS'[PDF]\nmidstreamnews - PLS'
p7
aS'Azerbaijan: CNOOC and Sinopec among companies ...'
p8
aS'One Year After Nationalization Threats, Libya Now ...'
p9
aS"Indonesia's resources appeal grows on China | Reuters"
p10
a.