(lp0
S"How'd we get stuck with BP? - Jul. 12, 2010 - CNN Money"
p1
aS'BP builds defence in takeover threat - Telegraph'
p2
aS'BP boosted 10pc as oil leak cap and bid talk lifts shares ...'
p3
aS'Chevron Energy Technology Company - Richmond, CA ...'
p4
aS'BP Declines Comment On UK Press Report Of Possible ...'
p5
aS'The Chevron drill ship Discoverer Inspiration, leased by BP ...'
p6
aS"U.S. eyes geothermal for Exim Bank's $1 bln Indonesia ..."
p7
aS"California Schemin' | Mother Jones"
p8
aS'New NOCO Drag Racer | CSPnet'
p9
aS'Should Exxon or Chevron Buy BP? - CNBC Video'
p10
a.