(lp0
S'NEWS | Analysis: U.S. to Reap Fruits of Deepwater Labor ...'
p1
aS'Another Aussie indie enters inlet; Buccaneer acquires ...'
p2
aS'NETCO - NNPC'
p3
aS'How To Invest Into Oil Stocks - Envestor First - Energy ...'
p4
aS'Chevron Corporation - Fortune'
p5
aS'MISTRAS Services Receives Chevron Safety Award'
p6
aS'Kleiner Perkins Recruits from Tesla - Digits - WSJ'
p7
aS'CCMP Capital invests $345M in Chaparral Energy - Oil ...'
p8
aS'Galloway Johnson : Houston Law Firm : Houston Attorneys ...'
p9
aS"BG Group project in 475m 'criminal' probe - Telegraph"
p10
a.