(lp0
S'Community Partnerships - Social Responsibility ... - Caltex'
p1
aS'Best Consumer Stocks for a Recovering Economy - US News'
p2
aS'Environmental Practices - Chevron (2013) | Trillium Asset ...'
p3
aS'Top 22 Bibiyana Gas Plant profiles | LinkedIn'
p4
aS'[PDF]\nSangjog english.cdr - Chevron Bangladesh'
p5
aS"Chevron's Toxic Legacy in Ecuador | Rainforest Action ..."
p6
aS'Where Do We Get Our Oil? | CleanTechnica'
p7
aS'NEWS | R2S visual asset management - Scene Ltd'
p8
aS'Despite Focus on Renewables,Fossil Fuels Not Going ...'
p9
aS"Chevron's Drug of Choice - SF BAY TIMELESS"
p10
a.