(lp0
S'Chevron, Texaco Accepting Fuelman, FleetWide Cards ...'
p1
aS'Caspian Sea Projects Advancing After Aliyev State Visit To ...'
p2
aS'NEWS | Rocksource Pleased with Assessment of Trident ...'
p3
aS"NY Shale Gas Now!: Norse Energy's View of Central New York"
p4
aS"'Fracking' for energy: boon or doom? - US news ... - NBC News"
p5
aS'Chevron Atlas Energy | Oil and Gas Journal'
p6
aS'News - Enel Green Power'
p7
aS'Mustang Geothermal completes purchase of Peruvian ...'
p8
aS'The Oil Drum | Drumbeat: November 11, 2010'
p9
aS"Qatar's Tasweeq Sells Deodorized Field Condensate for ..."
p10
a.