(lp0
S'The End of Deep-Water Drilling? Not in Brazil. - WSJ'
p1
aS'Wikileaks: What the Chevron-Kazak Cellphone Row ...'
p2
aS'US embassy cables: A stormy meeting in Kazakhstan ...'
p3
aS'Oil spill in the Philippines  Royal Dutch Shell plc .com'
p4
aS'Examining Structural Shift Towards Dominance of National ...'
p5
aS'UK North Sea: Launch of the development of West Franklin ...'
p6
aS'Marcellus Shale: Back in Favor  CHK, CVX, ATLS, 500325 ...'
p7
aS'Eni to Search for Shale Gas in Poland, Scaroni Says | Horn ...'
p8
aS'Equatorial Guinea (2012) - Policy and Regulatory ... - Reegle'
p9
aS'UBS (Lux) Equity SICAV - Energy Transformation (U ...'
p10
a.