(lp0
S'Chevron goes all in for Brazil - NewsWatch: Energy'
p1
aS'Chevron shuts in Erskine platform production - Oil & Gas ...'
p2
aS'Chevron Makes Final Investment Decision on Papa Terra ...'
p3
aS'[PDF]\nOil and gas production declines in NWT - Northern News ...'
p4
aS'Valero Backs Off as Oil Refining Turns Sour - WSJ'
p5
aS'VOCI - The Petroleum Service Companys'
p6
aS'JFE Steel Corporation - News Release - 2010 - 01/28'
p7
aS'News.Az - Azerbaijani president meets business leaders ...'
p8
aS'IN RE: CHEVRON U.S.A. | FindLaw'
p9
aS'Centerpoint Energy Resources Corp Lake Charles LA ...'
p10
a.