(lp0
S'Aragorn, Chevron close farm-out deal for Kalinga power ...'
p1
aS'Chinese Shale Gas Attracting International Investment ...'
p2
aS'Williams expands in Marcellus; acquires Cabot midstream ...'
p3
aS'economics and technology help spark gulf deepwater projects'
p4
aS'D&C News - Drilling Contractor'
p5
aS'Knotty Head Field - Offshore Technology'
p6
aS'Hibernia | Natural Resources'
p7
aS'Environmental Groups and Chevron Phillips Chemical Co ...'
p8
aS'Anatomy of a Greenwash Keeps the Focus on Chevron'
p9
aS'CHEVRON ELKOL UPGRADE  Wollam Construction'
p10
a.