(lp0
S'Chevron Announces Significant Natural Gas Find in Australia'
p1
aS'Australia: Chevron announces Acme-1 in Carnarvon Basin ...'
p2
aS'Trinidad and Venezuela to sign border gas fields deal'
p3
aS'[PDF]\nIndonesian energy report - Norton Rose Fulbright'
p4
aS'Peru stepping up pace of oil/gas privatization, E&D activity ...'
p5
aS'How Oil, Gas Investment Prospects Compare For Azerbaijan ...'
p6
aS'Evercrete Press Release August, 2010 -- Chevron Chooses ...'
p7
aS'EPA and State Department Square Off On Tar Sands Pipeline'
p8
aS'Petrohawk reduces Haynesville rig count to concentrate on ...'
p9
aS'Steve Thurston - 2013 Speakers - LAGCOE'
p10
a.