(lp0
S'The Green Gauge: Chevron slides on oil spill news - Reuters'
p1
aS'[PDF]\nVision 2016 Campaign is a successful program - Ocean Star ...'
p2
aS'Bottomless Precedent: BP Gulf Gusher Endemic to Global ...'
p3
aS"BP CEO's Stand-In Heckled at Oil Meeting - CBS News"
p4
aS"Transocean's Problems Run Deeper Than Lost Revenue ..."
p5
aS'Jobs | Oil & Gas Jobs in Azerbaijan | Rigzone'
p6
aS'Tomgram: Michael Klare, The Coming Era of Energy ...'
p7
aS"Big Oil lines up behind BP, rips Obama's deepwater drilling ..."
p8
aS"ICP Once in AIG's 'Best' Is New Front in SEC Probe ..."
p9
aS'Winning the talent war (for geoscientists) - Oil & Gas ...'
p10
a.