(lp0
S'Jobs | Oil & Gas Jobs in Philippines | Rigzone'
p1
aS'Lime Rock Partners | Silixa Ltd. Announces Growth Capital ...'
p2
aS'Analysis identifies cause of pump failure - Oil & Gas Journal'
p3
aS'DownstreamToday.com - News and Information for the ...'
p4
aS'Canadian Operations - Marathon Oil Corporation'
p5
aS'Oil & Industry: Connecting the Dots in the War Over ...'
p6
aS'Chevron Embraces Solar Technology With Project ...'
p7
aS'A Closer Look at Vehicle Software Suppliers - Bloomberg'
p8
aS'Oiling the wheels of progress in Nigeria - China Daily'
p9
aS"Gas: Australia's biggest-ever deal looms | BG Group and ..."
p10
a.