(lp0
S'responsibly developing natural gas in the ... - Chevron'
p1
aS'Exclusive: China slows Iran oil work as U.S. energy ties ...'
p2
aS"UPDATE 1-Canada's Hibernia oil field bigger than thought ..."
p3
aS'Halliburton Disputes U.S. on Cement Tests for BP Well ...'
p4
aS'Do you agree with Chevron? - San Francisco Business Times'
p5
aS'Halliburton Tests Showed Faulty Cement Before Spill, Panel ...'
p6
aS'PetroNet Blog - PetroNet Solutions - Industry news related to ...'
p7
aS'Oil Watchdog | Archive | October'
p8
aS"Funny Or Die: Chevron 'We Agree' Ad Spoofed For 'Chevron ..."
p9
aS'Tests suggest Macondo cement was unstable, spill ...'
p10
a.