(lp0
S'Canada: Chevron wins deepwater drilling rights in the ...'
p1
aS'Oil and Gas Companies  Research Your Operator'
p2
aS'Shale Gas Booming Globally, Despite Chemical Dangers ...'
p3
aS'Natural Gas Drops To Five-Month Low After U.S. Stockpile ...'
p4
aS'Tiger Oil and Energy Inc. OTCBB: TGRO - Oil Exploration ...'
p5
aS'Solid-acid alkylation process development is at crucial stage ...'
p6
aS'Matched Giving | United Nations Association In Canada'
p7
aS'Carpinteria Offshore Oil Field - Wikipedia, the free ...'
p8
aS'Hooper Welding - Client List'
p9
aS'Value Investing: The Case for Oil Refining Stocks  XOM ...'
p10
a.