(lp0
S'Chevron - YouTube'
p1
aS'Get Paid By These Dividend Darlings - Forbes'
p2
aS'What drives stock prices? It may surprise you - The Globe ...'
p3
aS'BBC - Earth News - Giant bizarre deep sea fish filmed in ...'
p4
aS'[PDF]\nHuman Rights Due Diligence: Is It Too Risky? - Harvard ...'
p5
aS'From office to lobbyist | News OK'
p6
aS'CALIFORNIA STUDY COMPARES NATURAL/ DRILLING ...'
p7
aS'Internal pressure test succeeds where other measures fail ...'
p8
aS"It's Official: The Oil Export Crisis Has Arrived - Business Insider"
p9
aS'IRIN | Slow progress on oil policy'
p10
a.