(lp0
S'Special Report: US energy demand set for slim expansion in ...'
p1
aS'CVX - Chevron Corporation Buy, Sell and Hold Ratings ...'
p2
aS'chevron | The Wutz Up in the Philippines!'
p3
aS"Workers say Exxon Mobil hid cleaning job's radiation risk ..."
p4
aS'[PDF]\nDefined Benefit Funding - American Federation of Musicians'
p5
aS'Contact Oil and Gas People - oil and gas drilling jobs, oil ...'
p6
aS'AES | Energy Storage |'
p7
aS'Uganda oil contracts give little cause for optimism | Katine ...'
p8
aS"Apple's New Smart-Home Dashboard Saves Money, Energy ..."
p9
aS'CPOC may call on Cuel for Muda D -Upstreamonline.com'
p10
a.