(lp0
S'SHELL Philippines Exploration in Quest for More Oil ...'
p1
aS'BP Spill Threatens Gulf of Mexico Oil, Gas Operations ...'
p2
aS"Nigeria's oil industry tendering process goes online ..."
p3
aS'BP spends millions lobbying as it drills ever deeper and the ...'
p4
aS'NEWS | BP Attacks Oil Spill from Multiple Angles | Rigzone'
p5
aS'NAPIMS - NNPC'
p6
aS'Oil Spill Could Affect Onshore Refineries - 24/7 Wall St.'
p7
aS'JOTMAN: Timeline of Gulf of Mexico oil spill'
p8
aS'United and Continental Agree to $3 Billion Merger - The ...'
p9
aS'Columbia Variable Portfolio - Dividend Opportunity Fund | Columbia ...'
p10
a.