(lp0
S'Sunoco, Shell, Chevron Boast GHG Emission Cuts ...'
p1
aS"Q&A: 'Crude' Director Joe Berlinger on Chevron Oil in the ..."
p2
aS"Canada: Chevron spuds Canada's deepest oil well - energy ..."
p3
aS'New lubes plants use state-of-the-art hydrodewaxing ...'
p4
aS'To diversify its petrochemicals portfolio, GCC needs liquid ...'
p5
aS'Venezuela Signs $40 Billion in Oil Deals with India, Japan ...'
p6
aS'What went wrong on the Deepwater Horizon? - Energy Daily'
p7
aS'Chevron, city, strike deal | Richmond Confidential'
p8
aS'[FLASH]\noperational highlights - CB&I'
p9
aS'[PDF]\nMark D. Christiansen - McAfee & Taft'
p10
a.