(lp0
S'Quest Oil Corp: OTCMKTS:QOIL quotes & news - Google ...'
p1
aS'An Assessment of Energy Return on Investment of Oil Shale'
p2
aS'Gas Rush -- An E&E Special Report - E&E Publishing'
p3
aS'NEW CHEMICAL REDUCES COKE DUST EMISSIONS AT ...'
p4
aS'Multiplex BOP system utilizes updated technology ...'
p5
aS'ONSHORE DISCOVERIES SPUR SEARCH IN BAY OF ...'
p6
aS'[PDF]\nRemarks by Roy Krzywosinski Managing Director Chevron ...'
p7
aS"BP could learn from Exxon's safety response to Valdez oil spill"
p8
aS'Newsletters - Houston Chronicle'
p9
aS'Petroleum industry in Iran - Wikipedia, the free encyclopedia'
p10
a.