(lp0
S'NEWS | U.S. Gulf Drilling Critical to U.S. Economy, Energy ...'
p1
aS'Congressmen Maintain Massive Portfolio of Oil and Gas ...'
p2
aS'Rejected, Donated or Lost, Sometimes Politicians Never ...'
p3
aS'Shell tests method to reclaim oil sands waste | Reuters'
p4
aS"BP's Guide Had 'Huge Responsibility' in Well Decision ..."
p5
aS'Shell Moves Sakhalin Manager to Australia From Russia ...'
p6
aS"Royal Dutch Shell's Nigerian Delta operations at risk ..."
p7
aS'Oil Watchdog | Privacy Policy'
p8
aS'Oil And Gas In The Caspian Sea (CHV, BP, COP, DVN, E ...'
p9
aS'| A daily roundup of water news in Utah and the West.'
p10
a.