(lp0
S'Coming Clean, Chevron Launches We Agree Ad Campaign'
p1
aS"Chevron Launches New Global Advertising Campaign: 'We ..."
p2
aS'Chevron Ads Evoke an Anti-Industry Attitude - WSJ'
p3
aS'Campaign Highlights Victims | Yes Lab'
p4
aS"Chevron Attempts to Repair Tarnished Image with 'We Agree'"
p5
aS"Chevron Punk'd! How the Big Oil Company Lost Control of ..."
p6
aS'Hoaxers target new Chevron advertising campaign | Reuters'
p7
aS'Chevron launches ad campaign agreeing with ... - ABC7 News'
p8
aS'Big Oil Goes to College: BP, ExxonMobil, Chevron, Shell ...'
p9
aS'[PDF]\nChevron, Greenwashing, and the Myth of Green Oil ...'
p10
a.