(lp0
S'Jagjeet S. Bindra Joins Edison International and Southern ...'
p1
aS'Ganal, Rapak PSC, Chevron - NEWS | Map and Image ...'
p2
aS'COOEC Signs Gorgon Project Contract with Chevron AUS'
p3
aS'Search Continues for Oil-Rig Workers After Blast - WSJ'
p4
aS'Goldman, UBS, SocGen, Madoff, Siemens in Court News ...'
p5
aS'[PDF]\nDOB_April 22_2010.pdf - Canadian Discovery Ltd.'
p6
aS'World Offshore Oil & Gas E & P and Ocean Engineering ...'
p7
aS'Kazakhstan says Kashagan oil field safe from tax review'
p8
aS'10 Green Giants That Could Change the World - CBS News'
p9
aS"MSHA launches inspection blitz in nation's coalfields ..."
p10
a.