(lp0
S'Management - Valeura Energy'
p1
aS'Bangladesh: GS Caltex acquires stake in Block 7 from ...'
p2
aS"Exploration interest high in Peru's Ucayali basin - Oil & Gas ..."
p3
aS'TECHNOLOGY Logging while tripping cuts time to run ...'
p4
aS'General Atomics Proposes a Plant That Could Run on ...'
p5
aS'Lyle Allen Martinson P. Eng.: Executive Profile & Biography ...'
p6
aS'Schlumberger-Smith Deal: A $11B Bet on Hard-to-Reach Oil ...'
p7
aS'Sex Offenders Thrive in Oil and Gas Boom Towns ...'
p8
aS"LNG Fleet and Vessel Movement Analysis - Lloyd's List ..."
p9
aS'Base oils 2010: North America is seeing more Group I base ...'
p10
a.