(lp0
S'Oil Watchdog | Tag Archive | catastrophes'
p1
aS'[PDF]\nCedigaz News Report'
p2
aS'Stock:Atlas America (ATLS) - Wikinvest'
p3
aS'Total pursues Turkmenistan gas deals - CEO | Reuters'
p4
aS"Open Letter To David De Rothschild: Stop Your Family's Oil ..."
p5
aS'[PDF]\nCompanies Filing the EQR'
p6
aS'Active Directory Identity Management Solution, Softerra ...'
p7
aS'Tea Party May Target Major Companies That Back Obama ...'
p8
aS'Taking Care of Business | News Center | University of ...'
p9
aS'Germany: drilling start at 10MW project at Kirchweidach ...'
p10
a.