(lp0
S'Sunoco, Shell, Chevron Boast GHG Emission Cuts ...'
p1
aS"Canada: Chevron spuds Canada's deepest oil well - energy ..."
p2
aS'Gulf Rig Owner Had Rising Tally of Accidents - WSJ'
p3
aS'To diversify its petrochemicals portfolio, GCC needs liquid ...'
p4
aS'Oil rig drilling to begin off Newfoundland | CTV News'
p5
aS'Deep drilling starts off Newfoundland - CBC'
p6
aS'Jeffrey K. Lehrmann, President - Financial Post'
p7
aS'May News from Da Vinci Schools'
p8
aS'Comments on Roadmap for the Potential Use of Financial ...'
p9
aS'[PDF]\nMark D. Christiansen - McAfee & Taft'
p10
a.