(lp0
S'Tesoro to name new chief soon - San Antonio Express-News'
p1
aS'Abandonment looms for fields off California - Oil & Gas Journal'
p2
aS'GE Faces Growth Hurdles in the Oil Patch - WSJ'
p3
aS'Enterprise mourns loss of Dan Duncan - Oil & Gas Financial ...'
p4
aS'Horn River Basin | Unconventional Oil and Gas'
p5
aS'Rig Efficiency From Spud To Sales: A Study | Oil and Gas ...'
p6
aS'Expansion energizes Hiller Group - Tampa Bay Business ...'
p7
aS"NEWS | BP Awards 3 Drilling Deals for Iraq's Rumaila Field ..."
p8
aS'CiSoft: USC/Chevron Frontiers of Energy Resources ...'
p9
aS'Indonesian Oil, Mining and Energy News - Petromindo.Com'
p10
a.