(lp0
S'Energy, and Plenty of It, for Decades to Come - The New ...'
p1
aS'SMC Dedicates Solar-Energy Efficiency Project'
p2
aS'Josh Young Finds Value in Oil and Gas E&Ps | Casey ...'
p3
aS'Green Technology News'
p4
aS'Petroplus, Tamoil Are Among World Refiners to Shut Sites ...'
p5
aS'ExxonMobil rig attacked in Nigeria; production shut in - Oil ...'
p6
aS'Find a Well | FracFocus Chemical Disclosure Registry'
p7
aS'How Big Oil won California  High Country News'
p8
aS'Vanguard Energy Inv (VGENX) Fund Research: Latest ...'
p9
aS'Exxon Mobil Articles - Oil & Gas Financial Journal'
p10
a.