(lp0
S'Chevron to begin deep-water drilling off UK coast ...'
p1
aS'Unexpected killers of your international energy deal - Oil ...'
p2
aS"LINN Energy's Permian Basin deal is month's largest - Oil ..."
p3
aS'Government issues tighter rules for deep-water drilling ...'
p4
aS'GULF OF MEXICO - Offshore'
p5
aS'[PDF]\nEnergy Market Consequences'
p6
aS'Petro Bulletin Archives | World of Energy News'
p7
aS'Matching Fun(d) - Global Teams'
p8
aS'Chevron gets Lagavulin drilling clearance off Shetland - BBC'
p9
aS'NEWS | M-I Swaco | Rigzone'
p10
a.