(lp0
S'News - Decentralized Energy'
p1
aS'July 2010 ~ Oil & Energy News'
p2
aS'OGFJ100P company update - Oil & Gas Financial Journal'
p3
aS'LLX Lures Shell, Mercuria to $40 Billion Port Project in Rio ...'
p4
aS'[PDF]\n2010 KPMG Global Energy Conference Recap'
p5
aS'ESP Resources, Inc. Announces Joint Venture Agreement ...'
p6
aS'Drillers want back on the job - Jul. 1, 2010 - CNN Money'
p7
aS'JX Nippon Oil & Energy Corporation'
p8
aS'Investor Relations - Ridgewood Energy'
p9
aS'Peak Oil News and Message Boards | Submit News'
p10
a.