(lp0
S'Former Oil Exec Predicts $5-a-Gallon Gas by 2012, Energy ...'
p1
aS'Prediction Articles - Oil & Gas Financial Journal'
p2
aS'Newfound Strength in Big-Cap Energy | Seeking Alpha'
p3
aS'Turkmen gas project starts second phase - Oil & Gas Journal'
p4
aS'Companies Reputation: Chevron Case | REPUTATION ...'
p5
aS'Shell to investigate fraud, contract corruption, bribery, money'
p6
aS'Read More - Energy News Update | Iraq Energy | Oil news ...'
p7
aS'Cetane Energy L L C Carlsbad NM, 88220  Manta.com'
p8
aS'Barchart.com\'s Picks in the "Equity-Commodity Producer ...'
p9
aS"What 2010's End is Saying About 2011's Stock Market Trends"
p10
a.