(lp0
S'CIRI buys North Wind Inc. | North Wind Group'
p1
aS'Plains Exploration & Production - Wikipedia, the free ...'
p2
aS'Mark Kalman Joins DeepFlex as Vice President of ...'
p3
aS'Indonesia aims to drop oil/gas cost recovery limits | Reuters'
p4
aS'Chevron Gas Stations in Indianapolis, Indiana'
p5
aS'VALUE CREATION IN DOWNSTREAM US-1: Refining ...'
p6
aS'Europe - WorleyParsons.com'
p7
aS'Synthetic Lubricants - Resources And Advice'
p8
aS'The Year of the Bank Robbery - Your Houston News: The ...'
p9
aS"The Oil Drum | Heads in the Sand? Or, Why Don't ..."
p10
a.