(lp0
S"Chevron's Big Bet on Crazy Chavez Pays Off -- For Now ..."
p1
aS'News - Chevron Alumni'
p2
aS'Venezuela: Chevron and Repsol consortia win bids to ...'
p3
aS'Peak Oil News and Message Boards | Archive | February'
p4
aS'Deep gas poses opportunities, challenges to U.S. operators ...'
p5
aS'New data, old story: US, Canada continue to dominate ...'
p6
aS'Chevron and Repsol will lead development of Orinoco tar ...'
p7
aS'Chevron and Repsol to invest $30 billion to develop ...'
p8
aS'Sealing Shift, Chvez Gives Contracts to Western Oil ...'
p9
aS'Chevron woos ex-employees back as contractors - Houston ...'
p10
a.