(lp0
S"Environmental activists expose Chevron's crimes"
p1
aS'Amazon Crude  60 Minutes  CBS News | The Silent War'
p2
aS"Boycott BP? Don't Bother - Newsweek"
p3
aS'Money Management takes over old Chevron space in Sugar ...'
p4
aS'Chevron pulling out of 11 states, including KY, IN - wave3 ...'
p5
aS'Oil and gas in nth america industry profile - presentations'
p6
aS'BP oil spill: British companies fear backlash in America ...'
p7
aS'Enterprise starts Motiva Port Arthur products storage facility ...'
p8
aS'Ricardo Hernandez Astigarraga | LinkedIn'
p9
aS'Reduce Compressor Maintenance Costs With Remote ...'
p10
a.