(lp0
S'Chevron approves Jack/St. Malo project in the Gulf of Mexico'
p1
aS'Energy News: Kosmos Rejects Cnooc, Ghana Bid for Oil ...'
p2
aS'SMC Completes Solar-Energy Efficiency Project - Info ...'
p3
aS'OGJ Newsletter - Oil & Gas Journal'
p4
aS'Prop. 26: A new strategy for big oil companies ...'
p5
aS'British Gas (BG) Exploration and Production is pulling out of ...'
p6
aS'BP Profit Drops After Further Charge Taken on Spill ...'
p7
aS'Oil and Gas Companies in Botswana | Botswana Oil Industry'
p8
aS"'A coup d'etat against the carbon cronies': chatting with ..."
p9
aS'A New Congress, a New Debate: Under-the ... - Fox News'
p10
a.