(lp0
S"After The Yes Men's Chevron Spoof, What Next For YOU?"
p1
aS"Mapping the Money on California's Prop 25 and 26"
p2
aS"California's Prop 23 Morphing into Prop 26 - 8020 Vision"
p3
aS'Chevron initiates $50m Foundation for Niger Delta - Vanguard'
p4
aS'BP Slams Oil-Spill Critics - Wall Street Journal'
p5
aS'Gasette | LMOP | US EPA'
p6
aS"Wall Street's Hellhound Exposes Citigroup's Greedy Past ..."
p7
aS"Obama Avoided Depression, Got 'No Credit,' Cote Says ..."
p8
aS"The End of Oil's Golden Age | Seeking Alpha"
p9
aS'Chevron, Union Working To Resolve Strike Action In Nigeria ...'
p10
a.