(lp0
S'Chevron buys Atlas Energy in $4.3B deal, enters shale ...'
p1
aS'Chevron Deepwater Gas Project in Indonesia Enters Design ...'
p2
aS'Sinopec to Join Chevron Gas Project - WSJ'
p3
aS'Chevron Deepwater Gas Project in Indonesia Enters Design ...'
p4
aS'Oil Watchdog | Archive | Occidental'
p5
aS'AG Recovers Money for Massachusetts Investors... - Mass.Gov'
p6
aS'December 2010 ~ Oil & Energy News'
p7
aS"Ecuador's Amazon drilling pledge still to take shape - BBC ..."
p8
aS'Salt Lake mayor calls for indefinite shutdown of Chevron ...'
p9
aS'The Kuwait Oil Company (KOC) - The International ...'
p10
a.