(lp0
S'Australia: Chevron and Nippon sign Gorgon gas agreement'
p1
aS'FY2009 Nippon Oil Corporation | News Release | JX Nippon ...'
p2
aS'When Will Renewable Energy Companies Overtake ...'
p3
aS'NEWS | Nippon to Construct Hachinohe LNG Terminal in ...'
p4
aS'Cramped on Land, Big Oil Bets at Sea - WSJ'
p5
aS'Pacific Profile, Pt. 1 Dealer Takes All | CSPnet'
p6
aS'Chevron - Montgomery Gas Prices'
p7
aS'Carbon Engineering & Science Research'
p8
aS"[PDF]\nChina's reliance on Australian LNG exports - Parliament of ..."
p9
aS'BBC News - Africa Cup of Nations: Venue guide'
p10
a.