(lp0
S'Exxon Mobil, ConocoPhillips seek investments in Qatar ...'
p1
aS"Wall Street Sees Record Revenue in '09-10 Recovery From ..."
p2
aS'Tapping Human Energy (Chevron Commercial Remix ...'
p3
aS'Armour Energy is focused on the discovery and ...'
p4
aS'Nationalization of oil supplies - Wikipedia, the free ...'
p5
aS'Chevron gets 30-year lease in Santa Monica Bay - The Thin ...'
p6
aS'Bankers in Energy Are in Short Supply - The New York Times'
p7
aS'Chemical & Engineering News Archive (ACS Publications)'
p8
aS'ACD Consulting Solutions, LLC | LinkedIn'
p9
aS'[PDF]\n3.5 mb - Statoil'
p10
a.