(lp0
S'184 - News Releases | IHS Online Newsroom'
p1
aS"Chevron: Natural gas is 'gift' to U.S. - Video - Business News"
p2
aS'November 22, 2010 | TristanOil LTD'
p3
aS'Scrappy American companies are exporting their ... - Slate'
p4
aS'Oil Watchdog | Tag Archive | catastrophes'
p5
aS"Italy's Eni to invest 7 billion USD in developing Venezuela's ..."
p6
aS'[PDF]\nThe U.S. Oil Refining Industry: Background in Changing ...'
p7
aS'Jefferies Finds Shale Deals a Profitable Niche - The New ...'
p8
aS"Open Letter To David De Rothschild: Stop Your Family's Oil ..."
p9
aS'The NASDAQ OMX CRD Global Sustainability 50 Index ...'
p10
a.