(lp0
S'Mauricio Pulido | LinkedIn'
p1
aS'Ecuador Oil Contamination Spawns Turmoil at Chevron ...'
p2
aS'oil and gas projects and news contracts for contractors and ...'
p3
aS'Chevron stations changing in Ky. | Lexington Herald-Leader'
p4
aS'Getting Naked to Expose BP | Common Dreams | Breaking ...'
p5
aS'Global Market News - World Market News, Reports, Reuters ...'
p6
aS'NEWS | Analysis: Transocean Still Strong and Growing ...'
p7
aS'Peak Oil News and Message Boards | Archive | Geology'
p8
aS'Congressional hearings on the Deepwater Horizon oil spill'
p9
aS'[PDF]\nRussian crude oil exports to the Pacific Basin ... - Platts'
p10
a.