(lp0
S'Chevron Announces Agreement to Acquire Atlas Energy ...'
p1
aS'Chevron to Buy Shale-Gas Owner Atlas for $3.2 Billion ...'
p2
aS'Chevron to Acquire Atlas Energy - WSJ'
p3
aS'Chevron bets on shale gas with $3.2 billion Atlas buy | Reuters'
p4
aS'Chevron buying Atlas Energy for $4.3 billion - MarketWatch'
p5
aS'Chevron Agrees to Acquire Atlas Energy, Inc. in a ...'
p6
aS'Chevron to Buy Atlas Energy for $4.3 Billion - The New York ...'
p7
aS'Chevron to Buy Atlas Energy for $3.2 Billion - The New York ...'
p8
aS'Chevron buys Atlas Energy, takes over RIL JV | Business ...'
p9
aS'Chevron moves on Marcellus Shale with Atlas acquisition ...'
p10
a.