(lp0
S'Oil Industry Meme Detected - 100 Years Is a Long Time ...'
p1
aS'Chevron says SF-Bay refinery flaring -filing | Reuters'
p2
aS'Noria news wires - Machinery Lubrication'
p3
aS'The Culture of Finance--Why Financial Innovation Failed ...'
p4
aS'Houston Chevron Marathon - Your Houston News ...'
p5
aS'Chevron Phillips restarts Port Arthur cyclohexane plant in ...'
p6
aS'Venezuela opens Carabobo oil field bid stage on time'
p7
aS'Oil Watchdog | Archive | January'
p8
aS'NEWS | Ormen Lange, Kaarstoe Plant Back in Business ...'
p9
aS'Uni-Marts Sale Done | CSPnet'
p10
a.