(lp0
S'JOGMEC participates in an extra heavy oil development ...'
p1
aS'Maturity Wall Shrinks $196 Billion in 15 Months: Credit ...'
p2
aS'Sinopec Group Pays $4.65 Billion for Syncrude Stake ...'
p3
aS'GE Oil & Gas Signs MOU Agreement with Petrovietnam ...'
p4
aS'North Slope satellite projects spark Alaska exploration - Oil ...'
p5
aS"South Korean refiners' recovery faces hurdles - Oil & Gas ..."
p6
aS'DOE partnerships testing CO<sub>2</sub> EOR ...'
p7
aS'Shell Trading | LinkedIn'
p8
aS'Did Big Oil Win The War In Iraq? | Iraq Business News'
p9
aS'Evaluate Energy - All Companies - M&A - All Deals'
p10
a.