(lp0
S'Australia: Chevron confirms gas discovery in Greater ...'
p1
aS'View All Industry News - Machinery Lubrication'
p2
aS'Chevron Signs Multiple Australian LNG Agreements with ...'
p3
aS'Chevron Makes Final Investment Decision on Papa Terra ...'
p4
aS'IN RE: CHEVRON U.S.A. | FindLaw'
p5
aS'Peak Energy: Chevron signs $18bn North West Shelf ...'
p6
aS'Valero Backs Off as Oil Refining Turns Sour - WSJ'
p7
aS'[PDF]\nOil and gas production declines in NWT - Northern News ...'
p8
aS'Press Release | Chevron'
p9
aS'Industry Partnerships : School of Energy - San Juan College'
p10
a.