(lp0
S"Chevron's big push in the Gulf of Mexico - SFGate"
p1
aS'JOGMEC participates in an extra heavy oil development ...'
p2
aS'Sinopec Group Pays $4.65 Billion for Syncrude Stake ...'
p3
aS'GE Oil & Gas Signs MOU Agreement with Petrovietnam ...'
p4
aS'NAMIBIA, PRACTICALLY UNEXPLORED, MAY HAVE ...'
p5
aS"South Korean refiners' recovery faces hurdles - Oil & Gas ..."
p6
aS'Brazil-West African connection sparks subsalt oil search'
p7
aS'April 12th 2010: Bominflot Bunker Oil Corp. - News - Bomin'
p8
aS'Did Big Oil Win The War In Iraq? | Iraq Business News'
p9
aS'Evaluate Energy - All Companies - M&A - All Deals'
p10
a.