(lp0
S'Amberjack Pipeline Company LLC to Install 136 ... - Chevron'
p1
aS'Amberjack Pipeline Company LLC to Install 136 Mile Jack ...'
p2
aS'Exxon Mobil, ConocoPhillips seek investments in Qatar ...'
p3
aS'Tapping Human Energy (Chevron Commercial Remix ...'
p4
aS'Merritt College Solar Project | The Peralta Colleges'
p5
aS'Petro One Energy Corp.: Advisory Board'
p6
aS'Chevron gets 30-year lease in Santa Monica Bay - The Thin ...'
p7
aS'INSOURCING - Identifying businesses involved in prison ...'
p8
aS'Chemical & Engineering News Archive (ACS Publications)'
p9
aS'Grace Pacific pumps up with 76 gas | Honolulu Star-Advertiser'
p10
a.