(lp0
S'Chevron Acquires Deepwater Exploration Lease in the ...'
p1
aS'Turkey: Chevron Acquires Deepwater Exploration Lease in ...'
p2
aS'Chevron offers Turkmenistan its share in oil and gas ... - Trend'
p3
aS'Liberia on its way to becoming a major oil producer with ...'
p4
aS'BP Plugs Well That Caused Biggest U.S. Oil Spill - Bloomberg'
p5
aS'Boots and Coots Services Stocks, News and Research: Oil ...'
p6
aS"Shell's shore-based engineers monitor offshore rigs ..."
p7
aS'Student power gets results for big corporations | University ...'
p8
aS'Fuel Consortia: A 30-Year Success Story | 2010 | Aviation ...'
p9
aS'21st century energy superpower: China, energy, and global ...'
p10
a.