(lp0
S'Press Release | Chevron'
p1
aS'Braemar Energy Ventures News: ITo Wash Hands of Palm ...'
p2
aS'Liberia: Chevron to acquire deepwater interests offshore ...'
p3
aS'Tristan Oil Ltd'
p4
aS'China: CNOOC Signs Amendment Agreements to PSC for ...'
p5
aS'Chevron keeps up pressure in Ecuador suit - SFGate'
p6
aS'Chevron lets contract for Jack, St. Malo topsides - Oil & Gas ...'
p7
aS'Ascom Takes Government of Kazakhstan to Stockholm ...'
p8
aS'Richard Williams | LinkedIn'
p9
aS'Unilever Invests in Algae - WSJ'
p10
a.