(lp0
S'Wheatstone LNG - DownstreamToday.com - News and ...'
p1
aS'Chinese solar pricing an appeal -Chevron | Reuters'
p2
aS'KKR, Korea team up for stake in Colonial Pipeline | Reuters'
p3
aS'PPC - Bloomberg'
p4
aS"Event - Digital Energy: Chevron's i-Field - A Case Study SPE ..."
p5
aS'Assets on the block: Chevron to sell off Cook Inlet interests ...'
p6
aS'Pilot Flying J Teams With Clean Energy Fuels | CSPnet'
p7
aS"Texas Land (and Oil and Gas) Grab: What China's CNOOC ..."
p8
aS'Wikipedia Klan exposed  Royal Dutch Shell plc .com'
p9
aS'CAMAC Energy Inc. Enters Agreement to Acquire Contract ...'
p10
a.