(lp0
S'BP Funnels Millions into Lobbying to Influence Regulation ...'
p1
aS"Greenland Oil Rush Looms as Exxon Eyes Cairn's Bet ..."
p2
aS'May 2010 ~ Oil & Energy News'
p3
aS'- AMEC wins Mafumeira Sul FEED contract,... - Europtrole'
p4
aS'Angola: Cabinda Gulf Ltd. Awards AMEC a FEED Contract ...'
p5
aS'Planned oil well off Newfoundland lacks safeguards to avert ...'
p6
aS'Alternative Forums | Texas Law Firm - Hicks Thomas LLP'
p7
aS'Ram Power/ Polaris signs LOI on PPA negotiations in ...'
p8
aS'Darrell Issa Wants Investigation Re-Opened On MMS ...'
p9
aS'[PDF]\nOffshore Energy Exploration - North Carolina General ...'
p10
a.