(lp0
S'Chevron/Conoco Venture Considers Lessons Of Britannia ...'
p1
aS'NEWS | PetroVietnam Announces $1B Gas Pipeline Project ...'
p2
aS"Transocean's ultra-deepwater drillship Discoverer ..."
p3
aS'Chevron Deploys a Second Ultra-Deepwater Drillship ...'
p4
aS'U.S. judge rules for Chevron in Ecuador case | Reuters'
p5
aS'Chevron wins bid for Ecuador arbitration - SFGate'
p6
aS'Oil companies look at permanent refinery cutbacks - latimes'
p7
aS'Energy Companies Directory'
p8
aS'Photo Release -- Transocean Ltd. Announces Ultra ...'
p9
aS"Occidental Petroleum's Path to Easy Oil - Forbes.com"
p10
a.