(lp0
S'USA: Chevron Sanctions $4 Billion Big Foot Project in the ...'
p1
aS'Chevron sanctions deepwater Gulf of Mexico Big Foot project'
p2
aS'Press Release | Chevron'
p3
aS'Chevron Pursues New Deepwater Gulf Oil-Field - WSJ'
p4
aS'WikiLeaks: Chevron Eyed Iran Oil Deal, Risking Sanction ...'
p5
aS'Chevron approached Iran to develop oil project: WikiLeaks'
p6
aS'Cold War Patriot Defense Helps Giffen Beat Bribe Case ...'
p7
aS'Ecuador judge closes proof phase of Chevron suit | Reuters'
p8
aS'Chevron approves $4 billion Gulf project - Fuel Fix'
p9
aS'Santos, Kogas sign LNG offtake agreement - Oil & Gas Journal'
p10
a.