(lp0
S'Louisiana paid steep price for bargain with oil industry ...'
p1
aS'Energy Companies  Natural Gas  Penn State Extension'
p2
aS'GeoGlobal Energy Makes Key Additions to Technical Team'
p3
aS'Asphalt: The new darling of the oil industry - The Globe and ...'
p4
aS"Gas well could be 'extremely big' | Mississippi's Best ..."
p5
aS'Chevron (Thailand) Ltd.: Private Company Information ...'
p6
aS'NEWS | Expro Takes Reins at PTI | Rigzone'
p7
aS'Thai Exchange Strives to Lure Back Foreigners - WSJ'
p8
aS'OGJ FOCUS:Global ethylene production - Oil & Gas Journal'
p9
aS'CHEVRON NIGERIA | INFORMATION NIGERIA'
p10
a.