(lp0
S'Chevron wins bid to explore for energy in Beaufort Sea ...'
p1
aS'Lou Ann Hammond - Wikipedia, the free encyclopedia'
p2
aS'Flyers Energy, LLC: quotes & news - Google Finance'
p3
aS'Amazon Rainforest News: Chevron urges arbitration in $27 ...'
p4
aS"Arctic Energy Production: Let's Move Forward, Not ..."
p5
aS'Cheyenne Petroleum Company Houston TX, 77002  Manta ...'
p6
aS'Environmental Approvals - Chevron Australia'
p7
aS'David Mays | LinkedIn'
p8
aS'Swift Energy Eagle Ford momentum slows in 2Q10 - Oil ...'
p9
aS'No Bids Necessary on Public Contracts For Energy ...'
p10
a.