(lp0
S'Angola LNG Project - DownstreamToday.com - News and ...'
p1
aS'Exxon $600 Million Algae Investment Makes Khosla See ...'
p2
aS"BP Disaster: Canada's deepwater well faces scrutiny - The ..."
p3
aS'Deepwater Companies Pull Up Stakes, and Some May ...'
p4
aS'Chevron and the National Guard : snopes.com'
p5
aS'NEWS | Market Report: BP Spill Impacts Oil Prices | Rigzone'
p6
aS'MINIMAL PLATFORMS: Oil and gas prices, new concepts ...'
p7
aS'Drilling ban hits Halliburton, Baker Hughes - Houston ...'
p8
aS'Way up north, another kind of oil controversy | newsdesk dot ...'
p9
aS'[PDF]\nNEWS - Energy Institute'
p10
a.