(lp0
S'Former Oil Exec Predicts $5-a-Gallon Gas by 2012, Energy ...'
p1
aS'Newfound Strength in Big-Cap Energy | Seeking Alpha'
p2
aS'Turkmen gas project starts second phase - Oil & Gas Journal'
p3
aS'Brookshire - Media - 2010'
p4
aS'Dow, up 21 . . . S&P up 1 . . . NASDAQ, down 4 - Cleveland ...'
p5
aS'Six Utility Scale Desert Solar Projects Get Holiday Surprise ...'
p6
aS'Companies Reputation: Chevron Case | REPUTATION ...'
p7
aS'Factbox: Five facts about rare earth elements | Reuters'
p8
aS'- Jacobs Announces Definitive Agreement... - Europtrole'
p9
aS'Pilipinas Shell to hike pump prices | ABS-CBN News'
p10
a.