(lp0
S'UK: Chevron awards Rosebank field node survey West of ...'
p1
aS'Chevron Mining Inc.: quotes & news - Google Finance'
p2
aS'Disaster Plans Lacking at Deep Rigs - WSJ'
p3
aS'UPDATE 2-Goldman, BP sued over alleged SemGroup ...'
p4
aS'The True Cost of Chevron - City Brights: Rebecca Tarbotton'
p5
aS'Foundation Energy Fund III closes at $73M - Oil & Gas ...'
p6
aS'Grace Energy Founder Passes Away | CSPnet'
p7
aS'Upstream Oil & Gas  CB&I'
p8
aS'Downstream Oil & Gas  CB&I'
p9
aS'Gas Processing Capabilities  CB&I'
p10
a.