(lp0
S'Pro-Environment Groups Outmatched, Outspent in Battle ...'
p1
aS'OGJ Newsletter - Oil & Gas Journal'
p2
aS'Pro-Environment Groups Outmatched, Outspent in Battle ...'
p3
aS"Saudi King Names Ex-Chevron Head David O'Reilly to ..."
p4
aS'Chevron fights potentially historic damages case | Reuters'
p5
aS'Oil Trading in the dark: Crude supply data scarce in Canada'
p6
aS'Saudi Aramco makes twelve new appointments to Board of ...'
p7
aS'Is Now the Time for the Energy Conglomerates? | Seeking ...'
p8
aS'Christine LeLaurin | LinkedIn'
p9
aS'Turkmenistan Tips Its Hand On Future Energy Exports'
p10
a.