(lp0
S'Tesoro to name new chief soon - San Antonio Express-News'
p1
aS'Abandonment looms for fields off California - Oil & Gas Journal'
p2
aS'[PDF]\nChevron Corporate Responsibility Report 2009'
p3
aS'Enterprise mourns loss of Dan Duncan - Oil & Gas Financial ...'
p4
aS'Expansion energizes Hiller Group - Tampa Bay Business ...'
p5
aS'Rig Efficiency From Spud To Sales: A Study | Oil and Gas ...'
p6
aS'NewEnergyNews: QUICK NEWS, 3-29: NASA WANTS ...'
p7
aS'Chevron Stock Ticker Symbol and Information ...'
p8
aS'An overview of the prolific southeast offshore Niger Delta ...'
p9
aS'List of American Oil Companies (with Pictures) | eHow'
p10
a.