(lp0
S'Chevron Corporation - GBCHealth'
p1
aS'Holloman Energy Corp.'
p2
aS'Data Center Articles - Oil & Gas Financial Journal'
p3
aS"NEWS | BP Launches Drilling Tenders for Iraq's Largest Oil ..."
p4
aS'Devon Energy Sells Off Brazil Assets | The Rio Times | Brazil ...'
p5
aS'Australia: Apache reports first oil from Van Gogh ...'
p6
aS'Rockaway fuel oil company Able Energy leaves N.J. ...'
p7
aS"Indonesia's resources appeal grows on China | Reuters"
p8
aS'Cummins.com > News Article'
p9
aS"A Close Look At OPEC Strategy Reveals That They're 100 ..."
p10
a.