(lp0
S'The Green Gauge: Chevron slides on oil spill news - Reuters'
p1
aS'[PDF]\nVision 2016 Campaign is a successful program - Ocean Star ...'
p2
aS"Chevron starts US gulf's first Lower Cretaceous flow - Oil ..."
p3
aS'Bottomless Precedent: BP Gulf Gusher Endemic to Global ...'
p4
aS"Chevron in Ecuador: BP's Gulf Spill Drawing New Attention ..."
p5
aS"Transocean's Problems Run Deeper Than Lost Revenue ..."
p6
aS"BP CEO's Stand-In Heckled at Oil Meeting - CBS News"
p7
aS'Jobs | Oil & Gas Jobs in Azerbaijan | Rigzone'
p8
aS'Ranks of North Sea producers lured by productivity gains ...'
p9
aS'Oil executives close ranks behind BP - The Boston Globe'
p10
a.