(lp0
S'Chevron and KOGAS Sign Major LNG And Equity ...'
p1
aS"Chevron's exit from Kentucky opens door for other gas brands"
p2
aS'Granite Wash News, Wells, Formation, Markets and ...'
p3
aS'Woodford Shale News, Wells, Formation, Markets and ...'
p4
aS'Trans Energy, Republic Energy Ventures partner in Marcellus'
p5
aS'Horizontal well taps bypassed Dundee oil in Crystal field ...'
p6
aS'Special Report: Major Upstream Projects: Planned upstream ...'
p7
aS'Tamminen: 10 Environmental Disasters Worse Than BP Oil ...'
p8
aS'Deadly Gulf of Mexico blowouts persist - Houston Chronicle'
p9
aS'BP-Apache Deal: What Ever Happened to Alaska? - U.S.'
p10
a.