(lp0
S"Indonesia may approve Chevron's development plan for the ..."
p1
aS'73 - News and energy resources -'
p2
aS'Australia: Chevron announces gas discovery in frontier ...'
p3
aS'MANAGEMENT & ECONOMICS: Chevron team thinks like ...'
p4
aS'Petrobras Profit Falls Short of Rivals on Price Caps ...'
p5
aS'niger delta oil production, reserves, field sizes assessed'
p6
aS'BP Plc, Exxon Mobil, ConocoPhilips, Royal Dutch Shell And ...'
p7
aS'NEWS | Baker Hughes, SOC Revamp Wireline ... - Rigzone'
p8
aS'Boycott Valero and Tesoro Gas Stations. Tell Everyone You Know ...'
p9
aS'Gasoline-Price Forecasting: What Sam the Gas Station ...'
p10
a.