(lp0
S'Chevron Australia Home - Human Energy'
p1
aS"Chevron 'confident' in oil drilling safety - Canada - CBC News"
p2
aS'Back in Bankruptcy | CSPnet'
p3
aS'Ecuador Puts a Price Tag on Untapped Oil'
p4
aS'no oil bike | Midwest Energy News'
p5
aS"Greene's Energy Group names Mathews president of Devin ..."
p6
aS'King Consolidated appoints Ransone executive vice ...'
p7
aS"BP oil spill: shares plummet as US warns it will 'take action ..."
p8
aS'It Pays to Help Workers Buy a Home - Bloomberg'
p9
aS'NEWS | Analysis: Pre-Salt Could Brighten Offshore Brazil ...'
p10
a.