(lp0
S'Management - Valeura Energy'
p1
aS'Bangladesh: GS Caltex acquires stake in Block 7 from ...'
p2
aS'General Atomics Proposes a Plant That Could Run on ...'
p3
aS'Workers get in the swim of water survival - Houston Chronicle'
p4
aS'Lyle Allen Martinson P. Eng.: Executive Profile & Biography ...'
p5
aS"LNG Fleet and Vessel Movement Analysis - Lloyd's List ..."
p6
aS'News release via Canada NewsWire | Anterra Energy Inc'
p7
aS"Chevron Allows Supervisor to Harass Employee with 'Stupid ..."
p8
aS'[PDF]\nFOR IMMEDIATE RELEASE THE BREAD PROJECT ...'
p9
aS'Schlumberger, Smith to merge into oilfield services giant ...'
p10
a.