(lp0
S'Richmond Refinery Energy and Hydrogen Renewal Project'
p1
aS'Impact Technologies with US$2.1m DOE funding for CO2 ...'
p2
aS'Meritage Midstream to extend Eagle Ford Escondido ...'
p3
aS'Greenpeace banned from intercepting oil-drilling ship ...'
p4
aS'FleetCor Debuts Chevron, Texaco Universal Business ...'
p5
aS'Search News -Middle East and International Steel ...'
p6
aS'Greenpeace swimmers end drill ship blockade - BBC News'
p7
aS'Chevron in Ecuador: October 2010'
p8
aS'BV Investment Partners Announces Recapitalization of ...'
p9
aS'September | 2010 | Energy | Page 3 - AgWired'
p10
a.