(lp0
S'Undergraduate Opportunities within ExxonMobil'
p1
aS'How to apply?  4 easy steps process - ExxonMobil'
p2
aS'ExxonMobil in the Benelux'
p3
aS'Exxon Cancels Plans to Buy Oil Assets Controlled by Kosmos'
p4
aS'Adriatic LNG - DownstreamToday.com - News and ...'
p5
aS'ExxonMobil UK Careers site what kind of work'
p6
aS'N.J. appellate court upholds $7M award from Exxon to ...'
p7
aS'Pemex to Offer 1st Gulf Contracts After BP Oil Spill ...'
p8
aS'Outreach - National Society of Black Engineers'
p9
aS'New installations, abandonment technologies, methods ...'
p10
a.