(lp0
S'ExxonMobil Takes Third Place in Big Oil Sustainability ...'
p1
aS'ANALYSIS - Exxon culture may be tough fit for XTO workers ...'
p2
aS'SpectraSyn Lo Vis PAO - ExxonMobil Chemical'
p3
aS'A commitment to safety, health & environment - ExxonMobil ...'
p4
aS'Jefferson Parish jury finds Exxon Mobil was at fault for ...'
p5
aS'Oil exporters angle for bigger cut - Mar. 5, 2010 - CNN Money'
p6
aS'The Other Ron Burkle - Bloomberg'
p7
aS'[PDF]\nSpring 2010 - MIT'
p8
aS'[PDF]\nMarch 4, 2010 - Trinity Industries'
p9
aS'Stock:Devon Energy (DVN) - Wikinvest'
p10
a.