(lp0
S'Ghana Blocks Exxon Oil-Field Deal - WSJ'
p1
aS'Oxygenated fluids - ExxonMobil Chemical'
p2
aS'NEWS British Gas steps up campaign to expand ...'
p3
aS'Shelby County legislative candidates raise more than ...'
p4
aS'Laclede Gas Tied for Worst Place in America to Work if You ...'
p5
aS'Vantagepoint Broad Market Index Fund II Class: MUTF ...'
p6
aS'Exploration : IDPOA News Manager'
p7
aS'American Airlines to charge $8 for blanket, pillow | Dallas ...'
p8
aS'Southwest Airlines facing FAA safety investigation | Dallas ...'
p9
aS'Reflections on COP15, Looking Ahead to COP16 | PR Watch'
p10
a.