(lp0
S'QUIZ: ExxonMobil - CNBC.com'
p1
aS'BP Stock Looks Cheap After Spill Leads to Panic Selling ...'
p2
aS'Obama Attack On Corporate Giant P&G Shatters US Stock ...'
p3
aS'Plano Students Honored at 2010 ExxonMobil Texas ...'
p4
aS'CNNMoney.com Market Report - May. 6, 2010'
p5
aS'P&G stock drops 37% -- not really - May. 6, 2010 - CNN Money'
p6
aS'Gulf of Mexico oil slick: Sarah Palin fuels anti-British sentiment'
p7
aS'Economic damage in Gulf of Mexico oil spill could be ...'
p8
aS'Chevron: Corporate Rap Sheet | Corporate Research Project'
p9
aS'The Secret Cult of Office Smokers - Bloomberg'
p10
a.