(lp0
S'Why a BP-Exxon Mobil Merger Is an (Oil) Pipe Dream - Deal ...'
p1
aS"How'd we get stuck with BP? - Jul. 12, 2010 - CNN Money"
p2
aS"Exxon Wins Bid To Nix Md. Franchisees' Contract Suit ..."
p3
aS'ExxonMobil at the International Oil and Gas Conference and ...'
p4
aS'Could ExxonMobil or Chevron Take Over or Merge with BP ...'
p5
aS'At BP, a History of Boldness and Costly Blunders - The New ...'
p6
aS'Reconstituting the Standard Oil Company - Daily Kos'
p7
aS'RIT Announces Appointment to its Board of Trustees - RIT ...'
p8
aS'BP builds defence in takeover threat - Telegraph'
p9
aS'News Week  The Road to Deepwater Horizon'
p10
a.