(lp0
S'Exxon Mobil Annandale NJ, 08801  Manta.com'
p1
aS'Exxon Mobil Vernon CA, 90058  Manta.com'
p2
aS'Lawmakers Chastise Oil Firms Over Spill-Response Plans ...'
p3
aS'Cracks Show BP Battled Well Two Months Before Blast ...'
p4
aS'Oil Executives Break Ranks in Testimony - The New York ...'
p5
aS'Niger Delta oil spills dwarf BP, Exxon Valdez catastrophes ...'
p6
aS"US oil firms 'unprepared' for major offshore disaster - BBC ..."
p7
aS'Exxon oil spill clean-up plan has long, detailed media ...'
p8
aS'Tow-out beginning of era for Newfoundland Banks - Offshore'
p9
aS'Parabolic fractal, creaming curve improve estimate of US ...'
p10
a.