(lp0
S'Exxon Mobil Corporation Announces 2009 Reserves ...'
p1
aS'Exxon Hits Peak Oil... Reserves - Business Insider'
p2
aS'Energy Company Mergers Are Expected to Rise - The New ...'
p3
aS'Currency Trading Is Place to Make Your Fortune: Matthew ...'
p4
aS'Lynne M. Lachenmyer | AIChE'
p5
aS'Blackwolf Systems, LLC: quotes & news - Google Finance'
p6
aS'Mobil group finds more gas off W. Australia - Oil & Gas Journal'
p7
aS'$1-billion upgrade prepares Canadian refinery for future specs'
p8
aS"News ReleaseAir Products' Nitrogen Recovery Unit ..."
p9
aS"The World's Most Respected Companies - Barron's"
p10
a.