(lp0
S'On The Run | About Us'
p1
aS'HDPE resins - ExxonMobil Chemical'
p2
aS"Rap Moguls Go From Lil' Wayne to Oil, Keep It Real With ..."
p3
aS'NEWS British Gas steps up campaign to expand ...'
p4
aS'Shelby County legislative candidates raise more than ...'
p5
aS'Vantagepoint Broad Market Index Fund II Class: MUTF ...'
p6
aS"Michels' Crews Tackle Construction On Three Major North ..."
p7
aS'Exxon Mobil Gas Stations in Kokomo, Indiana with Reviews ...'
p8
aS'[PDF]\nOil and Natural Gas Drilling and Refining - Compressed Air ...'
p9
aS'MacMall opens new Torrance store in more visible location'
p10
a.