(lp0
S'AUTHOR SPOTLIGHT: DeMonica D. Gladney - BCNN1'
p1
aS'"Identity Theft" by DeMonica D. Gladney - BCNN1'
p2
aS'Exxon Mobil Baytown Refinery Baytown TX, 77520  Manta ...'
p3
aS"Bunkerworld News - Mass flowmeter 'natural progression' in ..."
p4
aS'Bernie Madoff tied to Dallas County gas leases, trustee says ...'
p5
aS'Platinum Set for Worst Year Since 2006 as Gold Surges ...'
p6
aS'Sharp Rise In Oil Prices Could Hinder Recovery : NPR'
p7
aS'A Guide To The Current Rules for Federal Elections What ...'
p8
aS"China Shifts from U.S.Treasuries to Hard Assets - Barron's"
p9
aS'Big Oil Bets On Natural Gas - The Daily Reckoning'
p10
a.