(lp0
S"Exxon Mobil's 2009 profit of $19.42 billion off 56 percent ..."
p1
aS'ExxonMobil profits slump to $19bn | Business | The Guardian'
p2
aS'Exxon Grew as Oil Industry Contracted - The New York Times'
p3
aS"Shell bets on ethanol in $21 billion deal with Brazil's Cosan ..."
p4
aS"Top funds betting on MasterCard, Exxon: Barron's | Reuters"
p5
aS'Create durable, safe juvenile products with ExxonMobil ...'
p6
aS'Changes and Challenges - College of Engineering - Purdue ...'
p7
aS'2010 January | Live Business News'
p8
aS'JPMorgan Value Advantage Fund - A - J.P. Morgan Asset ...'
p9
aS'Citizens United discussion at Bill Moyers Journal | Brennan ...'
p10
a.