(lp0
S'ExxonMobil isopropyl alcohol - ExxonMobil Chemical'
p1
aS'CNNMoney.com Market Report - Feb. 4, 2010'
p2
aS'NOG - Northern Oil and Gas, Inc. Buy, Sell and Hold Ratings ...'
p3
aS'Dow falls below 10,000 for first time since Nov. 6 | cleveland ...'
p4
aS'Oil & Gas News (OGN)'
p5
aS'Barge workers claim injuries from Port Arthur ship channel ...'
p6
aS'Monsanto: The evil corporation in your refrigerator ...'
p7
aS'Is annuity offer too good to be true? | Dallas Morning News'
p8
aS'Swag purveyors push pencils, other freebies at show in Dallas'
p9
aS'Indonesia seeks to purchase LNG carriers - Oil & Gas Journal'
p10
a.