(lp0
S'ExxonMobil celebrates 90 years of chemicals, community ...'
p1
aS'34th Annual IPA Convention & Exhibition | Getty Images'
p2
aS'7-Eleven Australia May Buy Exxon Fuel Outlets, Australian ...'
p3
aS'Macquarie-Samchully Seeks Assets in Canada, Australia ...'
p4
aS'Olgone (aromatics treatment) advantages - ExxonMobil ...'
p5
aS'[PDF]\nExxonMobil Safety Award 43-10 - MISTRAS Group'
p6
aS"The Right Place: Connie Ritter, MBA'80 | Vanderbilt Business"
p7
aS'Nippon-Mitsubishi merger speeds overhaul of Japanese ...'
p8
aS'What is naked short selling? - May. 19, 2010 - CNN Money'
p9
aS'2010 Entrepreneurs Conference [PHOTOS] - Black Enterprise'
p10
a.