(lp0
S'Global Partners Completes Purchase from ExxonMobil of 148'
p1
aS'ExxonMobil Coal to Methanol to Gasoline | Research ...'
p2
aS'Tips & Tricks for CV & Interviews - ExxonMobil Benelux'
p3
aS'Barclays Hires Seven From BP to Boost Energy Sales ...'
p4
aS'$6 Million Donated to Study Abroad'
p5
aS'Dow Jones Sustainability Index Adds Morgan Stanley, Cuts ...'
p6
aS'Ascom Takes Government of Kazakhstan to Stockholm ...'
p7
aS'Board of Directors - Parker Drilling'
p8
aS'Vanguard - All fund holdings'
p9
aS"Obama's latest job-bolstering proposal fails to dazzle - Sep ..."
p10
a.