(lp0
S'ExxonMobil Chemical announces plans to build a diesel ...'
p1
aS'Exxon Mobil Sues Prysmian Over Bad Submarine Cable'
p2
aS'LOBBYING: Chemical company adds muscle for push on ...'
p3
aS'Chemical Company Adds Lobbying Muscle for Push on ...'
p4
aS'10 Large-Cap China Picks - TheStreet'
p5
aS'Why global imbalances could lead to another economic ...'
p6
aS'[PDF]\nCedigaz News Report'
p7
aS"TPG, Apollo Said to Overvalue Harrah's Before IPO ..."
p8
aS'[PDF]\nNEWS from - Morehouse College'
p9
aS'Voya Corporate Leaders Trust B (LEXCX) Fund Research ...'
p10
a.