(lp0
S'Corporate Culture - ExxonMobil'
p1
aS'Exxon Mobil Share News - ADVFN.com'
p2
aS'US Closes Inquiry as Ghana Probes Alleged Bribery at Jubilee'
p3
aS"Hard Times for Wall Street's 'Sell Night' Recruits - Bloomberg"
p4
aS'Imperial Oil Mining News and Commentary | MINING.com'
p5
aS"Chevron finishes Canada's deepest offshore well | Reuters"
p6
aS'Notable energy industry figure Matt Simmons dead at 67 ...'
p7
aS"Retailers' log strong same-store sales in August - Sep. 2, 2010"
p8
aS'CNNMoney.com Market Report - Sep. 1, 2010'
p9
aS'China manufacturing ratchets up, easing some recovery ...'
p10
a.