(lp0
S'Corporate Culture - ExxonMobil'
p1
aS'Training & Career development - ExxonMobil'
p2
aS'Contact - ExxonMobil'
p3
aS'US Closes Inquiry as Ghana Probes Alleged Bribery at Jubilee'
p4
aS"Hard Times for Wall Street's 'Sell Night' Recruits - Bloomberg"
p5
aS'Johnson & Johnson Sued Over Hip-Replacement Devices ...'
p6
aS"Retailers' log strong same-store sales in August - Sep. 2, 2010"
p7
aS"Sheldon Silver's stock shares may be conflict of interest - NY ..."
p8
aS'Founder of Heelys footwear company cashes out his ...'
p9
aS'Hospital profit report ranks some Dallas-Fort Worth centers ...'
p10
a.