(lp0
S'Exxon Mobil to spend $340 million on new technology for 70 ...'
p1
aS'Exxon Mobil (XOM) Stock Price - ADVFN.com'
p2
aS'ExxonMobil Foundation - Bloomberg'
p3
aS'A&D Activity in Energy Sector Set to Increase in 2010 | Oil ...'
p4
aS'Univation Technologies, LLC | LinkedIn'
p5
aS'Oil Companies Making Moves In Iraq (XOM, BP, RDS, E ...'
p6
aS'PhoCusWright Study Finds $268 Billion of Travel Industry ...'
p7
aS'DEEPWATER OPERATIONS: Development, applications of ...'
p8
aS'Investing In Attractive Acquisition Candidates - Jonathan ...'
p9
aS'LaBranche exits NYSE market-making in Barclays deal ...'
p10
a.