(lp0
S"Kroger expands customers' gas rewards to Shell | Dallas ..."
p1
aS'SpectraSyn polymer modifiers - ExxonMobil Chemical'
p2
aS'SpectraSyn elevates elastomer elasticity - ExxonMobil ...'
p3
aS'KVEL 920 AM News Talk Sports Vernal, Utah | Local News'
p4
aS"Milk It For All It's Worth | CSPnet"
p5
aS'Congressmen Maintain Massive Portfolio of Oil and Gas ...'
p6
aS'UPDATE 2-Chalmette refinery to shut 3 units -sources ...'
p7
aS"ANALYSIS - Japan's law to shut refineries, may see Exxon exit"
p8
aS'Also in News - The Moscow Times - News, Business ...'
p9
aS'Top Employers Working with WUSTL | Career Center ...'
p10
a.