(lp0
S'Exxon Mobil Articles - Oil & Gas Financial Journal'
p1
aS'Business and Financial Leaders Lord Rothschild and ...'
p2
aS'XOM: 88,43 0,80 (0,91%) : Exxon Mobil Corporation ...'
p3
aS'Exxon Mobil Says Offshore Platform in Nigeria Attacked ...'
p4
aS'ExxonMobil Venture Executive Gives Presentation at Law ...'
p5
aS'ExxonMobil rig attacked in Nigeria; production shut in - Oil ...'
p6
aS'Business and Financial Leaders Lord Rothschild ... - Reuters'
p7
aS'7 oil workers kidnapped, Nigerian rebels say - World - CBC ...'
p8
aS'Time to Stop Subsidizing Ethanol - Huffington Post'
p9
aS'Houston and Norway working together - Houston Chronicle'
p10
a.