(lp0
S'ExxonMobil Selected by Nissan North America as Preferred ...'
p1
aS'Exxon confirms worker death at Chalmette refinery | Reuters'
p2
aS'Censored Gulf news: ExxonMobil worker dead. Extremely ...'
p3
aS'Paris Oil Drillers Target 100 Billion Barrels Near Brie, Wine ...'
p4
aS'Conoco Shakes Up Management Team as Executives Depart'
p5
aS'Conoco COO, CFO to Retire - WSJ'
p6
aS'Petrobras Busts The Price & Ignores Oil Trends (PBR, BP ...'
p7
aS'How Ray Suarez Really Caught the Global Health Bug ...'
p8
aS'State orders Dallas firm Remington Oil and Gas to stop ...'
p9
aS'1 million workers lose out on better coverage - Oct. 7, 2010'
p10
a.