(lp0
S'Exxon to Start $15 Billion LNG Project - AutoEvolution'
p1
aS'Papua New Guinea LNG project clears final conditions to ...'
p2
aS'Major 3D seismic acquisition undertaken by British Gas ...'
p3
aS'XTO Archives - HealthyWealthyWiseProject'
p4
aS"Abu Dhabi's Oil Output Gets Tougher - WSJ"
p5
aS'Vanguard - Vanguard Energy Fund Investor Shares'
p6
aS'ETF - Exchange Traded Funds: News and Info from ...'
p7
aS'CVX - Chevron Company Profile - CNNMoney.com'
p8
aS'Petrofac Targets Iraq Oil After Asfari Quadruples Share Value'
p9
aS'The Most Powerful Destructive Corporate Business Club ...'
p10
a.