(lp0
S'Shout Outs to Angels - Angel Airlift Mid-Atlantic'
p1
aS'2010 Settlement Agreements'
p2
aS'Compact biphase separation process can go downhole ...'
p3
aS'Port Directory - Private Dock Facilities  The Port of Greater ...'
p4
aS'Texas | Mesothelioma Cancer and Asbestos Exposure in TX'
p5
aS'Putin Bans Vacations Over Power Outages, Travel Chaos ...'
p6
aS'Stirling Properties - Randy Raudabaugh, MBA, CCIM, CPM'
p7
aS'study notes separability of oil company profitability, efficiency'
p8
aS'Idaho advised to issue megaload permits to Emmert ...'
p9
aS'NEW AMERICA FOUNDATION (NAF) - Discover the Networks'
p10
a.