(lp0
S"Exxon Mobil's 2009 profit of $19.42 billion off 56 percent ..."
p1
aS"Exxon Mobil says it's not forsaking oil for natural gas ..."
p2
aS'ExxonMobil profits slump to $19bn | Business | The Guardian'
p3
aS'Exxon Grew as Oil Industry Contracted - The New York Times'
p4
aS'Oil and Gas Interests Set Spending Record for Lobbying in ...'
p5
aS'BP profit up as oil prices rise, misses forecasts | Reuters'
p6
aS"Shell bets on ethanol in $21 billion deal with Brazil's Cosan ..."
p7
aS'ExxonMobil Discloses Marcellus Shale JV with Private ...'
p8
aS'PlainsCapital suing customer Hillary Machinery over ...'
p9
aS'Eurest Services  Services  Foodservice'
p10
a.