(lp0
S'ExxonMobil - Facebook'
p1
aS'Exxon Mobil is a Noteable Growth Stock (XOM ...'
p2
aS"5 Things Newmont Mining Corp.'s Management ... - 24hGold"
p3
aS'Strategic denial of oil in Haiti? - The Real News Network'
p4
aS'Why Africa Is Poor - WSJ'
p5
aS"Wal-Mart's store sales drop in fourth quarter - Feb. 18, 2010"
p6
aS'[PDF]\nLecture: 40 Years in Oil Patch - The Center for American ...'
p7
aS'ExxonMobil and Tetra Pak Highlight 2010 SIMULIA ...'
p8
aS'SUBSEA PRODUCTION TECHNOLOGY Part III Subsea ...'
p9
aS'NEW PRODUCTS & SERVICES - Offshore'
p10
a.