(lp0
S'Company profile - ExxonMobil Chemical'
p1
aS'Recession Takes Bite Out of Global M&A - WSJ'
p2
aS'Total in $2 billion shale gas tie-up with Chesapeake | Reuters'
p3
aS"For Chevron, It Could Be a Happy New Year - Barron's"
p4
aS'[PDF]\nHuman Rights Due Diligence: Is it too Risky? - Shift Project'
p5
aS'Dallas Business Club - The DBC welcomes our newest ...'
p6
aS"Bear's warning: Federal debt is cause for alarm | Dallas ..."
p7
aS'Mobil Cepu Ltd.: Private Company Information - Businessweek'
p8
aS'GreenShift Corporation (OTCBB: GERS) Closes A New Deal'
p9
aS'Auto industry hopes for a better 2010 - Jan. 4, 2010'
p10
a.