(lp0
S'Investor Relations | News Release | Albemarle'
p1
aS'Jubilee Field Stake: BP Out, Exxon In? | Business News ...'
p2
aS'Qatar: Qatar Petroleum and ExxonMobil sign Ras Laffan ...'
p3
aS'How Big Oil and Big Coal Blocked Global Warming ...'
p4
aS'Roger Federer and Rafael Nadal Ride Mobil 1 Grand Prix ...'
p5
aS'Synthetic Lubricants - Resources And Advice'
p6
aS'Board pay: Unchecked and out of hand - Fortune'
p7
aS'U.S. job satisfaction falls to lowest level in 22 years - Jan. 5 ...'
p8
aS'Subway, soldier settle Dallas franchise dispute | Dallas ...'
p9
aS'Synthetic base stocks for turbine oils - ExxonMobil Chemical'
p10
a.