(lp0
S'ExxonMobil Announces Agreements with Thai Paraxylene ...'
p1
aS'News announcements  Cape plc'
p2
aS'Africa: The new crude frontier - The Globe and Mail'
p3
aS'Find the right grade for metal forming - ExxonMobil Chemical'
p4
aS'Oil companies fought stricter regulations - USATODAY.com'
p5
aS'Gulf Rig Owner Had Rising Tally of Accidents - WSJ'
p6
aS"Monsanto's seeds of discord: Full version - Fortune"
p7
aS"Monsanto's seeds of discord - Fortune"
p8
aS'EXXONMOBIL CHEMICAL BRPO Baton Rouge LA, 70807 ...'
p9
aS'In select applications, AUVs work faster, cheaper than ...'
p10
a.