(lp0
S'Tripling Its Size | CSPnet'
p1
aS"Now's the Time to Own Exxon - Exxon Mobil Corporation ..."
p2
aS"BP's Hayward Quits After Spill Shreds Pledge to Improve ..."
p3
aS'BP Posts $17.15 Billion Loss, Names Dudley as New CEO ...'
p4
aS'Who is Bob Dudley? - Jul. 27, 2010 - CNN Money'
p5
aS'Amazing Edibles - CNN Money'
p6
aS'MCCA | 2010 - 07 - D&B - MCCA 2010 Survey of Fortune ...'
p7
aS'Kentz Awarded Papua New Guinea Contract | LNG World ...'
p8
aS'Apache buys BP assets for $7 billion - Oil & Gas Journal'
p9
aS'Singapore Confirms Plans For 6-8m tonne/year Ethylene ...'
p10
a.