(lp0
S'ExxonMobil C-Stores in Landshire Deal | CSPnet'
p1
aS'ExxonMobil: Latest News, Videos and ExxonMobil Photos ...'
p2
aS'Mobil - United States'
p3
aS'Mobil Engine Oil Asia Pacific Home | Mobil Asia Pacific'
p4
aS'Reliance Buys Carrizo Shale Stake for $392 Million ...'
p5
aS'Partnerships Let Wealthy Play Oil Tycoons for Income ...'
p6
aS'Buffett Spared Deposition by US Judge in Berkshire Lawsuit'
p7
aS'Mobil Oil Coal to Methanol to Gasoline | Research ...'
p8
aS'USPS posts $3.5 billion loss as mail volume plunges - Aug ...'
p9
aS'506-389-5300 / 5063895300 - 800Notes'
p10
a.