(lp0
S'ExxonMobil Broke Air Pollution Laws, Group Says - CBS News'
p1
aS'ExxonMobil Faces Clean Air Act Lawsuit For Violations At ...'
p2
aS'Read More News - News | Giving to UT  The University of ...'
p3
aS'Frustrated green groups to sue ExxonMobil, saying Texas ...'
p4
aS'Government may end hands-off approach to disaster ...'
p5
aS'Native Village of Kivalina v. ExxonMobil Corporation, et al ...'
p6
aS'Interior Rewrites History, Erases BP From List of Finalists for ...'
p7
aS'The Supreme Court and Corporate Free Speech - Time'
p8
aS'Emily Tucker - Placement Profile - ExxonMobil in the UK'
p9
aS'ExxonMobil Production Supports Local Forest Conservation ...'
p10
a.