(lp0
S'Controlled Freeze Zone (CFZ) | ExxonMobil'
p1
aS'ExxonMobil Expands Support for Technologies that ... - ICRW'
p2
aS'Exxon Mobil: Lobbying | OpenSecrets'
p3
aS'ExxonMobil Expands Support For Technologies ... - Ashoka'
p4
aS'BP to share spill cleanup tools with industry - US news ...'
p5
aS"Well Is Sealed; Tale Isn't Over - Wall Street Journal"
p6
aS'EPA Smog Proposals Draw Fire - WSJ'
p7
aS'Boots and Coots Services Stocks, News and Research: Oil ...'
p8
aS"Shell's shore-based engineers monitor offshore rigs ..."
p9
aS'Advertising: Creative Exodus in Adland | Agency News ...'
p10
a.