(lp0
S'XOM: Investors: news release - ExxonMobil'
p1
aS'View All Industry News - Machinery Lubrication'
p2
aS'ExxonMobil methyl ethyl ketone - ExxonMobil Chemical'
p3
aS'Personal care and hygiene - ExxonMobil Chemical'
p4
aS'Hackers Targeted Oil Companies for Oil-Location Data - Wired'
p5
aS"U.S. Oil Companies Targets of 'Tenacious' Cyber Attacks ..."
p6
aS'Courts as Battlefields in Climate Fights - NYTimes.com'
p7
aS'Toyota recall of 2.3 million cars prompts sales suspension ...'
p8
aS"Don't blame us, pallet industry tells tainted Tylenol maker ..."
p9
aS'Huge oil spill has been contained in Texas port | NOLA.com'
p10
a.