(lp0
S'ExxonMobil Chemical brands T to Z'
p1
aS'ExxonMobil Chemical brands F to L'
p2
aS'ExxonMobil Chemical brands O to P'
p3
aS'N.J. gas stations offer cheaper prices for customers who pay ...'
p4
aS'Business | The Daily Caller'
p5
aS'Vanguard Balanced Index I Fund (VBAIX) - Fund Mojo'
p6
aS'Vanguard Balanced Index Adm Fund (VBIAX) - Fund Mojo'
p7
aS'Vanguard Balanced Index Inv Fund (VBINX) - Fund Mojo'
p8
aS'University of Texas at Dallas starts up masters in ...'
p9
aS'Giving corporations an outsized voice in elections - latimes'
p10
a.