(lp0
S'ExxonMobil Sets Drilling Records | ExxonMobil News ...'
p1
aS'ExxonMobil Fuels & Lubricants'
p2
aS'Re-use, Reduce & Recycle | ExxonMobil'
p3
aS'Tax bills for 5 corporate giants - Exxon Mobil: $15.1 billion (2 ...'
p4
aS'Exxon Mobil boasts record oil well in California - Houston ...'
p5
aS'Shareholder Overview for XOM Exxon Mobil Corp including ...'
p6
aS'Two Exxon Mobil Subsidiaries in Guam & Northern ...'
p7
aS"Exxon's Oozing Texas Oil Pits Haunt Residents as XTO Deal ..."
p8
aS'ExxonMobil Operations | ExxonMobil - SIGNUM Oil Analysis'
p9
aS'Spelman College to Receive $1 Million from ExxonMobil to ...'
p10
a.