(lp0
S'Victory Petroleum Expands in ExxonMobil Deal ...'
p1
aS'7-Eleven to Buy 183 Exxon Mobil Properties to Expand in ...'
p2
aS'7-Eleven Signs Agreement with ExxonMobil to Acquire 183 ...'
p3
aS'USPages - Oil Gas - Exxon Mobil Corporation'
p4
aS'Latest News'
p5
aS'As jurors go online, U.S. trials go off track | Reuters'
p6
aS'MasterCard, Visa targeted in apparent cyberattack - Dec. 8 ...'
p7
aS'FOIA.gov - Freedom of Information Act: News'
p8
aS'Buy Exxon stock Gift in 2 Minutes | #1 in Single Shares of ...'
p9
aS'Danske Invest Indeks Verden: CPH:DKIGLOIX2 quotes ...'
p10
a.