(lp0
S'Exxon Mobil profit nearly doubles - Jul. 29, 2010 - CNN Money'
p1
aS'Cullen/Frost Bankers, Inc. Board Names Former Exxon ...'
p2
aS'Royal Dutch Shell and Exxon profits almost double - BBC ...'
p3
aS'Stock:Delta Petroleum (DPTR) - Wikinvest'
p4
aS'BP May Sell Venezuela Oil Stakes to Russian Venture ...'
p5
aS'Conoco to Sell Lukoil Stake After Posting Profit Gain ...'
p6
aS'Jazan Refinery Project - DownstreamToday.com - News and ...'
p7
aS'Exxon Mobil Profit Rises Most Since 2003 On Production ...'
p8
aS'Biggest transnational companies | The Economist'
p9
aS'Coolant /oil break down in progress | Mobile Broadcast News'
p10
a.