(lp0
S"BP's PR Blunders Mirror Exxon's, Appear Destined for ..."
p1
aS'ExxonMobil to boost Tapis field production in Malaysia - Oil ...'
p2
aS'Exxon, Petronas to lift Tapis oil output in 2013 | Reuters'
p3
aS"BP oil spill: shares plummet as US warns it will 'take action ..."
p4
aS'MC Petroleum - Lubricant, Oil, Diesel, Fuel Distributor - MC ...'
p5
aS'BP Shares Sink on Oil Spill Bankruptcy Worries - ABC News'
p6
aS'It Pays to Help Workers Buy a Home - Bloomberg'
p7
aS"BP stock: Company 'not aware' of reason for stock loss - Jun ..."
p8
aS'Corporate Social Responsibility News: Canada ... - YouTube'
p9
aS'CAMPUS students celebrate | LoudounTimes.com'
p10
a.