(lp0
S'ExxonMobil and Synthetic Genomics Inc. Advance Algae ...'
p1
aS'Exxon Mobil PE Ratio (TTM) (XOM) - YCharts'
p2
aS'Exxon Mobil Market Cap (XOM) - YCharts'
p3
aS'Exxon Mobil Profit Margin (Quarterly) (XOM) - YCharts'
p4
aS'Exxon Mobil Return on Equity (TTM) (XOM) - YCharts'
p5
aS'News Update: Exxon Mobil Opened Greenhouse Facility To ...'
p6
aS"Exxon Wins Bid To Nix Md. Franchisees' Contract Suit ..."
p7
aS'RIT Announces Appointment to its Board of Trustees - RIT ...'
p8
aS'Algae Biofuels Project Advances from Lab to Greenhouse ...'
p9
aS'Exxon says growing its algae biofuels program | Reuters'
p10
a.