(lp0
S'Three champions of workplace diversity to be honored at ...'
p1
aS"Haiti's top corporate donors - Teva Pharmaceuticals (1 ..."
p2
aS'Doctors threaten to turn away Medicare patients - Feb. 25 ...'
p3
aS'About us :: Our Greenpoint Commitment'
p4
aS'Contact Us :: Our Greenpoint Commitment'
p5
aS'Technip/Chiyoda awarded a contract for PMP onshore ...'
p6
aS'Drive for replacement gas keeping Dutch sector stable ...'
p7
aS'John Georges sells fleet of oil service vessels to Harvey Gulf ...'
p8
aS'The 100 Most Powerful Executives In Corporate America'
p9
aS'Developing a True Christian Stock Portfolio - The Landover ...'
p10
a.