(lp0
S'Exxon Mobil touting its safety program after BP spill | Dallas ...'
p1
aS'Offshore Insurance to Shrink as Providers Flee BP-Like Risk'
p2
aS"Uppy's Acquired by Mid-Atlantic Convenience Stores ..."
p3
aS'BP, Big Oil: Meet Sarbanes-Oxley Section 302 - TheStreet'
p4
aS'BP and the Niger Delta: A Horrendous Tale of Two Oil Spills'
p5
aS'CHINA & SOUTHEAST ASIA - Offshore'
p6
aS'Ranks of North Sea producers lured by productivity gains ...'
p7
aS'Mapping US Gulf of Mexico salt with marine magnetotellurics'
p8
aS"Standard & Poor's Announces Changes to U.S. Indices ..."
p9
aS'Union Pacific railroad builds U.S. economy - Jun. 23, 2010'
p10
a.