(lp0
S'Exxon Faces $12M Wrongful Death Suit For Gas Leak ...'
p1
aS'Daewoo International Mulls Deep-Water Port in Congo ...'
p2
aS"Phosphate: Morocco's White Gold - Bloomberg"
p3
aS'ExxonMobil Business Support Center Czechia s.r.o.'
p4
aS'Western Precipitation Corp. Celebrates - Chemical ...'
p5
aS'Kawkawlin Township company helps raise $60,000 in ...'
p6
aS"Kristi Lafleur | 36 - Multimedia - Crain's Chicago Business"
p7
aS'U.S. Commerce Secretary Gary Locke Announces Members ...'
p8
aS"Analysis: Post-spill, Gulf of Mexico key to BP's fortunes ..."
p9
aS'Sponsored Fellowships - Eisenhower Fellows'
p10
a.