(lp0
S'Exxon Mobil Corporation Linden NJ, 07036  Manta.com'
p1
aS'Exxonmobil Oil Corporation Beaumont TX, 77701  Manta ...'
p2
aS'FTC Investigates Oil Firms Over Hiring, Wages - WSJ'
p3
aS"World's largest steam cracking furnace modules have ..."
p4
aS'Opponents rush to put brakes on Imperial Oil plan to send ...'
p5
aS'Conoco Targets Rockies, Texas, Western Canada In Asset ...'
p6
aS'JPMorgan Hires Oliver Who Helped Run CME Credit Swaps ...'
p7
aS"El Bulli Toppled as World's Best Restaurant by Noma ..."
p8
aS'Biodiesel Magazine - The Latest News and Data About ...'
p9
aS'Dallas developer devotes staffer full time to blog and tweet ...'
p10
a.