(lp0
S'Co-op Takes Star Turn in Ads | Electric Co-op Today'
p1
aS'Ethylene Profit May Fall as Exxon, Sabic Add Capacity ...'
p2
aS'BP Spill Threatens Gulf of Mexico Oil, Gas Operations ...'
p3
aS'Alternative Forums | Texas Law Firm - Hicks Thomas LLP'
p4
aS"brandchannel: BP's Brand: Is the Damage Done?"
p5
aS'Davy Jones discovery opens up new large production ...'
p6
aS'Exxon Valdez and the birth of credit default swaps ...'
p7
aS'LATEST NEWS: JCSO nabs Evadale man on sex offender ...'
p8
aS'TXU parent Energy Future Holdings reports $355 million ...'
p9
aS'Movie Gallery closing stores, which is bittersweet news for ...'
p10
a.