(lp0
S'News and updates - Investors - ExxonMobil'
p1
aS'ExxonMobil Announces Multi-Year Supply Agreement With ...'
p2
aS'Implications Of Exxon Mobil V. Venezuela - Law360'
p3
aS'Eagle Ford Shale News, Wells, Formation, Markets and ...'
p4
aS'Sara N. Ortwein: Executive Profile & Biography ... - Bloomberg'
p5
aS"Exxon Starts Units at Italy's Augusta Oil Refinery After Fault ..."
p6
aS'ExxonMobil Finds More Oil on Indonesia Cepu Block'
p7
aS'ExxonMobil Gave $1.5M to Climate Denier Groups Last ...'
p8
aS'Nigerian Content: Indigenous companies get $1.8bn ...'
p9
aS"Oil Spill Puts a Target on BP's Back - WSJ"
p10
a.