(lp0
S'Exxon Mobil Corporation Linden NJ, 07036  Manta.com'
p1
aS'Exxonmobil Oil Corporation Beaumont TX, 77701  Manta ...'
p2
aS'Officials Consider Burning Off Oil - WSJ'
p3
aS"World's largest steam cracking furnace modules have ..."
p4
aS'Opponents rush to put brakes on Imperial Oil plan to send ...'
p5
aS'Maritime News - Education/Training'
p6
aS'Merck: Kenneth C. Frazier - Biography | Business Wire'
p7
aS'Amadeus Raises $1.74 Billion in IPO Above Midpoint ...'
p8
aS'ConocoPhillips Backs Out of Abu Dhabi Gas Project ...'
p9
aS'Dallas developer devotes staffer full time to blog and tweet ...'
p10
a.