(lp0
S'ExxonMobil C-Stores in Landshire Deal | CSPnet'
p1
aS'Upper Zakum - crude oil | ExxonMobil'
p2
aS'Congo (Rep): ExxonMobil farming out Mer Tres Profonde ...'
p3
aS"Is Occidental's Irani Worth His Big Pay Check? - Deal ..."
p4
aS'Mobil Oil Coal to Methanol to Gasoline | Research ...'
p5
aS'DuPont to Expand in Materials for Lithium-Ion Car Batteries ...'
p6
aS'Buffett Spared Deposition by US Judge in Berkshire Lawsuit'
p7
aS'Government Industry Links and Hidden Causes of Gulf ...'
p8
aS'CALIFORNIA POWER PLANTS FIRED BY FLUID COKE ...'
p9
aS'McDermott completes spin-off of the Babcock & Wilcox ...'
p10
a.