(lp0
S'COMPANY NEWS: Chevron, Texaco agree to merge in all ...'
p1
aS'Vanguard Total Stock Market (VTSMX) Holdings | US News ...'
p2
aS'NEWS | BP Deal to Expand US Shale-Gas Operations ...'
p3
aS'Taiwan national oil company CPC ready to buy ExxonMobil ...'
p4
aS'BP - Lewis Joint Venture in Eagle Ford Dry Gas | Eagle Ford ...'
p5
aS'ExxonMobil cases first Point Thomson well - Oil & Gas ...'
p6
aS"Battlement Mesa's David and Goliath story - Post Independent"
p7
aS'VIETNAM Operators increase exploration, development off ...'
p8
aS'March 2010 ~ Oil & Energy News'
p9
aS'SHARON STEEL CORP (FAIRMONT COKE WORKS ...'
p10
a.