(lp0
S'ExxonMobil Outlines Achievements in Environmental, Safety ...'
p1
aS'Oil sands | ExxonMobil'
p2
aS'ExxonMobil distribution for Portugal, Maghreb & UK'
p3
aS'BP Played Central Role in Exxon Valdez Disaster - CBS News'
p4
aS'ExxonMobil Gives Green Progress Report, but Investors ...'
p5
aS'Making Money on Oil Disasters | Center for American Progress'
p6
aS'ExxonMobil describe los logros de desempeo en las reas ...'
p7
aS'Varsol fluids - ExxonMobil Chemical'
p8
aS'Nappar fluids - ExxonMobil Chemical'
p9
aS'Sakhalin-1 production to get boost: Japex | Reuters'
p10
a.