(lp0
S'Exxon Mobil Corporation Orlando FL, 32819  Manta.com'
p1
aS'Apache Corporation Stocks, News and Research: Oil and ...'
p2
aS'Oil Consultant Giffen Pleads Guilty to Misdemeanor ...'
p3
aS'ExxonMobil: Latest News, Videos and ExxonMobil Photos ...'
p4
aS'Mobil - United States'
p5
aS'Mobil Engine Oil Asia Pacific Home | Mobil Asia Pacific'
p6
aS'Petroleum News ebook - SlideShare'
p7
aS'USPS posts $3.5 billion loss as mail volume plunges - Aug ...'
p8
aS'July jobs report: Job market sputters on weak hiring - Aug. 6 ...'
p9
aS"When seismic isn't enough - Earth Explorer Magazine"
p10
a.