(lp0
S"After Seven Years, 'Kazakhgate' Scandal Ends With Minor ..."
p1
aS"Can oil companies be socially responsible? | ExxonMobil's ..."
p2
aS'MANAGEMENT & ECONOMICS: Chevron team thinks like ...'
p3
aS'AIR POLLUTION: By messing with Texas permits, EPA ...'
p4
aS'HP scandal: Finally some good news for Dell - Aug. 10, 2010'
p5
aS"Macy's stock spikes on soaring profit, raised outlook - Aug ..."
p6
aS'Transamerica WMC Diversified Gr A: MUTF:ITQAX quotes ...'
p7
aS'BRAND SERVICES, LLC: quotes & news - Google Finance'
p8
aS'Four selected as American Chemical Society fellows | WSU ...'
p9
aS"Why Proxy Woes at Occidental aren't Accidental - Aug. 11 ..."
p10
a.