(lp0
S'News releases - ExxonMobil'
p1
aS'Mobil 1 to Sponsor Tony Stewart and Stewart-Haas Racing ...'
p2
aS'NEWS | Todd Energy, ExxonMobil JV Pulls Out of Great ...'
p3
aS'Will: The Energy Future Will Look Familiar - Newsweek'
p4
aS"China's CNOOC tests U.S. with Chesapeake shale deal ..."
p5
aS'Frontier May Seek Marketing Deal With Major Airline ...'
p6
aS'Cline Talking Clean as Coal Mines Supply Most Energy ...'
p7
aS'News | Awarded contract extension in Nigeria'
p8
aS"WorleyParsons wins ExxonMobil's Satellites Phase 2 ..."
p9
aS"Don't use the PBS model to save journalism. | News Mockers"
p10
a.