(lp0
S'Oil bubbles up from ground in Sag Harbor near former spill ...'
p1
aS'Exxon Mobil Corporation (XOM) - Earnings & Price History'
p2
aS'Polymers: licensing process - ExxonMobil Chemical'
p3
aS'World Fuel Services Corporation to Acquire Assets of ...'
p4
aS'Blavatnik Creation LyondellBasell May Face U.S. Probe ...'
p5
aS"Shell's Bonga, EA development, deepwater renew interest ..."
p6
aS'MOPUs evolving to meet greater depth, flexibility challenges ...'
p7
aS'Exxon Mobil Chemical CO Akron OH, 44311  Manta.com'
p8
aS'Consumer indicators show recession over, recovery ...'
p9
aS'Congressman Denies Knowing His Wife Lobbied For ...'
p10
a.