(lp0
S'ExxonMobil Community Summer Jobs Program Provides ...'
p1
aS'ExxonMobil grants Spelman $1M to increase number of ...'
p2
aS'Conflicts of Interest  New York Style: Senator George ...'
p3
aS'Those with allergic asthma face double trouble during flu ...'
p4
aS"Special Report: Inside BP's War Room | Reuters"
p5
aS'[PDF]\nAnnual Report and Stock Pamphlet Inventory - Petroleum ...'
p6
aS'What Not to Say When Your Company Is Ruining the World'
p7
aS'Roundtable Forum:a Shift In Focus To Natural Gas From Oil ...'
p8
aS"America's 7 junkiest cities - CNN Money"
p9
aS'GLOBAL E&P BRIEFS - Offshore'
p10
a.