(lp0
S'Commission agrees to dissolution of BP/Mobil Joint Venture ...'
p1
aS'Energy News: Kosmos Rejects Cnooc, Ghana Bid for Oil ...'
p2
aS"ExxonMobil's Q3: Business as Usual - Exxon Mobil ..."
p3
aS'Mobil new gas discovery to boost power generation ...'
p4
aS'TA, Petro to Feature Mobil Delvac Coolant | CSPnet'
p5
aS'BP Profit Drops After Further Charge Taken on Spill ...'
p6
aS'Nigeria: ExxonMobil makes gas condensate find offshore ...'
p7
aS'BP returns to profitability - Nov. 2, 2010 - CNN Money'
p8
aS'Deepwater gas, depletion driving US Gulf pipeline expansion'
p9
aS'US producers show steady gain in revenues, net income for ...'
p10
a.