(lp0
S'Jazan Refinery Project - DownstreamToday.com - News and ...'
p1
aS'Stock:Delta Petroleum (DPTR) - Wikinvest'
p2
aS"Now's the Time to Own Exxon - Exxon Mobil Corporation ..."
p3
aS"BP's Hayward Quits After Spill Shreds Pledge to Improve ..."
p4
aS'Conoco to Sell Lukoil Stake After Posting Profit Gain ...'
p5
aS'Who is Bob Dudley? - Jul. 27, 2010 - CNN Money'
p6
aS'Ceyhan refinery management contract awarded - Oil & Gas ...'
p7
aS'Kentz Awarded Papua New Guinea Contract | LNG World ...'
p8
aS'Coolant /oil break down in progress | Mobile Broadcast News'
p9
aS"Pappas brothers guarantee $13 million in Luby's debt ..."
p10
a.