(lp0
S'ExxonMobil Recognizes Boca Raton High School Student ...'
p1
aS'HEARD ON THE STREET: Fight for Your LIFO - WSJ'
p2
aS'Petronas Gas Berhad and Petronas Sign HOA for the ...'
p3
aS"Gazprom, CNPC Circle Kazakh Fields 'Like Vultures,' Leak ..."
p4
aS'Chevron buys Atlas Energy in $4.3B deal, enters shale ...'
p5
aS"It's Not Just Business - Forbes"
p6
aS'4 Uranium Penny Stocks to Buy - TheStreet'
p7
aS'GLOBAL E & P - Offshore'
p8
aS"Haffner's kick-stopping the habit - Lowell Sun Online"
p9
aS"Special report: How BP's oil spill costs could double | Reuters"
p10
a.