(lp0
S'ANALYSIS - Exxon culture may be tough fit for XTO workers ...'
p1
aS'BP Looks to Boost Refining Profits - WSJ'
p2
aS'SpectraSyn Lo Vis PAO - ExxonMobil Chemical'
p3
aS'EXXON MOBIL | Historische Kurse | FSE | Schlusskurse ...'
p4
aS"Today's Odor in Baytown Is Brought to You by ExxonMobil ..."
p5
aS'MOL joins hands with ExxonMobil for LNG projects'
p6
aS'NEWS ANWR leasing issue destined to heat up again in ...'
p7
aS'The Other Ron Burkle - Bloomberg'
p8
aS'[PDF]\nMarch 4, 2010 - Trinity Industries'
p9
aS'Catherine Motte | Exxon Mobil Corporation | ZoomInfo.com'
p10
a.