(lp0
S'Exxon Mobil Corporation Port Arthur TX, 77642  Manta.com'
p1
aS'Unilever Invests in Algae - WSJ'
p2
aS'News | GP Industrial'
p3
aS"Ohio's Scorn of Stimulus Means Obama May Pay for ..."
p4
aS'Deals that made Bill White wealthy reflect a demanding ...'
p5
aS'Michaels ordered to pay $8 million to manager fired after ...'
p6
aS"Who Says Money Can't Buy Happiness? (The defeat of the ..."
p7
aS"OGJ150 financial results down in '09; production, reserves up"
p8
aS'Economists offer tepid support of Obama spending plan ...'
p9
aS'[PDF]\nTop 100 Operators - US Energy Information Administration ...'
p10
a.