(lp0
S'Tesoro to name new chief soon - San Antonio Express-News'
p1
aS'Petrobras provides the opportunity, but partners help with ...'
p2
aS'An overview of the prolific southeast offshore Niger Delta ...'
p3
aS'Natural gas: fuel of the future - Mar. 29, 2010 - CNN Money'
p4
aS"The 30 Most Respected CEOs - Barron's"
p5
aS"Koch Industries' Extensive Funding of Climate Denial ..."
p6
aS'Escorene Ultra EVA copolymer resins for packaging ...'
p7
aS'How a big bet on oil went bust - Mar. 29, 2010 - Fortune'
p8
aS'Deep-draft caisson vessels expand deepwater production ...'
p9
aS"One Law Firm That's Very McKool on Contingency-Fee ..."
p10
a.