(lp0
S'Exxon Mobil Share News - ADVFN.com'
p1
aS'HP/HT TECHNOLOGY: Unmanned Jade development ...'
p2
aS'Dreyfus Appreciation Fund, Inc. Class Investor: MUTF ...'
p3
aS'Pay-as-you-drive insurance? MileMeter CEO has that covered'
p4
aS'Grapevine-based GreenHunter Energy dumps biofuel ...'
p5
aS'Response and clean-up technology research and ...'
p6
aS'[PDF]\ndealing with client management in - The Federation of ...'
p7
aS'USPages - Oil Gas - ChevronTexaco Corporation'
p8
aS'Black Friday at Toys R Us draws newcomers - Nov. 26, 2010'
p9
aS'Wadhwaney, Amit B. - The Wall Street Transcript'
p10
a.