(lp0
S"ExxonMobil Chemical's Vistamaxx Propylene-Based ..."
p1
aS'White House Security Expert Speaks About Risk'
p2
aS'Vistamaxx propylene-based elastomers inspire ...'
p3
aS'OELs - ExxonMobil Chemical'
p4
aS'Blow molding Santoprene TPVs - ExxonMobil Chemical'
p5
aS'Mobil 1 Orange County Chopper Grand Prize Awarded ...'
p6
aS'Exposed: The Worldwide Efforts Of The Global Energy ...'
p7
aS'Wildcatter Moffett adds to legend with new discovery ...'
p8
aS'Florida man indicted in Texas mortgage fraud scheme ...'
p9
aS'CVE - Cenovus Energy Inc Stock quote - CNNMoney.com'
p10
a.