(lp0
S'PNG LNG Project and CPC Finalise Sale and Purchase ...'
p1
aS'PNG: ExxonMobil finalises PNG gas sales deal with ...'
p2
aS'Exxon Mobil Corporation Company Profile | ZoomInfo.com'
p3
aS'BP Looks to Boost Refining Profits - WSJ'
p4
aS'MOL joins hands with ExxonMobil for LNG projects'
p5
aS"Today's Odor in Baytown Is Brought to You by ExxonMobil ..."
p6
aS'The Mundy Companies - Awards'
p7
aS'EXXON MOBIL | Historische Kurse | FSE | Schlusskurse ...'
p8
aS'NEWS ANWR leasing issue destined to heat up again in ...'
p9
aS'Escorez 1000 series - ExxonMobil Chemical'
p10
a.