(lp0
S'PolyOne Corporation - News Release'
p1
aS'PolyOne to market Santoprene medical grades | Rubber News'
p2
aS'ExxonMobil Chemical appoints PolyOne as primary ...'
p3
aS'Treasury Shielding Citigroup With FOIA Deletions - Bloomberg'
p4
aS'French Strike Costing Up to EU400 Million a Day - Bloomberg'
p5
aS"Obama Avoided Depression, Got 'No Credit,' Cote Says ..."
p6
aS'Healthcare - ExxonMobil Chemical'
p7
aS'Liberia, flags of convenience and corporate capitalism ...'
p8
aS"The economics of ethanol | ExxonMobil's Perspectives Blog"
p9
aS'The Petroleum Broadcast System Owes Us an Apology'
p10
a.