(lp0
S'[PDF]\nSignum Oil Analysis - ExxonMobil'
p1
aS'DownstreamToday.com - News and Information for the ...'
p2
aS'ExxonMobil REACH Use communications - bitumen'
p3
aS'Oil & Industry: Connecting the Dots in the War Over ...'
p4
aS'A Closer Look at Vehicle Software Suppliers - Bloomberg'
p5
aS'When Corporations Rule The World (thanks to the Supreme ...'
p6
aS'Specialty elastomers applications - ExxonMobil Chemical'
p7
aS'applications - ExxonMobil Chemical'
p8
aS'Nexxstar - ExxonMobil Chemical'
p9
aS'Worldwide ethylene capacity grows in spite of warnings - Oil ...'
p10
a.