(lp0
S'ExxonMobil Outlines Achievements in Environmental, Safety ...'
p1
aS'ExxonMobil distribution for Portugal, Maghreb & UK'
p2
aS'BP Played Central Role in Exxon Valdez Disaster - CBS News'
p3
aS'ExxonMobil Gives Green Progress Report, but Investors ...'
p4
aS'These companies managed to make a comeback - NBC News'
p5
aS'ExxonMobil describe los logros de desempeo en las reas ...'
p6
aS"ExxonMobil's Annual Matching Donation Exceeds $1 Million ..."
p7
aS'100 Top MBA Employers 2010 - Top 100 - FORTUNE on ...'
p8
aS'ExxonMobil protest on for Wednesday | Dallas Voice'
p9
aS'Shale Gas Costing 2/3 Less Than OPEC Oil Incites Water ...'
p10
a.