(lp0
S'Government may end hands-off approach to disaster ...'
p1
aS'Read More News - News | Giving to UT  The University of ...'
p2
aS'Special Report: Midyear Forecast: US, Canada drilling ...'
p3
aS'Oil and Gas Production: Enhanced Oil Recovery in the ...'
p4
aS'Gulf Oil Leak News, Images, Data, and Diagrams  7/5 ...'
p5
aS'ExxonMobil Production Supports Local Forest Conservation ...'
p6
aS"PDVSA nationalization notes from here and there | Setty's ..."
p7
aS'Wall Street History: A Robber Baron And A Beer Baron ...'
p8
aS'ERTT Emergency Response Technical Training'
p9
aS'BP getting ready to fight off a hostile takeover  Royal Dutch ...'
p10
a.