(lp0
S'ExxonMobil Signs Agreement with Iraq to Redevelop and ...'
p1
aS'Collision Causes Crude Oil Spill in Port Arthur, Texas - WSJ'
p2
aS'Oil Spill Hits Port Arthur in Texas - WSJ'
p3
aS'Crews Try to Protect Wildlife From Oil Spill | NBC 5 Dallas ...'
p4
aS'Hundreds clean up Texas oil spill - US news - Environment ...'
p5
aS'Business Leaders Speak At The Global Competitiveness ...'
p6
aS'ExxonMobil higher olefins - ExxonMobil Chemical'
p7
aS'Texas waterway remains closed after oil spill | Reuters'
p8
aS'Sustainable Ecosystems and Community News: Oil Spill in ...'
p9
aS'Crews try to protect wildlife from Texas oil spill | NOLA.com'
p10
a.