(lp0
S'Exxon Mobil: Poster Boy for Economies of Scale - Exxon ...'
p1
aS'Exxon Mobil: Keep an Eye on Oil Prices, Profitability ...'
p2
aS'Prediction Articles - Oil & Gas Financial Journal'
p3
aS'With years of Super Bowl experience, Genesco CEO says ...'
p4
aS'Dallas influence puts Texas flavor into Weil Gotshal and ...'
p5
aS'XTO Buys Petrohawk Fayetteville Assets'
p6
aS'Retail Leader of the Year | CSPnet'
p7
aS'Porter Stansberry: Bumpy Road Ahead; Go for Blue Chips ...'
p8
aS'Abigail Rodgers | Sustainable Brands'
p9
aS'BPT - BP Prudhoe Bay Royalty Trust Stock quote ...'
p10
a.