(lp0
S'Global Partners Completes Purchase from ExxonMobil of 148'
p1
aS'Exxon Mobil Corporation Port Arthur TX, 77642  Manta.com'
p2
aS'News | GP Industrial'
p3
aS'Braemar Energy Ventures News: ITo Wash Hands of Palm ...'
p4
aS'Tips & Tricks for CV & Interviews - ExxonMobil Benelux'
p5
aS'Deals that made Bill White wealthy reflect a demanding ...'
p6
aS'Michaels ordered to pay $8 million to manager fired after ...'
p7
aS'$6 Million Donated to Study Abroad'
p8
aS'Unilever Invests in Algae - WSJ'
p9
aS'Ascom Takes Government of Kazakhstan to Stockholm ...'
p10
a.