(lp0
S'Exxon Mobil Share News - ADVFN.com'
p1
aS'Big Oil Goes to College: BP, ExxonMobil, Chevron, Shell ...'
p2
aS'Hoaxers target new Chevron advertising campaign | Reuters'
p3
aS'Oil & Gas Data News and Analysis from Evaluate Energy'
p4
aS'[PDF]\n2009-C -2368 C/W 2009-C - The Louisiana Supreme Court'
p5
aS'Study Finds Big Oil Money Controls Federal Research ...'
p6
aS'Marketing: Pranksters Hijack Chevron Corporate-PR Efforts ...'
p7
aS'Homeowners Exposed to Chemicals in Floors, Group Says ...'
p8
aS'World Fuel Services and ExxonMobil Aviation Announce the ...'
p9
aS'LNG WATCH: LNG in the News: Somare hails progress of ...'
p10
a.