(lp0
S'Exxon Mobil Share News - ADVFN.com'
p1
aS'Oil Firms Plan Rapid-Response Force - Wall Street Journal'
p2
aS'Operations in New Zealand | ExxonMobil'
p3
aS"A conspiracy theory missing the facts | ExxonMobil's ..."
p4
aS'New Oil Spill Containment System to Protect Gulf of Mexico ...'
p5
aS'DownstreamToday.com - News and Information for the ...'
p6
aS'Energy Value Plays  VLO, XOM, CVX, XOM, BP ...'
p7
aS'Gasoline Refiner Profit Heads to 10-Month Low: Energy ...'
p8
aS'Exxon After Valdez: Lessons For BP? : NPR'
p9
aS'Newmont Mining Corp - Huffington Post'
p10
a.