(lp0
S'Co-op Takes Star Turn in Ads | Electric Co-op Today'
p1
aS'ExxonMobil Appoints National Development Manager'
p2
aS"Greenland Oil Rush Looms as Exxon Eyes Cairn's Bet ..."
p3
aS'Ethylene Profit May Fall as Exxon, Sabic Add Capacity ...'
p4
aS'Trader Take: Comparing BP Gulf Oil Spill to Exxon Valdez ...'
p5
aS'Alternative Forums | Texas Law Firm - Hicks Thomas LLP'
p6
aS'Fantastic Plastic - CovNews'
p7
aS"Oil-Spotted Dick: Cheney's Oily Fingerprints in the BP ..."
p8
aS'The Buzz: BP may keep falling due to bad PR ... - CNN Money'
p9
aS'TXU parent Energy Future Holdings reports $355 million ...'
p10
a.