(lp0
S'News and updates - Investors - ExxonMobil'
p1
aS'Boeing, Exxon Say New Iran Sanctions Would Hurt Global ...'
p2
aS'Boeing, Exxon Say New Iran Sanctions Would Hurt Global ...'
p3
aS'Premier Energy Corp: OTCMKTS:PNRC quotes & news ...'
p4
aS'NEWS Hungary pushes energy program in upstream ...'
p5
aS'Chevron Laying Off 1,500 As Part Of Downstream ...'
p6
aS'WATER POLLUTION: Less toxic dispersants lose out in BP ...'
p7
aS'Six Flags rides away from bankruptcy, into a key summer ...'
p8
aS'Gold ATM debuts in Abu Dhabi - Video - Business News'
p9
aS'Step2 recalls 2.5 million push buggy toys - May. 12, 2010'
p10
a.