(lp0
S'Commission agrees to dissolution of BP/Mobil Joint Venture ...'
p1
aS"ExxonMobil's Q3: Business as Usual - Exxon Mobil ..."
p2
aS'Mobil new gas discovery to boost power generation ...'
p3
aS'Prop. 23: Why did Valero launch a campaign against ...'
p4
aS'Nigeria: ExxonMobil makes gas condensate find offshore ...'
p5
aS'Deepwater gas, depletion driving US Gulf pipeline expansion'
p6
aS'US producers show steady gain in revenues, net income for ...'
p7
aS'OGJ Newsletter - Oil & Gas Journal'
p8
aS'Berkowitz Benson 2010 News:Gov. Parnell squandered'
p9
aS'Exxon Mobil Head Office'
p10
a.