(lp0
S'On The Run | About Us'
p1
aS'Peak Oil News and Message Boards | Archive | February'
p2
aS'ExxonMobil Oil Corporation v. Iraj V. Kashani :: Justia ...'
p3
aS'HDPE resins - ExxonMobil Chemical'
p4
aS"Rap Moguls Go From Lil' Wayne to Oil, Keep It Real With ..."
p5
aS'Big Risk, Bigger Rewards: The non-legal risks at Point ...'
p6
aS'Big Risk, Bigger Rewards: Advice on coming to Alaska from ...'
p7
aS'Big Risk, Bigger Rewards: Life expectancy climbs as ...'
p8
aS'See News Release 012 for any Concurrences and/or ...'
p9
aS"Michels' Crews Tackle Construction On Three Major North ..."
p10
a.