(lp0
S'Maturity Wall Shrinks $196 Billion in 15 Months: Credit ...'
p1
aS'Sinopec Group Pays $4.65 Billion for Syncrude Stake ...'
p2
aS'Phil Mickelson promotes Exxon Mobil - YouTube'
p3
aS'Is Masters champion Phil Mickelson unwittingly helping ...'
p4
aS"Pilgrim's Pride to shutter East Texas headquarters, cut 160 ..."
p5
aS'Oil sands deal gives China crucial veto on exports - The ...'
p6
aS'WEBER v. MOBIL OIL CORPORATION :: 2010 :: Oklahoma ...'
p7
aS'Did Big Oil Win The War In Iraq? | Iraq Business News'
p8
aS'DOE partnerships testing CO<sub>2</sub> EOR ...'
p9
aS'Skeletons In The Corporate Closet: Coke | Business News ...'
p10
a.