(lp0
S'Invensys and ExxonMobil Research and Engineering ...'
p1
aS'[PDF]\nSignum Oil Analysis - ExxonMobil'
p2
aS'SUBSEA TECHNOLOGY Unmanned control buoy in charge ...'
p3
aS'ExxonMobil REACH Use communications - bitumen'
p4
aS'A Closer Look at Vehicle Software Suppliers - Bloomberg'
p5
aS'applications - ExxonMobil Chemical'
p6
aS'Nexxstar - ExxonMobil Chemical'
p7
aS'Shell, PetroChina to Buy Some Arrow Energy Assets - WSJ'
p8
aS'Worldwide ethylene capacity grows in spite of warnings - Oil ...'
p9
aS'100 Best Corporate Citizens? What a CROck! - Marc Gunther'
p10
a.