(lp0
S'Exxon Mobil Corporation Pittsburgh PA, 15225  Manta.com'
p1
aS'Asia Oil & Gas Conference | Getty Images'
p2
aS'Press  DC Bureau'
p3
aS'How big is Texas to Wal-Mart? Big enough for its own exec ...'
p4
aS'BP Rolling Out New Ads Aimed at Repairing Image - WSJ'
p5
aS'BP buys Google, Yahoo oil spill search terms - Jun. 7, 2010'
p6
aS'U.S. Companies Pursue New Investments in Saudi Arabia ...'
p7
aS'Activist nuns bringing fracking to a vote - philly-archives'
p8
aS'Gulf oil spill drives up price of crude for 2018 | AL.com'
p9
aS'Why BP will be the next bailout | New York Post'
p10
a.