(lp0
S'Global Partners Completes Acquisition of Retail Gasoline ...'
p1
aS'Change the Equation | ExxonMobil'
p2
aS'Indonesia advertisement - ExxonMobil Indonesia'
p3
aS'Dream Walker: A Journey of Achievement and Inspiration ...'
p4
aS'Business & economy news - KOAM TV 7'
p5
aS'Plano investment adviser gets 15 years for fraud | Dallas ...'
p6
aS"Nabucco Sees Iraq as 'Most Real' Supplier for Pipeline ..."
p7
aS'Dave Dickson | LinkedIn'
p8
aS'Energia.gr - News  International  Exxon, Gazprom ...'
p9
aS'CSIMarket - Company, Sector, Industry, Market Analysis ...'
p10
a.