(lp0
S'Environmental Groups Sue ExxonMobil Over Air Emissions ...'
p1
aS'Environment Texas vs. ExxonMobil | Environment Texas'
p2
aS'Cold War Patriot Defense Helps Giffen Beat Bribe Case ...'
p3
aS'ExxonMobil | Koniag Education Foundation'
p4
aS'Sierra Club Sues Exxon Over Baytown Plant Pollution'
p5
aS"Obama: Get corporate cash 'off the sidelines' - CNN Money"
p6
aS'Ghana Is Set to Produce Oil as Jubilee Field Starts Pumping ...'
p7
aS'Exxon Sued for Illegally Emitting 8 Million Pounds of Pollution'
p8
aS'Brazil: ExxonMobil reports oil find in Santos Basin BM-S-22 ...'
p9
aS'New Oil--and a Huge Challenge--for Ghana'
p10
a.