(lp0
S'Exxon Mobil Share News - ADVFN.com'
p1
aS'Victory Petroleum Grows | CSPnet'
p2
aS'Victory Petroleum Expands in ExxonMobil Deal ...'
p3
aS'7-Eleven to Buy 183 Exxon Mobil Properties to Expand in ...'
p4
aS'7-Eleven Signs Agreement with ExxonMobil to Acquire 183 ...'
p5
aS'Latest News'
p6
aS'7-Eleven to buy 183 ExxonMobil properties in Florida ...'
p7
aS'MasterCard, Visa targeted in apparent cyberattack - Dec. 8 ...'
p8
aS'As jurors go online, U.S. trials go off track | Reuters'
p9
aS'FOIA.gov - Freedom of Information Act: News'
p10
a.