(lp0
S'Baytown area contact information | ExxonMobil'
p1
aS'NEWS | ExxonMobil Cases First Point Thomson Well in ...'
p2
aS'Exxon Mobil Corporation Baltimore MD, 21226  Manta.com'
p3
aS'Praxair Awarded ExxonMobil Contract for Enhanced Oil ...'
p4
aS'EXXON INSTALLING RECORD TEMPLATE IN GULF OF ...'
p5
aS'Articles about Torrance Refinery - latimes'
p6
aS"Ghana blocks Exxon's $4 billion deal for Kosmos Energy's ..."
p7
aS'Asian E & P, leasing on track despite troubled economies ...'
p8
aS'[PDF]\nHuman Rights Due Diligence: Is It Too Risky? - Harvard ...'
p9
aS'Big Piney CO2 Storage Pilot Nears OK | WyoFile'
p10
a.