(lp0
S'Can Exxon Evolve From Oil Giant to Green Company? | US ...'
p1
aS'Colin Powell and Bill Gates join malaria campaign | Reuters'
p2
aS'20 biggest money losers - 16. State Street Corp. (16 ...'
p3
aS'20 biggest money losers - 13. MetLife (13) - FORTUNE'
p4
aS'20 biggest money losers - 4. GMAC (4) - FORTUNE'
p5
aS'20 biggest money losers - 1. Fannie Mae (1) - FORTUNE'
p6
aS'8 infamous business disasters - NBC News'
p7
aS"Scientists Try Algae 'Alchemy' to Grow Oil in Paddies ..."
p8
aS'[PDF]\nGelman Gelman Wiskow & McCarthy, LLC One Broadway'
p9
aS'Environmental Litigation - Kanner & Whiteley, L.L.C.'
p10
a.