(lp0
S'Mobil 1 to Sponsor Tony Stewart and Stewart-Haas Racing ...'
p1
aS'Tony Stewart Signs Multi-Year Deal with ExxonMobil'
p2
aS'Apple Shares Top $300 for First Time - CBS News'
p3
aS'News | Awarded contract extension in Nigeria'
p4
aS"WorleyParsons wins ExxonMobil's Satellites Phase 2 ..."
p5
aS'Deal Ends Challenge Of $41B Exxon-XTO Merger - Law360'
p6
aS"Don't use the PBS model to save journalism. | News Mockers"
p7
aS'ExxonMobil extends Nigeria Satellites contract - Offshore'
p8
aS'JPMorgan Tops Institutional Investor Analyst Rankings ...'
p9
aS'10/10/10 global warming rally at the White House | Climate ...'
p10
a.