(lp0
S'Exxon Mobil paid no federal income tax in 2009 ...'
p1
aS'Chevron-BP Pipeline leaks Oil into Louisiana Wildlife ...'
p2
aS'Exxon Mobil Corporation (XOM) - Earnings & Price History'
p3
aS'World Fuel Services Corporation to Acquire Assets of ...'
p4
aS'Corvette Racing Extends Partnership with Mobil 1 - Corvette ...'
p5
aS'Blavatnik Creation LyondellBasell May Face U.S. Probe ...'
p6
aS'Pipeline leaks oil into wildlife refuge-Qilee Sludge ...'
p7
aS"Shell's Bonga, EA development, deepwater renew interest ..."
p8
aS'Consumer indicators show recession over, recovery ...'
p9
aS'Jayflex plasticizers REACH registration - ExxonMobil ...'
p10
a.