(lp0
S'FTC Investigates Oil Firms Over Hiring, Wages - WSJ'
p1
aS'Oil Exploration Expands in Greenland - WSJ'
p2
aS"Exxon's oozing oil pits haunt residents as XTO deal nears ..."
p3
aS'Conoco Targets Rockies, Texas, Western Canada In Asset ...'
p4
aS'GAGEX Holdings | Guinness Atkinson GlobaL Energy Stock ...'
p5
aS'FSDIX Holdings | Fidelity Strategic Dividend & I Stock ...'
p6
aS'JPMorgan Hires Oliver Who Helped Run CME Credit Swaps ...'
p7
aS"El Bulli Toppled as World's Best Restaurant by Noma ..."
p8
aS'Biodiesel Magazine - The Latest News and Data About ...'
p9
aS'China Petroleum & Chemical Corp (ADR): NYSE:SNP ...'
p10
a.