(lp0
S'ExxonMobil Corporation to Pay $2.9 Million... - Mass.Gov'
p1
aS'Exxon-XTO Energy Merger Completed - June 28, 2010 ...'
p2
aS'Mass. reaches $2.9M settlement with ExxonMobil over ...'
p3
aS'Ekofisk - crude oil | ExxonMobil'
p4
aS'3, Exxon | Most Hated Companies | XFINITY News - Comcast'
p5
aS'Corporate Social Irresponsibility | Common Dreams ...'
p6
aS'Highest-paid local exec gets $84M for 2009 - Dallas ...'
p7
aS'Things are looking up for Dallas area, local business ...'
p8
aS"Moody's upgrades long-term debt of XTO Energy to Aaa"
p9
aS"Princeton as 'Hedge Fund' Foiling Residents Seeking Tax ..."
p10
a.