(lp0
S'Exxon Drills Longest Ever Extended-Reach Well From ...'
p1
aS'ExxonMobil Chemical Supplies Exxtral Performance ...'
p2
aS'20 biggest money losers - 16. State Street Corp. (16 ...'
p3
aS'20 biggest money losers - 4. GMAC (4) - FORTUNE'
p4
aS'Saudis Tighten China Energy Ties to Reduce US Dependence'
p5
aS"Scientists Try Algae 'Alchemy' to Grow Oil in Paddies ..."
p6
aS'UK: Shell and ExxonMobil selling Anasuria production ...'
p7
aS'Enable mPE 35-05HH resin - ExxonMobil Chemical'
p8
aS'Environmental Litigation - Kanner & Whiteley, L.L.C.'
p9
aS"Shell taking closer look at Indonesia's prospects - Oil & Gas ..."
p10
a.