(lp0
S'Dow Jones Today | Stock Market Watch'
p1
aS'Husky Energy - News Releases - Husky Energy Announces ...'
p2
aS'Obama calls for federal wage freeze - CNN Money'
p3
aS'Hunt starts 2 REITs for energy assets | Dallas Morning News'
p4
aS"BP sells Argentina's Bridas to Bulgheroni family and ..."
p5
aS"Neighbor's luck may spread across border - News - Citizens ..."
p6
aS'Husky makes bet on natural gas - The Globe and Mail'
p7
aS"Iraq: ExxonMobil raises production target for Iraq's West ..."
p8
aS'ExxonMobil Research Qatar Hires Top Qatari Researcher to ...'
p9
aS'Southern North Sea gas developers inspired by deregulation'
p10
a.