(lp0
S'Compact biphase separation process can go downhole ...'
p1
aS'2010 Settlement Agreements'
p2
aS'Port Directory - Private Dock Facilities  The Port of Greater ...'
p3
aS'January 2011 ~ Oil & Energy News'
p4
aS'Texas | Mesothelioma Cancer and Asbestos Exposure in TX'
p5
aS'study notes separability of oil company profitability, efficiency'
p6
aS"OPEC'S EVOLVING ROLE: D'Arcy concession centennial ..."
p7
aS'NEW AMERICA FOUNDATION (NAF) - Discover the Networks'
p8
aS'Family businesses must think ahead for when the leader is ...'
p9
aS'Steven Rattner fined $10M by Cuomo for pension fund ...'
p10
a.