(lp0
S'Exxon Cancels Plans to Buy Oil Assets Controlled by Kosmos'
p1
aS'ExxonMobil pulls out of $4.5 billion Ghana deal ...'
p2
aS'Kosmos Ends $4 Billion Sale of Ghana Fields to Exxon ...'
p3
aS'Contact - ExxonMobil'
p4
aS'Adriatic LNG - DownstreamToday.com - News and ...'
p5
aS'Exxon reports Beaumont refinery unit leak -filing | Reuters'
p6
aS'Exxon abandons bid for Ghana stake - FT.com'
p7
aS'The relevance of seismic amplitudes in exploring the Niger ...'
p8
aS'How to Find the Best High-Dividend Stocks - US News'
p9
aS"Frito-Lay plays tough cookie in court over Grandma's brand ..."
p10
a.