(lp0
S'Exxon-Mobil 12 Years Later: Archetype of a Successful Deal ...'
p1
aS'Development | ExxonMobil'
p2
aS'PNG LNG Project Opens Major Training Facility - ExxonMobil'
p3
aS'Merck Board Elects Kenneth C. Frazier as Next CEO ...'
p4
aS'Zafiro example of use of hinge-over template - Offshore'
p5
aS'Chevron buys Atlas Energy in $4.3B deal, enters shale ...'
p6
aS'4 Uranium Penny Stocks to Buy - TheStreet'
p7
aS'Floor Speech on the Economy - Senator Bernie Sanders of ...'
p8
aS"Gazprom, CNPC Circle Kazakh Fields 'Like Vultures,' Leak ..."
p9
aS"BMW's Quandt Family Renews Pledge as Audi Advances ..."
p10
a.