(lp0
S'ExxonMobil plans management changes - Oil & Gas ...'
p1
aS'ProxyDemocracy | News'
p2
aS'Exxon Mobil Leads the Way With High Oil Here to Stay ...'
p3
aS'ExxonMobil is a recognized gas station brand - U.S. Oil'
p4
aS'NATURAL GAS: Fears of pervasive air pollution stir up ...'
p5
aS"Brazil's other offshore hydrocarbon basins relatively untested"
p6
aS"Philippines: ExxonMobil's third Sulu Sea well shows signs of ..."
p7
aS'NEWS Brent spar experience haunts N. Sea platform ...'
p8
aS'Shell to acquire Tejas Gas Corp. - Oil & Gas Journal'
p9
aS'Sports consultant is dominant force for corporate clients ...'
p10
a.