(lp0
S'Invensys and ExxonMobil Research and Engineering ...'
p1
aS'SUBSEA TECHNOLOGY Unmanned control buoy in charge ...'
p2
aS'Natural Gas Is Now Blowing Up In Australia - Business Insider'
p3
aS'UIHC - United Insurance Holdings Corp Stock quote ...'
p4
aS'Shell, PetroChina to Buy Some Arrow Energy Assets - WSJ'
p5
aS'ROI: Business Schools with Bang for the Buck - Bloomberg'
p6
aS'CPD Energy - CPD Energy'
p7
aS'Shoppers feel price aftershock in produce | Dallas Morning ...'
p8
aS'Use Santoprene TPVs to manufacture soft toys that meet ...'
p9
aS'Nine Women to Run the World - Huffington Post'
p10
a.