(lp0
S'ExxonMobil celebrates 90 years of chemicals, community ...'
p1
aS'Exxon Mobil Corporation Houston TX, 77079  Manta.com'
p2
aS'34th Annual IPA Convention & Exhibition | Getty Images'
p3
aS"Morgan Stanley Hires Nomura's Bareggi for Italy - Bloomberg"
p4
aS'First synthetic cell created by scientists ...'
p5
aS'Olgone (aromatics treatment) advantages - ExxonMobil ...'
p6
aS'Xerox settles suit over payout to ACS founder Darwin Deason'
p7
aS"The Right Place: Connie Ritter, MBA'80 | Vanderbilt Business"
p8
aS'Deep Green: Cars, Corporations and Society | Greenpeace ...'
p9
aS'[PDF]\nExxonMobil Safety Award 43-10 - MISTRAS Group'
p10
a.