(lp0
S'Exxon Mobil Articles - Oil & Gas Financial Journal'
p1
aS'XOM: 88,43 0,80 (0,91%) : Exxon Mobil Corporation ...'
p2
aS'Exxon to Pay $25 Million to Settle Brooklyn Spill Suit ...'
p3
aS'ExxonMobil Venture Executive Gives Presentation at Law ...'
p4
aS'ExxonMobil rig attacked in Nigeria; production shut in - Oil ...'
p5
aS'Cuomo Announces Settlement With Exxonmobil To Provide ...'
p6
aS'Senator Dilan Praises ExxonMobil Settlement to Continue ...'
p7
aS'Exxon Mobil Agrees to Newtown Creek Cleanup Pact - The ...'
p8
aS'7 oil workers kidnapped, Nigerian rebels say - World - CBC ...'
p9
aS'College Honors Engineering Couple | Chemical ...'
p10
a.