(lp0
S'ExxonMobil Farms-in to Petrobras  TPAO Agreement ...'
p1
aS'Exxon Mobil to spend $340 million on new technology for 70 ...'
p2
aS'Exxon Mobil (XOM) Stock Price - ADVFN.com'
p3
aS'Exxon Mobil signs farm-in agreement with Petrobras and ...'
p4
aS'Beryl Field - Offshore Technology'
p5
aS'The Culture of Finance--Why Financial Innovation Failed ...'
p6
aS'Turkey: ExxonMobil farms-in to Petrobras - TPAO agreement ...'
p7
aS'A&D Activity in Energy Sector Set to Increase in 2010 | Oil ...'
p8
aS'Oil and Gas Accounting: Upstream Operations (Portfolio 5206)'
p9
aS'Where bankers spend their bonuses - CNN Money'
p10
a.