(lp0
S'Exxon Mobil Share News - ADVFN.com'
p1
aS'Why ExxonMobil Left Ghana | General News 2010-08-31'
p2
aS'Imperial Oil Mining News and Commentary | MINING.com'
p3
aS'CNNMoney.com Market Report - Sep. 1, 2010'
p4
aS'Notable energy industry figure Matt Simmons dead at 67 ...'
p5
aS'Re-examining corporate governance - Oil & Gas Financial ...'
p6
aS'Indicated Dividend Yield Ranking for the S&P 500 by Industry'
p7
aS"Chevron finishes Canada's deepest offshore well | Reuters"
p8
aS'News | Hebron Offshore Platform Contract'
p9
aS'Sumitomo Corp. acquires more US shale gas acreage - Oil ...'
p10
a.