(lp0
S'Exxon pays $695 million cash for Ellora Energy - BizWest'
p1
aS'Shell, Qatar Sign $6 Billion Petrochemical Project - Bloomberg'
p2
aS"GRB's science program beneficiary of ExxonMobil grant ..."
p3
aS'EP Strategic US Equity Fund Class A: MUTF:EPUSX quotes ...'
p4
aS'Vanguard Total Stock Market Index Fund Investor Shares'
p5
aS'FRANCE GEP promoting French oil & gas expertise across ...'
p6
aS'PanCanadian seeking production hike from mature ...'
p7
aS'Toyota, Massey, BP, Goldman, J&J on naughty list - The ...'
p8
aS'Copper soars despite China stock market pullback - The ...'
p9
aS'enhanced sealing performance in BOPP films - ExxonMobil ...'
p10
a.