(lp0
S'EXXON PUTS LONG EMBATTLED SANTA YNEZ UNIT ...'
p1
aS'Exxon Mobil Refinery Baton Rouge LA, 70805  Manta.com'
p2
aS'Chevron seeks UK refinery sale, to cut 2,000 jobs | Reuters'
p3
aS'BP Set to Buy Devon Oil Assets - WSJ'
p4
aS'BUSINESS BRIEFS - Offshore'
p5
aS'Are you ready for prices (of everything) to rise? : Dangerous ...'
p6
aS'Haynesville  Official Site of the Haynesville Shale ...'
p7
aS"The most troubled automaker isn't Toyota. It's Chrysler. - Mar ..."
p8
aS"BP expands Houston's role, centralizes operations ..."
p9
aS'Lauri Goodman Lampson - PDR'
p10
a.