(lp0
S'XOM: Investors: news release - ExxonMobil'
p1
aS'ExxonMobil Fourth Quarter 2009 Earnings Conference Call ...'
p2
aS'ExxonMobil methyl ethyl ketone - ExxonMobil Chemical'
p3
aS'Personal care and hygiene - ExxonMobil Chemical'
p4
aS'Petroper, ExxonMobil ink Talara technology deal ...'
p5
aS'NBAA Recognizes 52 Individuals for Achievement in ...'
p6
aS'Jobs | Project Management Jobs in North America | Rigzone'
p7
aS'Jobs | Paramedic / Nurse Jobs in North America | Rigzone'
p8
aS'POLLARD III v. ALPHA TECHNICAL CHEVRON INC ...'
p9
aS'Commercial - TKW Realty Inc.'
p10
a.