(lp0
S"Exxon Buys Petrohawk's Arkansas Shale for $650 Million ..."
p1
aS'Exxon pays $695 million cash for Ellora Energy - BizWest'
p2
aS'Prepping foreclosed homes for resale can be hazardous ...'
p3
aS'Toyota, Massey, BP, Goldman, J&J on naughty list - The ...'
p4
aS'enhanced sealing performance in BOPP films - ExxonMobil ...'
p5
aS'NEWS | Petrohawk Secures $650MM in Fayetteville Shale ...'
p6
aS'Offshore seismology today: more, better, faster, cheaper ...'
p7
aS'PanCanadian seeking production hike from mature ...'
p8
aS'Exploration at all-time high off Western Australia - Offshore'
p9
aS'SPYV - NASDAQ.com'
p10
a.