(lp0
S'Can Exxon Evolve From Oil Giant to Green Company? | US ...'
p1
aS'Colin Powell and Bill Gates join malaria campaign | Reuters'
p2
aS'Goldman, UBS, SocGen, Madoff, Siemens in Court News ...'
p3
aS'8 infamous business disasters - NBC News'
p4
aS'Parent of Fuddruckers chain files for Chapter 11 | Dallas ...'
p5
aS'[PDF]\nGelman Gelman Wiskow & McCarthy, LLC One Broadway'
p6
aS'As rig sinks and search for workers continues, major spill ...'
p7
aS'Natural gas in Bolivia - Wikipedia, the free encyclopedia'
p8
aS'2010 April | Live Business News'
p9
aS'Chevron Share News - ADVFN.com'
p10
a.