(lp0
S'WPI receives grant from Exxon Mobil - WPI'
p1
aS'Speeches - ExxonMobil'
p2
aS'ExxonMobil Expands Support for Technologies that ... - ICRW'
p3
aS'ExxonMobil Expands Support For Technologies ... - Ashoka'
p4
aS'Mayor Bloomberg Endorses Cuomo for New York Governor ...'
p5
aS'Texas Highways Set to Cut Borrowing Cost on $1 Billion Issue'
p6
aS'Microsoft Raises $4.75 Billion at Record Low Coupons ...'
p7
aS'Investment Banker John Veatch Joins Southwest Securities ...'
p8
aS'Deloitte, General Electric, and ExxonMobil- Key Internships ...'
p9
aS'Stephen D. Pryor, President, ExxonMobil Chemical Company'
p10
a.