(lp0
S'Compensation & Benefits - ExxonMobil'
p1
aS'FAQ - ExxonMobil'
p2
aS'Application procedure - ExxonMobil'
p3
aS'Asia-Pacific to Pass North America in Ad Market Size ...'
p4
aS'Enbridge Drains Damaged Pipeline as Oil Prices Rise ...'
p5
aS'David Porter says Democrat Jeff Weems has record of ...'
p6
aS'Investing in Energy: Advice From The Wall Street Journal ...'
p7
aS'Sinopec starts building 1st LNG receiving terminal | Reuters'
p8
aS'A three-way battle for the Anchorage Hillside | Alaska ...'
p9
aS'CEO Watch List  Nokia CEO Olli-Pekka Kallasvuo Update #1'
p10
a.