(lp0
S'CORRECT: WorleyParsons: Sakhneftegaz Wins US$400 ...'
p1
aS'CSR: Exxonmobil invests $280 M on community ... - Vanguard'
p2
aS'EXXON PUTS LONG EMBATTLED SANTA YNEZ UNIT ...'
p3
aS'News | Sakhalin-1 Arkutun-Dagi Offshore Platform Contract'
p4
aS'Exxon Mobil Refinery Baton Rouge LA, 70805  Manta.com'
p5
aS'Exxon says Texas gofiner unit operational | Reuters'
p6
aS'Chevron seeks UK refinery sale, to cut 2,000 jobs | Reuters'
p7
aS'Are you ready for prices (of everything) to rise? : Dangerous ...'
p8
aS"Worries Rebound on Bull's Birthday - Wall Street Journal"
p9
aS'Haynesville  Official Site of the Haynesville Shale ...'
p10
a.