(lp0
S'Exxon Mobil to pay $32.2 mln in whistleblower case | Reuters'
p1
aS"Exxon's Income Tax: $0 [UPDATED] | Mother Jones"
p2
aS'Mobil Oil Companies to Pay U.S. $32.2 Million to Resolve ...'
p3
aS'Bayer Beats Out ExxonMobil for Most Toxic Corporate Air ...'
p4
aS'Mobilgear SHC MT 68- ExxonMobil Marine Fuels ...'
p5
aS"Tesoro's New Chief to Face Probes of Refinery Blast ..."
p6
aS'Ron Sturgeon - The Dallas Morning News'
p7
aS'Exxon Mobil Chemical CO Lagrange GA, 30240  Manta.com'
p8
aS'The Future of Oil Shale - TechCorr'
p9
aS'Effects Of Viscosity, Speed & Load On Bearing Friction ...'
p10
a.