(lp0
S"ExxonMobil Expands World's Largest Carbon Capture Plant ..."
p1
aS'Exxon Mobil Share News - ADVFN.com'
p2
aS'Victory Petroleum Grows | CSPnet'
p3
aS'Bernie Sanders says ExxonMobil paid no taxes in 2009, but ...'
p4
aS'Chevron hikes spending 20 percent in search of growth ...'
p5
aS'7-Eleven to buy 183 ExxonMobil properties in Florida ...'
p6
aS'Occidental to Buy Texas, Dakota Fields, Exit Argentina ...'
p7
aS'Enforcement Results 2010 | Region 9: Enforcement | US EPA'
p8
aS'EPA: 2 Parker County homes at risk of explosion after gas from'
p9
aS"Angola: ONGC unit bids for ExxonMobil's stake in Block 31 ..."
p10
a.