(lp0
S'Human health and environment - ExxonMobil Chemical'
p1
aS'Polymers: licensing process - ExxonMobil Chemical'
p2
aS'Oil bubbles up from ground in Sag Harbor near former spill ...'
p3
aS'MRO - Business and Financial News - CNN Money'
p4
aS'Two-phase separation/pumping to make subsea debut on ...'
p5
aS'MOPUs evolving to meet greater depth, flexibility challenges ...'
p6
aS"WWE spent $1M on 'educating' politicians in past decade ..."
p7
aS"Casey's General Rejects Couche-Tard's Hostile Bid - WSJ"
p8
aS'Reliance to Buy Atlas Shale Stake for $1.7 Billion - Bloomberg'
p9
aS"Apollo's Metals USA Slumps After Increasing IPO Size ..."
p10
a.