(lp0
S'Iraq, Syria Agree to Build Pipelines, Official Says - Bloomberg'
p1
aS'Mobil Oil Illinois | Mesothelioma and Asbestos Jobsites'
p2
aS'Exxon-Mobil merger wins approval in EU, awaits US decision'
p3
aS'FedEx expects continued growth but cuts 1,700 jobs - Sep ...'
p4
aS'Refiners Campaign Against Greenhouse-Gas Law - WSJ'
p5
aS'"Corporate Social Responsibility of Multinational Oil ...'
p6
aS'NRG buying Green Mountain for $350 million | Dallas ...'
p7
aS'Mobil 1 Synthetic ATF - Singapore | Mobil Asia Pacific'
p8
aS'Liberia | Business & Economic News - SkyscraperCity'
p9
aS'Advanced Placement Training and Incentive Program (APTIP)'
p10
a.