(lp0
S'Exxon-Mobil 12 Years Later: Archetype of a Successful Deal ...'
p1
aS'Development | ExxonMobil'
p2
aS'PNG LNG Project Opens Major Training Facility - ExxonMobil'
p3
aS'Merck Board Elects Kenneth C. Frazier as Next CEO ...'
p4
aS'Obama calls for federal wage freeze - CNN Money'
p5
aS'Husky Energy - News Releases - Husky Energy Announces ...'
p6
aS'Hunt starts 2 REITs for energy assets | Dallas Morning News'
p7
aS'Floor Speech on the Economy - Senator Bernie Sanders of ...'
p8
aS'Zafiro example of use of hinge-over template - Offshore'
p9
aS"BMW's Quandt Family Renews Pledge as Audi Advances ..."
p10
a.