(lp0
S'ExxonMobil to Explore Black Sea with Specially Designed ...'
p1
aS'Baytown area history | ExxonMobil'
p2
aS'[PDF]\n1629 EXXONMOBIL PIPELINE COMPANY v. UNION ...'
p3
aS'White House Security Expert Speaks About Risk'
p4
aS'Mobil 1 Motorcycle Built by Orange County Choppers ...'
p5
aS'Pioneering Fund Stages Second Act - WSJ'
p6
aS'OELs - ExxonMobil Chemical'
p7
aS'Santoprene TPV processing - ExxonMobil Chemical'
p8
aS'Marpol & Solas - Maritime News - Latest amendments to ...'
p9
aS'Florida man indicted in Texas mortgage fraud scheme ...'
p10
a.