(lp0
S"BP's PR Blunders Mirror Exxon's, Appear Destined for ..."
p1
aS'ExxonMobil to boost Tapis field production in Malaysia - Oil ...'
p2
aS"BP oil spill: shares plummet as US warns it will 'take action ..."
p3
aS'[PDF]\nMost Environmentally and Socially Controversial ... - RepRisk'
p4
aS'YMCA Plans a Building Surge - WSJ'
p5
aS'BP Shares Sink on Oil Spill Bankruptcy Worries - ABC News'
p6
aS'It Pays to Help Workers Buy a Home - Bloomberg'
p7
aS'Bikinis Meet Hazmat Suits as Florida Weighs Closings ...'
p8
aS"BP stock: Company 'not aware' of reason for stock loss - Jun ..."
p9
aS'SpectraSyn Elite mPAO - ExxonMobil Chemical'
p10
a.