(lp0
S'Qatar Petroleum and ExxonMobil Announce Start of ...'
p1
aS'Exhibit 99.1 - News Release - SEC.gov'
p2
aS'Bundled oil services trend no guarantee of success | Reuters'
p3
aS'Dumb Company Names in an ADD World - CBS News'
p4
aS'Toyota recall: What took so long? - CNN Money'
p5
aS'Jayflex MB10 plasticizer - ExxonMobil Chemical'
p6
aS'RasGas 3 starts up LNG Train 7 - Oil & Gas Journal'
p7
aS'Al Khaleej Gas Project Ph 2 begins operations in Qatar ...'
p8
aS'Auto Recall: What Got Toyota Into This Mess? | Global News ...'
p9
aS'Chevron Corp. (Chevron) - BNamericas'
p10
a.