(lp0
S'Exxon Resumes Output at Nigeria Oso Field After Attack ...'
p1
aS'Shell, Qatar Sign $6 Billion Petrochemical Project - Bloomberg'
p2
aS"GRB's science program beneficiary of ExxonMobil grant ..."
p3
aS'FRANCE GEP promoting French oil & gas expertise across ...'
p4
aS"SEC: Nuclear power doesn't come from press releases - OPB"
p5
aS'EP Strategic US Equity Fund Class A: MUTF:EPUSX quotes ...'
p6
aS'Vanguard Total Stock Market Index Fund Investor Shares'
p7
aS'[PDF]\nGEOLOGY & GEOPHYSICS NEWS'
p8
aS'Copper soars despite China stock market pullback - The ...'
p9
aS"December 13, 2010: Qatar - World's Largest LNG Producer"
p10
a.