(lp0
S'BP - Latest news, videos, and information- NBCNews.com'
p1
aS'Aug 17, 2010 - Gates Foundation Buys Ecolab Inc ...'
p2
aS'Collapsing Marsh Dwarfs BP Oil Blowout as Ecological ...'
p3
aS'DownstreamToday.com - News and Information for the ...'
p4
aS'Our Partners - Detail Page'
p5
aS'What Buffett, Icahn and Paulson have been buying and ...'
p6
aS'8 years after partnership, promise of destination oases ...'
p7
aS'HHR - Advisory - Secretary of Health and Human Resources'
p8
aS'EPA and State Department Square Off On Tar Sands Pipeline'
p9
aS'Big oil money at the state level mostly goes to influence the ...'
p10
a.