(lp0
S'ExxonMobil Announces Odoptu Production Startup at ...'
p1
aS'ExxonMobil starts up Sakhalin-1 Odoptu field - Oil & Gas ...'
p2
aS'- ExxonMobil Announces Odoptu Production... - Europtrole'
p3
aS'Russia: ExxonMobil Announces Odoptu Production Startup ...'
p4
aS'Golden Pass LNG - DownstreamToday.com - News and ...'
p5
aS'Russia: ExxonMobil says Odoptu field to keep Sakhalin-1 ...'
p6
aS'Deep-Water Drill Ban Was Necessary Public Policy, US Says'
p7
aS'Medvedev Fires Moscow Mayor After 18 Years in Power ...'
p8
aS'News - Golden Pass LNG Terminal'
p9
aS"Canada's new energy play: The old oil fields - The Globe ..."
p10
a.