(lp0
S'ExxonMobil Announces Agreements with Thai Paraxylene ...'
p1
aS'Exxon, Shell Said to Consider Sale of German Gas-Storage ...'
p2
aS'News announcements  Cape plc'
p3
aS'Africa: The new crude frontier - The Globe and Mail'
p4
aS'Gulf Rig Owner Had Rising Tally of Accidents - WSJ'
p5
aS'Former NASA Astronaut Bernard Harris - WPI'
p6
aS"Monsanto's seeds of discord: Full version - Fortune"
p7
aS"Monsanto's seeds of discord - Fortune"
p8
aS'EXXONMOBIL CHEMICAL BRPO Baton Rouge LA, 70807 ...'
p9
aS'Nano-engineered steels for structural applications - Nanowerk'
p10
a.