(lp0
S'Exxon Mobil Enterprise Value (XOM) - YCharts'
p1
aS'Exxon Mobil Dividend Yield (TTM) (XOM) - YCharts'
p2
aS'Bernard Harris ExxonMobil Summer Science Camp returns ...'
p3
aS'GoG/GNPC Vrs Kosmos/ExxonMobil | General News 2010 ...'
p4
aS'Indian Oil to Invest in Africa in $1 Billion Push - Bloomberg'
p5
aS'US Oil Adviser Awaits Trial 7 Years After Kazakh Bribe Arrest'
p6
aS'Haynesville Shale News, Wells, Formation, Markets and ...'
p7
aS'ME NewsWire | Middle East News Wire - ExxonMobil and ...'
p8
aS'Asbestos News Roundup July 15 2010 ...'
p9
aS'UPDATE 1-BP pays $98 mln for Verenium biofuels activities ...'
p10
a.