(lp0
S'USPages - Oil Gas - Exxon Mobil Corporation'
p1
aS'Buy Exxon stock Gift in 2 Minutes | #1 in Single Shares of ...'
p2
aS'Oil-Rig Inspectors Adrift in Safety Push - WSJ'
p3
aS'Year-End Muni Bond Flood Creates Buying Opportunity ...'
p4
aS'SL Green Buys Gramercy Investments for $390.8 Million ...'
p5
aS'AGL to Buy Nicor for $2.4 Billion, Doubling Its Size ...'
p6
aS"Briggs Freeman Real Estate Brokerage becomes Sotheby's ..."
p7
aS'Heelys CEO no stranger to the ad game | Dallas Morning ...'
p8
aS'Construction survey shows completion date delays; projects ...'
p9
aS'Board of Trustees - People for Channahon Parks Foundation'
p10
a.