(lp0
S'Pro-Environment Groups Outmatched, Outspent in Battle ...'
p1
aS'Pro-Environment Groups Outmatched, Outspent in Battle ...'
p2
aS"Litmus test still a handy tool to pick 'sane' stocks | NJ.com"
p3
aS'SpectraSyn enhances plastics flexibility - ExxonMobil ...'
p4
aS'OGJ Newsletter - Oil & Gas Journal'
p5
aS"Rig Survivor Blames BP's 'Screwed-Up Plan' for Gulf Oil ..."
p6
aS'Robert C. Balling - SourceWatch'
p7
aS'[PDF]\nPMSE Spring 2010 Newsletter - Polymeric Materials ...'
p8
aS'Energy Future Holdings hit hard by lower gas prices after ...'
p9
aS'Defect claims against big automakers have risen, but ...'
p10
a.