(lp0
S'Petrobras Profit Falls Short of Rivals on Price Caps ...'
p1
aS'J&J Sells $1.1 Billion of Debt at Record-Low Rates ...'
p2
aS'Mobil in Bangladesh - MJL Bangladesh Limited'
p3
aS'GM profit improves, setting stage for sale of shares - Aug. 12 ...'
p4
aS'FPIC proposes spur line for NAIA jet fuel supply | Business ...'
p5
aS'Material experience redirect - ExxonMobil Chemical'
p6
aS'Lubrication Technologies Acquires Egan Oil Corporation'
p7
aS'[PDF]\nDear Ms. Therkorn, Please see attached comments in ...'
p8
aS'University of Texas regents approve $800M UT ...'
p9
aS'Pete Guzi | LinkedIn'
p10
a.