(lp0
S'XOM: Dividend Date & History for Exxon Mobil - Dividend.com'
p1
aS'ExxonMobil Announces Successful Drilling of Point ...'
p2
aS'NEWS | ExxonMobil Successfully Drills Point Thomson ...'
p3
aS'PDR Consolidates ExxonMobil Data Centers, Establishes ...'
p4
aS'Prison Economics Help Drive Ariz. Immigration Law : NPR'
p5
aS"JPMorgan's Highbridge Buys Fraga's Gavea Investimentos ..."
p6
aS"majors' us retrenchment causes sale property glut - Oil ..."
p7
aS'german bank | Live Business News'
p8
aS'Deepwater discoveries keep West Africa at global forefront ...'
p9
aS'Petro America Corp. (PTRZ) Stock Message Board ...'
p10
a.