(lp0
S'Energy News: Kosmos Rejects Cnooc, Ghana Bid for Oil ...'
p1
aS"Bunkerworld News - 'Integrated solution' the way to go"
p2
aS'TA, Petro to Feature Mobil Delvac Coolant | CSPnet'
p3
aS'Indonesia: ExxonMobil farming out deepwater Surumana ...'
p4
aS'BP Profit Drops After Further Charge Taken on Spill ...'
p5
aS'Indian Software Companies Will Press Obama on Visa ...'
p6
aS'BP returns to profitability - Nov. 2, 2010 - CNN Money'
p7
aS'Money talks, but money minds disagree at Dallas symposium'
p8
aS"ONGC beats China's CNOOC to become Asia's No.1 E&P firm"
p9
aS'Texas Governor Perry rides anti-Obama wave to victory ...'
p10
a.