(lp0
S"ExxonMobil Chemical's Vistamaxx Propylene-Based ..."
p1
aS'Loudon oil field pumping strong since 1937 | Outlook - Work ...'
p2
aS'oil and gas news projects and contracts for contractors and ...'
p3
aS'Escorez resins for adhesive applications - ExxonMobil ...'
p4
aS'Escorez 5000 series - ExxonMobil Chemical'
p5
aS'Shorten electronic products development cycle with ...'
p6
aS'Wildcatter Moffett adds to legend with new discovery ...'
p7
aS'WE NEED STABLE POLICIES TO GROW OIL AND GAS ...'
p8
aS'Exposed: The Worldwide Efforts Of The Global Energy ...'
p9
aS'Denbury Resources reaches deal on new headquarters at ...'
p10
a.