(lp0
S'CORRECT: WorleyParsons: Sakhneftegaz Wins US$400 ...'
p1
aS'Exxonmobil Oil Corporation Fairfax VA, 22037  Manta.com'
p2
aS'CSR: Exxonmobil invests $280 M on community ... - Vanguard'
p3
aS'UPDATE 1-Exxon says Texas gofiner unit operational ...'
p4
aS'Joseph Carlon - Security Executive Council'
p5
aS'Flexible packaging - ExxonMobil Chemical'
p6
aS'EOR oil production up slightly - Oil & Gas Journal'
p7
aS'BP Amoco-ARCO merger promises to change the oil ...'
p8
aS'Hans Thomann | Exxon Mobil Corporation | ZoomInfo.com'
p9
aS'News Bulletins - NSTA Pressroom'
p10
a.