(lp0
S'Shout Outs to Angels - Angel Airlift Mid-Atlantic'
p1
aS'Exxon - Shute Creek Gas Plant - Google'
p2
aS'Putin Bans Vacations Over Power Outages, Travel Chaos ...'
p3
aS'Wyoming fracking rules point the way for public disclosure ...'
p4
aS'Stirling Properties - Randy Raudabaugh, MBA, CCIM, CPM'
p5
aS'Idaho advised to issue megaload permits to Emmert ...'
p6
aS"Snowstorms eat into cities' snow removal budgets - Dec. 29 ..."
p7
aS'Sharing ministries offer alternative to health insurance ...'
p8
aS'AUSTIN CHALK HORIZONTAL DRILLING PACE ...'
p9
aS'Technology, Money Unlocking Vast Orinoco Reserves - Oil ...'
p10
a.