(lp0
S'Exxon Mobil to pay $32.2 mln in whistleblower case | Reuters'
p1
aS"Exxon's Income Tax: $0 [UPDATED] | Mother Jones"
p2
aS'Mobil Oil Companies to Pay U.S. $32.2 Million to Resolve ...'
p3
aS'Exxon Mobil paid no federal income tax in 2009 ...'
p4
aS'Mobilgear SHC MT 68- ExxonMobil Marine Fuels ...'
p5
aS'Chevron-BP Pipeline leaks Oil into Louisiana Wildlife ...'
p6
aS'Corvette Racing Extends Partnership with Mobil 1 - Corvette ...'
p7
aS"Tesoro's New Chief to Face Probes of Refinery Blast ..."
p8
aS'Effects Of Viscosity, Speed & Load On Bearing Friction ...'
p9
aS'Ron Sturgeon - The Dallas Morning News'
p10
a.