(lp0
S'Exxon - Shute Creek Gas Plant - Google'
p1
aS'Wyoming fracking rules point the way for public disclosure ...'
p2
aS'XTO Buys Petrohawk Fayetteville Assets'
p3
aS'With years of Super Bowl experience, Genesco CEO says ...'
p4
aS'Newfound Strength in Big-Cap Energy | Seeking Alpha'
p5
aS'Retail Leader of the Year | CSPnet'
p6
aS'Porter Stansberry: Bumpy Road Ahead; Go for Blue Chips ...'
p7
aS'NEWS | Magnum Hunter to Acquire NGAS Resources ...'
p8
aS'T. Rowe Price New Era (PRNEX) Fund Research: Latest ...'
p9
aS"Mighty Post-Christmas Nor'easter wallops the Northeast US"
p10
a.