(lp0
S'Exxon Mobil touting its safety program after BP spill | Dallas ...'
p1
aS'BP, Big Oil: Meet Sarbanes-Oxley Section 302 - TheStreet'
p2
aS'Mapping US Gulf of Mexico salt with marine magnetotellurics'
p3
aS"ICP Once in AIG's 'Best' Is New Front in SEC Probe ..."
p4
aS"BP: We've spent $2 billion on clean-up - CNN Money"
p5
aS'CNN cuts ties with AP - Jun. 21, 2010 - CNN Money'
p6
aS'Corporate Con Game - In These Times'
p7
aS"Standard & Poor's Announces Changes to U.S. Indices ..."
p8
aS"In Fracking Debate,' Disclosure' Is in the Eye of the Beholder ..."
p9
aS'Inevitability and Oil, Pt. 1: the inherent risk for accidents in ...'
p10
a.