(lp0
S'Exxon Mobil Corp. (XOM) Earnings - StreetInsider.com'
p1
aS"Buck's Inc. Acquires 89 ExxonMobil Locations in Chicago ..."
p2
aS'ExxonMobil - | PolluterWatch'
p3
aS'ExxonMobil finishes Shute Creek carbon capture expansion ...'
p4
aS'ME NewsWire | Middle East News Wire - ExxonMobil ...'
p5
aS'[PDF]\nExxon Suit - Hilder & Associates, P.C.'
p6
aS'Exxon Mobil, ConocoPhillips seek investments in Qatar ...'
p7
aS"Wall Street Sees Record Revenue in '09-10 Recovery From ..."
p8
aS'Wellstream Brings GE Energy to $4.3 Billion in Deals ...'
p9
aS'Sanofi Extends Deadline for Genzyme Offer to Jan. 21 ...'
p10
a.