(lp0
S'Events, publications and press releases - ExxonMobil'
p1
aS'ExxonMobil Fourth Quarter 2009 Earnings Conference Call ...'
p2
aS'ExxonMobil to sell Cepu gas to Indonesia - Oil & Gas Journal'
p3
aS'The Alaska Pipeline Project Files Open Season Plan With ...'
p4
aS'NBAA Recognizes 52 Individuals for Achievement in ...'
p5
aS'Petroper, ExxonMobil ink Talara technology deal ...'
p6
aS'exxonmobil  Krebs on Security'
p7
aS'January | 2010 | | Dallas Morning News'
p8
aS'Jobs | Paramedic / Nurse Jobs in North America | Rigzone'
p9
aS'What Makes a Great Leader? - WSJ'
p10
a.