(lp0
S'Papua New Guinea LNG Project Clears Final Conditions to ...'
p1
aS'News Update: Exxon Mobil (NYSE: XOM) Plans To Spend ...'
p2
aS'Energy and Natural Resources - Strengths - Collections ...'
p3
aS"Exxon's growing reliance on expensive oil - Mar. 11, 2010"
p4
aS'ExxonMobil Middle East and North Africa Scholars Program'
p5
aS'Dr. Haroon S. Kheshgi | AIChE'
p6
aS'An unconventional glut | The Economist'
p7
aS'Exxon Mobil Downstream Business Services Fairfax VA ...'
p8
aS"Craig Venter's Hangout - WSJ"
p9
aS"Occidental Petroleum's Path to Easy Oil - Forbes.com"
p10
a.