(lp0
S'ExxonMobil Broke Air Pollution Laws, Group Says - CBS News'
p1
aS'ExxonMobil Faces Clean Air Act Lawsuit For Violations At ...'
p2
aS'ExxonMobil/XTO Merger'
p3
aS'Frustrated green groups to sue ExxonMobil, saying Texas ...'
p4
aS'Native Village of Kivalina v. ExxonMobil Corporation, et al ...'
p5
aS'500 most profitable companies in the world - NY Daily News'
p6
aS'KKR Prospects for Natural Gas After Leveraged Buyouts Dry ...'
p7
aS'Man-Made Life a Boon With Risks for Terror and Error ...'
p8
aS"Total to Buy Canada's UTS Energy - WSJ"
p9
aS'Interior Rewrites History, Erases BP From List of Finalists for ...'
p10
a.