(lp0
S'Exxon Mobil: Rotterdam Refinery Units Shut For Maintenance'
p1
aS'US: ExxonMobil looking to sign for new $1 billion Arctic rig'
p2
aS'Your Project News | Qatar Petroleum and ExxonMobil ...'
p3
aS'When Will Renewable Energy Companies Overtake ...'
p4
aS'Endless Oil - Bloomberg'
p5
aS'Cramped on Land, Big Oil Bets at Sea - WSJ'
p6
aS'Kosmos Energy - The FCPA Blog - The FCPA Blog'
p7
aS'UTeach Expansion Recognized as President ... - UT News'
p8
aS"Economists worry economy won't recoup 7 million lost jobs ..."
p9
aS'Fox & Friends funnels Exxon-funded NCPPR press release ...'
p10
a.