(lp0
S'ExxonMobil - Facebook'
p1
aS'Exxon Mobil is a Noteable Growth Stock (XOM ...'
p2
aS'What is the reason warren Buffett sold exxon mobil'
p3
aS"Birdman's Oil Company Goes Bust? | Rap Radar"
p4
aS'Why Africa Is Poor - WSJ'
p5
aS'NRG Energy, CPS Energy settle dispute over funding for ...'
p6
aS'Volunteer Fairfax'
p7
aS"Wal-Mart's store sales drop in fourth quarter - Feb. 18, 2010"
p8
aS'Petronas growth plans threatened by Asian economic crisis ...'
p9
aS'ExxonMobil and Tetra Pak Highlight 2010 SIMULIA ...'
p10
a.