(lp0
S'More New York Deals | CSPnet'
p1
aS'Our safety philosophy | ExxonMobil'
p2
aS'CPD Energy - News'
p3
aS'Chinonso Emehelu - Africare'
p4
aS'Chevron Nears Natural-Gas Deal With CNPC - WSJ'
p5
aS'Mobil Oil Illinois | Mesothelioma and Asbestos Jobsites'
p6
aS'Iraq, Syria Agree to Build Pipelines, Official Says - Bloomberg'
p7
aS'FedEx expects continued growth but cuts 1,700 jobs - Sep ...'
p8
aS"A structure for safety | ExxonMobil's Perspectives Blog"
p9
aS'Exxon-Mobil merger wins approval in EU, awaits US decision'
p10
a.