(lp0
S'Investor Relations | News Release | Albemarle'
p1
aS'Synthetic Lubricants - Resources And Advice'
p2
aS'Roger Federer and Rafael Nadal Ride Mobil 1 Grand Prix ...'
p3
aS'Board pay: Unchecked and out of hand - Fortune'
p4
aS'Recession Takes Bite Out of Global M&A - WSJ'
p5
aS"For Chevron, It Could Be a Happy New Year - Barron's"
p6
aS'Total in $2 billion shale gas tie-up with Chesapeake | Reuters'
p7
aS'Synthetic base stocks for turbine oils - ExxonMobil Chemical'
p8
aS'Subway, soldier settle Dallas franchise dispute | Dallas ...'
p9
aS'U.S. job satisfaction falls to lowest level in 22 years - Jan. 5 ...'
p10
a.