(lp0
S'XOM - Exxon Mobil Corporation Buy, Sell and Hold Ratings ...'
p1
aS'Hydrocarbon fluids - ExxonMobil Chemical'
p2
aS"Workers say Exxon Mobil hid cleaning job's radiation risk ..."
p3
aS'ExxonMobil CEO And XTO Energy CEO Testify Before ...'
p4
aS'ExxonMobil Renews its Sponsorship of the 2010 Sword ...'
p5
aS'Biodiesel Magazine - The Latest News and Data About ...'
p6
aS'Energy Mega-Tenants Stir Up the Houston Office Market'
p7
aS'Drive away from MTLQQ as fast as you can - Jan. 19, 2010'
p8
aS'State Farm Growth Fund (STFGX): Fund performance, Fund ...'
p9
aS"Banks aren't to blame for economic crisis, consumers are ..."
p10
a.