(lp0
S'Baton Rouge area environmental partnership | ExxonMobil'
p1
aS'ExxonMobil Gives UA $17000 to Support Academic ... - news'
p2
aS'All ExxonMobil Lubricants & Petrol Spec catalogues and ...'
p3
aS'Glenn Beck Brings ExxonMobil-Linked Religious Front ...'
p4
aS'Ackman Makes Long Bet on Property Reversal With Howard ...'
p5
aS"Occidental's Irani, Highest-Paid Oil CEO, to Retire - Bloomberg"
p6
aS'OPEC Maintains Oil Production Quotas, Urges Adherence ...'
p7
aS'A rush to judgment: E15 and the unintended consequences ...'
p8
aS'Mozilo settles with SEC for $67.5 million - Oct. 15, 2010'
p9
aS"A Comparison of ExxonMobil's..."
p10
a.