(lp0
S'What The Top U.S. Companies Pay In Taxes - Forbes'
p1
aS'DownstreamToday.com - News and Information for the ...'
p2
aS'Statoil and ExxonMobil join forces in Tanzania'
p3
aS'Executive Decisions | CSPnet'
p4
aS'Who Funds Contrariness on Climate Change? - Scientific ...'
p5
aS"Gas Drillers' New York Hopes Fade on Paterson Woes ..."
p6
aS'Stay informed :: Our Greenpoint Commitment'
p7
aS'Actualits - Esso'
p8
aS'Obama opens new oil drilling offshore in climate drive ...'
p9
aS'Increasing role of China in the oil market - Oil-price.net'
p10
a.