(lp0
S'ExxonMobil Farms-in to Petrobras  TPAO Agreement ...'
p1
aS'Exxon Mobil signs farm-in agreement with Petrobras and ...'
p2
aS'The Culture of Finance--Why Financial Innovation Failed ...'
p3
aS'Turkey: ExxonMobil farms-in to Petrobras - TPAO agreement ...'
p4
aS'Beryl Field - Offshore Technology'
p5
aS'Nelson-farrar cost Indexes - Oil & Gas Journal'
p6
aS'Yearly refinery construction indexes listed for 80+ years - Oil ...'
p7
aS'Oil and Gas Accounting: Upstream Operations (Portfolio 5206)'
p8
aS'Where bankers spend their bonuses - CNN Money'
p9
aS'University of Texas at Dallas starts up masters in ...'
p10
a.