(lp0
S'Our Company - MJL Bangladesh Limited'
p1
aS'Mobil Jamuna Lubricants Bangladesh Limited (MJL BL ...'
p2
aS'Our Partners - Detail Page'
p3
aS'ExxonMobil is preparing the Leaders of Tomorrow'
p4
aS'8 years after partnership, promise of destination oases ...'
p5
aS'Top 100 Defense contractors - Magazine - GovExec.com'
p6
aS'HHR - Advisory - Secretary of Health and Human Resources'
p7
aS'EPA and State Department Square Off On Tar Sands Pipeline'
p8
aS"Ex-DLA Lawyer's Prison Term for Forging Pay Slip Cut to ..."
p9
aS'Comanche Peak nuclear power plant turns 20, uneventfully ...'
p10
a.