(lp0
S'Exxon $600 Million Algae Investment Makes Khosla See ...'
p1
aS'BP and Exxon share prices after oil spills: In Deepwater'
p2
aS'President Chain Store Corporation: TPE:2912 quotes ...'
p3
aS'Oil Companies | Corporate Website Review - Corporate Eye'
p4
aS'Stock:Esso Malaysia (KUL:3042) - Wikinvest'
p5
aS'Washington Post Exposes BP ties to Eco-Groups, Other ...'
p6
aS'BP needs to learn from the Exxon Valdez spill and eat crow ...'
p7
aS'Deepwater Companies Pull Up Stakes, and Some May ...'
p8
aS'Interior prepares to list oil drilling operations stymied by Gulf ...'
p9
aS'RIL may revive chemical plant plan - Livemint'
p10
a.