(lp0
S'ExxonMobil Remains Lubricants Supplier for General ...'
p1
aS'ExxonMobil Coal to Methanol to Gasoline | Research ...'
p2
aS'Barclays Hires Seven From BP to Boost Energy Sales ...'
p3
aS'Fantasy Football Drives Fans to Quit Jobs, Hide Office ...'
p4
aS'Dow Jones Sustainability Index Adds Morgan Stanley, Cuts ...'
p5
aS'Vanguard - All fund holdings'
p6
aS'Board of Directors - Parker Drilling'
p7
aS'Is Fracking The Next MTBE (Or Worse)? - Law360'
p8
aS'Exxonmobil Pipeline Company Corsicana TX, 75110 ...'
p9
aS'Starting salaries for recent graduates appear to stabilize ...'
p10
a.