(lp0
S'Exhibit 99.1 - News Release - SEC.gov'
p1
aS"NEWS | Qatar's RasGas Fires Up LNG Production from New ..."
p2
aS"NEWS | Norway Trims Shell's Ormen Lange Reserves by 25 ..."
p3
aS'Dumb Company Names in an ADD World - CBS News'
p4
aS'Toyota recall: What took so long? - CNN Money'
p5
aS'Doctors threaten to turn away Medicare patients - Feb. 25 ...'
p6
aS'Jayflex MB10 plasticizer - ExxonMobil Chemical'
p7
aS'The 100 Most Powerful Executives In Corporate America'
p8
aS'Bundled oil services trend no guarantee of success | Reuters'
p9
aS'RasGas 3 starts up LNG Train 7 - Oil & Gas Journal'
p10
a.