(lp0
S'Earnings Estimates for Exxon Mobil Corp (XOM) from ...'
p1
aS"BP's falling stock makes it a takeover target: analysts - Jul. 1 ..."
p2
aS'Nez Perce Oppose Oil-Gear Shipments Through Idaho ...'
p3
aS'ESP Resources, Inc. Announces Joint Venture Agreement ...'
p4
aS'Four Puffin Stops For Sale | CSPnet'
p5
aS'Offshore industry reels in wake of BP blowout - Oil & Gas ...'
p6
aS"Chavez Crackdown on 'Thieves' Leaves Traders Jobless ..."
p7
aS"BP's Gulf Spill to Drive Down Rig Rates, Create Oversupply ..."
p8
aS'ExxonMobil REACH Use communications - plasticisers and ...'
p9
aS'Golden Gate Capital affiliate completes purchase of On The ...'
p10
a.