(lp0
S'PolyOne Corporation - News Release'
p1
aS'PolyOne to market Santoprene medical grades | Rubber News'
p2
aS'ExxonMobil Chemical appoints PolyOne as primary ...'
p3
aS'Careers - ExxonMobil Indonesia'
p4
aS'About us - ExxonMobil Indonesia'
p5
aS"Wall Street's Hellhound Exposes Citigroup's Greedy Past ..."
p6
aS'French Strike Costing Up to EU400 Million a Day - Bloomberg'
p7
aS'Treasury Shielding Citigroup With FOIA Deletions - Bloomberg'
p8
aS"Obama Avoided Depression, Got 'No Credit,' Cote Says ..."
p9
aS'Liberia, flags of convenience and corporate capitalism ...'
p10
a.