(lp0
S'Sakhalin-1 Project Continues Record Setting Drilling ...'
p1
aS"Texas oilman's urge to dig deeper pays off | www.statesman ..."
p2
aS'ExxonMobil CEO And XTO Energy CEO Testify Before ...'
p3
aS'[PDF]\nSignum Oil Analysis - ExxonMobil'
p4
aS'Drilling Tactic Unleashes a Trove of Natural GasAnd a ...'
p5
aS'Eni purchases ExxonMobil downstream activities in Austria ...'
p6
aS'Polymer modifiers - ExxonMobil Chemical'
p7
aS'- Eni purchases ExxonMobil downstream... - Europtrole'
p8
aS'How Corporate Money Will Reshape Politics - The New ...'
p9
aS'Exxon Mobil offering stakes in gas fields off Irish coast ...'
p10
a.