(lp0
S'Oct 11, 2010 - A San Antonio man was sentenced to 18 years in prison Monday for a shooting spree last year that left a police officer with a bullet wound in his back. Officers ...'
p1
aS"Oct 10, 2010 - Apr 17- Saudi Arabia's state-run news agency says a fire at a chemical plant in the ..... The fire was reported after 12 p.m. Friday at Philadelphia Energy Solutions ..."
p2
aS'Oct 11, 2010 - Texas oil companies Tesoro and Valero are attempting to hamstring their clean energy ... Passing Prop 23 would put all of these news jobs and businesses in ...'
p3
aS"Oct 11, 2010 - Others in the group include San Antonio-based Valero ($4 million); San Antonio-based Tesoro ($1.5 ... And in other green news: ... energy sources is more important than reducing the nation's energy consumption; 60 percent think investing in ..."
p4
aS'Oct 10, 2010 - Efrain Valero Carpeting offers fast, friendly and courteous service. We use only the best products and are always eager to answer your questions and concerns.'
p5
aS'Oct 10, 2010 - ... conoco phillips, general electric, AT&T, Hewlett-Packard, Valero Energy, Bank ... gmac, ingram micro, comcast, northrop grumman, news corp., chs, coca-cola,.'
p6
aS'Oct 11, 2010 - He was standing, drunk and weepy, in the parking lot of a Valero station outside Waco, Tex. He had jumped out of his moving pickup. There was a police officer ...'
p7
aS'Oct 10, 2010 - News   World News   Earth News . In Climate Change. Fisherman Rene Valero, from the Urus ethnic group, is seen on his boat on ... Top news galleries .... In other words, reduce emissions (read "energy usage\') to 1910 levels. Oh, but ...'
p8
aS'Oct 11, 2010 - The European Salon is a daily selection of news items to which you are invited to ... LIVING OFF THE PLANET - is about the environment, energy, agriculture, food. ...... Others in the group include San Antonio-based Valero ($4 million); San ...'
p9
aS'Oct 10, 2010 - the help of massive government subsidies, manipulate energy futures on the ... (ExxonMobil, Conoco-Phillips, Texaco-Shell, BP-Amoco, Valero-Shamrock etc.), .... with Raya Dunayevskaya, founder of the still-active-today News and Letters left ...'
p10
a.