(lp0
S"Oct 14, 2010 - But Harris and other Sierra Club members at the meeting say the energy company's ... To counter the pollution, Valero's community relations spokesperson Lisa ..."
p1
aS'Oct 14, 2010 - ... capacity for market expansion to meet increasing renewable fuel standard blend volume requirements," said Valero Energy Corp., in its comment to the EPA.'
p2
aS"Oct 14, 2010 - BP PLC ADS News BP Refinery Status: Husky's Lima, Ohio Coker, FCCU Shut ... Valero Delaware 210.0 PBF Energy has closed Apr 2011 deal to buy plant."
p3
aS"Oct 15, 2010 - The Valero facility is the town's biggest employer and the major denizen of .... Barely five feet tall and bursting with energy even in her early sixties, Richard led her ..... Air Toxics: A victory, with limits, for neighbouring communities | Toxic News ..."
p4
aS'Oct 14, 2010 - Award for Excellence in the Promotion of Architecture through the Media: AIA San Antonio and the San Antonio Express-News for "Building San Antonio," the ...'
p5
aS'Oct 14, 2010 - San Antonio Express-News  ExpressNews.com  iPad app  eEdition  Search Our News Archive  Manage Your Subscription. Hearst Newspapers  Copyright ...'
p6
aS'Oct 15, 2010 - A section of Interstate 35 south of San Antonio was closed for nearly three hours Friday afternoon after a tractor-trailer rig crashed and burned, killing its two ...'
p7
aS"Oct 14, 2010 - Designed to draw cosmic energy into the body through the medulla oblongata by .... Local activists ask elected officials to block Valero's plan to ship oil by train."
p8
aS'Oct 15, 2010 - Past, Sports photographer at KPRC News 2 Houston, Sports photographer at KSAT 12 News, News ... Past, Plant Operator at Valero Energy Corporation ...'
p9
aS'Oct 14, 2010 - Big Oil has flooded campuses with millions of dollars to pay for clean energy ... Sign up for email updates and get the latest news about what Big Oil is up to.'
p10
a.