(lp0
S"Sep 30, 2010 - ... Valero Energy Corp., the country's largest independent oil refiner, is reviving ... This is great news for our local contractors who missed out on some of the ..."
p1
aS'Sep 30, 2010 - Cenovus Energy Inc. (TSX, NYSE: CVE) delivered strong production growth from its oil sands .... Valero Energy Corporation Reports Third Quarter 2010 Results.'
p2
aS'Oct 1, 2010 - News. News. 10/1/2010 04:10 PM. Doug Henschen News. Connect Directly ... Zesch is CIO and Nayyar is VP, enterprise architecture, at Valero Energy, a $70 ...'
p3
aS'Oct 2, 2010 - Two local teens whose consecutive suicides triggered a cascade of fearful rumors had turbulent home lives that prompted investigations by Child Protective ...'
p4
aS'Sep 30, 2010 - Two Texas-based oil refining companies, Valero Energy Corp and Tesoro Corp, have given about $4m and $1.5m to the campaign respectively. ... More news ...'
p5
aS"Sep 30, 2010 - Two Texas oil refiners  Valero Energy Corp. and Tesoro Corp., both based in ... from the financial news media to Paulson's advice wasn't entirely receptive."
p6
aS'Sep 30, 2010 - The new fuel could also be good for corn markets and bad news for oil refiners ... a private company, Archer Daniels Midland Co and Valero Energy Corp. could ...'
p7
aS'Sep 30, 2010 - Representatives of Exxon Mobil and Valero Energy attended an energy conference on Cuba in Mexico City in 2006, where they met Cuban oil officials.'
p8
aS'Sep 30, 2010 - Valero Energy Corporation.  Money raised ... Dedicated sustainable energy crops ... Additional Video Footage: http://apps1.eere.energy.gov/news/b_roll_rd.cfm ...'
p9
aS'Sep 30, 2010 - Valero Energy Corporation ... Valero Texas City Refinery ... With the latest News & Advice from Manta, you can stay ahead of the trends and challenges affecting ...'
p10
a.