(lp0
S"Oct 19, 2010 - Valero Energy's St. Charles Refinery got St. Charles Parish's endorsement for $300 ... Latest live event and breaking news, weather, sports and entertainment ..."
p1
aS'Oct 19, 2010 - The two Texas-based oil companies behind the initiative  Valero and ... regulations, says Bill Day, spokesman for San Antonio-based Valero Energy Corp.'
p2
aS"Oct 19, 2010 - Cnooc is back in the US attempting to buy in to Chesapeake Energy's Eagle Ford Shale ..... Companies such as Sunoco and Valero also benefited from drives in ..."
p3
aS"Oct 19, 2010 - Yrle's next goal is to look at installing solar panels and possibly a small hydropower plant to capture the energy of the treated water that leaves the plant via a ..."
p4
aS'Oct 19, 2010 - The City Council this week is set to review and possibly vote on a tentative settlement agreement in a sex discrimination lawsuit filed by a high-ranking female ...'
p5
aS"Oct 19, 2010 - A charge against a teenager of aggravated assault with a deadly weapon will likely be upgraded to murder, after a teen he's accused of shooting died, ..."
p6
aS'Oct 18, 2010 - For refiners from Valero Energy Corp., the largest in the U.S., to Reliance ... India, the jump in gasoline is fattening margins at a time when the energy industry is ...'
p7
aS'Oct 18, 2010 - ... Tesoro, Valero Santa Monica, CA  Consumer advocates revealed an investor slide .... Energy Commission Study Of Hot Fuel Ripoff To Protect Oil Companies ... Sign up for email updates and get the latest news about what Big Oil is up to.'
p8
aS"Oct 19, 2010 - By working together, we can diversify our nation's energy needs and strengthen our economy. ... to increase biofuel production from algae, and a joint development agreement with Valero Services, Inc. ... The news you need, when you need it."
p9
aS'Oct 19, 2010 - Pipeline Energy Dynamics develops cutting edge pipeline energy management software | pipeline scheduling software. ... Pipeline Optimization Clients  News  Contact PEDI  Pipeline Energy Experts ... ConocoPhilips Valero Kinder Morgan.'
p10
a.