(lp0
S'Oct 12, 2010 - Valero oil refinery in Aruba/Flickr user David Stanley ... Valero Energy Corp., and an oil-refining business owned by the oil and gas company Koch ... This is good news for fans of the climate law, as absentee voting began in the state this week.'
p1
aS'Oct 13, 2010 - msnbc.com staff and news service reports ... More U.S. news .... Valero Energy, a large oil refiner and ethanol producer, said it generally supports pro-ethanol ...'
p2
aS"Oct 13, 2010 - Consumer Reports News: October 13, 2010 01:37 PM ... Valero Energy and Marathon Fuels say they are hesitant to sell E15, because they don't want to be ..."
p3
aS'Oct 12, 2010 - Summary: California has been a gold mine for San Antonio-based Valero energy. A review of ... Introduction. Valero Energy, a San Antonio, Texas-based refining and gasoline retail company, is among the .... 3, 2003. News release with links:.'
p4
aS"Oct 12, 2010 - ... from a green-tech energy sector, which is why Valero is the principle funder behind California Proposition 23. ... Valero's net refining margins in California have been 37% higher per barrel than those from its ... Part of HuffPost on HPMG News."
p5
aS"Oct 12, 2010 - Study: Texas-Based Valero Gouging California Drivers For A Decade ... report by Consumer Watchdog's OilWatchdog.org project finds that Valero Energy reaped ... Sign up for email updates and get the latest news about what Big Oil is up to."
p6
aS'Oct 13, 2010 - Several drivers for alternative fuels include energy security, the desire to .... Conference news. Wednesday ... Asa Queen, Valero Energy, and Nena Fremin,.'
p7
aS'Oct 13, 2010 - San Antonio Express-News  ExpressNews.com  iPad app  eEdition  Search Our News Archive  Manage Your Subscription. Hearst Newspapers  Copyright ...'
p8
aS'Oct 13, 2010 - ... the eyes still blaze. The look on his face tells you he knows something about losing sleep. News Research Director Michael Knoop contributed to this report.'
p9
aS'Oct 13, 2010 - THE LATEST NEWS .... on oil production in the state to fund research, development and deployment of alternative energy technologies. ... The biggest checks have come from San Antonio-based Valero ($4 million), San Antonio-based Tesoro ...'
p10
a.