(lp0
S"Oct 22, 2010 - For example, I own 2,600 shares of Valero Energy, which means my vote amounts to .... Thomson Reuters is the world's largest international multimedia news ..."
p1
aS'Oct 22, 2010 - GE is targeting health care and energy as two areas to expand, Immelt has said. ... For refiners from Valero Energy Corp., the largest in the U.S., to Reliance ...'
p2
aS"Oct 21, 2010 - If Aventine Renewable Energy Inc. and its unionized employees can't reach an ... Valero is the third largest ethanol producer in the U.S., with 10 plants in seven ..."
p3
aS'Oct 21, 2010 - Latest News ... Subscribe. San Antonio Express-News  ExpressNews.com  iPad app  eEdition  Search Our News Archive  Manage Your Subscription.'
p4
aS'Oct 21, 2010 - Reliant Energy; Reynolds Aluminum; Rhodia Incorporated; Rohm & Haas Company ... Carbide Corporation; Union Pump Company; Valero Energy Corporation.'
p5
aS'Oct 22, 2010 - Company; Summary  News  Option chain. Related companies. Historical prices  Financials  Markets ... VLO  Valero Energy Cor... 60.11, -0.60, -0.99%, 28.82B ...'
p6
aS"Oct 21, 2010 - Valero's extraordinary support for Proposition 23 delays the country from tackling an urgent human, environmental and economic concern. Shareholder ..."
p7
aS"Oct 21, 2010 - Valero Energy Corp to export ethanol for first time  40,000 in southeast ... US News. IBM Watson's Uses Artificial Intelligence techniques to Teach Robots Better ..."
p8
aS'Oct 22, 2010 - Valero Energy Corp to export ethanol for first time  40,000 in southeast ... US News. The Robot-Snake Charger Designed by Tesla Could Scare you Along with ...'
p9
aS'Oct 21, 2010 - The e3202 promises to be far more energy efficient than the Valero overall and to release .... 2016 Guardian News and Media Limited or its affiliated companies.'
p10
a.