(lp0
S'Oct 28, 2010 - Breaking news .... mainly from two Texas refining companies, Valero Energy Corp, which has donated more than $5m, and Tesoro, which has donated $2m.'
p1
aS'Oct 28, 2010 - LA Weekly is the definitive source of information for news, music, movies, ... funded by major oil corporations such as Tesoro, Valero and the agricultural-energy ...'
p2
aS'Oct 28, 2010 - As lead process engineer managing several projects for Valero Energy ... John has had to work on multiple projects moving at the same speed and on parallel timeframes, says Joe Rahija, a process engineer at Valero. ... 2: News in Brief.'
p3
aS'Oct 29, 2010 - Companies are coming to California because of our energy policy, he said earlier ... The companies the governor is referring to are Valero and Tesoro, the top two ... Need to Know is a production of Creative News Group (CNG) in association ...'
p4
aS'Oct 29, 2010 - A rookie San Antonio police officer who was struck by a suspected drunken driver after he stopped to help a stranded motorist on Loop 410 has died of his ...'
p5
aS"Oct 30, 2010 - If you want more ghost stories than you can shake a severed head at, you'll need to come to the Devil's Backbone, the Hill Country's hub of ethereal hijinks and ..."
p6
aS'Oct 28, 2010 - The appearance of Lang Lang is sponsored by the Russell Hill Rogers Fund for the Arts. Additional support for this concert is provided by the Valero Energy ...'
p7
aS'Oct 29, 2010 - The spoof was by the Yes Men group, whose Chamber of Commerce news ... their holdings in Valero Energy and Tesoro, the big oil refiners behind Prop 23.'
p8
aS'Oct 28, 2010 - LATEST NEWS ... Interstate tensions came out when it was publicized that Texas oil companies Valero and Tesoro, both based in San Antonio, had supplied the ...'
p9
aS"Oct 29, 2010 - 1/28/2016. News Release ... Santa Monica, CA -- Valero, California's fourth largest oil refiner, reported $852 million in profits from oil refining in... More >. 1/29/ ..."
p10
a.