(lp0
S'Oct 20, 2010 - The resolutions target Occidental Petroleum Corp., Valero Energy Corp. and Tesoro Corp., which have contributed to an $8-million campaign on behalf of ...'
p1
aS'Oct 20, 2010 - Valero - Benicia, CA ConocoPhillips - Sweeney ... STARCON International Inc. at Valero Energy Corporation, Benecia Refinery - STARCON International Inc.'
p2
aS"Oct 21, 2010 - If Aventine Renewable Energy Inc. and its unionized employees can't reach an ... Valero is the third largest ethanol producer in the U.S., with 10 plants in seven ..."
p3
aS'Oct 20, 2010 - Mexicans seek news of loved ones after deadly explosion ... ExpressNews.com  iPad app  eEdition  Search Our News Archive  Manage Your Subscription.'
p4
aS'Oct 21, 2010 - Reliant Energy; Reynolds Aluminum; Rhodia Incorporated; Rohm & Haas Company ... Carbide Corporation; Union Pump Company; Valero Energy Corporation.'
p5
aS'Oct 20, 2010 - News & Events ... for Corporate Aviation Training (PCAT) is a non-profit organization, founded by the Valero Energy, HEB, and Zachry flight departments. more> ...'
p6
aS'Oct 20, 2010 - Home  About Us  News; Academics ... president and controller for Valero Energy Corporation, the largest independent petroleum refiner in the United States.'
p7
aS'Oct 20, 2010 - October 20, 2010 News & Opinion  News ..... Everything you need to know about saving water, energy efficiency, sustainable farming and eating, and more.'
p8
aS'Oct 20, 2010 - October 20, 2010 News & Opinion  Feature .... Opponents of oil-by-rail shipments want the city to block a proposed Valero facility, but Valero says the city lacks ...'
p9
aS'Oct 20, 2010 - Energy and Global Warming News for October 19th: Wind is the new cash crop in ...... Out-of-state oil companies  Valero, Tesoro, and Koch Industries  are ...'
p10
a.