(lp0
S'Oct 5, 2010 - PBF Energy Co. is cutting through the usual tangle of supplier and marketing ... had already been shut down for being uncompetitive by Valero Energy Corp.'
p1
aS"Oct 5, 2010 - Eagle North pipeline to link Valero refinery to Cushing ... its Eagle North pipeline reactivation project in the fourth quarter, connecting Valero Energy Corp's (VLO. ... Thomson Reuters is the world's largest international multimedia news agency, ..."
p2
aS"Oct 4, 2010 - PBF Energy, a new oil refinerbacked by a $2 billion private equity bet on distressed assets,said on Monday it picked ... The deal brings PBF closer to closing its acquisition of Valero Energy Corp's (VLO. ... Our top news photography last month."
p3
aS'Oct 4, 2010 - ... of the Paulsboro refinery from Valero, PBF entered into commitments arranged by ... About PBF Energy: PBF Energy owns and operates oil refineries and related facilities in North America. ... More News RSS feed for The Blackstone Group.'
p4
aS'Oct 5, 2010 - ... including real-time stock quotes, historical charts & financial news, all for free! ... attributable to four customers accounting for 33% (Valero Marketing Supply Co.) ... Encompass Energy Services Inc, OTCMKTS, EESI, 0.250, *, 0.000 (0.00%) ...'
p5
aS'Oct 5, 2010 - San Antonio Express-News  ExpressNews.com  iPad app  eEdition  Search Our News Archive  Manage Your Subscription. Hearst Newspapers  Copyright ...'
p6
aS'Oct 6, 2010 - Mexicans seek news of loved ones after deadly explosion ... ExpressNews.com  iPad app  eEdition  Search Our News Archive  Manage Your Subscription.'
p7
aS'Oct 5, 2010 - Of course, Texas oil companies Tesoro and Valero and the billionaire Koch brothers, who earlier ... Renewable energy companies stepped to the plate as well.'
p8
aS'Oct 4, 2010 - CenterPoint Energy officials said the power had been shut off to the line because ... At a news briefing Tuesday, an AEP spokesman said this was the company s first ... Bill Day, a spokesman with Valero, said a three-day closure would not ...'
p9
aS'Oct 5, 2010 - CenterPoint Energy, which owns the power lines, brought in a giant crane on another ... Large refineries owned by Valero Energy, Royal Dutch Shell, Pasadena ...'
p10
a.