(lp0
S"Oct 8, 2010 - Terminal News. Terminal News ..... reactivation project in the fourth quarter, connecting Valero Energy Corp's Ardmore refinery with Cushing for the first time."
p1
aS"Oct 6, 2010 - Before McKinney, the university's largest cash gift was $2.5 million from Valero Energy Foundation, a gift that doubled to $5 million under a state matching ..."
p2
aS'Oct 7, 2010 - ... which started in June; Valero Energy Corp.; AT&T Inc.; and the Hearst Corp. ... Express-News Business Writers Jason Buch, Vicki Vaughan and William Pack ...'
p3
aS'Oct 7, 2010 - Electrical lights alone use about one-quarter of all available energy in the United States. How do we simultaneously save energy, reduce cost and protect the ...'
p4
aS'Oct 6, 2010 - The Texas oil companies, Valero and Tesoro, are footing the bill to the tune of millions of dollars. ... Traders at Texas-based Enron manipulated the energy market in California to reap billions in profit. .... Part of HuffPost on HPMG News.'
p5
aS"Oct 6, 2010 - Steam rises over the Valero Benicia refinery early Saturday morning, May 22, 2010. James Irwin for .... Cleantech and renewable energy are California's future."
p6
aS'Oct 6, 2010 - Earlier this year, Valero Energy Corp. in San Antonio, Texas, sold one of its refineries to PBF Energy Co. and is in the process of selling a second one to the ...'
p7
aS'Oct 7, 2010 - Oil & Energy News  Home  Oil and Energy Jobs ... Northern Tier Energy will operate the Minnesota assets as a stand-alone company. The senior Northern Tier ...'
p8
aS'Oct 6, 2010 - French Foreign Ministry spokesman Bernard Valero said there was close cooperation between European ... Tiny Danish island a global model for clean energy.'
p9
aS"Oct 6, 2010 - ... that has been measuring the sun's energy output at X-ray, ultraviolet, visible, and near-infrared wavelengths. ... Science News   Earth . In Climate Change. Fisherman Rene Valero, from the Urus ethnic group, is seen on his boat on ..."
p10
a.