(lp0
S'Nov 17, 2010 - A man was shot multiple times with a semi-automatic handgun and left to die on the playground of Clear Spring Elementary School during a botched predawn ...'
p1
aS'Nov 19, 2010 - San Antonio Express-News  ExpressNews.com  iPad app  eEdition  Search Our News Archive  Manage Your Subscription. Hearst Newspapers  Copyright ...'
p2
aS'Nov 19, 2010 - Each donor receives a receipt for IRS purposes and a $5 coupon for dry cleaning services at the store. Students at the San Antonio Christian Schools adopted ...'
p3
aS'Nov 18, 2010 - Valero-Cuevas worked with CONACyT Under Director of Promotion and ... joint research in areas including megacities, energy, health and distance learning.'
p4
aS"Nov 18, 2010 - That's good news for the lungs of Californians. ... oil companies like Tesoro and Valero Energy and Koch Industries (owned by the Tea Party-backing billionaire ..."
p5
aS'Nov 18, 2010 - Valero Energy Corp to export ethanol for first time  40,000 in southeast ... US News. The Robot-Snake Charger Designed by Tesla Could Scare you Along with ...'
p6
aS'Nov 17, 2010 - Valero Energy Corp to export ethanol for first time  40,000 in southeast ... US News. The Robot-Snake Charger Designed by Tesla Could Scare you Along with ...'
p7
aS"Nov 19, 2010 - Terminal News. Terminal News ... Gibson Energy extinguishes tank fire ... and storage player Gibson Energy's Edmonton Oil Terminal on 17 November."
p8
aS'Nov 18, 2010 - Illustrations by Valero Doval Go to related article, The Buzzwords of 2009  .... VocabSushi.com which helps you learn vocab through the context of news ...'
p9
aS'Nov 19, 2010 - News & Media. News Center  Media Coverage  SLS Blogs  Stanford Lawyer Magazine  Video Center  Social Media Hub  SLS Newsletters ...'
p10
a.