(lp0
S"Nov 16, 2010 - Valero Paulsboro PBF Energy agrees to 166 New Jersey buy on Sept. 27 for $360 million. Shell Heide Agreed sale to 91 Germany U.K.'s Klesch & Co. on Aug."
p1
aS"Nov 16, 2010 - Study: Texas-Based Valero Gouging California Drivers For A Decade ... report by Consumer Watchdog's OilWatchdog.org project finds that Valero Energy reaped ... Sign up for email updates and get the latest news about what Big Oil is up to."
p2
aS'Nov 17, 2010 - A man was shot multiple times with a semi-automatic handgun and left to die on the playground of Clear Spring Elementary School during a botched predawn ...'
p3
aS'Nov 16, 2010 - Mexicans seek news of loved ones after deadly explosion ... ExpressNews.com  iPad app  eEdition  Search Our News Archive  Manage Your Subscription.'
p4
aS"Nov 16, 2010 - US Labor Department's OSHA publishes proposes rulemaking to prevent injuries from slips, trips and falls on walking-working surfaces. WASHINGTON  The ..."
p5
aS'Nov 16, 2010 - Download: OSHA to host Web forum to identify hazardous.pdf. Member Login. Username: Password: Not registered yet? Click Here to sign-up  Forgot Your ...'
p6
aS'Nov 17, 2010 - Analyze the Fidelity VIP Energy (FAVNR) and perform annuity research on other annuities. Learn more about ... News & Insights ..... VALERO ENERGY CORP.'
p7
aS'Nov 17, 2010 - Analyze the Fidelity  Select Energy Portfolio (FSENX) and perform mutual fund research on other mutual funds. ... News & Insights .... VALERO ENERGY CORP.'
p8
aS'Nov 17, 2010 - Valero Energy Corp to export ethanol for first time  40,000 in southeast ... US News. The Robot-Snake Charger Designed by Tesla Could Scare you Along with ...'
p9
aS'Nov 16, 2010 - Valero Energy Corp to export ethanol for first time  40,000 in southeast ... US News. The Robot-Snake Charger Designed by Tesla Could Scare you Along with ...'
p10
a.