(lp0
S"Nov 15, 2010 - Valero Energy Corp., of course, took the industry's breath away when it snatched up a big share of the bankrupt VeraSun assets and became one of the top U.S. ..."
p1
aS'Nov 15, 2010 - Memphis Daily News The Memphis News Chandler Reports Nashville Ledger .... Bill Day, executive director of media relations for Valero Energy Corp., said as ...'
p2
aS'Nov 15, 2010 - However, because of an ethanol use mandate set out by the Energy Policy Act of 2005 and expanded in ... Valero Energy Corporation and ExxonMobil  two of the largest U.S. oil refiners  have publicly said ... Part of HuffPost on HPMG News.'
p3
aS'Nov 15, 2010 - Several traditional refiners including Valero Energy and Marathon Oil have bought or acquired interests in ethanol plants. Alternative fuel sources serve these ...'
p4
aS"Nov 15, 2010 - That's good news for the lungs of Californians. ... of Prop 23 were Texas-based oil companies like Tesoro and Valero Energy and Koch Industries (owned by the ..."
p5
aS'Nov 15, 2010 - Valero Energy Corp to export ethanol for first time  40,000 in southeast ... US News. The Robot-Snake Charger Designed by Tesla Could Scare you Along with ...'
p6
aS'Nov 15, 2010 - a news conference are Superintendent Pedro Martinez (left) and Senior Executive Director .... 5) Friend of SAISD, the Valero Energy Foundation, recognizing its ...'
p7
aS'Nov 15, 2010 - "Hopefully, we can get some new energy, some new ideas, a different style of play," Tavares said. "Scott tried a lot of different things, and we played better than ...'
p8
aS'Nov 14, 2010 - He has worked as a technical communications consultant with several major corporations, including Valero Energy, Abengoa Energy and Chevron Corporation.'
p9
aS'Nov 15, 2010 - San Antonio Express-News  Postgame Wrap: Spurs commit ... San Antonio Spurs News, Scores, Stats & Analysis - Spurs Nation. Facebook Twitter RSS Feed ...'
p10
a.