(lp0
S'Nov 19, 2010 - He served with this organization until 1980, when it was spun off from Coastal Corporation to become Valero Energy Corporation. He managed the Right of Way ...'
p1
aS'Nov 19, 2010 - Sunoco, Valero Energy Corp., Royal Dutch Shell Plc and Western Refining Inc. shut 541,000 barrels a day of refining in the East Coast and refiners idled about ...'
p2
aS'Nov 19, 2010 - San Antonio Express-News  ExpressNews.com  iPad app  eEdition  Search Our News Archive  Manage Your Subscription. Hearst Newspapers  Copyright ...'
p3
aS'Nov 19, 2010 - Each donor receives a receipt for IRS purposes and a $5 coupon for dry cleaning services at the store. Students at the San Antonio Christian Schools adopted ...'
p4
aS'Nov 19, 2010 - But the news are rather good: The EPA report for 2009 shows an improvement of 7% in fuel economy, ... Valero Energy CEO William Klesse, 210-345-2000'
p5
aS'Nov 18, 2010 - Valero-Cuevas worked with CONACyT Under Director of Promotion and ... joint research in areas including megacities, energy, health and distance learning.'
p6
aS"Nov 18, 2010 - That's good news for the lungs of Californians. ... oil companies like Tesoro and Valero Energy and Koch Industries (owned by the Tea Party-backing billionaire ..."
p7
aS"Nov 19, 2010 - Terminal News. Terminal News ... Gibson Energy extinguishes tank fire ... and storage player Gibson Energy's Edmonton Oil Terminal on 17 November."
p8
aS"Nov 19, 2010 - Valero Energy Corp to export ethanol for first time  40,000 in southeast ... US News. IBM Watson's Uses Artificial Intelligence techniques to Teach Robots Better ..."
p9
aS'Nov 19, 2010 - News & Media. News Center  Media Coverage  SLS Blogs  Stanford Lawyer Magazine  Video Center  Social Media Hub  SLS Newsletters ...'
p10
a.