(lp0
S'Nov 10, 2010 - At that time, the company said it was seeking to form a joint venture with a subsidiary of Valero Energy Corp. to develop a 135 MMgy renewable diesel facility ...'
p1
aS'Nov 10, 2010 - San Antonio Express-News  ExpressNews.com  iPad app  eEdition  Search Our News Archive  Manage Your Subscription. Hearst Newspapers  Copyright ...'
p2
aS'Nov 11, 2010 - BREAKING NEWS: Huge flare-ups at the Tesoro refinery near North Concord ..... http://www.ranken-energy.com/Products%20from%20Petroleum.htm.'
p3
aS"Nov 11, 2010 - ... more poisonous forms, according to reporting at the San Jose Mercury News. .... Valero in Benicia faced the same problem and put a stand-by scrubber on it's ... involved in energy production and transportation, no matter what the source."
p4
aS'Nov 10, 2010 - Your source for the latest research news. Mobile Follow Subscribe. Breaking News: Clues to How Young .... Valero Energy sues U.S. EPA over biofuels plan.'
p5
aS'Nov 10, 2010 - Site www.chemweek.com. NEW - European Chemical News Magazine ... NEW - Offshore News and Gas Chronicle. Site www.ongc.com .... OIL- Valero Energy.'
p6
aS'Nov 10, 2010 - November 10, 2010 News & Opinion  News .... Opponents of oil-by-rail shipments want the city to block a proposed Valero facility, but Valero says the city lacks ...'
p7
aS'Nov 10, 2010 - November 10, 2010 News & Opinion  News ..... Everything you need to know about saving water, energy efficiency, sustainable farming and eating, and more.'
p8
aS'Nov 10, 2010 - East Bay Express. Oakland, Berkeley, And East Bay News, Events, Restaurants, Music, & Arts ... Create Account. November 10, 2010 News & Opinion  Feature ...'
p9
aS"Nov 10, 2010 - Home  News  Weather  Sports  Traffic  Health  Video  Audio  Best of  Events  Directory ... Wheelchair Moto-Cross Athlete Coming To Consol Energy Center ... athlete part of the Nitro Circus will be coming to the Consol Energy Center. ... Impact Of Sabermetrics Peter Kostis On Valero Texas Open: 'Favors The Strategist'."
p10
a.