(lp0
S"Oct 31, 2010 - Environmental news from California and beyond ... waged a scorched-earth campaign against Valero Energy Corp., the nation's biggest independent oil refiner ..."
p1
aS'Nov 1, 2010 - Texas-based Valero Energy -- which owns gas stations across the country, like this one in Sacramento,Calif. -- has contributed about half of the roughly $10 ...'
p2
aS'Nov 1, 2010 - Proposition 23 is largely funded by Texas oil giants Valero and Tesoro and would, opponents of the measure say, essentially kill AB 32 ... Energy Manager News.'
p3
aS'Nov 2, 2010 - Valero Energy Corporation. Previous. Corning,; Con Edison,; News & Record. Education ... News & Record. Employee Relations Manager  News & Record.'
p4
aS'Nov 1, 2010 - International News for oil and gas professionals. ... Valero Energy Corp. has agreed to sell its 50% indirect interest in the 380-mile Cameron Highway oil pipeline ...'
p5
aS'Nov 1, 2010 - He served as the Chief Executive Officer of Valero Energy Corp. of Valero ... All times are local (Market data is delayed by at least 15 minutes). Snapshot  News ... of Valero Natural Gas Company ("VNGC"), General Partner of Valero Natural ...'
p6
aS"Nov 2, 2010 - Elise Cort, Director of Public, Gov't and Regulatory Affairs, Enbridge Energy Company, Inc. Linda Curtis ... Jim Stokes, Regulatory Compliance, Valero Energy."
p7
aS'Nov 1, 2010 - They were drafted in Bexar County where they lived. The wills stated that when they pass, the estate is left to my sister and me... San Antonio Express-News ...'
p8
aS'Nov 1, 2010 - I have a lot more energy and endurance." She\'s not the only one getting into the swing of things. The kettlebell, a simple piece of strengthtraining equipment ...'
p9
aS'Nov 1, 2010 - Security magazine provides security industry news and trends on video surveillance, ... 17, Valero Energy Corporation, Gregory Anderson, CPP, Director, Global ...'
p10
a.