(lp0
S'Nov 21, 2010 - The Valero Energy Foundation (the charitable arm of Valero Energy) has established a number of scholarships for all types of students across the county.'
p1
aS'Nov 22, 2010 - 2010, Valero sold the refinery to Connecticut-based PBF Energy Partners LLC ... Valero refinery in Delaware City to close permanently, The News Journal, ...'
p2
aS'Nov 21, 2010 - ... by asking countries to switch to low carbon energy like nuclear or wind and improve energy efficiency. ... Earth News   Environment . In Climate Change. Fisherman Rene Valero, from the Urus ethnic group, is seen on his boat on ...'
p3
aS'Nov 22, 2010 - The approval of E-15 is an affirmation of a mandate, in an energy bill, that was passed in 2007. The mandate calls for a yearly increase in biofuel consumption in ...'
p4
aS'Nov 22, 2010 - Low Energy.  Stress.  Scoliosis ... The Montville Messenger welcomes news of interest concern- .... Suites, Montville Pharmacy, Montville Valero, Pegasus.'
p5
aS"Nov 22, 2010 - Keep up with all the latest news from Texas Watchdog. Fan our page on .... Austin Energy customers foot bill  $2 a month per customer for 19... Texas props up wind, ... We will miss... Valero tells the tax man what's what, awarded $5 million in."
p6
aS"Nov 22, 2010 - Keep up with all the latest news from Texas Watchdog. .... is sponsored by Harvest Moon Renewable Energy Company, offering farm-to-market solar power for the Houston area. ... Valero tells the tax man what's what, awarded $5 million in."
p7
aS'Nov 22, 2010 - ACS Energy Letters - New in 2016  ACS Infectious Diseases  ACS Macro Letters  ACS .... Rafael M. Krick Calderon , Julin Valero , Bruno Grimm , Javier de Mendoza , and Dirk M. Guldi ..... Chemical & Engineering News: Latest News ...'
p8
aS'Nov 22, 2010 - How much cash is up for grabs at the 2016 Valero Texas Open? The 2016 Valero Texas Open golf tournament on the PGA Tour is taking place this week from ...'
p9
aS'Nov 22, 2010 - ... thru 2014 (Photos)  List of top ranked PGA golfers in the playing field for 2016 Valero Texas Open  Lakers Rumors: Scott Brooks interested head coaching job ...'
p10
a.