(lp0
S'Nov 24, 2010 - ... has already infused a new sense of energy and hope, many said on Tuesday. ... continued faithfully to proclaim the good news here," he said in his sermon, ...'
p1
aS'Nov 22, 2010 - 2010, Valero sold the refinery to Connecticut-based PBF Energy Partners LLC ... Valero refinery in Delaware City to close permanently, The News Journal, ...'
p2
aS'Nov 23, 2010 - Consumer Watchdog NEWS RELEASE Wednesday, Nov. 17, 2010 Contact: Judy Dugan, 213-280-0175; or Jamie Court, 310-392-0075 Washington, D.C. ...'
p3
aS'Nov 23, 2010 - Consumer Watchdog NEWS RELEASE Wednesday, Nov. 17, 2010 Contact: Judy Dugan, 213-280-0175; or Jamie Court, 310-392-0075 Washington, D.C. ...'
p4
aS'Nov 23, 2010 - Consumer Watchdog NEWS RELEASE Wednesday, Nov. 17, 2010 Contact: Judy Dugan, 213-280-0175; or Jamie Court, 310-392-0075 Washington, D.C. ...'
p5
aS'Nov 22, 2010 - The approval of E-15 is an affirmation of a mandate, in an energy bill, that was passed in 2007. The mandate calls for a yearly increase in biofuel consumption in ...'
p6
aS"Nov 23, 2010 - Keep up with all the latest news from Texas Watchdog. ... is sponsored by Harvest Moon Renewable Energy Company, offering farm-to-market solar power for the Houston area. ... Valero tells the tax man what's what, awarded $5 million in."
p7
aS'Nov 23, 2010 - News Room  In The News  News ... In Support of Prop. 23. Valero Services, Inc. , $5,075,315 ... Tower Energy Group, , $200,000. CVR Energy Inc.  ...'
p8
aS'Nov 23, 2010 - Golf Channel Valero Texas Open: Round 1 Golf 2:45pm ET ..... Expect a storm of energy from the Thunder early, but if Dallas can withstand it at home  or just ...'
p9
aS'Nov 22, 2010 - Low Energy.  Stress.  Scoliosis ... The Montville Messenger welcomes news of interest concern- .... Suites, Montville Pharmacy, Montville Valero, Pegasus.'
p10
a.