(lp0
S'Nov 24, 2010 - ... has already infused a new sense of energy and hope, many said on Tuesday. ... continued faithfully to proclaim the good news here," he said in his sermon, ...'
p1
aS'Nov 24, 2010 - The average wait for food stamps in San Antonio has shrunk from four months to 22 days, thanks to a statewide pilot program that began in March and ...'
p2
aS'Nov 24, 2010 - San Antonio Express-News  ExpressNews.com  iPad app  eEdition  Search Our News Archive  Manage Your Subscription. Hearst Newspapers  Copyright ...'
p3
aS'Nov 24, 2010 - November 24, 2010 News & Opinion  News ..... Opponents of oil-by-rail shipments want the city to block a proposed Valero facility, but Valero says the city lacks ...'
p4
aS'Nov 24, 2010 - Valero Energy Corp to export ethanol for first time  40,000 in southeast ... US News. The Robot-Snake Charger Designed by Tesla Could Scare you Along with ...'
p5
aS'Nov 24, 2010 - Why Do Texas Energy Companies Hate California? (5) Comments | Posted ... also known as AB 32. The Texas oil companies, Valero and Tesoro, are footing the bill to the tune of millions of. .... Part of HuffPost News  HPMG News. Quantcast ...'
p6
aS'Nov 23, 2010 - Consumer Watchdog NEWS RELEASE Wednesday, Nov. 17, 2010 Contact: Judy Dugan, 213-280-0175; or Jamie Court, 310-392-0075 Washington, D.C. ...'
p7
aS'Nov 23, 2010 - Consumer Watchdog NEWS RELEASE Wednesday, Nov. 17, 2010 Contact: Judy Dugan, 213-280-0175; or Jamie Court, 310-392-0075 Washington, D.C. ...'
p8
aS'Nov 24, 2010 - They claimed that a range of new low-carbon energy sources was needed if Britain was to meet its renewable .... Earth News   Laura Roberts . In Climate Change. Fisherman Rene Valero, from the Urus ethnic group, is seen on his boat on ...'
p9
aS'Nov 24, 2010 - The Irish energy regulator exempted the proposed Shannon LNG project from ...... contract by Valero Refining Company for two flare gas recovery units at its Port ...'
p10
a.