(lp0
S'Nov 2, 2010 - The Tyee reports that Valero has ties to the tar sands in Alberta where ... Why would a Texas oil company care about California clean energy laws? ... Multisource political news, world news, and entertainment news analysis by Newsy.com.'
p1
aS'Nov 1, 2010 - Texas-based Valero Energy -- which owns gas stations across the country, like this one in Sacramento,Calif. -- has contributed about half of the roughly $10 ...'
p2
aS'Nov 2, 2010 - Valero and Tesoro, two Texas oil companies, provided the majority of funding for ... In 2006, Big Oil and other dirty energy companies spent $93 million to defeat a ... Texas nor oil companies in an op-ed featured in the San Jose Mercury News.'
p3
aS'Nov 1, 2010 - Proposition 23 is largely funded by Texas oil giants Valero and Tesoro and would, opponents of the measure say, essentially kill AB 32 ... Energy Manager News.'
p4
aS'Nov 2, 2010 - Valero and Tesoro are the two Texas oil companies that contributed the overwhelming majority of the funds for the dirty energy initiative (more than $4.5 million).'
p5
aS'Nov 3, 2010 - Profile | Matters | News & Insights ... Representing officer of energy company in investigation by the SEC into public disclosure issues about energy commodity trading ... Represented Valero Energy and its officers and directors in shareholder ...'
p6
aS'Nov 2, 2010 - Valero Energy Corporation. Previous. Corning,; Con Edison,; News & Record. Education ... News & Record. Employee Relations Manager  News & Record.'
p7
aS'Nov 2, 2010 - Mexicans seek news of loved ones after deadly explosion ... ExpressNews.com  iPad app  eEdition  Search Our News Archive  Manage Your Subscription.'
p8
aS"Nov 1, 2010 - Environmental news from California and beyond.  Previous Post ... California's climate law: What's at stake for Valero Energy Corp.? Prop. 23: Oil giants are ..."
p9
aS'Nov 2, 2010 - Home /; News /; Articles /; Man thrown onto el tracks in attempted robbery ... of Valero Gas, 100 Chicago Ave. in Oak Park, got out and started punching him. ... 20s tried to steal $280 worth of Red Bull and Monster energy drinks the afternoon of ...'
p10
a.