(lp0
S'Nov 30, 2010 - Castro and his wife, Erica, will serve as co-chairs for the concert, along with retired Valero Energy Corp. President Ed Benninger and his wife, Nelda. Proceeds ...'
p1
aS'Nov 30, 2010 - Attend core competency seminar by Valero Energy Corporation in Aruba. Valero Core Competencies: train the trainer in Aruba. Promises; promises in ... News ...'
p2
aS"Nov 29, 2010 - Company response: Valero Energy deferred questions on the stimulus .... Sign up for the Center for Public Integrity's Watchdog email and get the news you want ..."
p3
aS"Nov 29, 2010 - news. Read the latest from NRDC's Media Center. -Advocacy, publications ... Texas-based oil companies Valero and Tesoro emerged as the primary funders."
p4
aS'Dec 1, 2010 - December 01, 2010 News & Opinion  Feature ..... Opponents of oil-by-rail shipments want the city to block a proposed Valero facility, but Valero says the city ...'
p5
aS"Nov 29, 2010 - To have others decide what will and what won't compromise your news-gathering methods? Would that not chill your ... Credit Valero Doval. Stuart Pilichowski"
p6
aS'Nov 29, 2010 - ... the chances of changing energy systems fast enough to limit global warming to less than 2C is "slim" and eventual temperature ... Earth News . In Climate Change. Fisherman Rene Valero, from the Urus ethnic group, is seen on his boat on ...'
p7
aS'Nov 29, 2010 - A well-known advocate of fighting climate change, the head of News ... He has led the way in California with limits on pollution and incentives for green energy.'
p8
aS'Nov 29, 2010 - ... Oil Martinez Refinery Tesoro Refinery Martinez Site Specific Valero Benicia Refinery Tesoro Refinery - Anacortes, ... Alcoa-Wenatchee Works INEOS LyondellBasell Houston Refinery Suncor Energy Commerce City Refinery ... Safety News.'
p9
aS'Nov 29, 2010 - Dallas Morning News, The McCarthy, Dennis William Dennis Willaim McCarthy, loving husband, adored father, doting grandparent and lifelong Catholic, went to ...'
p10
a.