(lp0
S'Nov 3, 2010 - A Valero refinery in Norco, Louisiana, is just one of the thousands of facilities in the United ... This story is part of a special series that explores energy issues. ... away some good news from the results of the November 3 electionmost notably, ...'
p1
aS'Nov 2, 2010 - The Tyee reports that Valero has ties to the tar sands in Alberta where ... Why would a Texas oil company care about California clean energy laws? ... Multisource political news, world news, and entertainment news analysis by Newsy.com.'
p2
aS'Nov 2, 2010 - Valero and Tesoro, two Texas oil companies, provided the majority of funding for ... In 2006, Big Oil and other dirty energy companies spent $93 million to defeat a ... Texas nor oil companies in an op-ed featured in the San Jose Mercury News.'
p3
aS'Nov 2, 2010 - Valero and Tesoro are the two Texas oil companies that contributed the overwhelming majority of the funds for the dirty energy initiative (more than $4.5 million).'
p4
aS'Nov 3, 2010 - Profile | Matters | News & Insights ... Representing officer of energy company in investigation by the SEC into public disclosure issues about energy commodity trading ... Represented Valero Energy and its officers and directors in shareholder ...'
p5
aS'Nov 2, 2010 - Mexicans seek news of loved ones after deadly explosion ... ExpressNews.com  iPad app  eEdition  Search Our News Archive  Manage Your Subscription.'
p6
aS'Nov 3, 2010 - San Antonio Express-News  ExpressNews.com  iPad app  eEdition  Search Our News Archive  Manage Your Subscription. Hearst Newspapers  Copyright ...'
p7
aS'Nov 3, 2010 - Environmental news from California and beyond ... for Wall Street over Main Street" and vowing to continue their efforts to "save jobs" and curb energy costs.'
p8
aS'Nov 2, 2010 - Home /; News /; Articles /; Man thrown onto el tracks in attempted robbery ... of Valero Gas, 100 Chicago Ave. in Oak Park, got out and started punching him. ... 20s tried to steal $280 worth of Red Bull and Monster energy drinks the afternoon of ...'
p9
aS"Nov 3, 2010 - In a round rebuke of energy interests who had tried to block California's landmark AB 32 ... included an array of wealthy out-of-state oil companies, ranging from Valero to Koch Industries. ... Posted in Environment, Incentives and Laws, News"
p10
a.