(lp0
S'Nov 9, 2010 - San Antonio Express-News  ExpressNews.com  iPad app  eEdition  Search Our News Archive  Manage Your Subscription. Hearst Newspapers  Copyright ...'
p1
aS'Nov 8, 2010 - King sat down with San Antonio Express-News staff for a Q&A. ... They spend so much emotional and mental energy worrying about who likes them and who ...'
p2
aS'Nov 8, 2010 - Highlights Work in Nuclear Energy, Science, Medicine, Technical Cooperation ...... JORGE VALERO ( Venezuela) said his country had benefited from technical cooperation and financial support from the IAEA .... News & Media Resources.'
p3
aS'Nov 8, 2010 - DOW JONES, A NEWS CORP COMPANY .... Congress gives them a hefty tax break, an argument that many other alternative energy projects are also making.'
p4
aS'Nov 7, 2010 - Director Valero P.O. Box 696000. San Antonio, TX 78269. Dear Ms. Guest: ... their website; check recent news articles  find something that clicks with you about ... Valero is on the leading edge of the energy industry and I am excited about the ...'
p5
aS'Nov 7, 2010 - via Dallas Morning News ... Dow Chemical, Chevron, Shell, BP and Valero  as well as the sorts of neighbors no one wants next door, ... as $100,000 representing energy companies, according to records with the Texas Ethics Commission.'
p6
aS'Nov 8, 2010 - CSPnet.com - Convenience Store News .... Other major debts include $2.2 million owed to Valero Marketing & Supply Co., St. Louis; $2.1 million owed to BP ...'
p7
aS'Nov 8, 2010 - The bad news is you are unsure where to begin looking for your dream job. ... Antonio including Tesoro Petroleum Corp., Valero Energy Corp., NuStar Energy, ...'
p8
aS'Nov 8, 2010 - ... Freeman, about a conspiracy to suppress a new source of low-cost energy. ... FFC Gerardo Valero considers the flaws within "Star Wars: Episode VII - The ...'
p9
aS'Nov 8, 2010 - Valero Energy Corp to export ethanol for first time  40,000 in southeast Michigan ... Cairn India Ltd. verified that its U. K. parent Cairn Energy PLC has sent a letter to ... US News. The Robot-Snake Charger Designed by Tesla Could Scare you ...'
p10
a.