(lp0
S"Dec 17, 2010 - Artists connect through paper in 'Crossovers'. By Steve Bennett / Express-News. Published 11:55 am, Friday, .... Latest News. Oprah, Mick Jagger among celebs ..."
p1
aS'Dec 17, 2010 - San Antonio Express-News  ExpressNews.com  iPad app  eEdition  Search Our News Archive  Manage Your Subscription. Hearst Newspapers  Copyright ...'
p2
aS'Dec 17, 2010 - San Antonio Express-News  ExpressNews.com  iPad app  eEdition  Search Our News Archive  Manage Your Subscription. Hearst Newspapers  Copyright ...'
p3
aS'Dec 17, 2010 - San Antonio Express-News  ExpressNews.com  iPad app  eEdition  Search Our News Archive  Manage Your Subscription. Hearst Newspapers  Copyright ...'
p4
aS'Dec 16, 2010 - In 1994 the river flooded but Texaco, Valero, and Exxon refused to cut off their lines and as a result ... Categories: Blog, Climate and Energy / Tags: Keystone xl.'
p5
aS'Dec 16, 2010 - Archive  Home / Top News / Special Reports ... PGA Tour: Top 10 players to watch at the Valero Texas Open  Australian report ... U.S. News  Energy Resources'
p6
aS'Dec 16, 2010 - Valero Energy Corp to export ethanol for first time  40,000 in southeast ... Confirming the news to the media was Al Jean, the executive producer of `The ...'
p7
aS'Dec 17, 2010 - Valero Energy Corp to export ethanol for first time  40,000 in southeast Michigan ... This is welcome news for the fans of the Hollywood couple who had been ...'
p8
aS'Dec 18, 2010 - News about us, News informing us, News by us ... record, the rejuvenation of the Clippers has been largely due to the high energy play of Gordon and Griffin.'
p9
aS"Dec 17, 2010 - Officials said the scheme would 'accelerate progress towards a clean-energy ... failed despite heavy financial backing by Texas oil companies (Valero and Tesoro) ... not delivering the emissions cuts promised, says Friends of the Earth. NEWS"
p10
a.