(lp0
S'Dec 13, 2010 - Services  Insights & News  Careers ... the attention of private investors and energy giant Valero, another Burns & McDonnell client, but also the U.S. Department ...'
p1
aS'Dec 13, 2010 - The Ford F-Series is the most popular truck in South Texas, and its Super Duty models happen to be the pickup favored by drug traffickers across the Rio Grande ...'
p2
aS'Dec 13, 2010 - San Antonio Express-News  ExpressNews.com  iPad app  eEdition  Search Our News Archive  Manage Your Subscription. Hearst Newspapers  Copyright ...'
p3
aS'Dec 13, 2010 - Top 5 Greentech Media Articles of 2010: Bloom Energy, 50 VC Startups, and More ... These were the news pieces most read by hundreds of thousands of our ... in Santa Clara, the governor lashed out at the companies -- particularly Valero, ...'
p4
aS'Dec 12, 2010 - Get reviews, hours, directions, coupons and more for Valero at 917 S Monroe Ave, Covington, VA. Search for other ... Valero Mart. Valero Energy Corporation.'
p5
aS"Dec 13, 2010 - http://www.proactiveinvestors.com.au/companies/news/29834/strike-energy-to- ..... Eagle Ford crude and condensates to Valero's Corpus Christi refinery went ..."
p6
aS'Dec 13, 2010 - The school will introduce Golden in a news conference Monday. ... "There\'s nobody with more energy, excitement, enthusiasm in this country than Coach Golden ...'
p7
aS"Dec 12, 2010 - breakthroughs in energy production, the. uSa is to ... according to xinhua news agency, and the closures .... Travis Capps, Valero's Vice President Energy and."
p8
aS'Dec 14, 2010 - Dellcrest Funeral Home in the News ... NEW YORK San Antonio-based Valero Energy Corp. said Tuesday it posted a third-quarter profit, reversing a loss in the ...'
p9
aS"Dec 13, 2010 - Golf Channel Valero Texas Open: Round 1 Golf Thu 2:45pm ET ..... Free agency news: I'm told Kings forward Quincy Acy is declining his option for next ... Still mostly an energy player, Acy showed more polish on his jumper this season."
p10
a.