(lp0
S"Dec 21, 2010 - Valero Energy Corp. has been receiving crude oil from the Eagle North Pipeline at ... according to the nation's Shana news service, which cited Oil Minister Bijan ..."
p1
aS'Dec 20, 2010 - According to Jonathan Hoopes, GreenHunter Energy president and chief ... a subsidiary of Valero Energy Corp. to develop a 135 MMgy renewable diesel facility ...'
p2
aS'Dec 21, 2010 - ... supply in 2000, represents 20 percent today and could grow to 50 percent by 2035, according to a March report by IHS-Cambridge Energy Research Associates.'
p3
aS"Dec 21, 2010 - Cary Clack's column appears on Sundays, Tuesdays and Thursdays. To leave a message, call 210-250-3486 or e-mail at cclack@express-news.net."
p4
aS'Dec 20, 2010 - KINDER MORGAN ENERGY PARTNERS, L.P.. $9,711,998,277. $670,655,011 ... NEWS AMERICA INCORPORATED ... VALERO ENERGY CORPORATION.'
p5
aS'Dec 21, 2010 - VALERO BENICIA REFINERY will be conducting a months-long project that makes this a common sight. ... in favor of installing new energy-efficient furnaces that further reduce the greenhouse gas produced by Valero, ... Filed Under: News ...'
p6
aS'Dec 21, 2010 - This system currently delivers crude oil to the BP Texas City and Valero Houston ... energy services to producers and consumers of natural gas, NGLs, crude oil, ...'
p7
aS"Dec 21, 2010 - Valero Energy downgraded to neutral from outperform at Credit Suisse .... Plus, read more personal finance news in today's pages, including why you might ..."
p8
aS'Dec 20, 2010 - Valero Energy Corporation (NYSE: VLO) is a Fortune 500 is an international manufacturer ... SWOT ANALYSIS ON News Corporation, Abhijeet S, Principles of ...'
p9
aS'Dec 20, 2010 - Department of Defense & Industry Daily News ... Its energy content is lower than F-76 type fuel, which means lower mileage efficiency; and it may have lower ...'
p10
a.