(lp0
S'Dec 23, 2010 - Other peers, including Valero Energy Corp., have followed in shutting down or ... the only female CEO of a Fortune 500 energy company, faces the challenge of ...'
p1
aS'Dec 22, 2010 - Iowa biorefinery online in 2016 - where will we re-form energy next? ... as Tesoro, Valero and Marathon announced they would not sell E15 ethanol at their gas ...'
p2
aS'Dec 23, 2010 - The Big Energy companies responsible for worst environmental disasters, fatalities, political missteps and ... Valero CEO Bill Klesse and Tesoro CEO Greg Goff'
p3
aS'Dec 23, 2010 - Gasoline itself is imported, as the U.S Energy Information Administration notes in its weekly public reports. .... Refiners who do not own any oil, Valero Energy Corp., for example, have a tough time ... Northeast Ohio commercial real estate news.'
p4
aS'Dec 22, 2010 - Pam Stewart, an artist and decorator who 20 years ago owned a catering and party-planning business in Dallas, and Brahim Ilahiane, who imports Oriental rugs ...'
p5
aS'Dec 23, 2010 - San Antonio Express-News  ExpressNews.com  iPad app  eEdition  Search Our News Archive  Manage Your Subscription. Hearst Newspapers  Copyright ...'
p6
aS"Dec 22, 2010 - The marquee promises cheap drinks and games, and that's pretty much what the North Side bar delivers, with an unexpected touch of big-screen glamour."
p7
aS'Dec 22, 2010 - December 22, 2010 News & Opinion  News .... Opponents of oil-by-rail shipments want the city to block a proposed Valero facility, but Valero says the city lacks ...'
p8
aS'Dec 22, 2010 - oil and gas news and contracts for contractors and engineers in the ... Talisman Energy Announces Strategic Partnership With Sasol in Montney Shale C$ 1,050 .... procurement and construction support lump sum contract by Valero Refining ...'
p9
aS'Dec 23, 2010 - EPA Awards $5 Million to Southern Alliance for Clean Energy under FY ..... Included in the total are penalties of $186,400 against Valero Refining-Texas L.P. in ...'
p10
a.