(lp0
S'Dec 20, 2010 - According to Jonathan Hoopes, GreenHunter Energy president and chief ... a subsidiary of Valero Energy Corp. to develop a 135 MMgy renewable diesel facility ...'
p1
aS'Dec 19, 2010 - a San Antonio Express-News investigation  including interviews with witnesses and experts and a review of police reports, medical studies and thousands of ...'
p2
aS'Dec 20, 2010 - KINDER MORGAN ENERGY PARTNERS, L.P.. $9,711,998,277. $670,655,011 ... NEWS AMERICA INCORPORATED ... VALERO ENERGY CORPORATION.'
p3
aS'Dec 20, 2010 - Valero Energy Corporation (NYSE: VLO) is a Fortune 500 is an international manufacturer ... SWOT ANALYSIS ON News Corporation, Abhijeet S, Principles of ...'
p4
aS'Dec 20, 2010 - Department of Defense & Industry Daily News ... Its energy content is lower than F-76 type fuel, which means lower mileage efficiency; and it may have lower ...'
p5
aS'Dec 20, 2010 - ... HSBC , Valero Energy , and Tesco -- transition from proprietary platforms. ... for your next sales call  trends, competitors, news, call prep questions, and more.'
p6
aS'Dec 20, 2010 - Valero Energy Corp to export ethanol for first time  40,000 in southeast ... US News. The Robot-Snake Charger Designed by Tesla Could Scare you Along with ...'
p7
aS"Dec 19, 2010 - Strong said his bill rose despite that (sic) fact he installed an energy-efficient pump for his swimming pool. He also .... http://www.bakersfieldnow.com/news/63581287.html?tab=video 7. Wounded by ... (Ed: didn't mention Valero, either.) Reply ..."
p8
aS"Dec 20, 2010 - Importers of energy goods into the European Union already have to provide detailed .... markets rather than rely on the spot market.22 Valero is the largest exporter of ..... 19 Inside Climate News, What's Behind the Confusion Over Oil Sands ..."
p9
aS'Dec 20, 2010 - Examples of organizational purposeful identities from around the world.'
p10
a.