(lp0
S'Dec 27, 2010 - About: Valero Energy Corporation (VLO) ... 1.25% this morning (8am) as the Shanghai fell 2% and the Hang Seng dropped 0.3% on news that China was raising ...'
p1
aS'Dec 27, 2010 - 1, said Ken Medlock, an energy fellow at the James A. Baker III Institute for Public ... San Antonio-based spokesman for Valero Energy Corp., the largest U.S. refiner. .... Kuwaiti news agency reported, without giving a specific time for the restart.'
p2
aS'Dec 27, 2010 - ... catches fire but no one is hurt. By Sarah Mills smills@express-news.net ... Photo: John Davenport/Express-News. Image 1of/6. Caption. Close. Image 1 of 6.'
p3
aS'Dec 28, 2010 - The news media frequently calls on Brookshire for expert commentary on a variety of ... Brookshire Advisory and Research, Inc. is a consultancy focused on energy economics ... Valero Reports Profit, Seeks European Refineries (Update4).'
p4
aS'Dec 29, 2010 - Oakland, Berkeley, And East Bay News, Events, Restaurants, Music, & Arts ... million grant from the US Department of Energy to study domestic biofuels in late 2009 .... Opponents of oil-by-rail shipments want the city to block a proposed Valero ...'
p5
aS"Dec 29, 2010 - And, as if the Earth hadn't enough bad news in this dreadful Year... ... Opponents of oil-by-rail shipments want the city to block a proposed Valero facility, but ..."
p6
aS'Dec 29, 2010 - Tags: News, Arnold Schwarzenegger, drug addicts, methadone, Drug Medi-Cal, ... Opponents of oil-by-rail shipments want the city to block a proposed Valero facility, but ... Everything you need to know about saving water, energy efficiency, ...'
p7
aS'Dec 29, 2010 - December 29, 2010 News & Opinion  News .... Opponents of oil-by-rail shipments want the city to block a proposed Valero facility, but Valero says the city lacks ...'
p8
aS'Dec 28, 2010 - ... Corp., Marathon Oil Co, Koch Industries Inc., Valero Energy Corp., and Japan National Oil Co. ... Get All the Oil and Gas Journal News Delivered to Your Inbox.'
p9
aS"Dec 28, 2010 - They can range in size from small units to giant complexes like Valero's East and West Plants. Under the state's ... Valero Energy spent 40% of its $2.4 million in its home state, compared to ConocoPhillips 36% of its PAC money. ..... News links."
p10
a.