(lp0
S'Dec 2, 2010 - This would be the third refinery purchase for Parsippany, New Jersey-based PBF, which agreed to buy two plants from Valero Energy Corp. this year.'
p1
aS"Dec 2, 2010 - Sunoco also said it may delay the spin-off its Suncoke Energy unit, citing pending litigation. ... PBF purchased a shuttered Valero refinery in Delaware City and a plant in .... Thomson Reuters is the world's largest international multimedia news ..."
p2
aS'Dec 2, 2010 - Keynote Breakfast Speaker: Joseph W. Gorder Chairman, President and Chief Executive Officer Valero Energy Corporation ...'
p3
aS'Dec 2, 2010 - We are recognized as a leading firm in the energy, technology and life sciences sectors. ... News Release .... Valero Energy Corporation entered into a drop-down transaction with Valero Energy Partners LP for total consideration of $240 ...'
p4
aS'Dec 2, 2010 - Simona Davis, the widow of the victim, struggles to explain her feelings after Seaton. Photo: TOM REEL/treel@express-news.net. Image 1of/2. Caption. Close.'
p5
aS'Dec 1, 2010 - Restaurateur hungry for success. By Ana G. Ley - Express-News .... 1 Key Cenovus Energy Stock Number You Must Know ...'
p6
aS'Dec 2, 2010 - San Antonio Express-News  ExpressNews.com  iPad app  eEdition  Search Our News Archive  Manage Your Subscription. Hearst Newspapers  Copyright ...'
p7
aS"Dec 2, 2010 - Crews are putting the final touches on nearly 1000 vendor spaces that fill a new 300-acre flea market that will open on the city's Southwest Side. Shoppers will ..."
p8
aS"Dec 2, 2010 - News Clipping. Energy Co's Pay Regulators' Way ... Energy Firms Help Pay For State Regulators' Far-Flung Trips By Tom Knudson, SACRAMENTO BEE July ..."
p9
aS"Dec 1, 2010 - Today's Real Estate News The language of closing Demand for purchase loans ... Lab Creates a Net-Zero-Energy Bldg. Via Innovative Design  Refiner Valero ..."
p10
a.