(lp0
S"Dec 31, 2010 - In early 2010 Vecenergy, the Vecellio Group's energy division, completed the first year of operation at its 1.35-million ... The facility is operated under an exclusive agreement with Valero Energy Corporation. ... Filed Under: News & Photos."
p1
aS'Dec 31, 2010 - Valero Energy Corporation to Participate in the Credit Suisse Energy Summit ... A news release will be issued over Business Wire. Reporters can listen to a ...'
p2
aS'Dec 30, 2010 - ... State closed out a sensational season with a dominating performance in the Valero Alamo Bowl. ... Photo: KIN MAN HUI, SAN ANTONIO EXPRESS-NEWS.'
p3
aS'Dec 30, 2010 - Awakened the next mornings by the music of Vicente Fernandez and Javier Solis  favorites of the Acevedo family patriarch and a sure sign that the menudo ...'
p4
aS"Dec 30, 2010 - Published on December 30, 2010 as News in the Local Stories section of the ... in hiding because she can feel all of your negative energy magnetizing toward her. .... Local activists ask elected officials to block Valero's plan to ship oil by train."
p5
aS'Dec 31, 2010 - Most of these news stories could have been prevented with an effective security ...... Both legislators are senior members of the House Energy and Commerce ... and US Secret Service agents have reportedly visited several Valero gas stations ...'
p6
aS"Dec 30, 2010 - Brown Lauds Passage of the Nation's First Energy Storage Bill .... Attorney General Brown Forges Agreement To Stop Valero from Selling Tobacco to Minors."
p7
aS'Dec 30, 2010 - Houston Lighting and Power Company; Metro Waterworks, Inc. Mkm Valve Division; Reliant Energy; Richmond Foundry; Standard Oil; Wa Parish Generating ...'
p8
aS'Dec 31, 2010 - Valero Energy Corp to export ethanol for first time  40,000 in southeast ... US News. The Robot-Snake Charger Designed by Tesla Could Scare you Along with ...'
p9
aS'Dec 30, 2010 - Vikings players had Wednesday off, and interim coach Leslie Frazier said he "never put a lot of energy or focus" on the situation. "I can\'t really speak for Brett and ...'
p10
a.