(lp0
S"Dec 8, 2010 - Reporting to her will be Travis Capps, vice president, energy and gases; Eric Honeyman, vice president, process safety management and reliability; and Tony Jones, senior vice president, project execution. ... Reporting to Gorder will be Gary Arthur, president of Valero's retail ..."
p1
aS'Dec 8, 2010 - Burleson Cooke L.L.P., a Houston-based energy law firm, has hired Michael ... San Antonio already is home to major oil refiners Valero Energy Corp. and ...'
p2
aS'Dec 9, 2010 - BP PLC ADS News BP Refinery Status: Valero To Restart Idled Aruba Refinery New ... Valero Delaware 210.0 PBF Energy has closed Apr deal to buy plant.'
p3
aS'Dec 8, 2010 - Events and News ... Prior to ordination in the Episcopal Church, he was a systems analyst for Valero Energy Corporation in San Antonio, Texas (1981-1987) and ...'
p4
aS'Dec 8, 2010 - December 08, 2010 News & Opinion  Legalization Nation ..... Opponents of oil-by-rail shipments want the city to block a proposed Valero facility, but Valero ...'
p5
aS'Dec 8, 2010 - Oakland, Berkeley, And East Bay News, Events, Restaurants, Music, & Arts. Facebook ... The project is the first in a wave of utility-scale solar energy plants being ...'
p6
aS"Dec 9, 2010 - He's deputy director of renewable energy at the California Energy Commission, ...... Local activists ask elected officials to block Valero's plan to ship oil by train."
p7
aS'Dec 9, 2010 - ... whether through the grossly unapologetic Koch Industries or ExxonMobil, or more slyly by the likes of Chevron or Duke Energy. ... POLLUTERWATCH News ...'
p8
aS'Dec 8, 2010 - URS Energy and Construction, Inc. Princeton, N.J.. Mr. Terry T. ... Industry news. 21 2011 Legislative ..... Valero Energy Corporation. Napa-Solano Counties ...'
p9
aS"Dec 9, 2010 - Find a Job  News Room  Our Clients ... Drinking NERD The Focus and Energy Beverage will help you to focus and retain ... In 2008 NERD's distribution expanded into Texas to HEB, Valero, SYSCO Food Service, and Dr. Pepper distributors."
p10
a.