(lp0
S'Jan 13, 2010 - Join LinkedIn to get the latest news, insights, and opportunities from over 3 ... BP Technology Ventures, Soros Fund Management LLC, and Valero Energy ...'
p1
aS'Jan 13, 2010 - In S.A., the police really do pack heat. Cops beat team of firefighters in jalapeo eating. Eva Ruth Moravec/emoravec@express-news.net ...'
p2
aS'Jan 13, 2010 - more . Jobs 1 to 10 of 53. Upload your resume - Let employers find you. Technical Trainer. Valero Energy Corporation 3.8371 reviews - Meraux, LA ...'
p3
aS'Jan 13, 2010 - January 13, 2010 News & Opinion  Full Disclosure .... shipments want the city to block a proposed Valero facility, but Valero says the city lacks this power.'
p4
aS"Jan 13, 2010 - ESPN.com news services. Email ... Lane and Monte Kiffin and Orgeron will hold a news conference on Wednesday at 7 p.m. ET in the ... He's got a lot of energy."
p5
aS"Jan 13, 2010 - Gary D'Amato offers news and insights on Wisconsin golf, new technology, courses ... Weather will be a factor at the Valero Texas Open at TPC San Antonio."
p6
aS'Jan 13, 2010 - Valero Energy Corp to export ethanol for first time  40,000 in southeast ... US News. The Robot-Snake Charger Designed by Tesla Could Scare you Along with ...'
p7
aS'Jan 12, 2010 - I had been working on The News-Gazette in Champaign-Urbana since 1958, and .... FFC Gerardo Valero considers the flaws within "Star Wars: Episode VII - The ..... their minds... because real life takes time, energy, our attention and focus.'
p8
aS'Jan 13, 2010 - The storage trade is profitable as long as the spread between energy contracts exceeds ship rental, ... For investors looking to profit from the cold snap, as well as longer term, Moors favors Valero Energy Corp. ... News & Related Story Links:.'
p9
aS'Jan 13, 2010 - The greatest beneficiary of the current system is probably Valero Energy ... Pingback: offshore banking  Latest offshore banking news  The Truth About ...'
p10
a.