(lp0
S'Jan 18, 2010 - BAD ECONOMIC NEWS-Valero Energy Corp. reported to be trying to sell their Paulsboro Refinery. Valero employs 450 at its Paulsboro refinery.'
p1
aS'Jan 19, 2010 - Homepage >; News Archives >; Article ... Valero Oil Company, Oklahoma, sent care packages containing sausages, crackers and cheeses. Our FRGs from ...'
p2
aS'Jan 18, 2010 - Usa Energy Llc. Love It Hate It. 0 0. 3548 Us Highway 22, Somerville, ... Petes Whitehouse Valero. Love It Hate It. 0 0. 3584 Us Highway 22, ...'
p3
aS'Jan 18, 2010 - Usa Energy Llc. Love It Hate It. 0 0. 3548 Us Highway 22, Somerville, ... Petes Whitehouse Valero. Love It Hate It. 0 0. 3584 Us Highway 22, ...'
p4
aS'Jan 18, 2010 - Edwin Valero, 26-0 with 26 knockouts, hovers on the edge of the big time, ... More likely this is simply a sub-plot in the no-news story "fighter signs with new ...'
p5
aS'Jan 19, 2010 - The San Antonio Missions are a minor league baseball team based in San Antonio, Texas. The team, which plays in the Texas League, is the Double-A affiliate ...'
p6
aS'Jan 19, 2010 - And in an anti-capitalism speech at the same forum, Ambassador Jirge Valero, the current ..... The world organization abruptly backed out of the deal after a Fox News ... The challenges are great, but I believe that with the new energy, the new ...'
p7
aS'Jan 19, 2010 - News: Revitalizing The Mental Militia! Poll and Discussion! Home  Help ... All of this information is available from the U.S. Department of Energy and each ...'
p8
aS"Jan 18, 2010 - ... Shaq: 'James Harden has no leadership skills'  PGA golf betting odds for players to win the 2016 Valero Texas Open  10 Best Restaurants in Sunnyvale."
p9
aS'Jan 18, 2010 - ... thru 2014 (Photos)  List of top ranked PGA golfers in the playing field for 2016 Valero Texas Open  Lakers Rumors: Scott Brooks interested head coaching job ...'
p10
a.