(lp0
S'Jan 20, 2010 - DOW JONES, A NEWS CORP COMPANY ... companies in the worlds of diversified media, news, education, and information services. .... Valero Energy Corp.'
p1
aS"Jan 20, 2010 - Leading U.S. refiner Valero Energy Corp (VLO. ... N); Benicia,owned by Valero; and Martinez, where one is owned by Shell andthe other by Tesoro Corp (TSO. ... Thomson Reuters is the world's largest international multimedia news agency, ..."
p2
aS'Jan 20, 2010 - mySouTex.com is your website for breaking news, classifieds, and businesses in South Texas.'
p3
aS'Jan 20, 2010 - Valero Energy Corporation ... Valero St Charles Refinery ... With the latest News & Advice from Manta, you can stay ahead of the trends and challenges affecting ...'
p4
aS'Jan 20, 2010 - January 20, 2010 News & Opinion  News .... Opponents of oil-by-rail shipments want the city to block a proposed Valero facility, but Valero says the city lacks ...'
p5
aS'Jan 20, 2010 - Contact Us. News and Info .... VLO US, VALERO ENERGY CORP, UNITED STATES, 2.34. KMI US ... NBL US, NOBLE ENERGY INC, UNITED STATES, 0.91.'
p6
aS'Jan 19, 2010 - Homepage >; News Archives >; Article ... Valero Oil Company, Oklahoma, sent care packages containing sausages, crackers and cheeses. Our FRGs from ...'
p7
aS'Jan 20, 2010 - Methodologies for estimating shipping emissions and energy consumption: A comparative ... Juan Moreno-Gutirrez , Ftima Calderay , Nieves Saborido , Maria Boile , Rafael Rodrguez Valero , Vanesa Durn-Grados .... C&EN Online News.'
p8
aS'Jan 20, 2010 - here we must harness the great energy of. Business Illini to build a cleaner, healthier future. For more information, visit: http://go.illinois.edu/platinum.'
p9
aS'Jan 19, 2010 - News: Revitalizing The Mental Militia! Poll and Discussion! Home  Help ... All of this information is available from the U.S. Department of Energy and each ...'
p10
a.