(lp0
S"Jan 22, 2010 - Valero Energy Corp (VLO. ... Thomson Reuters is the world's largest international multimedia news agency, providing investing news, world news, business ..."
p1
aS"Jan 22, 2010 - Oil baron O'Malley eyes Valero plant for U.S. return. NEW YORK | By ... may be vying to do it again. An investment group led by O'Malley is in talks with Valero Energy Corp (VLO. ... Our top news photography this week. Slideshow  Separatist ..."
p2
aS'Jan 22, 2010 - The first petroleum client launching a new image using SilkTek Vision is Ultramar, A Division of Texas based Valero Energy. The Ultramar design by Antista ...'
p3
aS'Jan 22, 2010 - San Antonio, Texas-based Valero Energy Corp. fell of the list this year, from No. 93. ( Click here to view previous CSP Daily News coverage of the annual list.)'
p4
aS'Jan 23, 2010 - Experience in power generation and renewable energy systems. Minimum of 15 years of relevant ... Ethanol Plant  Valero Energy Corporation - 371 reviews - Mount Vernon, IN .... Sponsored by Job News. Nuclear Operations.'
p5
aS'Jan 21, 2010 - Get All the Oil and Gas Journal News Delivered to Your Inbox ... Manitok Energy Inc., Calgary, has completed the purchase of natural gas processing and ...'
p6
aS"Jan 21, 2010 - Mark Holan/Sun NewsMike Byrne is facing some tough decisions in the city's ... of business owners, spearheaded by Doug Schull of the Valero gas station, who ..."
p7
aS'Jan 22, 2010 - Biography. Brian Conley grew up in Dunbar, WV. He obtained his B.S. degree in Chemistry in 2004 from Elon Univeristy in North Carolina, where he conducted ...'
p8
aS'Jan 21, 2010 - FFC Gerardo Valero considers the flaws within "Star Wars: Episode VII - The .... Really I think to a degree that the "Nerd Internet" (Aint it Cool News, CHUD, etc.) .... the strange energy produced when wildly different worlds collide - pop music ...'
p9
aS'Jan 22, 2010 - Aaaaaaaaaaanda, la cosa cambia..., Pictoline, Deadpool, Hyperloop UPV Team, ElectronPerdido.com, Maker News Europe, OTTOM Co., Airbnb  ...'
p10
a.