(lp0
S"Jan 24, 2010 - DOW JONES, A NEWS CORP COMPANY .... Video courtesy of Fox News. ... Arabian Oil Co; Total SA's 174,000 barrels a day refinery, and Valero Energy Corp."
p1
aS'Jan 25, 2010 - Exciting news for Balcones Heights. Madeline ... In addition to the medical center, major employment centers such as USAA, Valero Energy, and scores of other ...'
p2
aS"Jan 24, 2010 - A Valero Energy Corp spokesman said the company's 310,000 bpd Port Arthur ... The Valero refinery is the furthest south of the four supplied by the waterway. ... Thomson Reuters is the world's largest international multimedia news agency, ..."
p3
aS'Jan 24, 2010 - Valero Energy Corp to export ethanol for first time  40,000 in southeast ... Indian Bollywood Super-star Amir Khan, currently in news for rocking success of 3 ...'
p4
aS'Jan 25, 2010 - Valero Energy Corp to export ethanol for first time  40,000 in southeast ... US News. The Robot-Snake Charger Designed by Tesla Could Scare you Along with ...'
p5
aS'Jan 25, 2010 - Valero Energy Corp to export ethanol for first time  40,000 in southeast ... US News. The Robot-Snake Charger Designed by Tesla Could Scare you Along with ...'
p6
aS'Jan 25, 2010 - From Supermarket news : If you have ever shopped in a Wegmans you would ... Valero Energy, a San Antonio-based fuel station and C-store operator, also ...'
p7
aS'Jan 24, 2010 - World News  ... Fisherman Rene Valero, from the Urus ethnic group, is seen on his boat on .... To get warming you also have to add an extra photon of energy to the GHG, even though .... BBC - Science and Environment (not front page news?)'
p8
aS'Jan 24, 2010 - She is a tiny woman, but robust and filled with energy. She was asked if, ... FFC Gerardo Valero considers the flaws within "Star Wars: Episode VII - The Force Awakens." ..... Fox News - Fair as a chicken journalist, balanced as a fox. Excellent ...'
p9
aS'Jan 25, 2010 - Valero Energy Station Gasoline Service Stations in Kinder, LA. Country 1 Stop Gasoline Service Stations in Longville, LA. Merryville Fuels LLC Gasoline Service ...'
p10
a.