(lp0
S'Jan 27, 2010 - Noria news wires 2016-04-15 ..... 2013-08-15; Parman Energy Expands into Memphis ..... 2010-09-29; PBF to Acquire Valero Energy Refinery in Paulsboro, N.J.'
p1
aS'Jan 26, 2010 - ... tankers to make their way to the four major oil refineries the channel serves: Exxon, Motiva, Valero and Total. ... in by pipe, said Peter Beutel, an energy analyst for the New Canaan-based firm Cameron Hanover. ... Get News Sent to You.'
p2
aS'Jan 26, 2010 - Valero Energy Corp to export ethanol for first time  40,000 in southeast ... US News. The Robot-Snake Charger Designed by Tesla Could Scare you Along with ...'
p3
aS'Jan 25, 2010 - Valero Energy Corp to export ethanol for first time  40,000 in southeast ... US News. The Robot-Snake Charger Designed by Tesla Could Scare you Along with ...'
p4
aS'Jan 25, 2010 - Valero Energy Corp to export ethanol for first time  40,000 in southeast ... US News. The Robot-Snake Charger Designed by Tesla Could Scare you Along with ...'
p5
aS'Jan 26, 2010 - Valero Energy Corp to export ethanol for first time  40,000 in southeast ... US News. The Robot-Snake Charger Designed by Tesla Could Scare you Along with ...'
p6
aS'Jan 25, 2010 - From Supermarket news : If you have ever shopped in a Wegmans you would ... Valero Energy, a San Antonio-based fuel station and C-store operator, also ...'
p7
aS"Jan 26, 2010 - Featuring: Guest speakers from Valero Energy Company ... Energy - Aspen HYSYS Family.  Aspen ... news and what's ahead in product development."
p8
aS"Jan 26, 2010 - ... Conservative Myths About Renewable Energy  For <em>ABC World News Tonight</em>, Trump Not .... in a Catholic Church dating to the late 16th century, Mission San Antonio de Valero. ... I'm waiting on the announcement on the news"
p9
aS'Jan 25, 2010 - Valero Energy Station Gasoline Service Stations in Kinder, LA. Country 1 Stop Gasoline Service Stations in Longville, LA. Merryville Fuels LLC Gasoline Service ...'
p10
a.