(lp0
S'Jan 27, 2010 - Valero Energy Corp. News VLO Valero: Aruba Refinery Would Not Be Profitable Running New York Stock Exchange Announcements, Company Reports ...'
p1
aS'Jan 27, 2010 - DOW JONES, A NEWS CORP COMPANY. News Corp is a .... Valero Energy is negotiating to sell this Delaware refinery, which it bought in 2005 and ENLARGE.'
p2
aS'Jan 27, 2010 - Noria news wires 2016-04-15 ..... 2013-08-15; Parman Energy Expands into Memphis ..... 2010-09-29; PBF to Acquire Valero Energy Refinery in Paulsboro, N.J.'
p3
aS'Jan 27, 2010 - I did a Google News search on the words tritium leak Vermont that produced .... Shell, Chevron, ExxonMobil, Valero, Peabody Coal, Chesapeake Energy, etc.'
p4
aS'Jan 26, 2010 - ... tankers to make their way to the four major oil refineries the channel serves: Exxon, Motiva, Valero and Total. ... in by pipe, said Peter Beutel, an energy analyst for the New Canaan-based firm Cameron Hanover. ... Get News Sent to You.'
p5
aS'Jan 27, 2010 - All the world loves a bringer of good news, so energy guru Daniel Yergin should by ... HOUSTON (Reuters) - ConocoPhillips and Valero Energy on Wednesday ...'
p6
aS'Jan 27, 2010 - Visit the SAP News Center  ..... On December 17, SAP announced that Valero Energy Corporation signed a global enterprise agreement with SAP that will ...'
p7
aS'Jan 27, 2010 - See In re Valero Energy Corporation, 968 S.W.2d 916, 916-17 (Tex.1998) (instructing that when a court of appeals is confronted with an interlocutory appeal and ...'
p8
aS'Jan 26, 2010 - Valero Energy Corp to export ethanol for first time  40,000 in southeast ... US News. The Robot-Snake Charger Designed by Tesla Could Scare you Along with ...'
p9
aS'Jan 27, 2010 - Free Space, Earth, Energy And Military Newsletters - Delivered Daily .... Valero Renewables To Purchase Three Ethanol Plants .. Making Biogas And Electricity ...'
p10
a.