(lp0
S'Jan 27, 2010 - Valero Energy Corp. News VLO Valero: Aruba Refinery Would Not Be Profitable Running New York Stock Exchange Announcements, Company Reports ...'
p1
aS'Jan 27, 2010 - DOW JONES, A NEWS CORP COMPANY. News Corp is a .... Valero Energy is negotiating to sell this Delaware refinery, which it bought in 2005 and ENLARGE.'
p2
aS'Jan 28, 2010 - Aircraft; Belinda Malin of Valero Energy; Danielle Mirocha of CNH America LLC ... e-mail list, submit the online form at www.nbaa.org/news/pr/subscribe.'
p3
aS'Jan 28, 2010 - Chairman John Klesse of Valero Energy in San Antonio, Tx., said he would be happy to put in a bid to buy more ethanol plants, not surprising in light of the $165 ...'
p4
aS'Jan 27, 2010 - I did a Google News search on the words tritium leak Vermont that produced .... Shell, Chevron, ExxonMobil, Valero, Peabody Coal, Chesapeake Energy, etc.'
p5
aS"Jan 29, 2010 - ... Energy Information Administration (EIA), which was reported by ICIS news yesterday ... Did anyone on Wall Street see Valero's earnings yesterday, continued ..."
p6
aS'Jan 27, 2010 - All the world loves a bringer of good news, so energy guru Daniel Yergin should by ... HOUSTON (Reuters) - ConocoPhillips and Valero Energy on Wednesday ...'
p7
aS'Jan 28, 2010 - "The idea of deliberately manipulating Earth\'s energy balance to offset ... News  ... Fisherman Rene Valero, from the Urus ethnic group, is seen on his boat on ...'
p8
aS'Jan 27, 2010 - Visit the SAP News Center  ..... On December 17, SAP announced that Valero Energy Corporation signed a global enterprise agreement with SAP that will ...'
p9
aS'Jan 27, 2010 - See In re Valero Energy Corporation, 968 S.W.2d 916, 916-17 (Tex.1998) (instructing that when a court of appeals is confronted with an interlocutory appeal and ...'
p10
a.