(lp0
S'Jan 28, 2010 - Aircraft; Belinda Malin of Valero Energy; Danielle Mirocha of CNH America LLC ... e-mail list, submit the online form at www.nbaa.org/news/pr/subscribe.'
p1
aS'Jan 28, 2010 - Chairman John Klesse of Valero Energy in San Antonio, Tx., said he would be happy to put in a bid to buy more ethanol plants, not surprising in light of the $165 ...'
p2
aS"Jan 29, 2010 - ... Energy Information Administration (EIA), which was reported by ICIS news yesterday ... Did anyone on Wall Street see Valero's earnings yesterday, continued ..."
p3
aS'Jan 29, 2010 - News: March 10, 2014. FormaShape Canopy sets Village Variety apart - 100% more ... Ultramar, a wholly owned division of Texas based Valero Energy, is the ...'
p4
aS'Jan 29, 2010 - ... by Merry Lindsey, UT Health Science Center; "E-Shopping: How Does It Work?" presented by Sarah Murillo, Valero Energy Corp. ... Connect with UTSA News ...'
p5
aS"Jan 28, 2010 - ... on the day's environmental news for the website, and participate in pushing this. ... Valero Energy Corporation - 3.8372 reviews - Norco, LA ..."
p6
aS'Jan 29, 2010 - ENER ENERGY CONVERSION DEVICES. EOG EOG .... VLO VALERO ENERGY CORP. VNO VORNADO REALTY .... NWS NEWS CORP-CLASS B. NYB NEW ...'
p7
aS'Jan 28, 2010 - "The idea of deliberately manipulating Earth\'s energy balance to offset ... News  ... Fisherman Rene Valero, from the Urus ethnic group, is seen on his boat on ...'
p8
aS'Jan 29, 2010 - ... $29M from Battery Ventures, Soros Fund Management, Venrock, BP, and Valero. ... JM: The good news about our organism is that it is feedstock agnostic. ... is much maligned due to energy density issues and infrastructure incompatibilities.'
p9
aS'Jan 30, 2010 - Find 3 listings related to Atmos Energy in Harvey on YP.com. See reviews, photos, directions, phone numbers and more for Atmos Energy locations in ... Valero Energy Corp ... Site Directory ArticlesNewsFind a BusinessWhite PagesMobile ...'
p10
a.