(lp0
S"Jan 6, 2010 - Archive for the 'DSAOC Center News' Category .... to the clinic campaign: OC Children & Families Commission, Ingram Micro Corporation, Valero Energy, Team ..."
p1
aS'Jan 6, 2010 - Posted in All Posts, DSAOC Center News, Healthcare | Comments Off ... Children & Families Commission, Ingram Micro Corporation, Valero Energy, Team Up ...'
p2
aS'Jan 8, 2010 - Join LinkedIn to get the latest news, insights, and opportunities from over 3 million ... Nationwide, General Motors, LaBatt, Kodak, Valero Energy and Xerox.'
p3
aS"Jan 7, 2010 - Ultramar is a subsidiary of Valero Energy Corporation - BGGPK5 from Alamy's library of millions of high resolution stock photos, illustrations and vectors."
p4
aS'Jan 6, 2010 - Valero Energy Corp to export ethanol for first time  40,000 in southeast Michigan ... She has passed away", read Tila\'s first tweet after the news was made public.'
p5
aS'Jan 6, 2010 - Valero Energy Corp to export ethanol for first time  40,000 in southeast ... US News. The Robot-Snake Charger Designed by Tesla Could Scare you Along with ...'
p6
aS'Jan 7, 2010 - Valero Energy Corp to export ethanol for first time  40,000 in southeast ... US News. The Robot-Snake Charger Designed by Tesla Could Scare you Along with ...'
p7
aS'Jan 6, 2010 - Valero Energy Corp to export ethanol for first time  40,000 in southeast ... US News. The Robot-Snake Charger Designed by Tesla Could Scare you Along with ...'
p8
aS'Jan 6, 2010 - Archive  Home / Top News / World News .... PGA Tour: Top 10 players to watch at the Valero Texas Open. Videos. Photos ... U.S. News  Energy Resources'
p9
aS"Jan 7, 2010 - In fact, due to a special consideration in the 2007 Energy Independence and .... and the oil industry's 800-pound gorilla, Valero Energy Corp., which can no longer ... took out the trashthat's public relations lingo for releasing bad news on a ..."
p10
a.