(lp0
S'Jan 8, 2010 - Since 2006, more than three dozen alternative energy projects -- ethanol, biodiesel, wood pellets, ... American Process Inc., whose Thomaston venture is bankrolled by energy giant Valero Energy, expects to be different. .... Local News ...'
p1
aS'Jan 8, 2010 - Join LinkedIn to get the latest news, insights, and opportunities from over 3 million ... Nationwide, General Motors, LaBatt, Kodak, Valero Energy and Xerox.'
p2
aS'Jan 8, 2010 - Get information, directions, products, services, phone numbers, and reviews on Valero Marketing & Supply Company in Burlington, VT. Discover more Petroleum ...'
p3
aS"Jan 7, 2010 - Ultramar is a subsidiary of Valero Energy Corporation - BGGPK5 from Alamy's library of millions of high resolution stock photos, illustrations and vectors."
p4
aS'Jan 8, 2010 - Valero Energy Corp to export ethanol for first time  40,000 in southeast ... US News. The Robot-Snake Charger Designed by Tesla Could Scare you Along with ...'
p5
aS'Jan 8, 2010 - Valero Energy Corp to export ethanol for first time  40,000 in southeast Michigan ... colours were "white," "black" and "beige", reports The New York Daily News.'
p6
aS'Jan 7, 2010 - Valero Energy Corp to export ethanol for first time  40,000 in southeast ... US News. The Robot-Snake Charger Designed by Tesla Could Scare you Along with ...'
p7
aS'Jan 8, 2010 - Late last year, Valero Energy Corp. closed a 210,000-barrel-per-day refinery in Delaware City, Del., ... News. Trump confuses 9/11 with convenience store chain ...'
p8
aS"Jan 7, 2010 - In fact, due to a special consideration in the 2007 Energy Independence and .... and the oil industry's 800-pound gorilla, Valero Energy Corp., which can no longer ... took out the trashthat's public relations lingo for releasing bad news on a ..."
p9
aS"Jan 7, 2010 - The Energy Independence and Security Act of 2007 (EISA) mandated the use of ..... and the oil industry's 800-pound gorilla, Valero Energy Corp., which can no ... took out the trashthat's public relations lingo for releasing bad news on a ..."
p10
a.