(lp0
S'Feb 10, 2010 - February 10, 2010 News & Opinion  News ..... Opponents of oil-by-rail shipments want the city to block a proposed Valero facility, but Valero says the city lacks ...'
p1
aS'Feb 10, 2010 - ... that it would not file charges against a former spokesman for Jerry Brown, the news... ... Opponents of oil-by-rail shipments want the city to block a proposed Valero facility, ... Everything you need to know about saving water, energy efficiency, ...'
p2
aS'Feb 9, 2010 - CORPORATE OVERVIEW. Energy Transfer is a Texas-based company that began in 1995 as a small intrastate natural gas pipeline operator and is now one of ...'
p3
aS'Feb 9, 2010 - Valero Energy Corp to export ethanol for first time  40,000 in southeast ... US News. The Robot-Snake Charger Designed by Tesla Could Scare you Along with ...'
p4
aS'Feb 10, 2010 - Coffee Kiss ceramics | Products & Tech News | February 12, 2010; Coffee ... Sheril Kirshenbaum is a research scientist with the Webber Energy Group at the ...'
p5
aS"Feb 9, 2010 - Dale Earnhardt Jr.'s National Guard/AMP Energy hauler goes down LV Blvd at the 2008 .... How much cash is up for grabs at the 2016 Valero Texas Open?"
p6
aS"Feb 9, 2010 - Keep up with all the latest news from Texas Watchdog. ... Austin Energy customers foot bill  $2 a month per customer for 19 years  for idled biomass plant Around the clock, seven .... Valero tells the tax man what's what, awarded $5 million in."
p7
aS"Feb 10, 2010 - News Fix  State of Health ..... Redwood Landfill is currently working to permit a landfill gas to energy facility which will become Marin County's largest source of ..."
p8
aS'Feb 9, 2010 - Has Children. Energy. Has Children. Environmental Law & Policy. Has Children ...... Valero, M.P., A.E. Fletcher, B.L. De Stavola, J.Vioque and V.C. Alepuz, 2002.'
p9
aS"Feb 10, 2010 - Forests act as giant 'eco-utilities', underpinning food, energy and climate .... the day or week of a negative news report, that impact ..... Valero Energy USA."
p10
a.