(lp0
S'Feb 10, 2010 - February 10, 2010 News & Opinion  News ..... Opponents of oil-by-rail shipments want the city to block a proposed Valero facility, but Valero says the city lacks ...'
p1
aS'Feb 10, 2010 - ... that it would not file charges against a former spokesman for Jerry Brown, the news... ... Opponents of oil-by-rail shipments want the city to block a proposed Valero facility, ... Everything you need to know about saving water, energy efficiency, ...'
p2
aS'Feb 10, 2010 - But I guess if Fox News can stay on the air, Gammon can stay on the rag. ... Opponents of oil-by-rail shipments want the city to block a proposed Valero facility, but Valero ... Everything you need to know about saving water, energy efficiency, ...'
p3
aS'Feb 11, 2010 - San Antonio Express-News  ExpressNews.com  iPad app  eEdition  Search Our News Archive  Manage Your Subscription. Hearst Newspapers  Copyright ...'
p4
aS"Feb 10, 2010 - News Fix  State of Health ..... Redwood Landfill is currently working to permit a landfill gas to energy facility which will become Marin County's largest source of ..."
p5
aS'Feb 11, 2010 - C&EN Online News. Chemical & Engineering News: Latest News ... plant health and yield-boosting technologies. C&EN Online Current Issue News RSS Feed.'
p6
aS'Feb 11, 2010 - ... martial arts professionally for over 25 years and his classes are usually high energy. .... How much cash is up for grabs at the 2016 Valero Texas Open?'
p7
aS'Feb 11, 2010 - List of top ranked PGA golfers in the playing field for 2016 Valero Texas Open  Hot photos of Nieke Coetzee the girlfriend of PGA golfer Branden Grace in 2016 ...'
p8
aS"Feb 10, 2010 - Forests act as giant 'eco-utilities', underpinning food, energy and climate .... the day or week of a negative news report, that impact ..... Valero Energy USA."
p9
aS'Feb 10, 2010 - V 10:00 AM  3:00 PM / MARRIOTT RW VALERO. TCDA Executive ..... Evening News and public television across the U.S. Revitalize your music department and ... tive energy of any group is the cornerstone of musical excellence. From the.'
p10
a.