(lp0
S'Feb 12, 2010 - Valero Energy Corp to export ethanol for first time  40,000 in southeast ... US News. The Robot-Snake Charger Designed by Tesla Could Scare you Along with ...'
p1
aS'Feb 12, 2010 - Valero Energy Corp to export ethanol for first time  40,000 in southeast ... US News. The Robot-Snake Charger Designed by Tesla Could Scare you Along with ...'
p2
aS'Feb 12, 2010 - Meat substitutes were also found to be highly processed, often requiring large amounts of energy to produce. The study recognised that the ... Fisherman Rene Valero, from the Urus ethnic group, is seen on his boat on ... Top news galleries ...'
p3
aS'Feb 12, 2010 - UFC news: Vitor Belfort out of UFC 112 title shot, Penn vs. Edgar still on .... How much cash is up for grabs at the 2016 Valero Texas Open? The 2016 Valero ...'
p4
aS'Feb 12, 2010 - Contact Us  News Feeds  Press Inquiries  Privacy Policy ... Petroleum Association, which represents ExxonMobil, Shell, Chevron, Tesoro, Valero and BP.'
p5
aS'Feb 12, 2010 - Pop quiz: Which 24 hour news network championed Obama all through the ... The Obama administration energy plan (which was supposed to be about keeping .... Chevron at $189 billion; Conoco Phillips at $166 billion; and Valero Energy at ...'
p6
aS'Feb 11, 2010 - San Antonio Express-News  ExpressNews.com  iPad app  eEdition  Search Our News Archive  Manage Your Subscription. Hearst Newspapers  Copyright ...'
p7
aS'Feb 12, 2010 - a Valero) on Williams Drive for about $20. Fast forward to .... News or questions about Georgetown, Hutto or Taylor? .... turbine to generate renewable energy. 9.'
p8
aS'Feb 12, 2010 - Climate News Roundup ... The Valero refinery in Benicia, CA (Photo: Craig Miller) ... A lot of us are producing products today that are very focused on energy ...'
p9
aS'Feb 12, 2010 - ... terms & conditions  privacy policy  cookie policy  securedrop.  2016 Guardian News and Media Limited or its affiliated companies. All rights reserved.'
p10
a.