(lp0
S'Feb 16, 2010 - Find 23 listings related to Valero in Paradis on YP.com. ... From Business: Valero Refining is a subsidiary of Valero Energy Corporation.'
p1
aS'Feb 16, 2010 - Find 20 listings related to Valero in Marrero on YP.com. See reviews ... From Business: Valero Refining is a subsidiary of Valero Energy Corporation. Founded in ...'
p2
aS'Feb 16, 2010 - Ali Akbar Salehi, Iran\'s atomic energy chief, claimed Monday that the allies had ... to unveil the contents of this proposal," Salehi told Iran\'s Fars News Agency. ... a satisfactory response," French foreign ministry spokesman Bernard Valero said.'
p3
aS"Feb 16, 2010 - DealBook - A Financial News Service of The New York Times ... Mr. Dickman has more than 20 years of experience in the energy world and was last ... Richfield on its sale to BP in 2000 and the refiner Valero's 2001 acquisition of Ultramar."
p4
aS'Feb 15, 2010 - ... Great West Insurance, Valero Energy, Western CPE, The Arizona, California, Colorado, Illinois, Minnesota, Montana, Tennessee, Texas, ... News and Updates ...'
p5
aS'Feb 16, 2010 - FACT: PSEA members from every part of the Commonwealth volunteer their time and energy to study the candidates and their positions on issues of importance ...'
p6
aS'Feb 15, 2010 - Valero Energy Corp to export ethanol for first time  40,000 in southeast ... US News. The Robot-Snake Charger Designed by Tesla Could Scare you Along with ...'
p7
aS'Feb 15, 2010 - The obtained results suggest that the solvents may lower the excitation energy of Cy5. However, for the ... Denis Jacquemin , Yan Zhao , Rosendo Valero , Carlo Adamo , Ilaria Ciofini , and Donald G. Truhlar. Journal of ... C&EN Online News.'
p8
aS'Feb 17, 2010 - Sign up to get the latest science news delivered weekly right to your inbox! ... Sheril Kirshenbaum is a research scientist with the Webber Energy Group at the ...'
p9
aS'Feb 16, 2010 - GasBuddy Blog & News. What OPEC Cant .... Valero: 3032 Broadway Blvd & Dairy Rd. Garland ..... Clean Energy Fuels: 3526 Security St & Jupiter Rd. Garland.'
p10
a.