(lp0
S'Feb 17, 2010 - Valero Energy Corp (NYSE: VLO)Buy @ 19, Stop @ 15.65 ..... Also, any whiff of good newssuch as an uptick in US gasoline demandwould be an important ...'
p1
aS'Feb 18, 2010 - Valero Energy Corporation ... Valero St Charles Refinery ... With the latest News & Advice from Manta, you can stay ahead of the trends and challenges affecting ...'
p2
aS'Feb 17, 2010 - Energy major Reliance Industries may be forced to raise its offer for LyondellBasell ... include assets owned by U.S.-based Valero Energy and Sunoco, energy assets belonging ... (For more news on Reuters Money visit www.reutersmoney.in) ...'
p3
aS'Feb 17, 2010 - Valero Energy Corp to export ethanol for first time  40,000 in southeast Michigan still deprived of power ... There is good news for Indian advertising industry.'
p4
aS'Feb 18, 2010 - Valero Energy Corp to export ethanol for first time  40,000 in southeast ... US News. The Robot-Snake Charger Designed by Tesla Could Scare you Along with ...'
p5
aS'Feb 18, 2010 - Universal News, Inc, Pipeliners Hall of Fame News or any employee or representative of either organization can not be held .... tract by Spectra Energy to perform anomaly digs on ...... delivers crude oil to the BP Texas City and Valero Houston.'
p6
aS'Feb 17, 2010 - East Bay Express. Oakland, Berkeley, And East Bay News, Events, Restaurants, Music, & Arts ... Create Account. February 17, 2010 News & Opinion  Feature ...'
p7
aS'Feb 17, 2010 - Oakland, Berkeley, And East Bay News, Events, Restaurants, Music, & Arts ..... The restaurant owners need to focus their energy on getting better tasting food ...'
p8
aS'Feb 18, 2010 - they are working the system or use the site to share news of .... package, energy policy or employment social justice? The green ..... Valero Energy Corporation.'
p9
aS'Feb 18, 2010 - Here\'s how Romenesko\'s Media News linked the item: romanes.jpg ... FFC Gerardo Valero considers the flaws within "Star Wars: Episode VII - The Force Awakens." ... Aside: We live in an electric universe and the spirit is magnetic energy.'
p10
a.