(lp0
S'Feb 19, 2010 - Valero Energy Corp to export ethanol for first time  40,000 in southeast Michigan still ... But there was more bad news for the Japanese Company as sales of it ...'
p1
aS'Feb 19, 2010 - Valero Energy Corp to export ethanol for first time  40,000 in southeast ... US News. The Robot-Snake Charger Designed by Tesla Could Scare you Along with ...'
p2
aS'Feb 18, 2010 - Valero Energy Corporation ... Valero St Charles Refinery ... With the latest News & Advice from Manta, you can stay ahead of the trends and challenges affecting ...'
p3
aS'Feb 19, 2010 - Burns & McDonnell/ Valero. Norco ... Progress Energy/ Roxboro Station. Roxboro, North ... Valero. St. Charles, Louisiana Description: Heavy Lifting for Coker T/A'
p4
aS'Feb 18, 2010 - Universal News, Inc, Pipeliners Hall of Fame News or any employee or representative of either organization can not be held .... tract by Spectra Energy to perform anomaly digs on ...... delivers crude oil to the BP Texas City and Valero Houston.'
p5
aS'Feb 18, 2010 - they are working the system or use the site to share news of .... package, energy policy or employment social justice? The green ..... Valero Energy Corporation.'
p6
aS'Feb 19, 2010 - 33 See Clifford Krauss, Valero Energy, the Oil Refiner, Wins an Auction for 7 .... Wastelands in the Water, U.S. NEWS & WORLD REP., June 16, 2008, at 26, 26.'
p7
aS'Feb 19, 2010 - How much cash is up for grabs at the 2016 Valero Texas Open? The 2016 Valero Texas Open golf tournament on the PGA Tour is taking place this week from ...'
p8
aS'Feb 18, 2010 - How much cash is up for grabs at the 2016 Valero Texas Open? The 2016 Valero Texas Open golf tournament on the PGA Tour is taking place this week from ...'
p9
aS'Feb 19, 2010 - Also in the news ... means," French foreign ministry spokesman Bernard Valero said. ... Under his tenure, the French energy firm Areva has begun work on the ...'
p10
a.