(lp0
S'Feb 22, 2010 - Trusted market intelligence for the global chemical, energy and fertilizer industries  Chemicals .... Valero, Paulsboro, NJ, 11,000 .... Take a free trial to ICIS news.'
p1
aS'Feb 23, 2010 - Valero Energy Corp to export ethanol for first time  40,000 in southeast ... US News. The Robot-Snake Charger Designed by Tesla Could Scare you Along with ...'
p2
aS'Feb 22, 2010 - Valero Energy Corp to export ethanol for first time  40,000 in southeast ... US News. The Robot-Snake Charger Designed by Tesla Could Scare you Along with ...'
p3
aS'Feb 23, 2010 - P.S. Debbie, thank you so much for bring forward reliable and solid news, which ... I told off a gas station troll at a Valero(I was really low and in a hurry) when he .... and disease or other issues and you are wasting your time and energy on this.'
p4
aS'Feb 23, 2010 - Archive  Home / Science News .... PGA Tour: Top 10 players to watch at the Valero Texas Open. Videos. Photos ... World News  U.S. News  Energy Resources'
p5
aS'Feb 22, 2010 - ... and Gas Co., Houston, (later named Charter Oil, Hill Petroleum, Phibros, and Valero) cut back .... Get All the Oil and Gas Journal News Delivered to Your Inbox ... Customer Experience Management for Energy Companies: The Path to Happy ...'
p6
aS'Feb 22, 2010 - C&EN Online News. Chemical & Engineering News: Latest News ... C&EN Online Current Issue News RSS Feed  More From Archives. 1155 Sixteenth Street ...'
p7
aS'Feb 23, 2010 - CenterPoint Energy EDC Gwen Wagner, Project .... Galveston County Daily News ... Adm. Building Galveston, Texas 77555-0103 (409) 747-5599. Valero'
p8
aS'Feb 23, 2010 - List of top ranked PGA golfers in the playing field for 2016 Valero Texas Open  Hot photos of Nieke Coetzee the girlfriend of PGA golfer Branden Grace in 2016 ...'
p9
aS'Feb 22, 2010 - ... List of top ranked PGA golfers in the playing field for 2016 Valero Texas Open  Lakers Rumors: Scott Brooks interested head coaching job in L.A.  Acid Reflux ...'
p10
a.