(lp0
S'Feb 25, 2010 - The company also has partnered with a number of biofuel companies, including a venture with Terrabon and refiner Valero Energy (VLO) to commercialize ...'
p1
aS'Feb 25, 2010 - The pilot plant is a partnership between Valero Energy Corp., its subsidiary Diamond Alternative Energy, and API. The plan, Belling told EPM in an email, is to ...'
p2
aS'Feb 24, 2010 - Abstract Since mass and energy balances are coupled, process energy can be optimized ... www1.eere.energy.gov/news/progress_alerts/progress_ alert.asp?aid=183. ... Valero: Houston Refinery Uses Plant-Wide Assessment to Develop an ...'
p3
aS"Feb 24, 2010 - News & Opinions ... Petroplus Chief Executive Thomas O'Malley sold his previous venture U.S. refiner Premcor Inc to Valero Energy Corp in 2005 and is now in ..."
p4
aS"Feb 25, 2010 - Energy News, Analysis & Opinion ... California's worst polluters, Valero and Tesoro, reportedly raised close ... director of its global climate and energy campaign."
p5
aS'Feb 25, 2010 - THURSDAY-SUNDAY, APRIL 1-4: AJGA Laredo Energy Junior, The .... MONDAY-THURSDAY, JULY 12-15: AJGA Valero Texas Open Junior Shootout, TBA, ...'
p6
aS'Feb 24, 2010 - February 24, 2010 News & Opinion  News ..... Everything you need to know about saving water, energy efficiency, sustainable farming and eating, and more.'
p7
aS'Feb 24, 2010 - FFC Gerardo Valero considers the flaws within "Star Wars: Episode VII - The Force .... Seeing him unmasked in the prison sequence, his energy and intensity in .... in the Bad News Bears films and the psuedo disaster epic "Damnation Alley.'
p8
aS'Feb 25, 2010 - Valero Energy Corp to export ethanol for first time  40,000 in southeast ... US News. The Robot-Snake Charger Designed by Tesla Could Scare you Along with ...'
p9
aS'Feb 25, 2010 - Valero Energy Corp to export ethanol for first time  40,000 in southeast ... US News. The Robot-Snake Charger Designed by Tesla Could Scare you Along with ...'
p10
a.