(lp0
S'Feb 25, 2010 - The company also has partnered with a number of biofuel companies, including a venture with Terrabon and refiner Valero Energy (VLO) to commercialize ...'
p1
aS'Feb 25, 2010 - The pilot plant is a partnership between Valero Energy Corp., its subsidiary Diamond Alternative Energy, and API. The plan, Belling told EPM in an email, is to ...'
p2
aS"Feb 26, 2010 - First Reserve, which has invested over $12.5 billion in energy projects ... A flood of new fuel from abroad could squeeze U.S. refiners like Valero Energy Corporation or .... Thomson Reuters is the world's largest international multimedia news ..."
p3
aS'Feb 26, 2010 - Most recently, Kim led Government Relations for Valero Energy Corporation, a Fortune 500 company, in Delaware. During her tenure with Valero, Kim served as ...'
p4
aS"Feb 25, 2010 - Energy News, Analysis & Opinion ... California's worst polluters, Valero and Tesoro, reportedly raised close ... director of its global climate and energy campaign."
p5
aS'Feb 25, 2010 - THURSDAY-SUNDAY, APRIL 1-4: AJGA Laredo Energy Junior, The .... MONDAY-THURSDAY, JULY 12-15: AJGA Valero Texas Open Junior Shootout, TBA, ...'
p6
aS'Feb 26, 2010 - Valero Energy Corp to export ethanol for first time  40,000 in southeast ... Sex Addiction, considered to be the most circulated topic in the news these days, has ...'
p7
aS'Feb 26, 2010 - Valero Energy Corp to export ethanol for first time  40,000 in southeast ... US News. The Robot-Snake Charger Designed by Tesla Could Scare you Along with ...'
p8
aS'Feb 25, 2010 - Valero Energy Corp to export ethanol for first time  40,000 in southeast ... US News. The Robot-Snake Charger Designed by Tesla Could Scare you Along with ...'
p9
aS"Feb 26, 2010 - Austin Energy customers foot bill  $2 a month per customer for 19... Texas props up ... We will miss... Valero tells the tax man what's what, awarded $5 million in."
p10
a.