(lp0
S"Feb 2, 2010 - It also has a joint venture with Pennsylvania General Energy that holds about 290,000 gross ... San Antonio's Valero Energy Corp. and Philadelphia's Sunoco have announced plans to close refineries. ... Why stocks need more really bad news."
p1
aS"Feb 2, 2010 - As part of a course I'm auditing at the Harvard Kennedy School, I have been reading the teacher's book: veteran newsman Alex Jones' Losing the News: The ..."
p2
aS'Feb 3, 2010 - ... Price Surprises  Sectors  Stock Picks  News & Commentary ...'
p3
aS"Feb 2, 2010 - Valero Energy Corp to export ethanol for first time  40,000 in southeast ... US News. IBM Watson's Uses Artificial Intelligence techniques to Teach Robots Better ..."
p4
aS'Feb 1, 2010 - The good news is that the limited data we do have suggest a long-term decline in ... And in Corpus Christi, Valero Refining reported 27,366 pounds to EI and ...'
p5
aS"Feb 2, 2010 - Sign up for email updates and get the latest news about what Big Oil is up to. ... Occidental's Record High Profit  Energy Co's Pay Regulators' Way  Exxon's ..."
p6
aS"Feb 1, 2010 - ... through massive preparation, he has four MVP trophies, and, in other news, rain is ... He's a 35-year-old partner at an energy investment firm in New Orleans ..."
p7
aS'Feb 2, 2010 - Ed Miliband, the Energy and Climate Change Secretary, insisted that ... News  ... Fisherman Rene Valero, from the Urus ethnic group, is seen on his boat on ...'
p8
aS'Feb 2, 2010 - ... in the automotive, pharmaceutical/biotech, process chemical, manufacturing, energy, and pulp and paper markets worldwide. ... for Valero Energy Corporation and American Process, Inc (API) as well as for the construction of ... Blog  News.'
p9
aS"Feb 1, 2010 - From the U.S. Department of Energy to the laborer putting down the weatherstripping, no one seems to know how the .... Keep up with all the latest news from Texas Watchdog. .... Valero tells the tax man what's what, awarded $5 million in."
p10
a.