(lp0
S'Feb 3, 2010 - DES MOINES, Iowa--(BUSINESS WIRE)--ALL Fuels & Energy announced that its subsidiary, ALL Fuels - Jefferson, LLC, has agreed to Valeros offer price of $100 million for the purchase of Renew Energy from Valero Renewable Energy. ... For reasons we do not understand, Wm. Blair and ...'
p1
aS'Feb 3, 2010 - News ... In addition, Western Emulsions has agreed to partner with Valero Energy on raw asphalt sales to local producers of paving asphalt and other users.'
p2
aS"Feb 2, 2010 - It also has a joint venture with Pennsylvania General Energy that holds about 290,000 gross ... San Antonio's Valero Energy Corp. and Philadelphia's Sunoco have announced plans to close refineries. ... Why stocks need more really bad news."
p3
aS'Feb 3, 2010 - ... Price Surprises  Sectors  Stock Picks  News & Commentary ...'
p4
aS"Feb 2, 2010 - As part of a course I'm auditing at the Harvard Kennedy School, I have been reading the teacher's book: veteran newsman Alex Jones' Losing the News: The ..."
p5
aS"Feb 3, 2010 - Dan Roche is an award-winning sports anchor and reporter for WBZ-TV News and myTV38 .... Roche: High Energy Feel At Broncos Final Practice Before AFC ... Of Sabermetrics Peter Kostis On Valero Texas Open: 'Favors The Strategist'."
p6
aS'Feb 3, 2010 - He has maintained this attitude to grow Victron Energy into the thriving ... We offer a wide selection of branded fuels, including Exxon/Mobil, Shell, Conoco/Phillips, Chevron/Texaco and Valero, ... Victron featured in Convenience Store News.'
p7
aS"Feb 3, 2010 - Valero Energy Corp to export ethanol for first time  40,000 in southeast ... US News. IBM Watson's Uses Artificial Intelligence techniques to Teach Robots Better ..."
p8
aS'In approximately 2 months, Wisconsin Energy has returned 9% a... ... CDTV.net 2009-02-23 Stock Market News ...'
p9
aS'Feb 3, 2010 - Oakland, Berkeley, And East Bay News, Events, Restaurants, Music, & Arts .... That gives me the daily charge that I need and the energy is stored from the sun. .... Opponents of oil-by-rail shipments want the city to block a proposed Valero ...'
p10
a.