(lp0
S'Feb 3, 2010 - DES MOINES, Iowa--(BUSINESS WIRE)--ALL Fuels & Energy announced that its subsidiary, ALL Fuels - Jefferson, LLC, has agreed to Valeros offer price of $100 million for the purchase of Renew Energy from Valero Renewable Energy. ... For reasons we do not understand, Wm. Blair and ...'
p1
aS'Feb 3, 2010 - News ... In addition, Western Emulsions has agreed to partner with Valero Energy on raw asphalt sales to local producers of paving asphalt and other users.'
p2
aS"Feb 3, 2010 - Dan Roche is an award-winning sports anchor and reporter for WBZ-TV News and myTV38 .... Roche: High Energy Feel At Broncos Final Practice Before AFC ... Of Sabermetrics Peter Kostis On Valero Texas Open: 'Favors The Strategist'."
p3
aS'Feb 3, 2010 - He has maintained this attitude to grow Victron Energy into the thriving ... We offer a wide selection of branded fuels, including Exxon/Mobil, Shell, Conoco/Phillips, Chevron/Texaco and Valero, ... Victron featured in Convenience Store News.'
p4
aS"Feb 3, 2010 - Valero Energy Corp to export ethanol for first time  40,000 in southeast ... US News. IBM Watson's Uses Artificial Intelligence techniques to Teach Robots Better ..."
p5
aS'Feb 3, 2010 - Valero Energy Corp to export ethanol for first time  40,000 in southeast ... US News. The Robot-Snake Charger Designed by Tesla Could Scare you Along with ...'
p6
aS'In approximately 2 months, Wisconsin Energy has returned 9% a... ... CDTV.net 2009-02-23 Stock Market News ...'
p7
aS"Feb 3, 2010 - ... the week ending October 16, according to the US Energy Information Administration. ... This follows the shutting down of Valero's Delaware City, Delaware refinery. ... According to news reports citing Euroilstock data, European gasoline ..."
p8
aS'Feb 3, 2010 - Oakland, Berkeley, And East Bay News, Events, Restaurants, Music, & Arts .... That gives me the daily charge that I need and the energy is stored from the sun. .... Opponents of oil-by-rail shipments want the city to block a proposed Valero ...'
p9
aS'Feb 4, 2010 - World News  ... Fisherman Rene Valero, from the Urus ethnic group, is seen on his boat on ..... By the way, I am not saying anybody should waste energy.'
p10
a.