(lp0
S'Feb 5, 2010 - Chevron and Valero Energy have deployed a similar system across their wholly owned refineries, and ExxonMobil has implemented a mobile framework across ...'
p1
aS'Feb 5, 2010 - DOW JONES, A NEWS CORP COMPANY ..... enjoyed a boom in the early part of the past decade, before the global recession decimated energy demand.'
p2
aS'Feb 5, 2010 - Valero Energy stock, history, acquisitions, products/services as well as the Valero Energy ticker symbol VLO.'
p3
aS"Feb 5, 2010 - Valero Energy Corp to export ethanol for first time  40,000 in southeast ... US News. IBM Watson's Uses Artificial Intelligence techniques to Teach Robots Better ..."
p4
aS'Feb 5, 2010 - e-Edition  Print Locations  Newsletter  Submit News .... include Chevron, Exxon, BP, Arco, Tesoro, Paramount Petroleum and Valero among others. ... I think you have to inject some energy in anything you do, said 33-year old Eddie Kinzler, ...'
p5
aS"Feb 4, 2010 - The good news is that long-term emissions of ... 1 U.S. Department of Energy, Office of Oil and Gas, Energy Information Administration, Petroleum ... Also, Valero Refining's Corpus Christi East refinery reported 27,366 pounds to EI and 38,561."
p6
aS'Feb 4, 2010 - World News  ... Fisherman Rene Valero, from the Urus ethnic group, is seen on his boat on ..... By the way, I am not saying anybody should waste energy.'
p7
aS"Feb 5, 2010 - Edwin Valero, ultimate home run hitter, against Manny Pacquiao would be a thrill a minute ... He's got the Hugo Chavez, Venezuelan flag tattoo but Edwin Valero has tattooed all .... Jim Cramer Cautious on Renewable Energy, but Likes First Solar ... Lakers News: Kevin Durant tried to 'destroy' Kobe Bryant in final showdown ..."
p8
aS'... teams coach Jeff Ulbrich(notes); assistant offensive line coach Art Valero; ... old news. And already posted in NFL talk. Good for Jeff he is getting his start and it ...'
p9
aS"Feb 5, 2010 - ACM SIGARCH Computer Architecture News - Special issue: dasCMP'05, 2005 .... Energy-efficient MESI cache coherence with pro-active snoop filtering for ... [55] Enrique Vallejo, Tim Harris, Adrian Cristal, Osman Unsal, and Mateo Valero."
p10
a.