(lp0
S'Mar 11, 2010 - ... services, phone numbers, and reviews on Valero Energy in Washington, DC. ... With the latest News & Advice from Manta, you can stay ahead of the trends ...'
p1
aS'Mar 10, 2010 - Lima, OH Husky Energy has agreed to pay refinery workers in Lima, Ohio, nearly ... in place by Valero Energy, from whom Husky purchased the refinery in May 2007. ... According to the Lima News, the DOL initiated a two-year investigation in ...'
p2
aS'Mar 11, 2010 - In January, Artpace, a local institution that fosters the creation and advancement of international contemporary art, launched a year-long exhibition of 13 ...'
p3
aS"Mar 11, 2010 - Lackland City Elementary's Selena Hernandez (from left), Analise Zacarias and Marshall High School's Sean McCurtain kick off the Torch Run event prior to the ..."
p4
aS'Mar 11, 2010 - -Alex Tanzi, Bloomberg News managing editor. atanzi@gmail.com ... -Bill Day, corporate communications manager of Valero Energy Corp. From the very first ...'
p5
aS'Mar 10, 2010 - March 10, 2010 News & Opinion  News .... Opponents of oil-by-rail shipments want the city to block a proposed Valero facility, but Valero says the city lacks this ...'
p6
aS'Mar 10, 2010 - Valero Energy Corp to export ethanol for first time  40,000 in southeast ... US News. The Robot-Snake Charger Designed by Tesla Could Scare you Along with ...'
p7
aS"Mar 10, 2010 - Valero Energy Corp to export ethanol for first time  40,000 in southeast ... group in New Orleans to churn donation to Tulane University's energy graduate program, ... US News. The Robot-Snake Charger Designed by Tesla Could Scare you ..."
p8
aS"Mar 10, 2010 - News From the Frontlines ... a fire was caused by a malfunction at the Tesoro Energy Corp's refinery in Wilmington, California which produces gasoline, ... Along with the Tesoro refinery, Wilmington hosts ConocoPhillips and Valero refineries."
p9
aS"Mar 11, 2010 - Valero Energy Corp., the nation's largest refiner, last year closed a Delaware refinery, ..... Sources: Associated Press, San Francisco Chronicle, Wilmington News ..."
p10
a.