(lp0
S'Mar 11, 2010 - ... services, phone numbers, and reviews on Valero Energy in Washington, DC. ... With the latest News & Advice from Manta, you can stay ahead of the trends ...'
p1
aS"Mar 11, 2010 - Lackland City Elementary's Selena Hernandez (from left), Analise Zacarias and Marshall High School's Sean McCurtain kick off the Torch Run event prior to the ..."
p2
aS"Mar 12, 2010 - Andre was the Express-News Area's Newcomer of the Year in 2008-09, when he averaged 9.3 ... Charley Hoffman is Valero Texas Open's clubhouse leader ..."
p3
aS'Mar 11, 2010 - -Alex Tanzi, Bloomberg News managing editor. atanzi@gmail.com ... -Bill Day, corporate communications manager of Valero Energy Corp. From the very first ...'
p4
aS"Mar 12, 2010 - Fortunately, Dallas Morning News reporters Holly Hacker and Candace Carlisle sorted .... Swamplot Sponsor: Harvest Moon Renewable Energy Company Today Swamplot is ... Valero tells the tax man what's what, awarded $5 million in."
p5
aS'Mar 11, 2010 - Giacomo Boati, with IHS Cambridge Energy Research Associates in Paris, listens to a group of panelists discuss the topic "Focusing Down - From Demand to ...'
p6
aS"Mar 11, 2010 - Valero Energy Corp., the nation's largest refiner, last year closed a Delaware refinery, ..... Sources: Associated Press, San Francisco Chronicle, Wilmington News ..."
p7
aS'Mar 11, 2010 - XTO  XTO Energy Inc  Technical analysis chart, weekly, since 2006 ... VLO  Valero Energy Corp  Technical Analysis Stock Chart  SU  Suncor Energy Inc ...'
p8
aS'Mar 11, 2010 - Valero Energy Corp to export ethanol for first time  40,000 in southeast Michigan ... manually or time-based technologies, but also saves energy by switching on and ... US News. The Robot-Snake Charger Designed by Tesla Could Scare you ...'
p9
aS'Mar 12, 2010 - Valero Energy Corp to export ethanol for first time  40,000 in southeast ... US News. The Robot-Snake Charger Designed by Tesla Could Scare you Along with ...'
p10
a.