(lp0
S'Mar 15, 2010 - Latest CVX News | Press Releases ... Chevron (CVX) to Supply Wheatstone Gas to Alinta Energy. Apr 19 / Zacks.com ... VLOValero Energy, +0.43, +0.71% ...'
p1
aS'Mar 14, 2010 - Latest News ... Subscribe. San Antonio Express-News  ExpressNews.com  iPad app  eEdition  Search Our News Archive  Manage Your Subscription.'
p2
aS'Mar 15, 2010 - By Cindy George - Express-News .... Antonio Express-News  ExpressNews.com  iPad app  eEdition  Search Our News Archive  Manage Your Subscription.'
p3
aS'Mar 15, 2010 - Eastman Kodak Co. 10. Koch Industries. 11. ConocoPhillips. 12. Valero Energy Corp. 13. General Electric Co. 14. AK Steel Holding. 15. Dow Chemical Co. 16.'
p4
aS'Mar 15, 2010 - Contact  News ... Alon USA Energy, Inc. (NYSE: ALJ)  Alon USA Partners, LP (NYSE: ALDW) ... Executive Vice President of Refining and Marketing Operations with Frontier Oil Corporation and Senior Vice President of Planning with Valero.'
p5
aS'Mar 14, 2010 - News Room  In The News  News Releases ... Valero, $54,750. USAA, $49,100. Energy Transfer Partners, $45,600. Goldman Sachs, $45,000. Jpmorgan Chase ...'
p6
aS'Mar 15, 2010 - Follow the link below to sign up for our breaking news alerts and specialty newsletters: Sonoma Report, Napa Report and Wine Industry Report. Signup ...'
p7
aS'Mar 14, 2010 - Valero Energy Corporation ... With the latest News & Advice from Manta, you can stay ahead of the trends and challenges affecting your industry and help your ...'
p8
aS"Mar 15, 2010 - Showing Energy the Way ... The ARWA Team  News & Events  Why Choose ARWA? ... Major clients included Church's Fired Chicken, Tx DOT, Valero and ..."
p9
aS'Mar 15, 2010 - The Pound is certainly not taking this news well and has plunged to $1.505 from ... for the weekend and gasoline is still strong at $2.25 (go Valero (NYSE:VLO)!) ...'
p10
a.