(lp0
S'Mar 17, 2010 - Valero Texas Open. April 18 - 24, 2016 ... Valero Volunteer Council, Debra Weems, Jennifer Kester. Volunteer ... Valero Energy Corporation  USAA Real Estate ...'
p1
aS'Mar 17, 2010 - News. HOUSTON, March 17, 2010 -- The partners of Baker Botts L.L.P. have ... Valero Energy Corporation in the $240 Million Drop-Down to Valero Energy ...'
p2
aS'Mar 17, 2010 - San Antonio Express-News  ExpressNews.com  iPad app  eEdition  Search Our News Archive  Manage Your Subscription. Hearst Newspapers  Copyright ...'
p3
aS'Mar 17, 2010 - ... San Antonio Express-News, touting ?cutting-edge? technology for oncology imaging, breast imaging ... 1 Key Cenovus Energy Stock Number You Must Know ...'
p4
aS'Mar 17, 2010 - March 17, 2010 News & Opinion  News .... Opponents of oil-by-rail shipments want the city to block a proposed Valero facility, but Valero says the city lacks this ...'
p5
aS'Mar 17, 2010 - March 17, 2010 News & Opinion  News ..... Opponents of oil-by-rail shipments want the city to block a proposed Valero facility, but Valero says the city lacks this ...'
p6
aS'Mar 17, 2010 - Archive  Home / Top News / U.S. News .... PGA Tour: Top 10 players to watch at the Valero Texas Open. Videos. Photos ... U.S. News  Energy Resources'
p7
aS'Mar 16, 2010 - Valero Energy Corp to export ethanol for first time  40,000 in southeast ... US News. The Robot-Snake Charger Designed by Tesla Could Scare you Along with ...'
p8
aS"Mar 16, 2010 - Valero Energy Corp to export ethanol for first time  40,000 in southeast ... US News. IBM Watson's Uses Artificial Intelligence techniques to Teach Robots Better ..."
p9
aS'Mar 17, 2010 - ... that the adverts created on behalf of the Department of Energy and Climate Change (DECC) and based on the ... Earth News   Environment . In Climate Change. Fisherman Rene Valero, from the Urus ethnic group, is seen on his boat on ...'
p10
a.