(lp0
S'Mar 1, 2010 - Web: www.valero.com ... More Details for Valero Energy Corporation ... With the latest News & Advice from Manta, you can stay ahead of the trends and ...'
p1
aS"Feb 28, 2010 - San Antonio, TX News - View Daily Local Business News, Resources & more in San Antonio, Texas. ... If you work for one of Valero Energy Corp.'s 10 domestic ..."
p2
aS'Mar 1, 2010 - 3) AT&T - $1 billion (Source: Yahoo News 26 MAR 2010 article by Barbara Ortutay). 4) AK Steel (mentioned in the Yahoo News article above). 5) Valero Energy ...'
p3
aS"Mar 1, 2010 - SRS in the News ... Target - State-wide Dispositions; Diamond Shamrock/Valero Energy - Tenant Representation; McDonald's - Tenant Representation; Pier 1 ..."
p4
aS"Mar 1, 2010 - But the resulting shift in the energy base has left the country with redundant ... Valero closed its 185,000 bpd Delaware City refinery permanently in November 2009. .... Thomson Reuters is the world's largest international multimedia news ..."
p5
aS'Mar 1, 2010 - Read Market Status: US wind market grows in the gloom and other wind energy news & analysis on Windpower Monthly.'
p6
aS"Mar 1, 2010 - Details can be found in a related story in the news section. ..... Valero Energy acquired Mobil's Paulsboro, N.J., refinery in August 1998, increasing its refining ..."
p7
aS'Feb 28, 2010 - Valero Energy Corp to export ethanol for first time  40,000 in southeast ... US News. The Robot-Snake Charger Designed by Tesla Could Scare you Along with ...'
p8
aS'Mar 1, 2010 - Key customers: Sara Lee, Molson Coors, Government of Bermuda, Emergency Medical Associates, Valero Energy and StubHub. Key Executive: Marge Breya ...'
p9
aS"Mar 2, 2010 - First Lady  News  Initiatives  Organization  Contact. Texas Governor's Mansion ... Chesapeake Energy Senate Ladies .... Valero Energy Foundation Mr. and ..."
p10
a.