(lp0
S'Mar 23, 2010 - Qteros, once known as Sun Ethanol, raised $52 million in start-up money including investments from Soros Fund Management LLC, Valero Energy Corp. and ...'
p1
aS'Mar 23, 2010 - ... River Ventures, of Hadley, Valero Energy Corp., BP, Soros Group and Venrock, the venture capital arm of the Rockefeller family. ... Breaking News newsletter.'
p2
aS'Mar 23, 2010 - 9:23 A.M. ET. Valero Energy downgraded to neutral from outperform at Credit Suisse. 9:22 A.M. ET ... More News from MarketWatch. Top Stories. Trending.'
p3
aS'Mar 24, 2010 - Olives Ol? festival to showcase Texas? newest cash crop. Elizabeth Castillo, By Edmund Tijerina - Express-News. Published 12:00 am, Wednesday, March 24, ...'
p4
aS"Mar 23, 2010 - It's absolutely a step in the right direction,? said nutritionist Claudia Zapata, author of the Healthy Living column in the San Antonio Express-News. ?There are a ..."
p5
aS'Mar 22, 2010 - Girls Inc. 4th Annual Science Festival Presented by Valero. ... News By Tag ... SAN ANTONIO, TX  March 22, 2010  Valero Energy Corporation has been ...'
p6
aS'Mar 23, 2010 - Green News Report -- March 23, 2010 (Audio) ... an international trade ban on the Atlantic bluefin tuna was shocking news for Japan, given that about ha.'
p7
aS'Mar 22, 2010 - Valero Energy Corp to export ethanol for first time  40,000 in southeast ... US News. The Robot-Snake Charger Designed by Tesla Could Scare you Along with ...'
p8
aS'Mar 22, 2010 - CIRCE, Center of Research for Energy Resources and Consumption, ... Valero, A.; Usn, S.; Torres, C.; Valero, A. Application of Thermoeconomics to Industrial ...'
p9
aS'Mar 23, 2010 - Valero: 671 Montgomery St & Feather River Blvd. Oroville  ee6971. 11 hours ago. update  Costco: 2100 Dr Martin Luther King Jr Pkwy & E 23rd St. Chico.'
p10
a.