(lp0
S'Mar 23, 2010 - Qteros, once known as Sun Ethanol, raised $52 million in start-up money including investments from Soros Fund Management LLC, Valero Energy Corp. and ...'
p1
aS'Mar 24, 2010 - By Leslie Berliant, InsideClimate News ... money to suspend the law, however, has come in the form of $500,000 from Texas-based Valero Energy Corporation.'
p2
aS'Mar 23, 2010 - ... River Ventures, of Hadley, Valero Energy Corp., BP, Soros Group and Venrock, the venture capital arm of the Rockefeller family. ... Breaking News newsletter.'
p3
aS'Mar 24, 2010 - San Antonio Express-News  ExpressNews.com  iPad app  eEdition  Search Our News Archive  Manage Your Subscription. Hearst Newspapers  Copyright ...'
p4
aS'Mar 24, 2010 - Oakland, Berkeley, And East Bay News, Events, Restaurants, Music, & Arts .... "I can work really hard and put a lot of energy into my work, and I don\'t feel like that\'s .... Opponents of oil-by-rail shipments want the city to block a proposed Valero ...'
p5
aS'Mar 24, 2010 - 60 Minutes  Video News Library. The Eva Rowe ... Independent U.S. refiners Valero Energy and Sunoco also have sold or closed plants recently. BP has no ...'
p6
aS'Mar 23, 2010 - 9:23 A.M. ET. Valero Energy downgraded to neutral from outperform at Credit Suisse. 9:22 A.M. ET ... More News from MarketWatch. Top Stories. Trending.'
p7
aS'Mar 24, 2010 - Fog City Journal / News / San Francisco Rallies to Support CCA, Against PG&E ... aimed at protecting its monopoly against energy competition. Photos by ...'
p8
aS'Mar 24, 2010 - Valero Energy Corp to export ethanol for first time  40,000 in southeast ... US News. The Robot-Snake Charger Designed by Tesla Could Scare you Along with ...'
p9
aS'Mar 24, 2010 - Valero Energy Corp to export ethanol for first time  40,000 in southeast ... US News. The Robot-Snake Charger Designed by Tesla Could Scare you Along with ...'
p10
a.