(lp0
S'Mar 24, 2010 - By Leslie Berliant, InsideClimate News ... money to suspend the law, however, has come in the form of $500,000 from Texas-based Valero Energy Corporation.'
p1
aS'Mar 25, 2010 - When 11 News tried talking to the Texas Commission for Environmental Quality about it: .... Bill Day, Executive Director for Media Relations for the Valero Energy ...'
p2
aS"Mar 25, 2010 - http://www.bloomberg.com/apps/news?pid=newsarchive&sid=azqLRq8_zF48. Bloomberg publishes an analysis of Valero's shift to lighter grade fuel due to ..."
p3
aS'Mar 24, 2010 - San Antonio Express-News  ExpressNews.com  iPad app  eEdition  Search Our News Archive  Manage Your Subscription. Hearst Newspapers  Copyright ...'
p4
aS"Mar 25, 2010 - Undefeated brawler Edwin Valero may have KO'd his big money, Pacquiao dreams ... For both the sake of Valero and his wife and children, I hope this is a news ..."
p5
aS'Mar 24, 2010 - Oakland, Berkeley, And East Bay News, Events, Restaurants, Music, & Arts .... "I can work really hard and put a lot of energy into my work, and I don\'t feel like that\'s .... Opponents of oil-by-rail shipments want the city to block a proposed Valero ...'
p6
aS'Mar 24, 2010 - 60 Minutes  Video News Library. The Eva Rowe ... Independent U.S. refiners Valero Energy and Sunoco also have sold or closed plants recently. BP has no ...'
p7
aS'Mar 24, 2010 - Valero Energy Corp to export ethanol for first time  40,000 in southeast ... US News. The Robot-Snake Charger Designed by Tesla Could Scare you Along with ...'
p8
aS'Mar 24, 2010 - Valero Energy Corp to export ethanol for first time  40,000 in southeast ... US News. The Robot-Snake Charger Designed by Tesla Could Scare you Along with ...'
p9
aS'Mar 24, 2010 - Fog City Journal / News / San Francisco Rallies to Support CCA, Against PG&E ... aimed at protecting its monopoly against energy competition. Photos by ...'
p10
a.