(lp0
S'Mar 25, 2010 - When 11 News tried talking to the Texas Commission for Environmental Quality about it: .... Bill Day, Executive Director for Media Relations for the Valero Energy ...'
p1
aS'Mar 26, 2010 - Earlier this week, AK Steel Corp., Caterpillar, Deere and Valero Energy announced similar accounting charges, saying the health care law will raise their ...'
p2
aS"Mar 25, 2010 - http://www.bloomberg.com/apps/news?pid=newsarchive&sid=azqLRq8_zF48. Bloomberg publishes an analysis of Valero's shift to lighter grade fuel due to ..."
p3
aS'Mar 26, 2010 - Man accused of killing fellow gang member. By Peter J. Holley - Express-News ... Mexicans seek news of loved ones after deadly explosion ...'
p4
aS"Mar 25, 2010 - Undefeated brawler Edwin Valero may have KO'd his big money, Pacquiao dreams ... For both the sake of Valero and his wife and children, I hope this is a news ..."
p5
aS'Mar 26, 2010 - DealBook - A Financial News Service of The New York Times ... Earlier this week, AK Steel, Caterpillar, Deere and Valero Energy announced similar accounting ...'
p6
aS'Mar 26, 2010 - Earlier this week, the AK Steel Corporation, Caterpillar, Deere & Company and Valero Energy announced similar accounting charges, saying the health care law ...'
p7
aS"Mar 27, 2010 - AK Steel Corp... and Valero Energy announced [similar] accounting charges, saying the ... You turn on the news, you'll see the same folks are still shouting about ..."
p8
aS'Mar 26, 2010 - William E. Greehey, Chairman, Valero Energy (VLO) ... CBS Sports and CBS News (CBS); Damien Hoffman, Founder and Editor-in-Chief, Wall St. Cheat Sheet.'
p9
aS'Mar 26, 2010 - Key Financials. $ Millions, % change. Revenues, 452926.00, 27.70%. Profits, 41060.00, 34.80%. Assets, 331052.00. Total Shareholder Equity, 154396.00.'
p10
a.