(lp0
S'Mar 30, 2010 - You are oil refining giant Valero Energy, t - March 30, 2010 - Business ... Once in the news with the growth fuel of the future, ethanol companies were a hot item a ...'
p1
aS'Mar 31, 2010 - The retail end of Valero Energy Corp. is pumping up its investment in ... carry the name Fresh Choices, he told CSP Daily News in an exclusive interview.'
p2
aS"Mar 31, 2010 - The facility is operated under an exclusive agreement with Valero Energy ... Jr., was selected as a finalist in Engineering News-Record's 2009 photo contest."
p3
aS'Mar 30, 2010 - Inovateus Solar is partnering with project manager Chart House Energy and .... which contains BP (NYSE: BP), Valero Energy Corporation (NYSE: VLO), ...'
p4
aS'Mar 30, 2010 - The news that NASA scientists will join the probe came as Toyota, reeling from a .... Already, companies like AT&T, Caterpillar, 3M, Verizon, Valero Energy, John ...'
p5
aS'Mar 30, 2010 - "Efforts to pass US clean energy and climate policy are being hampered by polluter lobbyists and climate science denial campaigns, and Koch ... Fisherman Rene Valero, from the Urus ethnic group, is seen on his boat on ... Top news galleries ...'
p6
aS'Mar 30, 2010 - Before he joined Tesoro, Smith was treasurer and vice president of Valero Energy Corp. (VLO.N) He also ... Our top news photography last month. Slideshow ...'
p7
aS'Apr 1, 2010 - Hotel Havana owner Liz Lambert (left) makes certain a light fixture is working with help from her Hotel San Jose General Manager Bobby Johns.'
p8
aS'Mar 31, 2010 - Tags: Business & Politics news chamber of commerce climate solutions global .... Valero Energy Corporation has spent $500,000 already in an effort to create a ...'
p9
aS'Mar 31, 2010 - Tags: news asia bangladesh developing nations global climate change global ..... Valero Energy Corporation has spent $500,000 already in an effort to create a ...'
p10
a.