(lp0
S'Mar 3, 2010 - Don Gum sat on the wing of a Wright B Flyer, dressed fashionably by Army Signal Corps standards of 1910: a khaki shirt with fat pockets, pleated khaki slacks ...'
p1
aS'Mar 4, 2010 - San Antonio Express-News  ExpressNews.com  iPad app  eEdition  Search Our News Archive  Manage Your Subscription. Hearst Newspapers  Copyright ...'
p2
aS'Mar 4, 2010 - In a first for Texas, a team of military and civilian surgeons transplanted a new hand onto a retired Air Force master sergeant who lost hers nine years ago when ...'
p3
aS'Mar 2, 2010 - Jim Atchison president & CEO of SeaWorld Parks & Entertainment, speaks during a press conference at the killer whale underwater viewing area of SeaWorld in ...'
p4
aS"Mar 3, 2010 - Business news. Mercuria Seeks Oil Tanks, Coal Mines in US Drive 03.03.2010. NEW YORK, Reuters (March 1) - Swiss-based global energy trader Mercuria is ... He said they were not looking at Valero's Delaware City plant, for which a group ..."
p5
aS'Mar 3, 2010 - Trusted market intelligence for the global chemical, energy and fertilizer industries .... Citing low returns, US refiner Valero shut its 235,000bbl/day oil refinery in Aruba in ... Take a free trial to ICIS news for breaking chemical news as it happens ...'
p6
aS"Mar 3, 2010 - Valero Energy Corp to export ethanol for first time  40,000 in southeast ... US News. IBM Watson's Uses Artificial Intelligence techniques to Teach Robots Better ..."
p7
aS'Mar 2, 2010 - Valero Energy Corp to export ethanol for first time  40,000 in southeast ... US News. The Robot-Snake Charger Designed by Tesla Could Scare you Along with ...'
p8
aS"Mar 3, 2010 - The death of a newspaper isn't big news these days, unless it's a major daily like the ..... Opponents of oil-by-rail shipments want the city to block a proposed Valero facility, ... Everything you need to know about saving water, energy efficiency, ..."
p9
aS'Mar 2, 2010 - Edwin Valero is confidence personified. ... If we were to draw comparisons as far as energy levels, Valerio was like a street savvy alley cat and DeMarco, ...'
p10
a.