(lp0
S"Mar 4, 2010 - Oil refiners Valero Energy Corp. and Tesoro Corp. are funding a petition drive to get a measure on the ballot suspending AB 32, California's landmark law to limit ..."
p1
aS'Mar 4, 2010 - Trying to keep up with all the latest news in the biomass industry can be a .... American Process Inc. (API), and a subsidiary of Valero Energy Corp. of San ...'
p2
aS'Mar 4, 2010 - In a first for Texas, a team of military and civilian surgeons transplanted a new hand onto a retired Air Force master sergeant who lost hers nine years ago when ...'
p3
aS'Mar 4, 2010 - San Antonio Express-News  ExpressNews.com  iPad app  eEdition  Search Our News Archive  Manage Your Subscription. Hearst Newspapers  Copyright ...'
p4
aS"Mar 3, 2010 - Business news. Mercuria Seeks Oil Tanks, Coal Mines in US Drive 03.03.2010. NEW YORK, Reuters (March 1) - Swiss-based global energy trader Mercuria is ... He said they were not looking at Valero's Delaware City plant, for which a group ..."
p5
aS'Mar 5, 2010 - Subscribe to Ethanol News Video ... Co Verenium Corp Pacific Ethanol Inc and Valero Energy Corp This is an excerpt of the full interview Source Bloomberg.'
p6
aS"Mar 4, 2010 - From Sellers, a total hard-ass who taught me news writing at San Francisco State, ... convincing a public traumatized by the energy crisis, runaway inflation and a ...... Local activists ask elected officials to block Valero's plan to ship oil by train."
p7
aS'Mar 3, 2010 - Trusted market intelligence for the global chemical, energy and fertilizer industries .... Citing low returns, US refiner Valero shut its 235,000bbl/day oil refinery in Aruba in ... Take a free trial to ICIS news for breaking chemical news as it happens ...'
p8
aS"Mar 3, 2010 - Valero Energy Corp to export ethanol for first time  40,000 in southeast ... US News. IBM Watson's Uses Artificial Intelligence techniques to Teach Robots Better ..."
p9
aS'Mar 4, 2010 - Valero Energy Corp to export ethanol for first time  40,000 in southeast ... US News. The Robot-Snake Charger Designed by Tesla Could Scare you Along with ...'
p10
a.