(lp0
S'MORE INFO: The Texas-based oil company Valero Energy Corp. is funding a deceptive initiative ... For the ...'
p1
aS"Mar 4, 2010 - Oil refiners Valero Energy Corp. and Tesoro Corp. are funding a petition drive to get a measure on the ballot suspending AB 32, California's landmark law to limit ..."
p2
aS'Mar 4, 2010 - Trying to keep up with all the latest news in the biomass industry can be a .... American Process Inc. (API), and a subsidiary of Valero Energy Corp. of San ...'
p3
aS"Mar 5, 2010 - From inside the lines to out, Express-News staff writers Terrence Thomas and Chad Peters take a ... Charley Hoffman is Valero Texas Open's clubhouse leader ..."
p4
aS"Mar 4, 2010 - From Sellers, a total hard-ass who taught me news writing at San Francisco State, ... convincing a public traumatized by the energy crisis, runaway inflation and a ...... Local activists ask elected officials to block Valero's plan to ship oil by train."
p5
aS'Mar 5, 2010 - Subscribe to Ethanol News Video ... Co Verenium Corp Pacific Ethanol Inc and Valero Energy Corp This is an excerpt of the full interview Source Bloomberg.'
p6
aS'Mar 5, 2010 - Valero Energy Corp to export ethanol for first time  40,000 in southeast ... US News. The Robot-Snake Charger Designed by Tesla Could Scare you Along with ...'
p7
aS'Mar 4, 2010 - Valero Energy Corp to export ethanol for first time  40,000 in southeast ... US News. The Robot-Snake Charger Designed by Tesla Could Scare you Along with ...'
p8
aS"Mar 5, 2010 - News   UK News   Earth   Earth News  ... Fisherman Rene Valero, from the Urus ethnic group, is seen on his boat on ... Top news galleries .... that amount of extra energy absorbed the oceans (10x the atmospheric content) to 'noise'."
p9
aS'Mar 4, 2010 - Have a news tip? Call 575-8650 .... Taste.  Updates on regional court cases. News.  Who will be the MSU. Teen of the ..... Valero Energy, Boeing,. Lockheed ...'
p10
a.