(lp0
S'Mar 9, 2010 - Alamodome general manager selected. Joe Alexander, By Tom Orsborn - Express-News ... 3 1/2-hour delay marked after resumption of Valero Texas Open ...'
p1
aS'Mar 7, 2010 - San Antonio Express-News  ExpressNews.com  iPad app  eEdition  Search Our News Archive  Manage Your Subscription. Hearst Newspapers  Copyright ...'
p2
aS'Mar 7, 2010 - So when the forecast looked promising for one of my favorite escapes, I packed a weekend bag and headed down the coast to Rockport, Texas winter hamlet for man, woman and whooper. The Rockport-Fulton area, locatedabout 180 miles southwest of Houston on Aransas Bay, is a year ...'
p3
aS'Mar 7, 2010 - Valero Energy Corp to export ethanol for first time  40,000 in southeast ... US News. The Robot-Snake Charger Designed by Tesla Could Scare you Along with ...'
p4
aS'Mar 8, 2010 - Email. comment. Mar 8, 2010. ESPN.com news services ... The shots were "O-Bombs," a mixture of energy drink and flavored rum. The group later went to The ...'
p5
aS"Mar 8, 2010 - strategy+business: Corporate Strategies and News Articles on Global ..... Holly's integration of Group III refining assets and Devon Energy's decision to shed ... Sunoco and Valero have already employed this tactic on the refinery side. Suncor ..."
p6
aS'Mar 8, 2010 - Whether you want to ramp up your energy and water conservation, improve your ... Colliers International News Group Corporate American Red Cross Valero'
p7
aS'Mar 8, 2010 - Nachrichten zur Aktie XTO Energy Inc. | 886499 | XTO. ... Kurse + Charts + Realtime, News + Analysen, Fundamental, Unternehmen ... Valero Energy, -0,4%.'
p8
aS'Mar 8, 2010 - OSHA News Releases  Proposed Rule Changes ... News Feeds  Office Locations  Directions  Photo Gallery  Guest Book  Contact Us. Member Resources.'
p9
aS'Mar 7, 2010 - Penspen secures Shell SWEEP Detailed Design dit le 16/06/2010 - Plus de news de "Penspen" - Voir la fiche entreprise de "Penspen". Penspen secures ...'
p10
a.