(lp0
S'Mar 9, 2010 - Valero Energy Corp. News VLO CERA Week: Valero: Still Considering Options For Aruba New York Stock Exchange Announcements, Company Reports ...'
p1
aS'Mar 9, 2010 - Alamodome general manager selected. Joe Alexander, By Tom Orsborn - Express-News ... 3 1/2-hour delay marked after resumption of Valero Texas Open ...'
p2
aS'Mar 10, 2010 - ... Antonio Clean Technology Regional Water Forum 2010 at the Pearl Stable with moderator Robert Rivard (back to camera), editor of the Express-News. less.'
p3
aS'Mar 8, 2010 - Email. comment. Mar 8, 2010. ESPN.com news services ... The shots were "O-Bombs," a mixture of energy drink and flavored rum. The group later went to The ...'
p4
aS"Mar 9, 2010 - Environment News Service latest environmental news, global warming, ... caused by a malfunction at the Tesoro Energy Corp's refinery in Wilmington, ... Along with the Tesoro refinery, Wilmington hosts ConocoPhillips and Valero refineries."
p5
aS"Mar 9, 2010 - Recent investigations from fellow members of the Investigative News Network ... story on the $78,000-per-house rollout of stimulus program to make homes energy-efficient ... Valero tells the tax man what's what, awarded $5 million in."
p6
aS'3/9/2010-On Tuesday, Chevron Corp. (NYSE:CVX) said it will eliminate 2,000 positions this year and that it ...'
p7
aS'Mar 9, 2010 - VALERO ENERGY CORPORATION, Oil & Gas, Corp, 200,901,405, 38, Americas ... NEWS AMERICA INCORPORATED, Consumer Services, Corp, 188,460,457 ...'
p8
aS"Mar 8, 2010 - strategy+business: Corporate Strategies and News Articles on Global ..... Holly's integration of Group III refining assets and Devon Energy's decision to shed ... Sunoco and Valero have already employed this tactic on the refinery side. Suncor ..."
p9
aS'Mar 8, 2010 - OSHA News Releases  Proposed Rule Changes ... News Feeds  Office Locations  Directions  Photo Gallery  Guest Book  Contact Us. Member Resources.'
p10
a.