(lp0
S'Apr 11, 2010 - San Antonio Express-News  ExpressNews.com  iPad app  eEdition  Search Our News Archive  Manage Your Subscription. Hearst Newspapers  Copyright ...'
p1
aS'Apr 12, 2010 - San Antonio Express-News  ExpressNews.com  iPad app  eEdition  Search Our News Archive  Manage Your Subscription. Hearst Newspapers  Copyright ...'
p2
aS'Apr 12, 2010 - Valero Corp. ... Read more: Energy Business, oil and gas, BP p.l.c. (ADR) (NYSE:BP), ConocoPhillips (NYSE:COP), Marathon Oil Corp (NYSE:MRO), RDS-A, ...'
p3
aS'Apr 11, 2010 - Lisa Schmidt, Pro News 7 Anchor & Prom Emcee. Sandy Kline .... Valero. Western Builders. Cambridge Production. L R Hagy Estate. HouseCall ... Xcel Energy.'
p4
aS'Apr 12, 2010 - Valero Energy Corp to export ethanol for first time  40,000 in southeast ... US News. The Robot-Snake Charger Designed by Tesla Could Scare you Along with ...'
p5
aS'Apr 11, 2010 - Find 169 listings related to Valero Station in Mckinney on YP.com. See reviews, photos, directions, phone numbers and more for Valero ...'
p6
aS'Apr 12, 2010 - "He\'s so full of energy and drive that he even makes me inspired to try just a little ... A response from Chaz Ebert regarding the News-Gazette\'s April 10 article ...'
p7
aS'Apr 12, 2010 - Sponsorship Donate Fundraising Events Volunteer News Contact Raul ... Presenting Sponsor walmart-logo. Valero. The RK Group. Starbucks ... CPS Energy.'
p8
aS'Jesus Valero2 weeks ago. just search up godzilla triops. Read more. Show less. Reply 1 .... Very powerful, how ...'
p9
aS'Apr 12, 2010 - CATEGORIZED UNDER: Books, Energy, Environment, geoengineering, Global ..... Tons of News: My New Book; Research Help; Move to Science Progress ...'
p10
a.