(lp0
S'Apr 12, 2010 - San Antonio Express-News  ExpressNews.com  iPad app  eEdition  Search Our News Archive  Manage Your Subscription. Hearst Newspapers  Copyright ...'
p1
aS'Apr 13, 2010 - Kerrville police said the boys were in a Toyota Celica eastbound on Texas 27 when it collided with a black pickup truck that was southbound on Loop 534 at ...'
p2
aS'Apr 14, 2010 - Photo: rowen@express-news.net ... E-mail suggestions for Cooks & Cocinas to Home & Garden Editor Tracy Hobson Lehmann, tlehmann@express-news.net.'
p3
aS'Apr 13, 2010 - Alon USA Energy Inc. Valero. 356 South Levee Road Krotz Springs, LA ... With the latest News & Advice from Manta, you can stay ahead of the trends and ...'
p4
aS'Apr 13, 2010 - Arnold Schwarzenegger on Tuesday rebuked oil companies Valero and ... Two California-based oil firms, Tower Energy Group and World Oil Corp., have each ...'
p5
aS'Apr 12, 2010 - Valero Corp. ... Read more: Energy Business, oil and gas, BP p.l.c. (ADR) (NYSE:BP), ConocoPhillips (NYSE:COP), Marathon Oil Corp (NYSE:MRO), RDS-A, ...'
p6
aS"Apr 13, 2010 - Is the key to better golf the right energy bar? ... News & Tours ... Forward Press: Tee times and viewer's guide for the Valero Texas Open and Legends of Golf. By."
p7
aS'Apr 13, 2010 - The Defense Energy Support Center, Fort Belvoir, Va., is the contracting ... Pa., is the contracting activity (SPM8E6-10-D-0008) ~Valero Marketing & Supply Co., ...'
p8
aS'Apr 12, 2010 - Valero Energy Corp to export ethanol for first time  40,000 in southeast ... US News. The Robot-Snake Charger Designed by Tesla Could Scare you Along with ...'
p9
aS'Apr 13, 2010 - All filings including financial statements made on OTC News and Disclosure ...... Exxon, Valero, the US Department of Energy, and others, and it is a major focus ...'
p10
a.