(lp0
S'Apr 14, 2010 - Latest News ... senior vice president and controller at San Antoniobased Valero Energy Corp., the largest independent petroleum refiner in the United States.'
p1
aS'Apr 14, 2010 - Mexicans seek news of loved ones after deadly explosion ... ExpressNews.com  iPad app  eEdition  Search Our News Archive  Manage Your Subscription.'
p2
aS'Apr 14, 2010 - Officer cleared but wife indicted in dispute. By Michelle Mondo - Express-News ... Mexicans seek news of loved ones after deadly explosion ...'
p3
aS'Apr 15, 2010 - Mexicans seek news of loved ones after deadly explosion ... ExpressNews.com  iPad app  eEdition  Search Our News Archive  Manage Your Subscription.'
p4
aS'Apr 13, 2010 - Alon USA Energy Inc. Valero. 356 South Levee Road Krotz Springs, LA ... With the latest News & Advice from Manta, you can stay ahead of the trends and ...'
p5
aS'Apr 13, 2010 - Arnold Schwarzenegger on Tuesday rebuked oil companies Valero and ... Two California-based oil firms, Tower Energy Group and World Oil Corp., have each ...'
p6
aS'Apr 14, 2010 - Valero Energy Corp to export ethanol for first time  40,000 in southeast ... meals and a car rental in the Big Apple costs $622, Business Travel News in its 2010 ...'
p7
aS'Apr 14, 2010 - East Bay Express. Oakland, Berkeley, And East Bay News, Events, Restaurants, Music, & Arts ... in /; Create Account. April 14, 2010 News & Opinion  Feature ...'
p8
aS"Apr 13, 2010 - Is the key to better golf the right energy bar? ... News & Tours ... Forward Press: Tee times and viewer's guide for the Valero Texas Open and Legends of Golf. By."
p9
aS'Apr 14, 2010 - More national news: Cleveland.com/nation .... association that we condemn," French Foreign Ministry spokesman Bernard Valero said in an online briefing.'
p10
a.