(lp0
S'Apr 14, 2010 - Latest News ... senior vice president and controller at San Antoniobased Valero Energy Corp., the largest independent petroleum refiner in the United States.'
p1
aS'Apr 15, 2010 - After a year in the reorganization process, Aventine Renewable Energy Holdings ... Partnering with Valero Energy Corp. and its subsidiary Diamond Alternative ...'
p2
aS'Apr 14, 2010 - Mexicans seek news of loved ones after deadly explosion ... ExpressNews.com  iPad app  eEdition  Search Our News Archive  Manage Your Subscription.'
p3
aS'Apr 14, 2010 - Officer cleared but wife indicted in dispute. By Michelle Mondo - Express-News ... Mexicans seek news of loved ones after deadly explosion ...'
p4
aS'Apr 15, 2010 - The cabal, led by Texas-based Valero Energy Corp., Tesoro Corp., Tower Energy ... The San Jose Mercury News declared in a recent opinion editorial that ...'
p5
aS'Apr 15, 2010 - Read Birmingham Medical News online at www.birminghammedicalnews.com ... some bad news. our politicians ...... John deere, caterpillar, and Valero energy.'
p6
aS"Apr 15, 2010 - Jack Valero: Richard Dawkins's case against the pope is nonsense. Benedict has striven to ... Breaking news. Harriet Tubman ... Jack Valero. Richard Dawkins's ..."
p7
aS"Apr 15, 2010 - ... 2010 as 420 Guide in the Guides section of the Sacramento News & Review. ... know-your-rights classes, special events, Reiki, meditation, energy healing. ..... Local activists ask elected officials to block Valero's plan to ship oil by train."
p8
aS'Apr 15, 2010 - Those beautiful panels are producing clean, abundant, and free energy. ..... Continue reading "Hunting and Fishing News for April 13"  ..... to buy Valero Energy Corp\'s Delaware City, Delaware, refinery for $220 million as fuel-makers struggle ...'
p9
aS'Apr 15, 2010 - During the 2000s, with the growing tatisation of the energy sector in Russia, economic ...... 15 Lukoil Beats Valero To Total Refinery Stake, Petroleum Intelligence ... 2006, http://www.gazprom.com/press/news/2006/october/article63623/.'
p10
a.