(lp0
S'Apr 15, 2010 - After a year in the reorganization process, Aventine Renewable Energy Holdings ... Partnering with Valero Energy Corp. and its subsidiary Diamond Alternative ...'
p1
aS"Apr 17, 2010 - San Antonio's only PGA TOUR event. First played in 1922, the Valero Texas Open is the 3rd oldest PGA TOUR tournament."
p2
aS'Apr 15, 2010 - The cabal, led by Texas-based Valero Energy Corp., Tesoro Corp., Tower Energy ... The San Jose Mercury News declared in a recent opinion editorial that ...'
p3
aS"Apr 17, 2010 - It's a coronation of the king of Fiesta? said Tony Daniels, as members of Serna's royal court and the education foundation he supports gathered in front of San ..."
p4
aS'Apr 15, 2010 - Those beautiful panels are producing clean, abundant, and free energy. ..... Continue reading "Hunting and Fishing News for April 13"  ..... to buy Valero Energy Corp\'s Delaware City, Delaware, refinery for $220 million as fuel-makers struggle ...'
p5
aS"Apr 15, 2010 - Jack Valero: Richard Dawkins's case against the pope is nonsense. Benedict has striven to ... Breaking news. Harriet Tubman ... Jack Valero. Richard Dawkins's ..."
p6
aS"Apr 15, 2010 - ... 2010 as 420 Guide in the Guides section of the Sacramento News & Review. ... know-your-rights classes, special events, Reiki, meditation, energy healing. ..... Local activists ask elected officials to block Valero's plan to ship oil by train."
p7
aS'Apr 15, 2010 - Read Birmingham Medical News online at www.birminghammedicalnews.com ... some bad news. our politicians ...... John deere, caterpillar, and Valero energy.'
p8
aS'Apr 15, 2010 - During the 2000s, with the growing tatisation of the energy sector in Russia, economic ...... 15 Lukoil Beats Valero To Total Refinery Stake, Petroleum Intelligence ... 2006, http://www.gazprom.com/press/news/2006/october/article63623/.'
p9
aS'Apr 15, 2010 - Welcome to the launch of YOR News ... The energy and response from each participant was incredible. Among those in .... Katia Susana Llanos Valero - Mexico'
p10
a.