(lp0
S'Apr 19, 2010 - Former boxing champion Edwin Valero, who gained fame for knocking out all his ... News ... Valero committed suicide in his jail cell on Monday, April 19, 2010, ...'
p1
aS'Apr 19, 2010 - Former boxing champ Edwin Valero committed suicide in his jail cell on ... News ... Federal Police Chief Wilmer Flores says Valero was arrested after police ...'
p2
aS'Apr 18, 2010 - Latest News: One Venezuelan newsapaper reports that police claim that EDWIN VALERO confessed to stabbing his wife, Jennifer, to death at a hotel in ...'
p3
aS'Apr 18, 2010 - Valero and wife Yennifer Carolina (AP Photo) Last month there was ... Frightening news out of Venezuela as Edwin Valero suspected in murder of his wife ..... Shocking video shows dogs being hit by energy contractor  Walmart worker killed: ...'
p4
aS'Apr 19, 2010 - Valero closed the Delaware City refinery in November 2009 after failing to find ... team of colleagues officially welcomed the news that PBF Energy Partners, LP, ...'
p5
aS"Apr 19, 2010 - Venezuelan champion boxer Edwin Valero hanged himself with his own clothes early on Monday ... Currencies  Comm & Energy  Futures  Funds ... Valero -- who held the World Boxing Council lightweight title until recently going for alcohol ... Thomson Reuters is the world's largest international multimedia news agency, ..."
p6
aS'Apr 19, 2010 - San Antonio Express-News  ExpressNews.com  iPad app  eEdition  Search Our News Archive  Manage Your Subscription. Hearst Newspapers  Copyright ...'
p7
aS"Apr 19, 2010 - Now that the price of gold is dancing around all-time highs, the idea of selling gold tempts anyone looking to raise some extra cash. And there's no shortage of ..."
p8
aS"Apr 19, 2010 - The suspended WBC lightweight champion Edwin Valero has killed himself after being arrested on suspicion of ... climate change  wildlife  energy  pollution ... Edwin Valero is led away by a police officer after his arrest on suspicion of his wife's murder. .... 2016 Guardian News and Media Limited or its affiliated companies."
p9
aS"Apr 19, 2010 - Venezuela's former lightweight boxing champion Edwin Valero, left, is escorted by a police officer to a police station in Valencia, some 150 kms (some 93 miles) ..."
p10
a.