(lp0
S"Apr 1, 2010 - Valero Energy Foundation gives $1 million for ..... Valero Energy Corp. is a Fortune 500 company ...... television, except for sports and the news, Via said. I'm."
p1
aS"Mar 31, 2010 - The facility is operated under an exclusive agreement with Valero Energy ... Jr., was selected as a finalist in Engineering News-Record's 2009 photo contest."
p2
aS'Mar 31, 2010 - The retail end of Valero Energy Corp. is pumping up its investment in ... carry the name Fresh Choices, he told CSP Daily News in an exclusive interview.'
p3
aS'Apr 1, 2010 - Hotel Havana owner Liz Lambert (left) makes certain a light fixture is working with help from her Hotel San Jose General Manager Bobby Johns.'
p4
aS'Mar 31, 2010 - Tags: Business & Politics news chamber of commerce climate solutions global .... Valero Energy Corporation has spent $500,000 already in an effort to create a ...'
p5
aS'Mar 31, 2010 - Tags: news asia bangladesh developing nations global climate change global ..... Valero Energy Corporation has spent $500,000 already in an effort to create a ...'
p6
aS'Mar 31, 2010 - Valero Energy Corp, VLO, 91913Y100, 46,540, $2,985,075.60, 2.93%. AbbVie Inc, ABBV, 00287Y109, 51,711, $2,953,732.32, 2.90%. McGraw Hill Financial Inc ...'
p7
aS'Mar 31, 2010 - East Bay Express. Oakland, Berkeley, And East Bay News, Events, Restaurants, Music, & Arts ... in /; Create Account. March 31, 2010 News & Opinion  News ...'
p8
aS'Mar 31, 2010 - The first member group that pops up on the website of Energy Citizens, an [] ... Sign up for email updates and get the latest news about what Big Oil is up to.'
p9
aS'Apr 1, 2010 - MUMBAI/NEW YORK, April 9 (Reuters) - Indian energy giant Reliance ...... Valero Energy Corporation (1); Vanguard Natural Resources (1); Well Spud (1) ...'
p10
a.