(lp0
S'Apr 20, 2010 - Since 2008, Venezuelan news reports had repeatedly linked Valero to domestic violence incidents, but the fighter and his supporters denied those reports.'
p1
aS'Apr 19, 2010 - Former boxing champion Edwin Valero, who gained fame for knocking out all his ... News ... Valero committed suicide in his jail cell on Monday, April 19, 2010, ...'
p2
aS'Apr 20, 2010 - Get company or corporate stock equity shareholder overview data for shares of Valero Energy Corp including Fund Owners Activity, Style, Equity & Debt ...'
p3
aS"Apr 20, 2010 - The news isn't all bad. The nation's life insurer said no to ... Symantec; Chesapeake Energy Chesapeak... CC Media ... Valero Energy Valero En... State Street ..."
p4
aS'Apr 19, 2010 - Valero closed the Delaware City refinery in November 2009 after failing to find ... team of colleagues officially welcomed the news that PBF Energy Partners, LP, ...'
p5
aS"Apr 20, 2010 - Top Story  Boxing champion Edwin Valero was found hanged with his own clothes ... paramilitary politics in Colombia with The Latin America News Dispatch after her ... Brazil's energy agency Aneel suspended the Belo Monte dam auction ..."
p6
aS"Apr 19, 2010 - Now that the price of gold is dancing around all-time highs, the idea of selling gold tempts anyone looking to raise some extra cash. And there's no shortage of ..."
p7
aS'Apr 19, 2010 - San Antonio Express-News  ExpressNews.com  iPad app  eEdition  Search Our News Archive  Manage Your Subscription. Hearst Newspapers  Copyright ...'
p8
aS'Apr 20, 2010 - Latest Sports News ... Valero Texas Open: Live updates and analysis  View Comments.  2016 Hearst Communications, Inc. Logo Return to Top ...'
p9
aS"Apr 19, 2010 - Venezuelan champion boxer Edwin Valero hanged himself with his own clothes early on Monday ... Currencies  Comm & Energy  Futures  Funds ... Valero -- who held the World Boxing Council lightweight title until recently going for alcohol ... Thomson Reuters is the world's largest international multimedia news agency, ..."
p10
a.