(lp0
S'Apr 26, 2010 - Valero Energy Corp. announced last year it plans to build a 135 MMgy renewable (hydrogenation-derived) diesel facility using animal fats and waste grease in ...'
p1
aS"Apr 26, 2010 - An O'Connor High School standout, Matthew McKenzie was a 2008 first-team All-District 28-5A and 2009 second-team San Antonio Express-News All-Area ..."
p2
aS'Apr 26, 2010 - San Antonio Express-News  ExpressNews.com  iPad app  eEdition  Search Our News Archive  Manage Your Subscription. Hearst Newspapers  Copyright ...'
p3
aS'Apr 26, 2010 - Making Payments The minimum payment is to be paid by the due date specified on your monthly billing statement. There are five ways to make payments on ...'
p4
aS'Apr 26, 2010 - Valero Energy Corp to export ethanol for first time  40,000 in southeast ... US News. The Robot-Snake Charger Designed by Tesla Could Scare you Along with ...'
p5
aS'Apr 26, 2010 - Valero Energy Corp to export ethanol for first time  40,000 in southeast ... The news doing the rounds is that Bollywood hottie Katrina Kaif is ready to play tragic ...'
p6
aS"Apr 25, 2010 - In the last few hours of his life Edwin Valero asked police not to leave him alone. He was ... They'll crucify him, I thought, the minute I heard the news of his death."
p7
aS'Apr 26, 2010 - It was left to Jack Valero, spokesman for the organisation Catholic Voices, to add a note of ... 2016 Guardian News and Media Limited or its affiliated companies.'
p8
aS'Apr 25, 2010 - With new programs being offered by Texas A&M University-San Antonio and Cornell University, San Antonio now has more choices than ever for earning a ...'
p9
aS'Apr 25, 2010 - To feed that need for fuel, on April 23/10 the Defense Energy Support Center ... Department of Defense & Industry Daily News ... Valero Marketing & Supply Co. in San Antonio, TX won a maximum $255.1 million contract for aviation fuel.'
p10
a.