(lp0
S'Apr 26, 2010 - Valero Energy Corp. announced last year it plans to build a 135 MMgy renewable (hydrogenation-derived) diesel facility using animal fats and waste grease in ...'
p1
aS'Apr 27, 2010 - I\'ve got a "good news-bad news" story for you. First the good news. Oil refining is recovering. If you own shares of Tesoro Corp. (NYSE: TSO), Valero Energy ...'
p2
aS'Apr 27, 2010 - A recognized expert in the energy sector, Schork is a regular guest on CNBC ... Valero Energy refinery. These energy stocks are rooting against crude oil ... Global Business and Financial News, Stock Quotes, and Market Data and Analysis.'
p3
aS"Apr 27, 2010 - April 2010 News Center. April 27, 2010 ..... Valero Introduces Store Brand Sports Drink. Valero U Force ... Costa to Open Four More 'Zero-Energy' Coffee Shops."
p4
aS"Apr 26, 2010 - An O'Connor High School standout, Matthew McKenzie was a 2008 first-team All-District 28-5A and 2009 second-team San Antonio Express-News All-Area ..."
p5
aS'Apr 27, 2010 - Photo: San Antonio Express-News. Image 1of/17. Caption. Close. Image 1 of 17. San Antonio Police Sgt. Tom Alonzo (far right) assembles his team of Problem ...'
p6
aS"Apr 27, 2010 - For the second time in two local families' lives, a motorist accused of drunken driving has left them grieving the loss of a son. It was tough, said Zamarripa's best ..."
p7
aS'Apr 26, 2010 - Valero Energy Corp to export ethanol for first time  40,000 in southeast ... US News. The Robot-Snake Charger Designed by Tesla Could Scare you Along with ...'
p8
aS'Apr 26, 2010 - Valero Energy Corp to export ethanol for first time  40,000 in southeast ... The news doing the rounds is that Bollywood hottie Katrina Kaif is ready to play tragic ...'
p9
aS'Apr 26, 2010 - Making Payments The minimum payment is to be paid by the due date specified on your monthly billing statement. There are five ways to make payments on ...'
p10
a.