(lp0
S'Valero Energy Corp. (NYSE:VLO) announced Wednesday that it has a plan in the works for its first big ...'
p1
aS'Apr 27, 2010 - I\'ve got a "good news-bad news" story for you. First the good news. Oil refining is recovering. If you own shares of Tesoro Corp. (NYSE: TSO), Valero Energy ...'
p2
aS'Apr 28, 2010 - The ballot initiative to delay AB 32, the Global Warming Solutions Act, is spearheaded by San Antonio-based Valero Energy Corp. and Tesoro Corp., which ...'
p3
aS'Apr 27, 2010 - A recognized expert in the energy sector, Schork is a regular guest on CNBC ... Valero Energy refinery. These energy stocks are rooting against crude oil ... Global Business and Financial News, Stock Quotes, and Market Data and Analysis.'
p4
aS'Apr 27, 2010 - Photo: San Antonio Express-News. Image 1of/17. Caption. Close. Image 1 of 17. San Antonio Police Sgt. Tom Alonzo (far right) assembles his team of Problem ...'
p5
aS"Apr 27, 2010 - For the second time in two local families' lives, a motorist accused of drunken driving has left them grieving the loss of a son. It was tough, said Zamarripa's best ..."
p6
aS"Apr 27, 2010 - April 2010 News Center. April 27, 2010 ..... Valero Introduces Store Brand Sports Drink. Valero U Force ... Costa to Open Four More 'Zero-Energy' Coffee Shops."
p7
aS'Apr 28, 2010 - Ethanol producers Green Plains Energy of Omaha and Valero Energy of San Antonio reported profits from their ethanol operations in the first quarter. Valero,'
p8
aS'Apr 28, 2010 - Solar Power Purchase Agreements (PPAs) allow customers to use clean solar energy without any upfront capital, while removing the risk of ongoing operations ...'
p9
aS'Apr 28, 2010 - Oakland, Berkeley, And East Bay News, Events, Restaurants, Music, & Arts. Facebook ... in /; Create Account. April 28, 2010 News & Opinion  Full Disclosure ...'
p10
a.