(lp0
S'Valero Energy Corp. (NYSE:VLO) announced Wednesday that it has a plan in the works for its first big ...'
p1
aS'Apr 28, 2010 - The ballot initiative to delay AB 32, the Global Warming Solutions Act, is spearheaded by San Antonio-based Valero Energy Corp. and Tesoro Corp., which ...'
p2
aS'Apr 29, 2010 - San Antonio Express-News  ExpressNews.com  iPad app  eEdition  Search Our News Archive  Manage Your Subscription. Hearst Newspapers  Copyright ...'
p3
aS'Apr 30, 2010 - Find Energy Companies and a complete list of NASDAQ, ...'
p4
aS'Apr 28, 2010 - Ethanol producers Green Plains Energy of Omaha and Valero Energy of San Antonio reported profits from their ethanol operations in the first quarter. Valero,'
p5
aS'Apr 28, 2010 - Solar Power Purchase Agreements (PPAs) allow customers to use clean solar energy without any upfront capital, while removing the risk of ongoing operations ...'
p6
aS'Apr 28, 2010 - Oakland, Berkeley, And East Bay News, Events, Restaurants, Music, & Arts. Facebook ... in /; Create Account. April 28, 2010 News & Opinion  Full Disclosure ...'
p7
aS'Apr 29, 2010 - Valero Energy Corp. (VLO); Holly Corporation (HOC); Western Refining Inc. (WNR); Alon USA Energy, Inc. (ALJ); Frontier Oil Corporation (FTO); Sunoco ...'
p8
aS'Apr 29, 2010 - News Updates: ... The news Al Gore should read. ..... ballot," said Steve Maviglio of Californians for Clean Energy and Jobs, referring to companies like Valero ...'
p9
aS'Apr 28, 2010 - Valero Energy Corp to export ethanol for first time  40,000 in southeast ... US News. The Robot-Snake Charger Designed by Tesla Could Scare you Along with ...'
p10
a.