(lp0
S'Apr 5, 2010 - Valero Energy Corp., an oil and gas refining company based in San Antonio, Texas, said it owns the cargo on board the tanker, but could not ... World News  ...'
p1
aS'Apr 5, 2010 - Reuters reported that the US refiner Valero Energy Corp said it was the owner of the crude oil cargo. It said a pirate source named Mohamed had said the ship ...'
p2
aS'Apr 5, 2010 - Valero Energy Corp., an oil and gas refining company based in San Antonio, Texas, said it owns the cargo on board the tanker, but could ... RELATED NEWS ...'
p3
aS'Apr 5, 2010 - News outlets are reporting that pirates from Somalia have hijacked an oil tanker ... The oil, owned by Valero Energy Corp., was coming from Iraq and heading for ...'
p4
aS'Apr 6, 2010 - By Vincent T. Davis - Express-News .... San Antonio Express-News  ExpressNews.com  iPad app  eEdition  Search Our News Archive  Manage Your ...'
p5
aS'Apr 6, 2010 - San Antonio Express-News  ExpressNews.com  iPad app  eEdition  Search Our News Archive  Manage Your Subscription. Hearst Newspapers  Copyright ...'
p6
aS'Apr 4, 2010 - San Antonio Express-News  ExpressNews.com  iPad app  eEdition  Search Our News Archive  Manage Your Subscription. Hearst Newspapers  Copyright ...'
p7
aS'Apr 4, 2010 - Tucker Energy Services Ltd. company research & investing information. Find executives and the latest company news. ... Petroleum Transport, Inc. United States. Valero Partners Houston, LLC, United States. New Leaf Biofuel, LLC, United ...'
p8
aS'Apr 5, 2010 - On Thursday and Friday, the companies -- so far, they include AT&T, Verizon, Caterpillar, Deere, Valero Energy, AK Steel and 3M -- said a tax provision in the ...'
p9
aS'Apr 5, 2010 - How to Sell to Coca-Cola  How to Sell to UPS  How to Sell to Intuit  How to Sell to Valero Energy  How Casper Became a $100 Million Company in Less Than ...'
p10
a.