(lp0
S"Apr 6, 2010 - San Antonio-based Valero Energy Corp. just rolled out its store brand U Force Sport drink to its network of ... Most of Valero's store brands are sold under the Fresh Choices name, but Hal Adams, vice president of ... Convenience Store News."
p1
aS'Apr 6, 2010 - ... carrying almost 2 million barrels of crude oil purchased by San Antonio-based refiner Valero Energy Corp. ... VICKI VAUGHAN, San Antonio Express-News ...'
p2
aS"Apr 7, 2010 - The Valero Energy Corporation, a San Antonio-based company that is one of the nation's largest independent oil refiners and retailers, has contributed ..."
p3
aS'Apr 6, 2010 - Valero Energy Corp. in San Antonio owns the cargo. Heavily armed pirates in skiffs and speedboats have for years bedeviled shipping lanes in the violent Horn ...'
p4
aS'Apr 7, 2010 - Valero (12, Hammond); General Electric ... Duke Energy (17, Owensville, New Albany, Cayuga, West Terre Haute, Edwardsport); United States ... More News .'
p5
aS"Apr 6, 2010 - News, Insights & Blogs .... Valero Energy Corporation: The Board also believes that risk management is an integral part of Valero's annual strategic planning ..."
p6
aS"Apr 6, 2010 - Coal, as a domestic energy supply with 200 years' worth of reserves, deserves further consideration because technologies exist to burn it in ways that are ..."
p7
aS'Apr 6, 2010 - ... were totally unprecedented. Express-News business writer William Pack contributed to this report. ... Rush Enterprises profit slides 87% due to energy slump ...'
p8
aS'Apr 6, 2010 - ... Kay to death during an argument. Staff writer Lynn Brezosky, news research editor Mike Knoop and the Houston Chronicle staff contributed to this report.'
p9
aS'Apr 7, 2010 - April 07, 2010 News & Opinion  Feature ..... Opponents of oil-by-rail shipments want the city to block a proposed Valero facility, but Valero says the city lacks ...'
p10
a.