(lp0
S'May 12, 2010 - Sparks Fly in New Arizona Solar-Energy-Initiative Campaign ... 2.03, Valero 6701 W Olive Ave & N 67th Ave Peoria Apr 19,10:30 AM, 6701 W Olive Ave & N 67th ...'
p1
aS'May 12, 2010 - Sparks Fly in New Arizona Solar-Energy-Initiative Campaign ... 2.03, Valero 6701 W Olive Ave & N 67th Ave Peoria Apr 19,10:30 AM, 6701 W Olive Ave & N 67th ...'
p2
aS'May 13, 2010 - Terminal News ... Amsterdam-based independent energy trade, transport and storage ... US energy asset partnership Magellan Midstream reported petroleum ...'
p3
aS"May 11, 2010 - RECENT NEWS ... The trailing-twelve-month profit margin at Valero Energy Partners LP (NYSE: VLP) is 55.90 percent. Valero Energy Partners' PEG ratio is."
p4
aS"May 12, 2010 - ... its calcium chloride business and its interests in Total Raffinaderij Nederland (TRN), Dow's joint venture with Total S.A., to Valero Energy Corporation (VLO)."
p5
aS'May 12, 2010 - The Express-News filed open-records requests for data and policies at other large police departments in Texas, but most agencies sought permission from the ...'
p6
aS"May 13, 2010 - At first we didn't know if we would ever be taking our son home, but now we are, his father, Kelly Nichols, said before the family flew home from Houston on the ..."
p7
aS"May 12, 2010 - Conversation with ? Anet Alaniz, owner of Pig Liquors Anet Alaniz opened Pig Liquors, a liquor store and boutique in Southtown, because, well, there wasn't ..."
p8
aS"May 11, 2010 - Home  Breaking News ... campaign against two Texas companies, Tesoro and Valero Energy Corp., that are helping fund the initiative. ... AB32's energy cost."
p9
aS'May 12, 2010 - ... Northern Tier Energy ExxonMobil Joliet Phillips 66 Ferndale Refinery Citgo ... Description: The Valero Benicia Refinery is committed to keeping its ... tools and knowledge needed to work safely at the Valero Benicia Refinery. ... Safety News.'
p10
a.