(lp0
S'May 16, 2010 - Valero Energy Corp (VLO) Trading Signals. Get Buy sell hold recommendations, technical analysis, trading strategy.'
p1
aS"May 16, 2010 - Adam Scott hoists the Valero Texas Open trophy as Valero's Mike Ciskowski looks on during the award ceremony following play at the AT&T Oaks Course at ..."
p2
aS'May 17, 2010 - San Antonio Express-News  ExpressNews.com  iPad app  eEdition  Search Our News Archive  Manage Your Subscription. Hearst Newspapers  Copyright ...'
p3
aS'May 17, 2010 - San Antonio Express-News  ExpressNews.com  iPad app  eEdition  Search Our News Archive  Manage Your Subscription. Hearst Newspapers  Copyright ...'
p4
aS"May 17, 2010 - Local rock 'n' roll quartet The Krayolas (fronted by Express-News reporter Hector Saldaa), augmented on a couple of songs by harmonica ace Benny Harp, set ..."
p5
aS'May 17, 2010 - The International Atomic Energy Agency (IAEA), which would oversee the nuclear ... program," French Foreign Ministry spokesman Bernard Valero said in a statement. .... Thomson Reuters is the world\'s largest international multimedia news ...'
p6
aS'May 17, 2010 - He practiced there until February 1971, when he was asked to become General Council and Executive Vice President of Valero Energy Corp, where he ...'
p7
aS'May 17, 2010 - Bernard Valero, the French foreign ministry spokesman said: "Let\'s not be duped by this. The exchange of uranium that is envisaged amounts to ... World News  ...'
p8
aS'May 17, 2010 - In December 2009, a boiler at the Valero Energy Corp. Star Site refinery in Texas City failed, according to company officials, killing one refinery worker and ...'
p9
aS'May 17, 2010 - said late on Monday while visiting Tunisia, Xinhua news agency said. ... Ali Akbar Salehi, head of Iran\'s Atomic Energy Organization, told Reuters. ... nuclear program," French Foreign Ministry spokesman Bernard Valero said in a statement.'
p10
a.