(lp0
S'May 18, 2010 - Mexicans seek news of loved ones after deadly explosion ... San Antonio Express-News  ExpressNews.com  iPad app  eEdition  Search Our News Archive ...'
p1
aS'May 18, 2010 - San Antonio Express-News  ExpressNews.com  iPad app  eEdition  Search Our News Archive  Manage Your Subscription. Hearst Newspapers  Copyright ...'
p2
aS'May 20, 2010 - DOW JONES, A NEWS CORP COMPANY ..... Group LP and First Reserve Corp. joint venture PBF Partners LP agreed in April to buy Valero Energy Corp.'
p3
aS"May 19, 2010 - Valero Energy Corp to export ethanol for first time  40,000 in southeast ... US News. IBM Watson's Uses Artificial Intelligence techniques to Teach Robots Better ..."
p4
aS'May 19, 2010 - Valero Energy Corp to export ethanol for first time  40,000 in southeast ... US News. The Robot-Snake Charger Designed by Tesla Could Scare you Along with ...'
p5
aS'May 18, 2010 - Valero Energy Corp to export ethanol for first time  40,000 in southeast ... US News. The Robot-Snake Charger Designed by Tesla Could Scare you Along with ...'
p6
aS'May 19, 2010 - May 19, 2010 News & Opinion  Feature .... Opponents of oil-by-rail shipments want the city to block a proposed Valero facility, but Valero says the city lacks this ...'
p7
aS'May 19, 2010 - Oakland, Berkeley, And East Bay News, Events, Restaurants, Music, & Arts .... After three years of extracting refunds from the energy crisis, Kolakowski .... Opponents of oil-by-rail shipments want the city to block a proposed Valero facility, but ...'
p8
aS'May 19, 2010 - May 19, 2010 News & Opinion  Full Disclosure .... He has spent considerable time and energy analyzing the system and has more than enough ideas on what ...'
p9
aS'May 19, 2010 - ... Providers (MultiPlan), (800) 546-3887. United Healthcare, (877) 842-3210. USA Managed care Organization, (800) 872-0020. Valero Energy, (800) 755-5680.'
p10
a.