(lp0
S'May 20, 2010 - Corporate presence from companies like Medtronic and Valero Energy Corp. keep business humming for tech companies that provide support, Uribe said, even ...'
p1
aS'May 20, 2010 - ... KENS5 talent and members of the community puton their red dancing shoes forthe 7th annual Red Shoes Gala, honoring Bill Klesse, CEO Valero Energy.'
p2
aS'May 20, 2010 - DOW JONES, A NEWS CORP COMPANY ..... Group LP and First Reserve Corp. joint venture PBF Partners LP agreed in April to buy Valero Energy Corp.'
p3
aS'May 19, 2010 - May 19, 2010 News & Opinion  Feature .... Opponents of oil-by-rail shipments want the city to block a proposed Valero facility, but Valero says the city lacks this ...'
p4
aS"May 19, 2010 - Valero Energy Corp to export ethanol for first time  40,000 in southeast ... US News. IBM Watson's Uses Artificial Intelligence techniques to Teach Robots Better ..."
p5
aS'May 19, 2010 - Valero Energy Corp to export ethanol for first time  40,000 in southeast ... US News. The Robot-Snake Charger Designed by Tesla Could Scare you Along with ...'
p6
aS'May 19, 2010 - Valero Energy Corp to export ethanol for first time  40,000 in southeast ... US News. The Robot-Snake Charger Designed by Tesla Could Scare you Along with ...'
p7
aS'May 20, 2010 - JORGE VALERO BRICEO ( Venezuela) said, as far as he knew, the concept of human security had not ... problems facing the world, from the financial crisis to food insecurity and high energy and food costs. ..... News & Media Resources.'
p8
aS"May 20, 2010 - n Jeev Milkha Singh Former ACU golfer shot 76-70 at the Valero Texas Open and missed the cut by one shot. It was Singh's first tournament since missing ..."
p9
aS'May 20, 2010 - M.P. Lobera , S. Valero , J.M. Serra , S. Escolstico , E. Argente , V. Botti. Chemical Engineering ... C&EN Online News. Chemical & Engineering ... Waste material from the energy crop elephant grass yields flavor and fragrance compounds.'
p10
a.