(lp0
S'May 23, 2010 - The federal Energy Information Administration says the production of petroleum products was down 5.8 percent in ... Valero Energy shuttered a 210,000-barrel-per-day refinery in Delaware in November, eliminating 550 jobs. .... National News ...'
p1
aS'May 24, 2010 - San Antonio Express-News  ExpressNews.com  iPad app  eEdition  Search Our News Archive  Manage Your Subscription. Hearst Newspapers  Copyright ...'
p2
aS'May 23, 2010 - ... such as the prevailing wind direction, view corridors and sun angles  things that can make a major difference in home design, comfort and energy bills. [.'
p3
aS'May 23, 2010 - Valero Energy Corp to export ethanol for first time  40,000 in southeast ... US News. The Robot-Snake Charger Designed by Tesla Could Scare you Along with ...'
p4
aS'May 23, 2010 - Valero Energy Corp to export ethanol for first time  40,000 in southeast ... US News. The Robot-Snake Charger Designed by Tesla Could Scare you Along with ...'
p5
aS'May 24, 2010 - In addition, Holly Corp., Sunoco Inc., Tesoro Corp., and Valero Energy Corp. each reported a ... Get All the Oil and Gas Journal News Delivered to Your Inbox.'
p6
aS'May 23, 2010 - Randall Green, a retired Valero employee and lay Church of Christ preacher in Texas City for two decades, thought he had found paradise on Earth when he ...'
p7
aS"May 24, 2010 - Intel (NASDAQ:INTC), Apple (NASDAQ:AAPL), Valero Energy (NYSE:VLO), Freeport-McMoRan (NYSE:FCX) (I guess we're done relentlessly shorting them!) ..."
p8
aS'May 23, 2010 - Nature Conservancy Chief Scientist Peter Kareiva says the energy industry can be a ... The NYTimes, other news organizations and the government have provided ...... The largest refiner, Valero, has about 12% of the US gasoline market.'
p9
aS'May 24, 2010 - Valero Energy Inc, Canada, Bunker Supplier, Bunker Trader. Valero Marketing & Supply Company, USA, Bunker Supplier, Oil Storage. Veritas Petroleum ...'
p10
a.