(lp0
S'May 26, 2010 - SKYY Vodka has partnered with Warner Bros. to mix signature cocktails  Glamour Girl, Blonde Ambition, Park Avenue Princess, Red Over Heels and Mr.'
p1
aS'May 24, 2010 - Valero Energy Inc, Canada, Bunker Supplier, Bunker Trader. Valero Marketing & Supply Company, USA, Bunker Supplier, Oil Storage. Veritas Petroleum ...'
p2
aS'May 24, 2010 - In addition, Holly Corp., Sunoco Inc., Tesoro Corp., and Valero Energy Corp. each reported a ... Get All the Oil and Gas Journal News Delivered to Your Inbox.'
p3
aS'May 25, 2010 - News Clipping ... headed by Steven Chu received the bulk of a $500 million grant from the British oil giant BP to develop alternative energy sources through [].'
p4
aS'May 25, 2010 - Valero Energy Station ... With the latest News & Advice from Manta, you can stay ahead of the trends and challenges affecting your industry and help your small ...'
p5
aS"May 25, 2010 - If only anyone in energy production was actually willing to compromise some short .... For gasoline, I guess if you drove to a Valero refinery and filled up there, you'd .... Nick, I only know what I've heard from as many news sources as I can find, ..."
p6
aS'May 25, 2010 - Weather will be a factor at the Valero Texas Open at TPC San Antonio. ... News Watchdog Opinion Sports Business Entertainment Lifestyle Green Sheet ...'
p7
aS'May 25, 2010 - CenterPoint Energy Field Services, Inc., a natural gas gathering and treating ... market information, including news and analysis ..... Valero is not expecting any.'
p8
aS"May 24, 2010 - Intel (NASDAQ:INTC), Apple (NASDAQ:AAPL), Valero Energy (NYSE:VLO), Freeport-McMoRan (NYSE:FCX) (I guess we're done relentlessly shorting them!) ..."
p9
aS'May 24, 2010 - Get reviews, hours, directions, coupons and more for Valero at 322 E Main St, Bellville, TX. Search for other Gas Stations in Bellville on YP.com.'
p10
a.