(lp0
S'May 28, 2010 - Gus Chan, The Plain Dealer)Family-owned Tayeh Valero gas station, at E. 79th St. ... Latest news, photos, videos from the BP Deepwater Horizon drilling disaster ... and CEO of EZ Energy USA in Cleveland, which owns 78 BP stations in Ohio, ...'
p1
aS"May 28, 2010 - At a news conference Friday morning, he unveiled the department's latest crime-fighting toy  er, um, tool: a sleek 2010 Chevy Camaro, silver-colored, with ..."
p2
aS'May 27, 2010 - ... corporate communications, FedEx Corp.; Lisa Wheeler, public affairs manager, Valero Energy; Ken Foster, executive director, Memphis Education Association.'
p3
aS"May 27, 2010 - Valero (NYSE:VLO) is an interesting company to look at sometimes: it's the .... by Brad Thomas; Energy Transfer Equity's Merger With Williams Is Crumbling by ..."
p4
aS"May 28, 2010 - Stay Up To Date with the Most Current Oil and Natural Gas News ... isn't producing enough value for shareholders  Valero Energy (VLO) Stock Lower on Credit ..."
p5
aS'May 28, 2010 - Valero Energy Corp to export ethanol for first time  40,000 in southeast Michigan still ... Company News  Technology Sector  Featured  Apple  Microsoft.'
p6
aS'May 27, 2010 - Valero Energy Corp to export ethanol for first time  40,000 in southeast ... US News. The Robot-Snake Charger Designed by Tesla Could Scare you Along with ...'
p7
aS'May 27, 2010 - Nobody anticipated that deregulating the energy market in California would make ..... In September, Valero ( VLO  news  people ), the largest of the ...'
p8
aS'May 27, 2010 - Categories: Green Fields: Agriculture and Alternative Energy. British grain processor ... It sits directly west of the Valero Energy ethanol plant. The continued ...'
p9
aS'May 28, 2010 - Mission expects to begin producing under the Valero contract once the U.S. Environmental ... View Related News ... From this sub-industry, Alternative Energy'
p10
a.