(lp0
S"May 3, 2010 - Valero Energy Corp., the largest U.S. independent refiner, operates five ... we're not expecting any disruptions to supply, Bill Day, a Valero spokesman, said in a ..."
p1
aS'May 4, 2010 - San Antonio Express-News  ExpressNews.com  iPad app  eEdition  Search Our News Archive  Manage Your Subscription. Hearst Newspapers  Copyright ...'
p2
aS'May 3, 2010 - Valero Energy Corp to export ethanol for first time  40,000 in southeast Michigan still deprived of power supply ... Insurance Sector  Featured  TNM  India News.'
p3
aS"May 4, 2010 - ... in China, was originally derived from Siemens' Valero line of train technologies. ... transit infrastructure while the United States is lagging behind in the race to develop clean energy industries. .... Subscribe to National Security News Alerts ..."
p4
aS'May 4, 2010 - ... LLOG Exploration Company, Devon Energy, Anadarko Petroleum Company and Oceaneering ... Shell Exploration and Production, Valero Refinery and Marathon Oil Corporation. ... Last Friday April 30, Alabama Local News also reported ...'
p5
aS'May 3, 2010 - swimming that require a burst of energy, and where a split second can decide the winner, the Australian researchers said. Human growth hormone, or HGH, ...'
p6
aS'May 4, 2010 - dit le 04/05/2010 - Plus de news de "SAIPEM" - Voir la fiche entreprise de "SAIPEM". Saipem awarded onshore contracts worth USD 3.5 billion. Saipem has ...'
p7
aS'May 4, 2010 - dit le 04/05/2010 - Plus de news de "AMEC" - Voir la fiche entreprise de ... AMEC awarded a five-year brownfield topside projects contract by Talisman Energy ...'
p8
aS'May 4, 2010 - Every facet of energy exploration, recovery, storage processing, and ...... National Petroleum News Market Facts; United States Department of Energy: Washington, DC, USA, 2009. ..... 6, Valero Three Rivers Refy, Three Rivers, 530,000,000.'
p9
aS"May 3, 2010 - NewsBlaze News logo ... She also performs regularly with Flamenco Vivo Carlota Santana, Jorge Navarro's Pasion Flamenca, and Oscar Valero Flamenco Company. ... leads it through moments of joyfulness, severity, high energy and tension."
p10
a.