(lp0
S'Jun 10, 2010 - >Great Plains Renewable Energy Inc. has acquired five grain elevators in west .... Biorefining, Siouxland Energy & Livestock Co-op and Valero Energy Corp.'
p1
aS'Jun 10, 2010 - The former Renew Energy plant in Jefferson, Wis., also resumed full operations after Valero Energy Corp. purchased the 110 MMgy corn-based ethanol plant in ...'
p2
aS'Jun 10, 2010 - Valero Energy Corp. purchased Renew Energy, (now Valero Renewables Jefferson) for $72 million, and Sunoco Inc., purchased a 100 MMgy bankrupt plant in ...'
p3
aS'Jun 10, 2010 - Obama was the keynote speaker at the grand opening of the Charles City, Iowa, ethanol plant now owned and operated by Valero Energy Corp."I believe in ...'
p4
aS'Jun 10, 2010 - Menora Mivtachim Holdings Ltd. buys $21 Million stake in Valero Energy . ... Mas Market News - 13 hours ago ... Financial Market News - Mar 24, 2016.'
p5
aS'Jun 10, 2010 - By Pat Turner - Contributing writer/North Central News .... ExpressNews.com  iPad app  eEdition  Search Our News Archive  Manage Your Subscription.'
p6
aS"Jun 10, 2010 - ... the cycle anew. Got a poker question or comment? E-mail Chuck at cblount@express-news.net. ... Charley Hoffman is Valero Texas Open's clubhouse leader ..."
p7
aS"Jun 9, 2010 - Allstate Insurance Co. marked the opening of its customer information center in San Antonio on Wednesday, but it's still looking to hire more than 300 people to ..."
p8
aS'Jun 9, 2010 - June 09, 2010 News & Opinion  Eco Watch ..... Opponents of oil-by-rail shipments want the city to block a proposed Valero facility, but Valero says the city lacks ...'
p9
aS'Jun 9, 2010 - June 09, 2010 News & Opinion  Seven Days .... Opponents of oil-by-rail shipments want the city to block a proposed Valero facility, but Valero says the city ...'
p10
a.