(lp0
S'Jun 10, 2010 - >Great Plains Renewable Energy Inc. has acquired five grain elevators in west .... Biorefining, Siouxland Energy & Livestock Co-op and Valero Energy Corp.'
p1
aS'Jun 10, 2010 - The former Renew Energy plant in Jefferson, Wis., also resumed full operations after Valero Energy Corp. purchased the 110 MMgy corn-based ethanol plant in ...'
p2
aS'Jun 10, 2010 - Valero Energy Corp. purchased Renew Energy, (now Valero Renewables Jefferson) for $72 million, and Sunoco Inc., purchased a 100 MMgy bankrupt plant in ...'
p3
aS'Jun 10, 2010 - Obama was the keynote speaker at the grand opening of the Charles City, Iowa, ethanol plant now owned and operated by Valero Energy Corp."I believe in ...'
p4
aS'Jun 10, 2010 - Menora Mivtachim Holdings Ltd. buys $21 Million stake in Valero Energy . ... Mas Market News - 13 hours ago ... Financial Market News - Mar 24, 2016.'
p5
aS'Jun 11, 2010 - Bill Greehey retired as Chairman of Valero Energy Corporation in January 2006 ... Since 1998, U.S. News & World Report has ranked National Jewish the #1 ...'
p6
aS'Jun 10, 2010 - By Pat Turner - Contributing writer/North Central News .... ExpressNews.com  iPad app  eEdition  Search Our News Archive  Manage Your Subscription.'
p7
aS"Jun 10, 2010 - ... the cycle anew. Got a poker question or comment? E-mail Chuck at cblount@express-news.net. ... Charley Hoffman is Valero Texas Open's clubhouse leader ..."
p8
aS"Jun 10, 2010 - On any given Thursday night at Texas Pride Barbecue, the expansive barbeque joint south of St. Hedwig becomes Texas' mini Sturgis, a hard-rockin' haven for ..."
p9
aS'Jun 11, 2010 - And according to the Department of Energy, the average passenger jet only gets ... Siemens is pushing hard to get its Valero high-speed train technology widely ...'
p10
a.