(lp0
S'Jun 14, 2010 - Mexicans seek news of loved ones after deadly explosion ... ExpressNews.com  iPad app  eEdition  Search Our News Archive  Manage Your Subscription.'
p1
aS'Jun 14, 2010 - As Express-News medical writer Don Finley reported, only two years ago the San Antonio medical community was embarrassed and frustrated that San Antonio, ...'
p2
aS'Jun 14, 2010 - Parts on the Guadalupe River downstream from New Braunfels, including six small lakes, might remain closed to recreation through Aug. 1 due to submerged ...'
p3
aS"Jun 13, 2010 - ... tired and winding down, you'll have fresh energy to experience the park in the evening. .... Discounts at H-E-B, Valero, Blockbuster and Sam's Club locations."
p4
aS"Jun 13, 2010 - Valero (NYSE:VLO) July $17 puts sold for .97, now .82 - up 15% ... the reaction we see when things that are old news to us finally get the attention of the MSM. .... We also added the Pengrowth Energy (NYSE:PGH) trade but I'll put that under ..."
p5
aS'Jun 14, 2010 - The Coastal Bend Daily Legal & Business News is a newspaper of general circulation as ..... 10-61096-3-Reliant Energy Retail Services LLC vs ..... -Valero FCU.'
p6
aS'Jun 14, 2010 - Home  About Us  Our Services  Project Profiles  News & ...'
p7
aS'Jun 14, 2010 - ... for the local NBA Developmental League team in Des Moines, the Iowa Energy. .... of top ranked PGA golfers in the playing field for 2016 Valero Texas Open ...'
p8
aS"Jun 14, 2010 - When this hit the e-news a few weeks ago, there was overwhelming support by the readers who AGREED with Quebec's action. Letter to the Editor: So many ..."
p9
aS'Jun 13, 2010 - Sign up to get the latest science news delivered weekly right to your inbox! ... Tons of News: My New Book; Research Help; Move to Science Progress  A Church ...'
p10
a.