(lp0
S'Jun 1, 2010 - News Items and Public Crime Summary for Week Ending. March 6, 2010 .... Valero Energy Corporation Chief Executive Bill Klesse said Tuesday that he is.'
p1
aS"May 31, 2010 - Benson's mother-in-law dies. Joe Alexander, Express-News -. Published 8:42 pm, Monday, ... Valero Texas Open: Live updates and analysis  Dallas Cowboys ..."
p2
aS'Jun 2, 2010 - By Jenny LaCoste-Caputo - Express-News .... Express-News  ExpressNews.com  iPad app  eEdition  Search Our News Archive  Manage Your Subscription.'
p3
aS'Jun 1, 2010 - Valero Energy Corp to export ethanol for first time  40,000 in southeast ... US News. The Robot-Snake Charger Designed by Tesla Could Scare you Along with ...'
p4
aS'Jun 1, 2010 - Valero Energy Corp to export ethanol for first time  40,000 in southeast ... US News. The Robot-Snake Charger Designed by Tesla Could Scare you Along with ...'
p5
aS'Jun 1, 2010 - Valero Energy Corp to export ethanol for first time  40,000 in southeast ... US News. The Robot-Snake Charger Designed by Tesla Could Scare you Along with ...'
p6
aS'Jun 1, 2010 - Valero Energy Corp to export ethanol for first time  40,000 in southeast ... US News. The Robot-Snake Charger Designed by Tesla Could Scare you Along with ...'
p7
aS'Jun 1, 2010 - -Valerolactone (GVL) has been identified as a promising, sustainable platform molecule that can be ... suggesting that the decarboxylation of alkene acids provides a lower energy pathway to olefin production than the ..... C&EN Online News.'
p8
aS'May 31, 2010 - He has over 20 years of engineering, operations and manufacturing leadership experience and served Valero Energy Corporation ... as Vice President and ...'
p9
aS'Jun 1, 2010 - i went to a valero gas station 2day and bought a monster energy 16 oz and it cost $2.97 plus tax and CRV. what are the average prices for monster energy, full ...'
p10
a.