(lp0
S"Jun 23, 2010 - What's more, my teenage son was thrilled to hear this news about a favorite TV gang of his: Fry, Leela, Bender and the rest of the zany bunch of animated series ..."
p1
aS'Jun 22, 2010 - Talent competition opens auditions to aspiring performers. By Leezia Dhalla - Express-News ... Mexicans seek news of loved ones after deadly explosion ...'
p2
aS'Jun 23, 2010 - The idea is to have a lot of growth, a lot of energy, breathed into the place, Junker said. That mandate has ... Valero Texas Open: Live updates and analysis.'
p3
aS'Jun 22, 2010 - Valero Energy Corp to export ethanol for first time  40,000 in southeast ... US News. The Robot-Snake Charger Designed by Tesla Could Scare you Along with ...'
p4
aS"Jun 22, 2010 - Valero Energy Corp to export ethanol for first time  40,000 in southeast ... US News. IBM Watson's Uses Artificial Intelligence techniques to Teach Robots Better ..."
p5
aS'Jun 22, 2010 - Valero Energy Corp to export ethanol for first time  40,000 in southeast ... US News. The Robot-Snake Charger Designed by Tesla Could Scare you Along with ...'
p6
aS'Jun 22, 2010 - News  About Us  Contact Us; Arguments ... CBI is an engineering and construction company providing services in the energy and petrochemical industries.'
p7
aS'Jun 22, 2010 - Valero Energy Station ... With the latest News & Advice from Manta, you can stay ahead of the trends and challenges affecting your industry and help your small ...'
p8
aS"Jun 21, 2010 - Courthouse News Service has an item today on a dispute between the city of Arlington and a law firm over .... Austin Energy customers foot bill  $2 a month per customer for 19. ... Valero tells the tax man what's what, awarded $5 million in."
p9
aS'Jun 21, 2010 - Get All the Oil and Gas Journal News Delivered to Your Inbox ... Customer Experience Management for Energy Companies: The Path to Happy Customers ...'
p10
a.