(lp0
S"Jun 23, 2010 - What's more, my teenage son was thrilled to hear this news about a favorite TV gang of his: Fry, Leela, Bender and the rest of the zany bunch of animated series ..."
p1
aS'Jun 23, 2010 - That is not good news. Unfortunately instead of trying to find ways to address the problem, a movement is under way attempting to limit government spending on ...'
p2
aS'Jun 22, 2010 - Talent competition opens auditions to aspiring performers. By Leezia Dhalla - Express-News ... Mexicans seek news of loved ones after deadly explosion ...'
p3
aS'Jun 24, 2010 - In 2006, he changed the name of H&H Oil Co., Inc. to Victron Energy, Inc., and built new ... for not only ExxonMobil, but also Shell, Chevron, Texaco, Conoco, Valero and other, unbranded fuels. ... Victron featured in Convenience Store News.'
p4
aS'Jun 22, 2010 - Valero Energy Corp to export ethanol for first time  40,000 in southeast ... US News. The Robot-Snake Charger Designed by Tesla Could Scare you Along with ...'
p5
aS"Jun 22, 2010 - Valero Energy Corp to export ethanol for first time  40,000 in southeast ... US News. IBM Watson's Uses Artificial Intelligence techniques to Teach Robots Better ..."
p6
aS'Jun 22, 2010 - Valero Energy Corp to export ethanol for first time  40,000 in southeast ... US News. The Robot-Snake Charger Designed by Tesla Could Scare you Along with ...'
p7
aS'Jun 23, 2010 - June 23, 2010 News & Opinion  Eco Watch .... Opponents of oil-by-rail shipments want the city to block a proposed Valero facility, but Valero says the city lacks ...'
p8
aS'Jun 23, 2010 - Oakland, Berkeley, And East Bay News, Events, Restaurants, Music, & Arts ... The bad news arrived as they were cooking 45 pounds of pasta and melting mounds of ..... Opponents of oil-by-rail shipments want the city to block a proposed Valero facility, ... Everything you need to know about saving water, energy efficiency, ...'
p9
aS'Jun 22, 2010 - News  About Us  Contact Us; Arguments ... CBI is an engineering and construction company providing services in the energy and petrochemical industries.'
p10
a.