(lp0
S'Jun 23, 2010 - That is not good news. Unfortunately instead of trying to find ways to address the problem, a movement is under way attempting to limit government spending on ...'
p1
aS'Jun 24, 2010 - San Antonio Express-News  ExpressNews.com  iPad app  eEdition  Search Our News Archive  Manage Your Subscription. Hearst Newspapers  Copyright ...'
p2
aS'Jun 24, 2010 - In 2006, he changed the name of H&H Oil Co., Inc. to Victron Energy, Inc., and built new ... for not only ExxonMobil, but also Shell, Chevron, Texaco, Conoco, Valero and other, unbranded fuels. ... Victron featured in Convenience Store News.'
p3
aS'Jun 23, 2010 - June 23, 2010 News & Opinion  Eco Watch .... Opponents of oil-by-rail shipments want the city to block a proposed Valero facility, but Valero says the city lacks ...'
p4
aS'Jun 24, 2010 - If people change their lifestyle, we can save energy and reduce emissions." The campaign also proposes that ... Earth . In Climate Change. Fisherman Rene Valero, from the Urus ethnic group, is seen on his boat on ... Top news galleries ...'
p5
aS'Jun 23, 2010 - TORRENT ENERGY AKTIE und aktueller Aktienkurs. ... Kurse + Charts + Realtime, News + Analysen, Fundamental, Unternehmen ... Valero Energy, -1,1% ...'
p6
aS'Jun 24, 2010 - Frequently Asked Questions Financial Assistance Crane Tech News Behind The Scenes Tech Tips Newsletter Signup Client Portal. NCCCO Platinum Sponsor.'
p7
aS"Jun 23, 2010 - News Bytes. ON THE COVER .... informative (for news not otherwise available) and inspirational, a mood ...... a fire at Valero Energy Corp.'s Memphis refinery."
p8
aS'Jun 24, 2010 - ... AWARD-WINNING TEACHER, AND GREEN ENERGY LEADER TO STATE ASSEMBLY ... with most from two large out-of-state oil companies, Valero and Tesoro. ... News. I am persuaded that this project will not be built. It was conceived in ...'
p9
aS'Jun 24, 2010 - Valero Energy Corporation ... SAP Network GLOBAL for SAP Jobs, Opportunities, News and Knowledge ... SAP BASIS Administrator at CenterPoint Energy ...'
p10
a.