(lp0
S'Jun 26, 2010 - More Details for Valero Renewable Fuels Company LLC ... With the latest News & Advice from Manta, you can stay ahead of the trends and challenges affecting ...'
p1
aS'Jun 26, 2010 - The federal export-credit agency that was bilked out of millions of dollars by Andrew Parker of San Antonio  one of the largest thefts it has suffered to date  suddenly has a handful of similar fraud cases in El Paso. ... Then they stop paying back the loans, which go into ...'
p2
aS'Jun 25, 2010 - The McNay Art Museum announced Friday that two paintings by Pablo Picasso, one of the creators of Cubism with Georges Braque, have been added to the ...'
p3
aS'Jun 25, 2010 - ... Commits to Long-Term Energy Recovery Projects with Steam Sales Agreement to Valero Energy HOUSTON, Texas (June ... News from Notch Consulting, Inc.'
p4
aS'Jun 24, 2010 - If people change their lifestyle, we can save energy and reduce emissions." The campaign also proposes that ... Earth . In Climate Change. Fisherman Rene Valero, from the Urus ethnic group, is seen on his boat on ... Top news galleries ...'
p5
aS'Jun 25, 2010 - Valero refineries. Graphic courtesy ... The AB32 move toward clean energy sources is opposed by Texas oil giants Valero Energy Inc. and Tesoro Corp. ... Posted: June 25th, 2010 under Local News, News From The Friends And Ballona.'
p6
aS'Jun 24, 2010 - Frequently Asked Questions Financial Assistance Crane Tech News Behind The Scenes Tech Tips Newsletter Signup Client Portal. NCCCO Platinum Sponsor.'
p7
aS'Jun 24, 2010 - ... AWARD-WINNING TEACHER, AND GREEN ENERGY LEADER TO STATE ASSEMBLY ... with most from two large out-of-state oil companies, Valero and Tesoro. ... News. I am persuaded that this project will not be built. It was conceived in ...'
p8
aS'Jun 25, 2010 - A capacity crowd attended the 2010 Silicon Valley Energy Summit on June 25 at the ... financial backing from Texas-based oil companies Valero and Tesoro.'
p9
aS"Jun 24, 2010 - Sign up for email updates and get the latest news about what Big Oil is up to. ... Occidental's Record High Profit  Energy Co's Pay Regulators' Way  Exxon's ..."
p10
a.