(lp0
S'Jun 1, 2010 - News Items and Public Crime Summary for Week Ending. March 6, 2010 .... Valero Energy Corporation Chief Executive Bill Klesse said Tuesday that he is.'
p1
aS"Jun 2, 2010 - The World's #1 Renewable Energy Network for News, Information, and .... are currently bankrupt and looking to be acquired (by Valero in VeraSun's case)."
p2
aS'Jun 2, 2010 - By Jenny LaCoste-Caputo - Express-News .... Express-News  ExpressNews.com  iPad app  eEdition  Search Our News Archive  Manage Your Subscription.'
p3
aS'Jun 2, 2010 - San Antonio residents are asked to bring a picture ID and current CPS Energy bill showing Environmental Fee as proof of residency when visiting a HHW site.'
p4
aS'Jun 1, 2010 - Valero Energy Corp to export ethanol for first time  40,000 in southeast ... US News. The Robot-Snake Charger Designed by Tesla Could Scare you Along with ...'
p5
aS'Jun 1, 2010 - Valero Energy Corp to export ethanol for first time  40,000 in southeast ... US News. The Robot-Snake Charger Designed by Tesla Could Scare you Along with ...'
p6
aS'Jun 1, 2010 - Valero Energy Corp to export ethanol for first time  40,000 in southeast ... US News. The Robot-Snake Charger Designed by Tesla Could Scare you Along with ...'
p7
aS"Jun 2, 2010 - Oakland, Berkeley, And East Bay News, Events, Restaurants, Music, & Arts .... Tags: News, UC Berkeley's Department of Electrical Engineering and Computer ... Opponents of oil-by-rail shipments want the city to block a proposed Valero facility, but ... Everything you need to know about saving water, energy efficiency, ..."
p8
aS'Jun 2, 2010 - ... Tree Hugger (Environmental News)  Triple Pundit Blog (Environment and ... energy use and processes across the organization, Valero was able to save $120 ...'
p9
aS'Jun 1, 2010 - -Valerolactone (GVL) has been identified as a promising, sustainable platform molecule that can be ... suggesting that the decarboxylation of alkene acids provides a lower energy pathway to olefin production than the ..... C&EN Online News.'
p10
a.