(lp0
S'Jun 3, 2010 - gtm NEWS  gtm EVENTS  GTM Squared .... Terrabon  Texas Clean Fuels  Tyson Foods  UOP  Valcent  Valero  Vercipia  XL Renewables  Zeachem.'
p1
aS"Jun 2, 2010 - The World's #1 Renewable Energy Network for News, Information, and .... are currently bankrupt and looking to be acquired (by Valero in VeraSun's case)."
p2
aS'Jun 3, 2010 - Everything about 54-year-old Oribe, a one-name hairstylist to the stars, is slick and sexy: from his man-in-black ensemble -- sleeves pushed up to reveal ...'
p3
aS'Jun 2, 2010 - San Antonio residents are asked to bring a picture ID and current CPS Energy bill showing Environmental Fee as proof of residency when visiting a HHW site.'
p4
aS"Jun 2, 2010 - Oakland, Berkeley, And East Bay News, Events, Restaurants, Music, & Arts .... Tags: News, UC Berkeley's Department of Electrical Engineering and Computer ... Opponents of oil-by-rail shipments want the city to block a proposed Valero facility, but ... Everything you need to know about saving water, energy efficiency, ..."
p5
aS'Jun 3, 2010 - Valero Energy Corp to export ethanol for first time  40,000 in southeast ... US News. The Robot-Snake Charger Designed by Tesla Could Scare you Along with ...'
p6
aS"Jun 3, 2010 - Valero Energy Corp to export ethanol for first time  40,000 in southeast ... US News. IBM Watson's Uses Artificial Intelligence techniques to Teach Robots Better ..."
p7
aS"Jun 3, 2010 - ... as Feature Story in the Local Stories section of the Sacramento News & Review. ... curly haired, fast-talking, with a gravelly, basso voice, full of kinetic energy, ..... Local activists ask elected officials to block Valero's plan to ship oil by train."
p8
aS'Jun 2, 2010 - ... Tree Hugger (Environmental News)  Triple Pundit Blog (Environment and ... energy use and processes across the organization, Valero was able to save $120 ...'
p9
aS'Jun 3, 2010 - dit le 03/06/2010 - Plus de news de "SEADRILL" - Voir la fiche entreprise de ... The term contract between Seadrill and Devon Energy for West Sirius for ...'
p10
a.