(lp0
S'Jun 6, 2010 - San Antonio Express-News  ExpressNews.com  iPad app  eEdition  Search Our News Archive  Manage Your Subscription. Hearst Newspapers  Copyright ...'
p1
aS'Jun 7, 2010 - As we have seen, all of the last eight presidents espoused a goal of energy ..... know that cellulosic is really viable not when Poet does it, but when Valero gets into it. .... This is good news for farmers, but has the potential to upset the plans of a ...'
p2
aS'Jun 6, 2010 - Valero Energy Group just announced plans to reopen the facilities in St. Nicolas. Wide spread euphoria within ranks of the government, workers, Valero and financial commentators was the result. Is this euphoria ... Tourism News  Alhambra ...'
p3
aS'Jun 6, 2010 - Valero Energy Group just announced plans to reopen the facilities in St. Nicolas. Wide spread euphoria within ranks of the government, workers, Valero and financial commentators was the result. Is this euphoria ... Tourism News  Alhambra ...'
p4
aS'Jun 8, 2010 - The Official Friends and Family Cycling Team of Valero Energy Corporation ... This weekend there are two great rides including the Bike MS: Valero 2010 Alamo Ride to the River ... VCrew Tuesday Training Rides  Tour de Cure News  ...'
p5
aS'Jun 7, 2010 - Valero Energy Corp ... With the latest News & Advice from Manta, you can stay ahead of the trends and challenges affecting your industry and help your small ...'
p6
aS'Jun 6, 2010 - Valero Energy Corp to export ethanol for first time  40,000 in southeast ... US News. The Robot-Snake Charger Designed by Tesla Could Scare you Along with ...'
p7
aS'Jun 7, 2010 - Energy / Environment  All Energy / Environment ... "Croatia is on the threshold" of EU membership, said Mr. Valero. He added that other Balkan states, including ...'
p8
aS"Jun 7, 2010 - After that eliminate the Dept of Energy. ..... Seriously, there are PLENTY of news stories on this that you should feel the need to make things up ... Compare CNR's CRH380A's body shell with Valero CN(aka CRH3), and they are 100% identical."
p9
aS'Jun 7, 2010 - Get reviews, hours, directions, coupons and more for Energy Products Inc at 2105 Eastline Rd, Searcy, AR. Search for other Energy Conservation Products ...'
p10
a.