(lp0
S'Jul 13, 2010 - Tesoro Corp. and Valero Energy Corp., both of San Antonio, Tx., have spent a combined $1.5 million or 79 percent of the funds ... Energy Manager News.'
p1
aS"Jul 13, 2010 - ... Fran Laue, the alliance's research director and an Express-News employee. ... battle occurred, but Alarc?n also founded the San Antonio de Valero Mission in ..."
p2
aS'Jul 12, 2010 - San Antonio Express-News  ExpressNews.com  iPad app  eEdition  Search Our News Archive  Manage Your Subscription. Hearst Newspapers  Copyright ...'
p3
aS'Jul 12, 2010 - News, Videos & Photos .... Valero then referenced Hard Knox, the biography of former Seahawks coach Chuck Knox, ... And not just that, his energy is nonstop.'
p4
aS'Jul 13, 2010 - News in Focus .... Lorillard Tobacco, Merck & Co., Monsanto Co., Playboy Enterprises, United Technologies Corp., Valero Energy, Viacom, Inc., and Wyeth.'
p5
aS'Jul 12, 2010 - Valero Refining Company-California ... Valero Energy Corporation ... With the latest News & Advice from Manta, you can stay ahead of the trends and challenges ...'
p6
aS'Jul 13, 2010 - News America Marketing - 3.896 reviews - New York, NY ... Audit Specialist  Valero Energy Corporation - 3.8371 reviews - San Antonio, TX ...'
p7
aS'Jul 12, 2010 - This statement embodies the spirit and energy around everything we do, as individuals and as a company, to enhance the lives of the ... 94 Valero Refining Co.'
p8
aS'Jul 13, 2010 - ... OR "AmerisourceBergen" OR "Costco Wholesale" OR "Valero Energy" OR ... OR "Humana" OR "Honeywell International" OR "Abbott Laboratories" OR "News ...'
p9
aS'Jul 13, 2010 - Chesapeake Energy Corporation Chester County .... USAA Valassis Valero Energy Corporation ... Stay up to date with the latest foundation news. Subscribe ...'
p10
a.