(lp0
S'Jul 15, 2010 - Valero Energy has a PE Ratio (TTM) of 6.545. Valero Energy PE Ratio (TTM) (VLO) charts, historical data, comparisons and more. ... VLO News. Market Chatter: ...'
p1
aS'Jul 15, 2010 - Valero Energy has a Return on Equity (TTM) of 19.04%. Valero Energy Return on Equity (TTM) (VLO) charts, historical data, comparisons and more.'
p2
aS'Jul 15, 2010 - Valero Energy has a Profit Margin (Quarterly) of 1.59%. Valero Energy Profit Margin (Quarterly) (VLO) charts, historical data, comparisons and more.'
p3
aS'Jul 15, 2010 - Valero Energy has a Price to Book Value of 1.382. Valero Energy Price to Book Value (VLO) charts, historical data, ... SA Breaking News 04/11 12:57 ET. Valero ...'
p4
aS'Jul 15, 2010 - Valero Energy has a Market Cap of 28.55B. Valero Energy Market Cap (VLO) charts, historical data, comparisons and more.'
p5
aS'Jul 13, 2010 - Tesoro Corp. and Valero Energy Corp., both of San Antonio, Tx., have spent a combined $1.5 million or 79 percent of the funds ... Energy Manager News.'
p6
aS"Jul 15, 2010 - he said, a very warm June and a relatively wet July have adults embarking on their nighttime mating flights sooner. Outbreaks like these, however, don't last that ..."
p7
aS"Jul 13, 2010 - ... Fran Laue, the alliance's research director and an Express-News employee. ... battle occurred, but Alarc?n also founded the San Antonio de Valero Mission in ..."
p8
aS'Jul 13, 2010 - When deputies arrived, they found Becky Gallegos, 55, on the living room floor, shot twice in the chest, according to a news release. According to the release, ...'
p9
aS'Jul 13, 2010 - News in Focus .... Lorillard Tobacco, Merck & Co., Monsanto Co., Playboy Enterprises, United Technologies Corp., Valero Energy, Viacom, Inc., and Wyeth.'
p10
a.