(lp0
S'Jul 15, 2010 - The Globe and Mail offers the most authoritative news in Canada, featuring national ... Based on its net profit margin of 4.67%, Valero Energy Corp is among the ...'
p1
aS'Jul 15, 2010 - Valero Energy has a PE Ratio (TTM) of 6.545. Valero Energy PE Ratio (TTM) (VLO) charts, historical data, comparisons and more. ... VLO News. Market Chatter: ...'
p2
aS'Jul 15, 2010 - Valero Energy has a Return on Equity (TTM) of 19.04%. Valero Energy Return on Equity (TTM) (VLO) charts, historical data, comparisons and more.'
p3
aS'Jul 15, 2010 - Valero Energy has a Price to Book Value of 1.382. Valero Energy Price to Book Value (VLO) charts, historical data, ... SA Breaking News 04/11 12:57 ET. Valero ...'
p4
aS'Jul 15, 2010 - Valero Energy has a Dividend Yield (TTM) of 3.13%. Valero Energy Dividend Yield (TTM) (VLO) charts, historical data, ... SA Breaking News 04/11 12:57 ET.'
p5
aS'Jul 15, 2010 - Valero Energy has a Market Cap of 28.55B. Valero Energy Market Cap (VLO) charts, historical data, comparisons and more.'
p6
aS'Jul 15, 2010 - Valero Energy has a Profit Margin (Quarterly) of 1.59%. Valero Energy Profit Margin (Quarterly) (VLO) charts, historical data, comparisons and more.'
p7
aS'Jul 15, 2010 - Valero Energy has a Shareholders Equity (Quarterly) of 20.53B. Valero Energy Shareholders Equity (Quarterly) (VLO) charts, historical data, comparisons and ...'
p8
aS'Jul 15, 2010 - Valero Energy has a Enterprise Value of 24.81B. Valero Energy Enterprise Value (VLO) charts, historical data, comparisons and more.'
p9
aS'Jul 15, 2010 - Valero Energy has a EPS Diluted (Quarterly) of 1.880. Valero Energy EPS Diluted (Quarterly) (VLO) charts, historical data, comparisons and more.'
p10
a.