(lp0
S'Jul 15, 2010 - The Globe and Mail offers the most authoritative news in Canada, featuring national ... Based on its net profit margin of 4.67%, Valero Energy Corp is among the ...'
p1
aS'Jul 15, 2010 - Valero Energy has a Shareholders Equity (Quarterly) of 20.53B. Valero Energy Shareholders Equity (Quarterly) (VLO) charts, historical data, comparisons and ...'
p2
aS'Jul 15, 2010 - Valero Energy has a Dividend Yield (TTM) of 3.13%. Valero Energy Dividend Yield (TTM) (VLO) charts, historical data, ... SA Breaking News 04/11 12:57 ET.'
p3
aS'Jul 15, 2010 - Valero Energy has a Enterprise Value of 24.81B. Valero Energy Enterprise Value (VLO) charts, historical data, comparisons and more.'
p4
aS'Jul 15, 2010 - Valero Energy has a EPS Diluted (Quarterly) of 1.880. Valero Energy EPS Diluted (Quarterly) (VLO) charts, historical data, comparisons and more.'
p5
aS'Jul 15, 2010 - Valero Energy has a Free Cash Flow (Quarterly) of 55.00M. Valero Energy Free Cash Flow (Quarterly) (VLO) charts, historical data, comparisons and more.'
p6
aS"Jul 15, 2010 - Repealing the law would damage California's clean energy economy, severely inhibit the ... multimillion-dollar campaign funded by Texas-based oil giants Valero Energy Corp and Tesoro .... Subscribe to Energy and Environment News Alerts ..."
p7
aS"Jul 15, 2010 - The spin: The Energy East pipeline will result in a stronger oil refining ... the Financial Post: [The Valero refinery has] 'no firm interest' in the Energy East .... 2 http://www.theglobeandmail.com/report-on-business/industry-news/energy-and- ..."
p8
aS'Jul 15, 2010 - According to Express-News columnist Greg Jefferson, CPS Energy interim General Manager Jelynne LeBlanc-Burley most likely will not succeed Milton Lee as ...'
p9
aS'Jul 16, 2010 - Industry Leader: NuGen Energy Provides Opportunities for Small Community ... of the package of VeraSun plants purchased by the refiner Valero, and instead ...'
p10
a.