(lp0
S'Jul 19, 2010 - Texas-based Premcor Refining Group Inc., a subsidiary of Valero Energy ... has also recently been in the news for joining forces with the California Solar Energy ...'
p1
aS"Jul 18, 2010 - portion of these make the front page or evening news. This report provides a ... energy development and remove ...... Valero Energy's Delaware City,. Delaware ..."
p2
aS"Jul 20, 2010 - Seguin native lives dream in CFL. Merrisa Brown, By Douglas Pils - Express-News .... Charley Hoffman is Valero Texas Open's clubhouse leader ..."
p3
aS'Jul 18, 2010 - Latest News ... Subscribe. San Antonio Express-News  ExpressNews.com  iPad app  eEdition  Search Our News Archive  Manage Your Subscription.'
p4
aS'Jul 19, 2010 - Valero Energy Corp to export ethanol for first time  40,000 in southeast ... US News. The Robot-Snake Charger Designed by Tesla Could Scare you Along with ...'
p5
aS"Jul 18, 2010 - Valero Energy Corp to export ethanol for first time  40,000 in southeast ... US News. IBM Watson's Uses Artificial Intelligence techniques to Teach Robots Better ..."
p6
aS"Jul 19, 2010 - Comprehensive, strategic intelligence lets you see beyond the news ...... values increased in California's Los Angeles market as Valero Energy continued."
p7
aS"Jul 19, 2010 - US Labor Department's OSHA publishes proposes rulemaking to prevent injuries from slips, trips and falls on walking-working surfaces. WASHINGTON  The ..."
p8
aS'Jul 19, 2010 - MarketWatch News on CLIQ. No News currently available for CLIQ .... Valero Energy board hikes dividend by 20%. 6:14p. Celanese sales fall on acetyl segment ...'
p9
aS'Jul 19, 2010 - He also has served in executive positions with Valero Energy Group and ... More Lyondell Chemical Company News... More Textiles News - Netherlands.'
p10
a.