(lp0
S'Jul 19, 2010 - Texas-based Premcor Refining Group Inc., a subsidiary of Valero Energy ... has also recently been in the news for joining forces with the California Solar Energy ...'
p1
aS"Jul 20, 2010 - Seguin native lives dream in CFL. Merrisa Brown, By Douglas Pils - Express-News .... Charley Hoffman is Valero Texas Open's clubhouse leader ..."
p2
aS'Jul 21, 2010 - Photo: SAN ANTONIO EXPRESS-NEWS. Image 1of/1. Caption. Close. Image 1 of 1. The Triple Berry mojito is one of five variations on the rum-based cocktail ...'
p3
aS"Jul 19, 2010 - Comprehensive, strategic intelligence lets you see beyond the news ...... values increased in California's Los Angeles market as Valero Energy continued."
p4
aS'Jul 20, 2010 - A strong work ethic and business acumen pushed Joe Gorder up the ladder at Valero Energy Corp., where he was named president and chief executive officer ...'
p5
aS"Jul 19, 2010 - US Labor Department's OSHA publishes proposes rulemaking to prevent injuries from slips, trips and falls on walking-working surfaces. WASHINGTON  The ..."
p6
aS'Jul 19, 2010 - Valero Energy Corp to export ethanol for first time  40,000 in southeast ... US News. The Robot-Snake Charger Designed by Tesla Could Scare you Along with ...'
p7
aS'Jul 19, 2010 - He also has served in executive positions with Valero Energy Group and ... More Lyondell Chemical Company News... More Textiles News - Netherlands.'
p8
aS'Jul 19, 2010 - MarketWatch News on CLIQ. No News currently available for CLIQ .... Valero Energy board hikes dividend by 20%. 6:14p. Celanese sales fall on acetyl segment ...'
p9
aS'Jul 19, 2010 - Andrew and a 26-year-old male companion pulled into the Valero gas station at ... as two black males, fled the area after the incident, according to an LAPD news release. .... I truly miss my wonderful son, his energy, his smile, his essence.'
p10
a.