(lp0
S'Jul 21, 2010 - And the news clearly troubled Chinese authorities, who quickly questioned the credibility of the ... Valero Energy Corp (NYSE: VLO)Buy @ 20, Stop @ 14.95'
p1
aS'Jul 22, 2010 - The oil tanker Seaqueen is docked at the Valero Energy Corp. refinery at the ... of a continued stream of bad, disappointing news, said Walter J. Zimmerman Jr., ...'
p2
aS"Jul 23, 2010 - ... tons from energy consumption, according to data from DOE's Energy Information ... of Texas Bureau of Economic Geology, and Valero Energy Corporation."
p3
aS'Jul 22, 2010 - Comal CrossFit opened in Bulverde determined to show residents there were other ways to get fit besides using a treadmill or free weights. Whether jumping on ...'
p4
aS'Jul 22, 2010 - Home  Database  Screener  Newsletter  Free Tools  News ...'
p5
aS'Jul 22, 2010 - Manager, Virtual Training and Blended Learning Strategies at Valero. Location: San Antonio, Texas ... Valero Energy Corporation. Manager, Employee Services.'
p6
aS"Jul 21, 2010 - ... count the fact that he earned a spot in the PGA Tour's Valero Texas Open in May via a Monday qualifier. ... to make the year a success, adding that trying to crunch numbers is an enormous energy drain anyway. .... Submit a news tip or photo."
p7
aS'Jul 22, 2010 - News XOM Refinery Status: Murphy Oil Puts Its Refineries Up New York Stock ... Valero Sunray, TX 170.0 FCCU upset when expander coup- mid-Jul ling on power ... 04/13/2016, 16:52:00, Energy Up After Supplies Data -- Energy Roundup.'
p8
aS'Jul 21, 2010 - July 21, 2010 News & Opinion  Eco Watch .... Opponents of oil-by-rail shipments want the city to block a proposed Valero facility, but Valero says the city lacks ...'
p9
aS'Jul 21, 2010 - July 21, 2010 News & Opinion  Full Disclosure .... Opponents of oil-by-rail shipments want the city to block a proposed Valero facility, but Valero says the city ...'
p10
a.