(lp0
S'Jul 28, 2010 - The 17 analysts offering 12-month price forecasts for Valero Energy have a median target of 73.00, with a high estimate of 100.00 and a low estimate of 65.00.'
p1
aS"Jul 27, 2010 - ... the fossil fuel-funded Prop 23 effort to repeal California's clean energy climate law. ... now lobbies for Valero, a Texan oil company with operations in California. ... Carpenter distributed news clips, recommended tobacco donations to certain ..."
p2
aS'Jul 27, 2010 - This is good news for the women who run the legal offices at companies like ... Those companies were, from largest to smallest in revenue: Valero Energy, ...'
p3
aS'Jul 27, 2010 - San Antonio Express-News  ExpressNews.com  iPad app  eEdition  Search Our News Archive  Manage Your Subscription. Hearst Newspapers  Copyright ...'
p4
aS'Jul 28, 2010 - for 57 years, La Louisiane operated with a unique cuisine, which Olive Purl Dareos is sharing in her self-published cookbook, Recipes for the Best of Times.'
p5
aS'Jul 27, 2010 - For most of its existence as an inexpensive motel north of downtown, the Alamo Lodge has been practically invisible to most people - but not to the police officers ...'
p6
aS'Jul 27, 2010 - Mexicans seek news of loved ones after deadly explosion ... ExpressNews.com  iPad app  eEdition  Search Our News Archive  Manage Your Subscription.'
p7
aS'Jul 26, 2010 - Join over 100,000 investors who get the latest news from Dividend.com ..... Analyst Moves: Schlumberger, Medtronic, Valero Energy, More (SLB, MDT, VLO, ...'
p8
aS'Jul 27, 2010 - 77, VALERO ENERGY CORPORATION, KIMBERLY S. BOWERS, View ... 84, MARKWEST ENERGY PARTNERS, L. P., C. CORWIN BROMLEY, View.'
p9
aS'Jul 27, 2010 - ... reserves in the 21st century" by Antonio Valero, Alicia Valero and Amaya Martnez. ... News. CPOTE 2012. 2011-09-12. Call for papers for the ECOS 2011 conference ... The paper is now published in Energy, the international Journal.'
p10
a.