(lp0
S'Jul 30, 2010 - Valero Energy (VLO) Tuesday said its Aruba refinery may resume operations after completing turnaround maintenance in September if it is profitable to do so.'
p1
aS'Jul 30, 2010 - Curacao news, hotels, rentals, real estate, invest in Curacao, Curacao gallery ... Valero Energy (VLO) Tuesday said its Aruba refinery may resume operations ...'
p2
aS"Jul 30, 2010 - before I got hit, I saw on the news about three bikers getting killed by a car, said Luchnick, who will ... Charley Hoffman is Valero Texas Open's clubhouse leader ..."
p3
aS'Jul 29, 2010 - San Antonio Express-News  ExpressNews.com  iPad app  eEdition  Search Our News Archive  Manage Your Subscription. Hearst Newspapers  Copyright ...'
p4
aS"Jul 29, 2010 - Valero Paulsboro Possible sale 166 New Jersey company said on July 27. ... *JX Holdings Inc. is the parent company of JX Nippon Oil & Energy Corp., Japan's ..."
p5
aS'Jul 29, 2010 - OSHA News Releases  Proposed Rule Changes ... News Feeds  Office Locations  Directions  Photo Gallery  Guest Book  Contact Us. Member Resources.'
p6
aS'Jul 30, 2010 - Valero Energy Station ... With the latest News & Advice from Manta, you can stay ahead of the trends and challenges affecting your industry and help your small ...'
p7
aS'Jul 30, 2010 - ... roughly 75 gas stations in Florida that fly under brands including Chevron, Exxon, Shell, Sunoco and Valero, said Amoco was a very strong brand in Florida.'
p8
aS'Jul 29, 2010 - A spokesman for the California Energy Commission said they send out a ... per gallon than nearby Shell and Valero stations, though their prices are actually a few ... Rancheria of Chukchansi Indians made headlines with the news they would ...'
p9
aS'Jul 29, 2010 - The giant energy producer was struggling with a legacy of ... Join the Watch. Sign up for email updates and get the latest news about what Big Oil is up to.'
p10
a.