(lp0
S'Jul 8, 2010 - Get detailed financial information on Nuveen Energy MLP Total Return Fund (NYSE:JMF) including real-time stock quotes, historical charts & financial news, all for free! ... Valero Energy Partners: Top Midstream MLP Gainer on October 8.'
p1
aS"Jul 6, 2010 - In a paean of praise to Bill Greehey, former CEO of Valero Energy and current ... Greehey at Valero) describes Greehey's leadership model that drove Valero to the ... online communities for HR, HR articles, HR news, human resources articles, ..."
p2
aS'Jul 7, 2010 - Theres good news for South Texans who are longing for a taste of the old Christies restaurant favorites. Even though the San Antonio restaurant closed in the 90s, its possible to find many of the dishes: You just have to drive to Houston to enjoy them. ... But Christie says ...'
p3
aS'Jul 7, 2010 - We wanted a cold summer treat that people could enjoy outside, says Don Merrill, president and CEO of Tootie Pie Co. We tried the recipe first with our ...'
p4
aS'Jul 7, 2010 - If energy giant Calpine Corporation has its way, the East Bay will soon be home to ... Oakland, Berkeley, And East Bay News, Events, Restaurants, Music, & Arts .... city to block a proposed Valero facility, but Valero says the city lacks this power.'
p5
aS'Jul 7, 2010 - July 07, 2010 News & Opinion  News .... Opponents of oil-by-rail shipments want the city to block a proposed Valero facility, but Valero says the city lacks this ...'
p6
aS'Jul 7, 2010 - Fund Profile. Focus, Worldwide investments into an actively managed portfolio of Shariah-compliant equities, which may be located in any jurisdiction or in any ...'
p7
aS'Jul 6, 2010 - Valero Energy Corp to export ethanol for first time  40,000 in southeast ... US News. The Robot-Snake Charger Designed by Tesla Could Scare you Along with ...'
p8
aS'Jul 6, 2010 - Weather will be a factor at the Valero Texas Open at TPC San Antonio. ... News Watchdog Opinion Sports Business Entertainment Lifestyle Green Sheet ...'
p9
aS'Jul 8, 2010 - ... on Wednesday after the stock was hit by a downgrade and news of a car fire. ..... this week, revealing new positions in Goodrich Petroleum and Valero Energy.'
p10
a.