(lp0
S'Jul 8, 2010 - Jack Valero. Jack Valero is a senior representative and member of Opus Dei. July 2010 ... 2016 Guardian News and Media Limited or its affiliated companies.'
p1
aS'Jul 8, 2010 - By Elizabeth McGowan, InsideClimate News ... Maviglio is a spokesperson with Californians for Clean Energy and Jobs, the coalition rallying around ... Records show the bulk of its funding comes from Texas oil companies Valero and Tesoro.'
p2
aS"Jul 8, 2010 - IAWA News & Views. President's ... 22nd Annual Conference News ..... WNEET is the Women's Network for Energy, Environment and Transportation. ... Dana Parnes is Senior Manager of Aircraft Maintenance and Corporate Travel for Valero."
p3
aS'Jul 9, 2010 - The good news is that the ownership team and the rest of the hard-working, ... I PROMISE you that our energy, focus, capital, knowledge and experience will be ...'
p4
aS"Jul 9, 2010 - Photo: SAN ANTONIO EXPRESS-NEWS. Image 1of/20. Caption. Close. Image 1 of 20 .... Charley Hoffman is Valero Texas Open's clubhouse leader ..."
p5
aS'Jul 9, 2010 - To quantify the transmitted energy, a broadband Gaussian pulse is applied to .... F. J. Valdivia-Valero and M. Nieto-Vesperinas, Resonance excitation and light ...'
p6
aS'Jul 9, 2010 - A lot of time, energy, and perseverance. ... Valero Benicia Refinery have funded the printing of her drowning prevention brochure that was ... Filed Under: News ...'
p7
aS'Jul 8, 2010 - 82 (BMW) 70,444 284. 83 (Zurich Financial Services) 70,272 3,215. 84 (Valero Energy) 70,035 -1,982. 85 (Fiat) ...'
p8
aS'Jul 9, 2010 - Sign up to get the latest science news delivered weekly right to your inbox! ... Sheril Kirshenbaum is a research scientist with the Webber Energy Group at the ...'
p9
aS'Jul 9, 2010 - how to assign these jobs to processors of varying power and varying energy efficiency, so as to .... competitive algorithm for the objective of weighted flow plus energy. ...... SIGARCH Computer Architecture News, 32(2):64, 2004. ... [18] Tomer Y. Morad, Uri C. Weiser, Avinoam Kolodny, Mateo Valero, and Eduard Ayguade.'
p10
a.