(lp0
S'Aug 10, 2010 - Valero Energy Corporation, which has moved equipment weighing hundreds of tons ... The project is not only easier for Valero, it will reduce the impact on parish ... Local, small business, finance and economy news for greater New Orleans.'
p1
aS'Aug 10, 2010 - ... the proposition--including oil companies such as Tesoro and Valero--argue that ... Google has thrown its considerable weight behind clean-energy issues ...'
p2
aS'Aug 11, 2010 - "All this water is coming from Monte Vista," added Porter, who works in the finance department of the San Antonio Express-News. Monte Vista is slated for ...'
p3
aS'Aug 9, 2010 - ... holds her son Brian Perez, 4 months. Both were. Jose Perez wipes tears from his eyes as he speaks about his family. Photo: SAN ANTONIO EXPRESS-NEWS.'
p4
aS'Aug 9, 2010 - Universal News, Inc, Pipeliners Hall of Fame News or any employee or representative of either organization ...... Valero Energy Corporation announced Phase I.'
p5
aS'Aug 9, 2010 - Oil refining is one of the most important business segments in the energy ... of so-called independent refiners such as Valero Energy Corp (NYSE: VLO) and Holly .... News of increased demand for refined products is a positive for the refiners.'
p6
aS"Aug 10, 2010 - Valero Energy Corp to export ethanol for first time  40,000 in southeast ... US News. IBM Watson's Uses Artificial Intelligence techniques to Teach Robots Better ..."
p7
aS'Aug 9, 2010 - News Room ... depressed 2009 levels, even with the previous shutdown of two area refineries (Valero -- Delaware City, ... From this industry, Energy and Utilities'
p8
aS"Aug 9, 2010 - ... but Brewers will make playoffs  Jul 2, 2014 | Bucks' news conference shows Kidd ... Weather will be a factor at the Valero Texas Open at TPC San Antonio."
p9
aS'Aug 10, 2010 - The report details the numerous environmental violations perpetrated by Valero and Tesoro as well as the toxic chemicals they spew legally and illegally into the ...'
p10
a.