(lp0
S'Aug 10, 2010 - Valero Energy Corporation, which has moved equipment weighing hundreds of tons ... The project is not only easier for Valero, it will reduce the impact on parish ... Local, small business, finance and economy news for greater New Orleans.'
p1
aS"Aug 11, 2010 - Valero Energy Corp. and Tesoro Corp. have contributed more than $4.5 million to .... HOT Off The Press: 29 Photos Of TV's Sexiest Female News Anchors."
p2
aS'Aug 10, 2010 - ... the proposition--including oil companies such as Tesoro and Valero--argue that ... Google has thrown its considerable weight behind clean-energy issues ...'
p3
aS'Aug 11, 2010 - NewEnergyNews: QUICK NEWS, 8-11: NEW ENERGY VS. .... "Oil companies Valero and Tesoro have contributed the bulk of the $4 million raised to date to ...'
p4
aS'Aug 11, 2010 - "All this water is coming from Monte Vista," added Porter, who works in the finance department of the San Antonio Express-News. Monte Vista is slated for ...'
p5
aS"Aug 11, 2010 - The greens, which Covino has installed at Caruso's and the Family Celebration Station in Boerne, were showcased over the past three years at the Valero Texas ..."
p6
aS'Aug 11, 2010 - San Antonio Express-News  ExpressNews.com  iPad app  eEdition  Search Our News Archive  Manage Your Subscription. Hearst Newspapers  Copyright ...'
p7
aS'Aug 11, 2010 - Clayton E. Killinger, senior VP and controller, Valero Energy Corporation; ... Twitter  Facebook  College News Service  The Paisano  Sagebrush Review.'
p8
aS"Aug 10, 2010 - Valero Energy Corp to export ethanol for first time  40,000 in southeast ... US News. IBM Watson's Uses Artificial Intelligence techniques to Teach Robots Better ..."
p9
aS'Aug 11, 2010 - Valero Energy Corp to export ethanol for first time  40,000 in southeast ... US News. The Robot-Snake Charger Designed by Tesla Could Scare you Along with ...'
p10
a.