(lp0
S"Aug 11, 2010 - Valero Energy Corp. and Tesoro Corp. have contributed more than $4.5 million to .... HOT Off The Press: 29 Photos Of TV's Sexiest Female News Anchors."
p1
aS'Aug 11, 2010 - NewEnergyNews: QUICK NEWS, 8-11: NEW ENERGY VS. .... "Oil companies Valero and Tesoro have contributed the bulk of the $4 million raised to date to ...'
p2
aS'Aug 12, 2010 - Latest Business News ... San Antonio Express-News  ExpressNews.com  iPad app  eEdition  Search Our News Archive  Manage Your Subscription.'
p3
aS'Aug 11, 2010 - San Antonio Express-News  ExpressNews.com  iPad app  eEdition  Search Our News Archive  Manage Your Subscription. Hearst Newspapers  Copyright ...'
p4
aS'Aug 11, 2010 - Valero Energy Corp to export ethanol for first time  40,000 in southeast ... US News. The Robot-Snake Charger Designed by Tesla Could Scare you Along with ...'
p5
aS'Aug 12, 2010 - Valero Energy Corp to export ethanol for first time  40,000 in southeast ... US News. The Robot-Snake Charger Designed by Tesla Could Scare you Along with ...'
p6
aS'Aug 11, 2010 - Clayton E. Killinger, senior VP and controller, Valero Energy Corporation; ... Twitter  Facebook  College News Service  The Paisano  Sagebrush Review.'
p7
aS'Aug 11, 2010 - "The good news is that there\'s a lot of sand on this golf course. Hundreds and hundreds ... Weather will be a factor at the Valero Texas Open at TPC San Antonio.'
p8
aS'Aug 12, 2010 - interest from a big oil refiner (Valero Energy), some sizable tax breaks from the state of Oregon, and a $25 million grant from the U.S. Department of Energy. .... Business, life sciences, and technology news  covering Boston, Seattle, San ...'
p9
aS'Aug 11, 2010 - Even the likes of Valero Energy Inc. (NYSE: VLO)  which used to be the leading ... Dr. Kent Moors News Stories; Money Morning Special News Report:'
p10
a.