(lp0
S'Aug 13, 2010 - Valero Energy Corp < VLO.N> said thegas oil ... Valero cuts GOHT rates at Texas City refinery. NEW YORK ... Our top news photography this week. Slideshow ...'
p1
aS'Aug 12, 2010 - Latest Business News ... San Antonio Express-News  ExpressNews.com  iPad app  eEdition  Search Our News Archive  Manage Your Subscription.'
p2
aS"Aug 13, 2010 - TOM REEL/treel@express-news.net. UTSA receiver Jake Wanamaker and his mom, Kelly, hang onto Jake's ... Valero Texas Open: Live updates and analysis ..."
p3
aS'Aug 13, 2010 - ($525,000), Valero Energy Corp. ... The No on 23 campaign points out that Ohio-based Murray Energy Corp., which ... Business  News  Column  Environment.'
p4
aS'Aug 13, 2010 - Valero Energy  a major U.S. oil company, which owns 18 refineries and 5,000 gas stations. Number of employees has more than 22 thousand annual income ...'
p5
aS'Aug 12, 2010 - interest from a big oil refiner (Valero Energy), some sizable tax breaks from the state of Oregon, and a $25 million grant from the U.S. Department of Energy. .... Business, life sciences, and technology news  covering Boston, Seattle, San ...'
p6
aS'Aug 13, 2010 - News  Events  Press Releases ... and services company forthe global downstream energy industry, announced Hub City Convenience Stores, Inc., ... stores under the ConocoPhillips, Valero, and ALON/FINA brands in Texas and New Mexico.'
p7
aS'Aug 12, 2010 - Valero Energy Station Gasoline Service Stations in Joliet, IL. Valero Gas Food ... With the latest News & Advice from Manta, you can stay ahead of the trends and ...'
p8
aS'Aug 13, 2010 - Weather will be a factor at the Valero Texas Open at TPC San Antonio. ... News Watchdog Opinion Sports Business Entertainment Lifestyle Green Sheet ...'
p9
aS'Aug 13, 2010 - ... a drink close at hand sat with the quiet of a man drained of energy, and reached out a hand to take a sip of water. ... FFC Gerardo Valero considers the flaws within "Star Wars: Episode VII - The Force Awakens." .... And benign is good news!'
p10
a.