(lp0
S'Aug 16, 2010 - By Michelle Mondo - Express-News ... a representative of the private sector: former San Antonio Police Chief Al Philippus, who heads Valero Energy Corp.'
p1
aS'Aug 16, 2010 - Drivers may not be allowed to hold a cell phone and chatter while wheeling through a school zone, but at least two area districts have decided to welcome the ...'
p2
aS'Aug 15, 2010 - Government news resource covering technology, performance, employment, telework, cybersecurity, and more for federal ... 43, Valero Energy Corp.'
p3
aS'Aug 16, 2010 - Articles and news releases about corporate and organizational culture. ... best year in its history, Valero Energy Corporation (NYSE:VLO) was again named one ...'
p4
aS'Aug 15, 2010 - ... Cap Value Fund Institutional Class (MUTF:BRLVX) including real-time quotes, historical charts & related news, all for free! ... Valero Energy Corp (VLO), 1.27%.'
p5
aS'Aug 16, 2010 - This report was prepared by the Office of Electricity Delivery and Energy ...... For example, after Hurricane Katrina, Valero set up 20 satellite phones and .... 7 ESRI, http://www.esri.com/news/releases/09_3qtr/hurricane.html, accessed April 22, ...'
p6
aS'Aug 15, 2010 - In this issue of AMAP News, we continue to pay tribute to individuals whose .... Valero Energy Company; Vance Brothers, Inc. Warden Modified Asphalt, LP ...'
p7
aS"Aug 16, 2010 - Texas oil giants Valero Energy and Tesoro Corp have mounted a fear campaign ... Even more distressing news recently revealed that 40 percent of the world's ..."
p8
aS'Aug 16, 2010 - Clients include DuPont, Valero Energy Corporation, Virtua, Kennedy Health System, and Comcast. The 25 Ballard Spahr attorneys based in Cherry Hill live in ...'
p9
aS'Aug 15, 2010 - Texas. In 2004, Valero Energy Corp. of Texas purchased the refinery, which had a .... http://www.rigzone.com/news/article.asp?a_id=43140.) Rigzone.com, 2008 ...'
p10
a.