(lp0
S'Aug 17, 2010 - Valero Marketing and Supply Co. partnered with Outsite Networks to launch the Valero Rewards Club loyalty program in its wholesale marketing channel of ...'
p1
aS'Aug 17, 2010 - Backed chiefly by two Texas oil companies, Valero Energy Corporation and Tesoro, ... In November, vote no on Proposition 23, the Dirty Energy Proposition.'
p2
aS'Aug 16, 2010 - Articles and news releases about corporate and organizational culture. ... best year in its history, Valero Energy Corporation (NYSE:VLO) was again named one ...'
p3
aS'Aug 16, 2010 - Daisy the giraffe, an icon of the San Antonio Zoo, died Friday of old-age symptoms. Daisy was 33, making her the third-oldest of 500 giraffes in zoos and wildlife ...'
p4
aS"Aug 17, 2010 - The Art in Action program is the latest effort by the city's graffiti abatement office to curb illegal tagging and graffiti. It takes aspiring young artists and shows them ..."
p5
aS'Aug 16, 2010 - This report was prepared by the Office of Electricity Delivery and Energy ...... For example, after Hurricane Katrina, Valero set up 20 satellite phones and .... 7 ESRI, http://www.esri.com/news/releases/09_3qtr/hurricane.html, accessed April 22, ...'
p6
aS"Aug 16, 2010 - Texas oil giants Valero Energy and Tesoro Corp have mounted a fear campaign ... Even more distressing news recently revealed that 40 percent of the world's ..."
p7
aS'Aug 16, 2010 - Clients include DuPont, Valero Energy Corporation, Virtua, Kennedy Health System, and Comcast. The 25 Ballard Spahr attorneys based in Cherry Hill live in ...'
p8
aS'Aug 17, 2010 - Categories: Green Fields: Agriculture and Alternative Energy ... Last year Valero Energy of Texas, which like Flint Hills is an oil refiner, bought ethanol plants ...'
p9
aS'Aug 16, 2010 - Having graduated more than three decades ago from Utah, she still has the energy of a college student, which she demonstrates with her regular ...'
p10
a.