(lp0
S'Aug 19, 2010 - Keith Kaiser talks to John Marhsall quarterbacks Daniel Tittle (left) and Sammy Kemp in his office prior to their afternoon practice session on Aug. 16, 2010.'
p1
aS'Aug 19, 2010 - If you listen closely, beyond the ringing bells of the downtown street cars and the bustle of eager shoppers, you can find the smooth sounds of the pan flute and a ...'
p2
aS'Aug 20, 2010 - Family and friends walked with Esteban Jordan III as he carried the cremated remains of his father, Esteban "Steve" Jordan, from their West Side home to San ...'
p3
aS'Aug 19, 2010 - New, small churches dodge traditional methods. By Miranda Koerner - Staff Writer/North Central News. Published 12:00 am, Thursday, August 19, 2010.'
p4
aS'Aug 19, 2010 - Join over 100,000 investors who get the latest news from Dividend.com ..... Devon Energy- (DVN)-engage in oil and gas exploration, development, and ...'
p5
aS"Aug 18, 2010 - It's being underwritten by the Texas oil companies Tesoro and Valero along with ... The Silicon Valley folks who are willing to invest in the new clean energy ..."
p6
aS'Aug 18, 2010 - And then as the news of the steroid scandal broke Nelson stepped it up asking on his twitter .... How much cash is up for grabs at the 2016 Valero Texas Open?'
p7
aS"Aug 19, 2010 - The Dallas Morning News recently sought an updated list of employees at the city's Parkland ... Swamplot Sponsor: Harvest Moon Renewable Energy Company Today Swamplot is ... Valero tells the tax man what's what, awarded $5 million in."
p8
aS"Aug 18, 2010 - The best news for Texans, Wolf says, is that there won't be enough money to do here what Moses ... stands at the ready to provide wood-fired power to Austin Energy customers. .... Valero tells the tax man what's what, awarded $5 million in."
p9
aS'Aug 19, 2010 - CEE 173A/207A & Earth Systems 103: Energy Resources. Fall 2010 .... o Valero Oil Refinery ... Gil collects interesting news and compiles job and internship.'
p10
a.