(lp0
S"Aug 23, 2010 - Not wanting to believe the news, Esquivel called Hunt's cell phone, which went unanswered, and then checked Hunt's Facebook page, he said. It was filled with ..."
p1
aS'Aug 23, 2010 - San Antonio Express-News  ExpressNews.com  iPad app  eEdition  Search Our News Archive  Manage Your Subscription. Hearst Newspapers  Copyright ...'
p2
aS'Aug 23, 2010 - Latest News ... Energy Department marks end of fiscal 2011 with key clean energy loan guarantees, grants. ... rules, invalidating operating permits for 122 facilities owned by companies such as ExxonMobil, Shell, Valero Energy, and BP.'
p3
aS'Aug 23, 2010 - Lead SAP Specialist at Valero Energy Corporation. Location: San Antonio, Texas .... SAP Network GLOBAL for SAP Jobs, Opportunities, News and Knowledge ...'
p4
aS'Aug 24, 2010 - Vision has successfully completed design and consulting work for the following clients: T. Rowe Price. ISP & OSP; Full Design Package w/RFP. Valero Energy.'
p5
aS'Aug 22, 2010 - Waste Management, Inc. is a waste management, comprehensive waste, and environmental .... In August 2009, Waste Management announced that it would join Valero Energy Corporation as a strategic investor in ..... Green Business, Sustainable Business, and Green Strategy News for Corporate Sustainability Executives".'
p6
aS'Aug 23, 2010 - Valero Energy Corp to export ethanol for first time  40,000 in southeast ... US News. The Robot-Snake Charger Designed by Tesla Could Scare you Along with ...'
p7
aS'Aug 23, 2010 - Valero Energy Corp to export ethanol for first time  40,000 in southeast ... US News. The Robot-Snake Charger Designed by Tesla Could Scare you Along with ...'
p8
aS'Aug 23, 2010 - UPI delivers the latest headlines from around the world: Top News, ... PGA Tour: Top 10 players to watch at the Valero Texas Open ... Energy Resources'
p9
aS"Aug 23, 2010 - Follow news about the Houston Independent School District on Twitter, #HISD. Photo of a cafeteria ... Austin Energy customers foot bill  $2 a month per customer for 19. ... Valero tells the tax man what's what, awarded $5 million in... Pension ..."
p10
a.