(lp0
S'Aug 25, 2010 - San Antonio Express-News  ExpressNews.com  iPad app  eEdition  Search Our News Archive  Manage Your Subscription. Hearst Newspapers  Copyright ...'
p1
aS'Aug 24, 2010 - Burns, who made the cut at the Valero Texas Open in May and currently plays on the Nationwide and Adams Pro Golf ... Photo: eaornelas@express-news.net.'
p2
aS'Aug 23, 2010 - Lead SAP Specialist at Valero Energy Corporation. Location: San Antonio, Texas .... SAP Network GLOBAL for SAP Jobs, Opportunities, News and Knowledge ...'
p3
aS'Aug 23, 2010 - Latest News ... Energy Department marks end of fiscal 2011 with key clean energy loan guarantees, grants. ... rules, invalidating operating permits for 122 facilities owned by companies such as ExxonMobil, Shell, Valero Energy, and BP.'
p4
aS'Aug 24, 2010 - ... a backdrop of some less-than-peppy news about our climate and energy future. ... Texas-based Tesoro Corp. and Valero Energy Corp., have been bankrolling ...'
p5
aS'Aug 24, 2010 - Vision has successfully completed design and consulting work for the following clients: T. Rowe Price. ISP & OSP; Full Design Package w/RFP. Valero Energy.'
p6
aS'Aug 23, 2010 - Valero Energy Corp to export ethanol for first time  40,000 in southeast ... US News. The Robot-Snake Charger Designed by Tesla Could Scare you Along with ...'
p7
aS'Aug 23, 2010 - Valero Energy Corp to export ethanol for first time  40,000 in southeast ... US News. The Robot-Snake Charger Designed by Tesla Could Scare you Along with ...'
p8
aS'Aug 24, 2010 - News & Reviews .... The U.S. Energy Information Administration estimates that we import almost 10 million barrels of crude oil per day of the 74 million the world ...'
p9
aS'Aug 24, 2010 - Weather will be a factor at the Valero Texas Open at TPC San Antonio. ... News Watchdog Opinion Sports Business Entertainment Lifestyle Green Sheet ...'
p10
a.