(lp0
S'Aug 25, 2010 - Photo: jdavenport@express-news.net. Image 1of/14. Caption. Close. Image 1 of 14. Tears stream off of the face of Lainy Loyola,19, Tuesday Aug. 24, 2010 in ...'
p1
aS'Aug 25, 2010 - San Antonio Express-News  ExpressNews.com  iPad app  eEdition  Search Our News Archive  Manage Your Subscription. Hearst Newspapers  Copyright ...'
p2
aS"Aug 25, 2010 - KKR and TPG Capital's Energy Future Holdings Corp.; Blackstone's Hilton ... with energy specialist First Reserve Corp. for $220 million from Valero Energy Corp."
p3
aS'Aug 25, 2010 - BB&T; State Street; Sun Life Financial; Halliburton; FedEx; Teva Pharmaceutical Inds; ACE; Valero Energy; Canon; Qualcomm; Target; Verizon Communications ...'
p4
aS'Aug 26, 2010 - American Express | Corporate Bond - Yields, Rates, New Issues, Quotes & News American Express: [stock AXP] American Express Company 200 Vesey Street ...'
p5
aS'Aug 24, 2010 - ... a backdrop of some less-than-peppy news about our climate and energy future. ... Texas-based Tesoro Corp. and Valero Energy Corp., have been bankrolling ...'
p6
aS'Aug 24, 2010 - News & Reviews .... The U.S. Energy Information Administration estimates that we import almost 10 million barrels of crude oil per day of the 74 million the world ...'
p7
aS'Aug 25, 2010 - August 25, 2010 News & Opinion  Feature ..... Everything you need to know about saving water, energy efficiency, sustainable farming and eating, and more.'
p8
aS'Aug 25, 2010 - August 25, 2010 News & Opinion  Eco Watch .... Opponents of oil-by-rail shipments want the city to block a proposed Valero facility, but Valero says the city ...'
p9
aS'Aug 24, 2010 - Weather will be a factor at the Valero Texas Open at TPC San Antonio. ... News Watchdog Opinion Sports Business Entertainment Lifestyle Green Sheet ...'
p10
a.