(lp0
S'Aug 26, 2010 - San Antonio-based Valero Energy Corp. has begun selling fuel known as E85, which contains 85 percent ethanol blended with unleaded gasoline, at a ...'
p1
aS'Aug 25, 2010 - Photo: jdavenport@express-news.net. Image 1of/14. Caption. Close. Image 1 of 14. Tears stream off of the face of Lainy Loyola,19, Tuesday Aug. 24, 2010 in ...'
p2
aS'Aug 26, 2010 - By MARIA HALKIAS / The Dallas Morning News mhalkias@dallasnews.com. Published: 26 ... Valero. 5. Exxon Mobil. Where we buy.  Traditional oil company brands, 37%.  Convenience ... Energy Transfer Partners, ETP, 21.64. Exxon Mobil ...'
p3
aS"Aug 25, 2010 - KKR and TPG Capital's Energy Future Holdings Corp.; Blackstone's Hilton ... with energy specialist First Reserve Corp. for $220 million from Valero Energy Corp."
p4
aS'Aug 25, 2010 - BB&T; State Street; Sun Life Financial; Halliburton; FedEx; Teva Pharmaceutical Inds; ACE; Valero Energy; Canon; Qualcomm; Target; Verizon Communications ...'
p5
aS'Aug 26, 2010 - American Express | Corporate Bond - Yields, Rates, New Issues, Quotes & News American Express: [stock AXP] American Express Company 200 Vesey Street ...'
p6
aS"Aug 26, 2010 - Reached for comment, a Valero spokesman said, The site in question is not owned or controlled by Valero Energy Corporation. It's an independently owned ..."
p7
aS'Aug 26, 2010 - News  People  Advice ... Berggruen is head of Berggruen Holdings, which has made investments in wind energy projects. ... The most recent big donation came earlier this month when Valero gave $3 million to the effort. ... Enviance has clients on both sides of the Prop 23 fight  including Valero  and thus is not taking a ...'
p8
aS"Aug 26, 2010 - It gave me an Adderall-like buzz and upbeat creative energy. In fact, I've .... Local activists ask elected officials to block Valero's plan to ship oil by train. Tentative ..."
p9
aS'Aug 26, 2010 - Jack Valero, spokesman for the oratory, said last weekend that "very serious things were going on" inside the oratory. Valero told BBC Sunday ... More news ...'
p10
a.