(lp0
S'Aug 29, 2010 - When the news of the pollution was made public on June 4, Ms. Ramirez ... Robert L. Sukiennik, 45, has worked at a refinery operated by Valero here for two ...'
p1
aS'Aug 29, 2010 - Mexicans seek news of loved ones after deadly explosion ... ExpressNews.com  iPad app  eEdition  Search Our News Archive  Manage Your Subscription.'
p2
aS'Aug 31, 2010 - At the real Alamo in San Antonio, where an exhibit paying tribute to the film is set for Oct. 10-31, the Alamo staff and Daughters of the Republic of Texas were ...'
p3
aS'Aug 30, 2010 - ... any and all stock screening tools do not know about news events such as an oil spill, ... Chesapeake Energy (CHK) ($20.81) is an independent oil and gas company ... Valero Energy is rated a BUY and is expected to rally 6.2% over the next ...'
p4
aS'Aug 30, 2010 - 10/17/2011, -, Duke Energy increased Residential Electrcity Rates by 17% this ... 05/06/2011, -, New Valero Opened on Hwy 150 at exit 36 - Free Carwash and ...'
p5
aS"Aug 30, 2010 - Valero Energy Corp to export ethanol for first time  40,000 in southeast ... US News. IBM Watson's Uses Artificial Intelligence techniques to Teach Robots Better ..."
p6
aS"Aug 30, 2010 - Valero Energy Corp to export ethanol for first time  40,000 in southeast ... US News. IBM Watson's Uses Artificial Intelligence techniques to Teach Robots Better ..."
p7
aS'Aug 29, 2010 - Valero Energy Corporation to just over $8 million for the board of News. Corporation.104 In 2007, the study showed that Valero Energy spent more than.'
p8
aS"Aug 30, 2010 - Mr Pachauri has previously acted as an adviser to green energy companies. It's hard to see how the United Nations can both ... Science News . In Climate Change. Fisherman Rene Valero, from the Urus ethnic group, is seen on his boat on ..."
p9
aS'Aug 29, 2010 - A great energy is felt in your jaw and in the ends of each strand of hair. ... Chaz Ebert Responds to News-Gazette Ebertfest Article The Editors ... FFC Gerardo Valero considers the flaws within "Star Wars: Episode VII - The Force Awakens." ...'
p10
a.