(lp0
S'Aug 2, 2010 - Mr. Waters also serves on the Board of Directors of Valero Energy Corporation and sits on ... More News RSS feed for Boston Private Financial Holdings, Inc.'
p1
aS'Aug 2, 2010 - Posts about Texas Workforce Commission written by Coastal Bend College News and ... emergency response training for new and incumbent Valero employees. ... biotech and life sciences; energy; petroleum refining and chemical products; ...'
p2
aS'Aug 3, 2010 - The experimental bio-fuel plant on highway 36 east is still silent but the IDA has been told that Valero Energy of Texas is still negotiating with American Process ...'
p3
aS'Aug 2, 2010 - Latest Business News ... San Antonio Express-News  ExpressNews.com  iPad app  eEdition  Search Our News Archive  Manage Your Subscription.'
p4
aS"Aug 4, 2010 - ... star Raul Navaira tries on funny-man hat. By Hector Salda?a - Express-News ... I tell you, this is great, the energy and Raulito. I didn't realize how funny he is, ..."
p5
aS'Aug 2, 2010 - From NASBA. Licensees. News You Can Use .... Valero Energy Corporation. 02/01/2012 - 01/31/2013 ... News / continued from page 1. Texas CPAs can use the ...'
p6
aS'Aug 2, 2010 - Valero Energy Foundation. Website Link: http://www.valero.com ... Register Your Child  In the News  View Our Calendar. How You Can Help. Make a Donation'
p7
aS'Aug 3, 2010 - The Investor Globe: lastest news on Follow posts on Embraer-Empresa.'
p8
aS'Aug 2, 2010 - Valero Energy Corporation joined with GSSWT to offer the first-ever business patch ... Bexar County. Valero Energy Foundation ... San Antonio Express-News.'
p9
aS'Aug 2, 2010 - News comes as surprise for Madison native as field of 156 is set. Jerry Kelly (above) .... Weather will be a factor at the Valero Texas Open at TPC San Antonio.'
p10
a.