(lp0
S"Aug 4, 2010 - Inside Climate News ... By Stacy Feldman, InsideClimate News ... Firelake Capital, as well as oil refiner Valero Energy, the country's top corn ethanol producer."
p1
aS'Aug 3, 2010 - The experimental bio-fuel plant on highway 36 east is still silent but the IDA has been told that Valero Energy of Texas is still negotiating with American Process ...'
p2
aS'Aug 4, 2010 - 1, exclusively in the print edition of the San Antonio Express-News. Bexar County is breaking a state law requiring the swift examination of every mentally ill ...'
p3
aS'Aug 4, 2010 - San Antonio Express-News  ExpressNews.com  iPad app  eEdition  Search Our News Archive  Manage Your Subscription. Hearst Newspapers  Copyright ...'
p4
aS'Aug 4, 2010 - Killinger is senior vice president and controller for Valero Energy Corp. and former board member, executive committee member and officer of the UTSA Alumni ...'
p5
aS'Aug 4, 2010 - August 04, 2010 News & Opinion  Feature .... Opponents of oil-by-rail shipments want the city to block a proposed Valero facility, but Valero says the city lacks ...'
p6
aS'Aug 4, 2010 - East Bay Express. Oakland, Berkeley, And East Bay News, Events, Restaurants, Music, & Arts ... August 04, 2010 News & Opinion  Legalization Nation ...'
p7
aS'Aug 4, 2010 - Recent revisions to the Valero Improvement Project-Good Neighbor Steering Committee ... That gives the project a greater chance at becoming certified as a Leadership in Energy and Environmental Design project. ... Filed Under: News ...'
p8
aS"Aug 3, 2010 - Some have said [California's climate and clean energy] law will have a negative ... That's from a terrific opinion piece in the San Jose Mercury News, by Teresa ... The companies bankrolling Proposition 23, Tesoro and Valero, are two of the ..."
p9
aS'Aug 3, 2010 - News and information source for American made alternative fuels, including ethanol and biodiesel. ... Valero Begins Selling E85 In San Antonio ... KL Energy And Petrobras America Working On Cellulosic Ethanol From Bagasse ...'
p10
a.