(lp0
S'Aug 5, 2010 - Get detailed financial information on Flyers Energy, LLC () including real-time ... distributor to retail and wholesale customers for Valero, Chevron, and Shell.'
p1
aS"Aug 5, 2010 - Valero Energy Corp.'s 182,000-barrel-a-day Delaware City, Delaware, plant, was shut in November to stem losses of as much as $1 million a day. The refinery ..."
p2
aS'Aug 5, 2010 - Latest Business News ... San Antonio Express-News  ExpressNews.com  iPad app  eEdition  Search Our News Archive  Manage Your Subscription.'
p3
aS"Aug 6, 2010 - A year and a half after Bexar County's leading bail bondsman starred in an Express-News report on whether he offered illicit favors to a range of public officials ..."
p4
aS'Aug 5, 2010 - Latest Business News ... San Antonio Express-News  ExpressNews.com  iPad app  eEdition  Search Our News Archive  Manage Your Subscription.'
p5
aS'Aug 6, 2010 - Latest Sports News ... Valero Texas Open: Live updates and analysis ... iPad app  eEdition  Search Our News Archive  Manage Your Subscription.'
p6
aS"Aug 6, 2010 - ... McDonald's, Valero, Jack in the Box, Carl's Jr and Kroger - just to name a few. ... Clients include ConocoPhillips, Suncor Energy, Shell, Loaf' N Jug, King ..."
p7
aS'Aug 6, 2010 - Fact Sheet oh OSHA Job Safety. Posted On: Aug 06, 2010. Download: hse-fs_fact_sheet_sha_job_safety.pdf. Member Login. Username: Password:'
p8
aS'Aug 5, 2010 - ... the two plants will generate enough solar energy to meet the electricity needs of 52,000 households, and avoiding the emission ... Mnica Valero de Bernab'
p9
aS"Aug 6, 2010 - California's clean energy law Assembly Bill 32 is under attack from Texas oil companies that are ... Facebook Care2 News Twitter Email Share ... An organized group, lead by Texas based oil refining giant Valero, is funding a campaign to ..."
p10
a.