(lp0
S'Sep 13, 2010 - Valero Energy Corp. ... North American Energy Security Trumps Environment - Poll ... s Keystone XL pipeline and suggest securing a stable energy supply for ...'
p1
aS'Sep 13, 2010 - Environmental news from California and beyond ... 23 is primarily funded by oil refiners, including Valero Energy Corp., Tesoro Corp. and Koch Industries, and is ...'
p2
aS'Sep 14, 2010 - News. 09.14.2010. California Ponders Scary Proposition. Architects worry about ... largely fueled by oil giants Valero Energy, Occidental Petroleum, and Tesoro, ...'
p3
aS"Sep 13, 2010 - The taste of Euphoric Energy's watermelon/kiwi energy drink could be described as similar to sucking on watermelon Jolly Ranchers. It could..."
p4
aS'Sep 14, 2010 - The surge in energy company drilling for deep-rock natural gas has generated a .... The news is part of an otherwise depressing Wall Street Journal story on how ...'
p5
aS'Sep 14, 2010 - ... in Paris today, where a French foreign ministry spokesman, Bernard Valero, ... sorry" to hear of the news from Brussels, and that he hoped the threat of legal ...'
p6
aS'Sep 13, 2010 - Enbridge Energy Partners of Houston reported Thursday that it had shut down the line after the loss ... Paul Elhendi, who operates a Valero filling station in Lyndhurst, said that a week ago he was ... Northeast Ohio commercial real estate news.'
p7
aS'Sep 14, 2010 - News; Services ... corporate expansion facilities including Valero Energy, Citicorp, USAA, Capital Group, Ultramar Diamond Shamrock, World Savings and Loan, ...'
p8
aS"Sep 15, 2010 - Latest Sports News ... Charley Hoffman is Valero Texas Open's clubhouse leader ... San Antonio Express-News  ExpressNews.com  iPad app  eEdition ..."
p9
aS'Sep 14, 2010 - L. Kuxhaus, F.J. Valero-Cuevas and S.S. Roach, "Quantifying deficits in the 3D force capabilities of a digit caused by selective paralysis: Application to the thumb ...'
p10
a.