(lp0
S'Sep 15, 2010 - oil and gas news and contracts for contractors and engineers in the engineering and energy industries.'
p1
aS'Sep 14, 2010 - News. 09.14.2010. California Ponders Scary Proposition. Architects worry about ... largely fueled by oil giants Valero Energy, Occidental Petroleum, and Tesoro, ...'
p2
aS'Sep 15, 2010 - By Don Finley - Express-News ..... San Antonio Express-News  ExpressNews.com  iPad app  eEdition  Search Our News Archive  Manage Your Subscription.'
p3
aS'Sep 15, 2010 - 8:51 AM  Italian referendum signals battle over energy policy ... Powered and implemented by Interactive Data Managed Solutions News provided by The ...'
p4
aS'Sep 15, 2010 - News XOM Refinery Status: Exxon Beaumont Refinery Operating New York Stock ... Valero Delaware 210.0 PBF Energy has closed Apr deal to buy plant.'
p5
aS'Sep 14, 2010 - The surge in energy company drilling for deep-rock natural gas has generated a .... The news is part of an otherwise depressing Wall Street Journal story on how ...'
p6
aS"Sep 15, 2010 - Value Brands can be very hit or miss when it comes to energy drinks - mostly ... Today this changes with Diamond Shamrock and Valero's new Uforce energy drink .... polygamy ban upheld: Bad news for 'Sister Wives' as their agenda implodes ..."
p7
aS'Sep 16, 2010 - ... Akore software sales and continued relationships with companies like Tesoro Petroleum Companies, Valero Energy Corporation, SWBC, NuStar Energy LP, ...'
p8
aS'Sep 14, 2010 - ... in Paris today, where a French foreign ministry spokesman, Bernard Valero, ... sorry" to hear of the news from Brussels, and that he hoped the threat of legal ...'
p9
aS'Sep 15, 2010 - Valero Energy Corp to export ethanol for first time  40,000 in southeast ... US News. The Robot-Snake Charger Designed by Tesla Could Scare you Along with ...'
p10
a.