(lp0
S'Sep 16, 2010 - Of the $8.2 million raised so far, $1 million came from the Koch firm, $4 million from the Valero Energy Corporation and $1.5 million from the Tesoro Corporation; ...'
p1
aS'Sep 16, 2010 - A new report by Oil Watchdog finds that Valero Energy reaped over $4.5 billion in ... Sign up for email updates and get the latest news about what Big Oil is up to.'
p2
aS'Sep 15, 2010 - oil and gas news and contracts for contractors and engineers in the engineering and energy industries.'
p3
aS"Sep 16, 2010 - why is the Alamo City celebrating the Mexican Revolution's 100th anniversary this year with exhibitions at the San Antonio Museum of Art and the Witte Museum, ..."
p4
aS'Sep 15, 2010 - News XOM Refinery Status: Exxon Beaumont Refinery Operating New York Stock ... Valero Delaware 210.0 PBF Energy has closed Apr deal to buy plant.'
p5
aS'Sep 16, 2010 - Mr. Tassin was Founding Partner of Energy Spectrum Capital LP and its ... quickly and accurately delivers business and financial information, news and insight .... Partners GP LLC and Chief Executive Officer of Valero Energy Partners GP LLC'
p6
aS'Sep 16, 2010 - In 2005, Premcor was acquired by Valero Energy of San Antonio, Texas. In the second quarter of 2007, Canada-based Husky Energy bought the Lima plant for ...'
p7
aS'Sep 15, 2010 - 8:51 AM  Italian referendum signals battle over energy policy ... Powered and implemented by Interactive Data Managed Solutions News provided by The ...'
p8
aS'Sep 16, 2010 - ... Akore software sales and continued relationships with companies like Tesoro Petroleum Companies, Valero Energy Corporation, SWBC, NuStar Energy LP, ...'
p9
aS"Sep 15, 2010 - Value Brands can be very hit or miss when it comes to energy drinks - mostly ... Today this changes with Diamond Shamrock and Valero's new Uforce energy drink .... polygamy ban upheld: Bad news for 'Sister Wives' as their agenda implodes ..."
p10
a.