(lp0
S'Sep 16, 2010 - Of the $8.2 million raised so far, $1 million came from the Koch firm, $4 million from the Valero Energy Corporation and $1.5 million from the Tesoro Corporation; ...'
p1
aS'Sep 17, 2010 - DOW JONES, A NEWS CORP COMPANY .... Refiners Valero Energy Corp. and Tesoro Corp., both of San Antonio, have given about $4 million and $1.5 million ...'
p2
aS'Sep 16, 2010 - A new report by Oil Watchdog finds that Valero Energy reaped over $4.5 billion in ... Sign up for email updates and get the latest news about what Big Oil is up to.'
p3
aS"Sep 16, 2010 - why is the Alamo City celebrating the Mexican Revolution's 100th anniversary this year with exhibitions at the San Antonio Museum of Art and the Witte Museum, ..."
p4
aS'Sep 17, 2010 - The president said that despite the sobering news on poverty, American workers remain dedicated and optimistic, and I am confident that we will emerge from ...'
p5
aS'Sep 16, 2010 - Mr. Tassin was Founding Partner of Energy Spectrum Capital LP and its ... quickly and accurately delivers business and financial information, news and insight .... Partners GP LLC and Chief Executive Officer of Valero Energy Partners GP LLC'
p6
aS'Sep 16, 2010 - French engineering firm Vinci and nuclear energy group Areva say seven of their ... he thought was behind the abduction, Bernard Valero told the Reuters news ...'
p7
aS'Sep 16, 2010 - In 2005, Premcor was acquired by Valero Energy of San Antonio, Texas. In the second quarter of 2007, Canada-based Husky Energy bought the Lima plant for ...'
p8
aS'Sep 16, 2010 - In 2003, Orion filed for bankruptcy under Chapter 11 and sold its refinery, which was producing 185,000 barrels of gas per day, to Valero Energy Corporation.'
p9
aS'Sep 17, 2010 - Valero Energy Corp to export ethanol for first time  40,000 in southeast ... US News. The Robot-Snake Charger Designed by Tesla Could Scare you Along with ...'
p10
a.