(lp0
S'Sep 20, 2010 - A well-financed coalition is seeking to effectively kill a clean energy law in ... has come from just two Texas-based oil and gas companies, Valero and Tesoro, ...'
p1
aS'Sep 19, 2010 - ... such a talent and never get to use it, he said. jwhisler@express-news.net ... Valero Texas Open: Live updates and analysis  View Comments.  2016 Hearst ...'
p2
aS"Sep 20, 2010 - The latest hearing in the fierce international custody battle for 11-year-old Jean Paul Lacombe was delayed Monday after lawyers for the boy's father said they ..."
p3
aS'Sep 20, 2010 - When he tumbled face-first to the ground next to a Valero gas pump, his life at an ... The San Antonio Express-News has found that in addition to the confirmed ...'
p4
aS'Sep 20, 2010 - ... and energy companies, including over $4 million from Valero Energy, $1.5 million from Tesoro Corporation and $1 million from Koch Industries subsidiary Flint ...'
p5
aS'Sep 20, 2010 - Other North American refineries operated by Flint Hills Resources, Valero and ... US toluene prices rose with higher energy prices and steady demand. ... Take a free trial to ICIS news for breaking chemical news as it happens - including ...'
p6
aS'Sep 20, 2010 - Home / Sports News .... PGA Tour: Top 10 players to watch at the Valero Texas Open ... on key topics of geopolitical importance, including energy and security.'
p7
aS'Sep 20, 2010 - Valero Energy Corp to export ethanol for first time  40,000 in southeast ... US News. The Robot-Snake Charger Designed by Tesla Could Scare you Along with ...'
p8
aS"Sep 20, 2010 - You'll notice the newfound energy and enthusiasm that your staff will bring to your hotel. Why Choose RTML: Success, Dedication, And Guaranteed Results"
p9
aS'Sep 20, 2010 - Stacy Goodson  Local Boxing News  Boxing .... List of top ranked PGA golfers in the playing field for 2016 Valero Texas Open  Hot photos of Nieke Coetzee the ...'
p10
a.