(lp0
S'Sep 20, 2010 - A well-financed coalition is seeking to effectively kill a clean energy law in ... has come from just two Texas-based oil and gas companies, Valero and Tesoro, ...'
p1
aS"Sep 20, 2010 - The latest hearing in the fierce international custody battle for 11-year-old Jean Paul Lacombe was delayed Monday after lawyers for the boy's father said they ..."
p2
aS'Sep 21, 2010 - Tivy QB Manziel switches to A&M. Merrisa Brown, By Lorne Chan - Express-News .... Valero Texas Open: Live updates and analysis ...'
p3
aS'Sep 20, 2010 - ... and energy companies, including over $4 million from Valero Energy, $1.5 million from Tesoro Corporation and $1 million from Koch Industries subsidiary Flint ...'
p4
aS'Sep 20, 2010 - Other North American refineries operated by Flint Hills Resources, Valero and ... US toluene prices rose with higher energy prices and steady demand. ... Take a free trial to ICIS news for breaking chemical news as it happens - including ...'
p5
aS'Sep 21, 2010 - Noria news wires ... "Therefore, these companies need to set themselves apart from other re-refiners," notes Milind Phadke, industry manager at Kline\'s Energy practice. ... Valero Energy\'s Lubrication Transformation  How Temperature Affects ...'
p6
aS"Sep 21, 2010 - ATTORNEY NEWS. . COFOUNDER OF ... Recently, Valero Petroleum Company petitioned a federal judge in ... 2 See Valero Energy Corp.'s Motion to Continue ..."
p7
aS'Sep 20, 2010 - Valero Energy Corp to export ethanol for first time  40,000 in southeast ... US News. The Robot-Snake Charger Designed by Tesla Could Scare you Along with ...'
p8
aS'Sep 21, 2010 - RTML can assess the effectiveness of every process and make the necessary changes to control operational costs, from implementing energy efficient systems ...'
p9
aS'Sep 21, 2010 - dit le 21/09/2010 - Plus de news de "AMEC" - Voir la fiche entreprise de "AMEC .... 19/08/2010 - AMEC awarded 60m contract by EDF Energy for gas storage ...'
p10
a.