(lp0
S'Sep 22, 2010 - That brings us to Valero Energy (NYSE: VLO ) , whose recent revenue and earnings are ... that comes up questionable in my graph is automatically bad news.'
p1
aS"Sep 22, 2010 - We all fall down ? that's the bad news.? As the crowd realized the fall was planned to drive home the point about the pitfalls of life, the mood shifted. An older ..."
p2
aS'Sep 22, 2010 - While there have been several recent additions and changes to the mall, the lagging economy has slowed the major projects, including the redevelopment of the ...'
p3
aS'Sep 23, 2010 - Parker Drilling | Corporate Bond - Yields, Rates, New Issues, Quotes & News Parker Drilling Co. :[stock PKD] Parker Drilling Co. 5 Greenway Plaza Suite 100 ...'
p4
aS"Sep 22, 2010 - ... with Valero Energy Corp. contributing more than $4 million and Tesoro Corp. ... They said, 'If this passes, your energy bills would go up. ... Latest news videos ..."
p5
aS'Sep 22, 2010 - Oakland, Berkeley, And East Bay News, Events, Restaurants, Music, & Arts .... Additionally, he said, the higher purity of the water translates to less energy ... Opponents of oil-by-rail shipments want the city to block a proposed Valero facility, but ...'
p6
aS'Sep 22, 2010 - Oakland, Berkeley, And East Bay News, Events, Restaurants, Music, & Arts. Facebook ..... schools to boot. http://www.action-alameda-news.com/2010/09'
p7
aS'Sep 22, 2010 - Oakland, Berkeley, And East Bay News, Events, Restaurants, Music, & Arts .... Legalization Nation broke the news that alcohol lobbyists were paying to defeat Prop 19. .... Opponents of oil-by-rail shipments want the city to block a proposed Valero facility, ... Everything you need to know about saving water, energy efficiency, ...'
p8
aS'Sep 21, 2010 - Noria news wires ... "Therefore, these companies need to set themselves apart from other re-refiners," notes Milind Phadke, industry manager at Kline\'s Energy practice. ... Valero Energy\'s Lubrication Transformation  How Temperature Affects ...'
p9
aS"Sep 21, 2010 - ATTORNEY NEWS. . COFOUNDER OF ... Recently, Valero Petroleum Company petitioned a federal judge in ... 2 See Valero Energy Corp.'s Motion to Continue ..."
p10
a.