(lp0
S"Sep 24, 2010 - The eight-day closing of the Enbridge Energy Partners LP 6A pipeline, which moves ... A fire that shut Valero Energy Corp. .... Fathy said at a news conference, revising the ministry's earlier report of 81 passengers and seven crew members."
p1
aS"Sep 24, 2010 - Environmental news from California and beyond ... The initiative's main funders are Valero Energy Corp. and Tesoro Corp., two Texas-based oil companies with ..."
p2
aS'Sep 23, 2010 - Valero Energy and Tesoro Corp., the Texas oil giants behind Prop. 23, have already spent nearly $8 million and are expected to spend millions  maybe tens of ...'
p3
aS'Sep 23, 2010 - "The reason for this is that those new regulations will drive energy costs sky ... the Yes campaign comes from two large Texas oil companies, Valero and Tesoro.'
p4
aS'Sep 24, 2010 - By Jeorge Zarazua - Express-News .... San Antonio Express-News  ExpressNews.com  iPad app  eEdition  Search Our News Archive  Manage Your ...'
p5
aS'Sep 24, 2010 - First sold in 1920 as a multipurpose ointment for livestock, Blue Star quickly caught on with Texas farm families for its power to stop the sting of insect bites, ...'
p6
aS"Sep 24, 2010 - Betty and Boyd Grier of High Point, N.C., check out a cannon on display at the Alamo, where some believe it was used by the shrine's defenders. If true, it would ..."
p7
aS'Sep 23, 2010 - By Pat Turner - Contributing Writer/North Central News .... ExpressNews.com  iPad app  eEdition  Search Our News Archive  Manage Your Subscription.'
p8
aS'Sep 23, 2010 - overseas holdings, and began acquiring stakes in energy companies, natural resource ..... 4, 2010; Zoe Hughes, Harvard, CIC Reportedly End Real Estate Fund Sale Talks, PERE News, September 10, 2010. ..... Valero Energy Corp.'
p9
aS'Sep 24, 2010 - Valero Energy Corp to export ethanol for first time  40,000 in southeast ... US News. The Robot-Snake Charger Designed by Tesla Could Scare you Along with ...'
p10
a.