(lp0
S'Sep 27, 2010 - Valero Energy Corp. said it agreed to sell its Paulsboro refinery to PBF ... Valero Energy to sell Paulsboro refinery for $360M. Print Email  Bloomberg News ...'
p1
aS"Sep 27, 2010 - PBF Energy, a refiningventure controlled by private equity companies Blackstone ... N) and First Reserve, on Monday said it agreed to buy Valero Energy Corp's (VLO. ... Thomson Reuters is the world's largest international multimedia news ..."
p2
aS'Sep 26, 2010 - He even solicited a donation of about 500 bottles of water from Valero Energy Corp. officials to hand to thirsty racers from a pink table. The water was so popular, ...'
p3
aS'Sep 26, 2010 - YOU ARE HERE: LAT HomeCollectionsNews ... Rather than wait, I drove past the Tesoro and Valero refineries  whose owners have sunk ... that it will be a job killer and raise energy bills at a time when so many people are out of work.'
p4
aS'Sep 27, 2010 - ... around the world while managing his laundry business and pursuing his passion for auto racing. Buying two Alamo Cleaners helped ease his excess energy.'
p5
aS'Sep 28, 2010 - Latest Business News ... Rush Enterprises profit slides 87% due to energy slump  The Worst Mistake Baytex Energy Corp. Investors Can Make Right.'
p6
aS'Sep 27, 2010 - San Antonio Express-News  ExpressNews.com  iPad app  eEdition  Search Our News Archive  Manage Your Subscription. Hearst Newspapers  Copyright ...'
p7
aS'Sep 26, 2010 - News & Press ... Robert C. Ehlers, Staff Environmental Engineer for Valero Energy Corporation, has for the last seven years managed environmental liability and ...'
p8
aS'Sep 26, 2010 - Valero Energy Station ... With the latest News & Advice from Manta, you can stay ahead of the trends and challenges affecting your industry and help your small ...'
p9
aS'Sep 26, 2010 - Constellation Energy Group, Inc. 40, John Corse, Chief Litigation Counsel, Irving .... News Corporation9, 10, Eugenie Gavenchak, SVP, Deputy GC, Lawrence Jacobs, .... Valero Energy Corporation, 32, Martin Loeber, Richard Walsh, VPs, Kim ...'
p10
a.