(lp0
S'Sep 27, 2010 - Valero Energy Corp. said it agreed to sell its Paulsboro refinery to PBF ... Valero Energy to sell Paulsboro refinery for $360M. Print Email  Bloomberg News ...'
p1
aS"Sep 28, 2010 - Greenwich-based PBF Energy Co. LLC on Monday bought Valero Energy Corp.'s oil refinery in Paulsboro, N.J., the second Delaware River plant it has acquired ..."
p2
aS"Sep 27, 2010 - PBF Energy, a refiningventure controlled by private equity companies Blackstone ... N) and First Reserve, on Monday said it agreed to buy Valero Energy Corp's (VLO. ... Thomson Reuters is the world's largest international multimedia news ..."
p3
aS'Sep 28, 2010 - The only job losses or costs, he said, would be in polluting industries like Valero Energy Corp. and Tesoro Corp., both of which have refineries in California that ...'
p4
aS'Sep 29, 2010 - Delek US Holdings Inc. Stock - DK news, historical stock charts, analyst ratings, financials, ... DOW JONES, A NEWS CORP COMPANY ..... Valero Energy Corp.'
p5
aS'Sep 28, 2010 - San Antonio Express-News  ExpressNews.com  iPad app  eEdition  Search Our News Archive  Manage Your Subscription. Hearst Newspapers  Copyright ...'
p6
aS'Sep 28, 2010 - ... sure what to do next, "Know you\'re not alone. Look for people who are going through the same thing because they\'re out there." jbelasco@express-news.net ...'
p7
aS"Sep 28, 2010 - R.J. DeSilva, a spokesman for the Texas comptroller's office, said the delinquent taxes were paid this month, but the bar eventually was suspended because a ..."
p8
aS'Sep 27, 2010 - San Antonio Express-News  ExpressNews.com  iPad app  eEdition  Search Our News Archive  Manage Your Subscription. Hearst Newspapers  Copyright ...'
p9
aS'Sep 27, 2010 - Valero Energy Corp. also reversed a year-earlier loss to post $583 million in second-quarter 2010 earnings, .... International news for oil and gas professionals ...'
p10
a.