(lp0
S'Sep 1, 2010 - Mayor Antonio Villaraigosa on Tuesday rebuked Valero Energy Corp. and Tesoro ... "Go home, Texas oil companies," Villaraigosa urged at a news conference ...'
p1
aS'Sep 3, 2010 - Environmental news from California and beyond ... 23 was launched by two Texas-based refiners, Valero Energy Corp. and Tesoro Corp. which have been its ...'
p2
aS'Sep 1, 2010 - The use of E85 is about to get more exposure, as Valero Energy Corp. recently ... Dwight Barron Jones fills up his taxi with E85 fuel at the Valero Corner.'
p3
aS'Sep 1, 2010 - Valero Energy Corp. added the Nucleus point-of-sale (POS) system by Dresser ... Enewsletters get you caught up on all the convenience store news you need.'
p4
aS'Sep 1, 2010 - The company also has partnered with Valero Energy Co. to assist a start-up company producing high-octane ... Northeast Ohio commercial real estate news.'
p5
aS"Sep 1, 2010 - BREAKING NEWS: Contra Costa County's Questionable Payoff .... Opponents of oil-by-rail shipments want the city to block a proposed Valero facility, but Valero ..."
p6
aS"Sep 2, 2010 - California energy officials blessed the fifth and sixth solar power projects in the ...... It's supported by Texas refiners Tesoro and Valero and just got a $1 million ..."
p7
aS'Sep 2, 2010 - Whether you want to learn more about Dirty Energy Prop 23 or you already know ... Protest Valero  The largest donor to the Prop 23 campaign to effectively repeal ... Stop Texas OilKeep up to date with all the hottest urban planning news by ...'
p8
aS'Sep 1, 2010 - According to French foreign ministry spokesman Bernard Valero, France ... either about foreign policy or Italy\'s interests," the Italian news agency ANSA ... BACJoint Declaration by Industry Associations on a Flexible European Energy System ...'
p9
aS'Sep 2, 2010 - Valero Energy Corp to export ethanol for first time  40,000 in southeast ... US News. The Robot-Snake Charger Designed by Tesla Could Scare you Along with ...'
p10
a.