(lp0
S'Sep 7, 2010 - The use of E85 is about to get more exposure, as San Antonio-based Valero Energy Corp. recently announced it will add E85 pumps to all of its new Valero ...'
p1
aS'Sep 7, 2010 - ENERGY$LINEBREAK$More on the way$LINEBREAK$Valero is expanding the availability of E85, a blend of ... VICKI VAUGHAN, San Antonio Express-News ...'
p2
aS'Sep 7, 2010 - ... Temple-Inland in Austin and Valero Energy, Rackspace, and Clear Channel in ... News Product Manager and Monika Maeckle, Vice President of New Media.'
p3
aS'Sep 6, 2010 - San Antonio Express-News  ExpressNews.com  iPad app  eEdition  Search Our News Archive  Manage Your Subscription. Hearst Newspapers  Copyright ...'
p4
aS'Sep 6, 2010 - QUICK NEWS, 9-6: DIRTY ENERGY PROP IS MORE DENIAL; WISC SETS WIND ... [Texas-based oil refiners] Valero and Tesoro (which sells its gasoline in ...'
p5
aS'Sep 7, 2010 - In a refreshing blast, CPS Energy in San Antonio has disclosed its top salaries ... In the Express-News story, Beneby "said he made the decision \'with much difficulty,\' noting that .... Valero tells the tax man what\'s what, awarded $5 million in.'
p6
aS'Sep 7, 2010 - News issues ... Clean energy jobs are growing 10 times faster than other sectors of ... In addition to Valero and Tesoro oil companies, the investigative site ...'
p7
aS'Sep 7, 2010 - The winning practice was submitted by Jayesh Patel, reliability manager, Valero Refinery in Paulsboro, New Jersey. By managing its equipment below the alert ...'
p8
aS'Sep 7, 2010 - News about us, News informing us, News by us .... with their families, to deal with their childhood and take that same energy they have to turn it into a positive.'
p9
aS'Sep 6, 2010 - Valero Energy Corp to export ethanol for first time  40,000 in southeast ... US News. The Robot-Snake Charger Designed by Tesla Could Scare you Along with ...'
p10
a.