(lp0
S"Jan 14, 2016 - News/. Chipotle Is Closing All Its Restaurants for 1 Day, so Plan Accordingly ... But once you hear why Chipotle is closing its doors for a little bit, you'll feel much ..."
p1
aS"Jan 13, 2016 - Chipotle's leaders said they plan to begin a new marketing campaign in February to bring back worried former customers. ... 2016 Cable News Network. A Time ..."
p2
aS"Jan 14, 2016 - Listen up, burrito fans: Chipotle wants you back -- even if it means feeding you for nothing. That's right, the beleaguered chain, struggling to bounce back after ..."
p3
aS'Jan 13, 2016 - Chipotle Mexican Grill Inc executives on Wednesday said they are confident that steps they are taking to tighten food ... Our top news photography this week.'
p4
aS'Jan 13, 2016 - Chipotle Mexican Grill executives voiced confidence that the company can ... in the worlds of diversified media, news, education, and information services.'
p5
aS'Jan 14, 2016 - A logo of Chipotle Mexican Grill is seen on a store entrance in Manhattan, New York, in this file photo taken November 23, 2015. Chipotle Mexican Grill Inc said ...'
p6
aS'Jan 14, 2016 - Change lunch plans on Feb. 8 because Chipotle will be closing all stores.'
p7
aS'Jan 14, 2016 - Chipotle is Giving Away Free Food to Gain Your Trust Back ... lost support from investors, Chipotle has planned some serious damage control. .... Food News.'
p8
aS'Jan 14, 2016 - Chipotle will be closing ALL of its restaurants on February 8, AKA the end of ... A rep for the popular chain told E! News that all of its stores will be closing for a ...'
p9
aS'Jan 13, 2016 - The shares climbed the most in more than five months after the beleaguered company assured investors it can rebound from its food-safety crisis. Chipotle told ...'
p10
a.