(lp0
S"Jan 19, 2016 - By waiting until next month to close their stores, Chipotle keeps its name in the news cycle for another three weeks. There's no reason for Chipotle to announce a ..."
p1
aS'Jan 20, 2016 - Chipotle is working hard to revamp its image by addressing food safety ... Global Business and Financial News, Stock Quotes, and Market Data and Analysis.'
p2
aS'Jan 19, 2016 - View source version on businesswire.com: http://www.businesswire.com/news/home/20160119006446/en/. Source: Chipotle Mexican Grill. Chipotle Mexican ...'
p3
aS'Jan 19, 2016 - Chipotle said Tuesday that it will close all restaurants from 11 a.m. to 3 p.m. on Feb. 8 for a companywide meeting on food safety efforts after E. coli, salmonella ...'
p4
aS'Jan 19, 2016 - Chipotle Mexican Grill to close all restaurants for lunch on Feb. ... Freshii to offer discount during temporary Chipotle closure ... See the latest news from NRN.'
p5
aS'Jan 20, 2016 - A lawsuit claims Chipotle tried to cover up an outbreak at the restaurant. Gordon Tokumatsu reports for the NBC4 News at 5 p.m. on Wednesday, Jan. 20, 2016.'
p6
aS"Jan 19, 2016 - Today Chipotle released more information on what exactly it'll be discussing with employees when the chain shuts down all locations for a few hours on Feb."
p7
aS'Jan 20, 2016 - Sporting News has asked a half-dozen NBA players from different teams, on and off the record, about Chipotle and its recent outbreak. The respondents, all ...'
p8
aS'Jan 20, 2016 - Chipotle has had a rough go of it lately as the fast-casual burrito and taco ... Actually they have been in the news and have been releasing statements and ...'
p9
aS'Jan 19, 2016 - Moran, who created what Chipotle calls its "people culture," was quick to point out that Chipotle employees aren\'t exactly depressed despite the barrage of news ...'
p10
a.