(lp0
S"Jan 22, 2016 - However, Chipotle officials suggested they have information about the cause of some of their customers' illnesses in a Jan. 19 news release about an upcoming ..."
p1
aS"Jan 22, 2016 - It's been six months since the start of Chipotle's food safety crisis  a series of .... longform writing and breaking news from the Huffington Post and around the ..."
p2
aS'Jan 21, 2016 - Lawsuit Claims Chipotle Tried To Cover Up A Norovirus Outbreak Last Year ... Venessa Wong is a business reporter for BuzzFeed News and is based in New ...'
p3
aS'Jan 22, 2016 - "Instead of admitting there had been a foodborne illness outbreak, Chipotle\'s Area Manager ... News of the lawsuit comes days after Chipotle announced all of its ...'
p4
aS'Jan 21, 2016 - While Chipotle closes its doors for part of Feb. 8, fast-casual ... Global Business and Financial News, Stock Quotes, and Market Data and Analysis. Data also ...'
p5
aS"Jan 21, 2016 - Freshii using Chipotle's food safety woes to its own benefit with promotion on Feb. 8."
p6
aS'Jan 22, 2016 - Chipotle Mexican Grill has faced a food safety crisis, with multiple foodborne illness outbreaks at a number of its restaurants in recent months. Take a look at key ...'
p7
aS'Jan 22, 2016 - Friday, April 08, 2016 Headlines & Global News ... A class action lawsuit was filed in California agaainst Chipotle, alleging that people became sick after eating ...'
p8
aS'Jan 21, 2016 - Not only is Chipotle facing a criminal investigation in relation to a food-borne illness ... location before contacting public health officials, Buzzfeed News reported.'
p9
aS'Jan 22, 2016 - LEWISBURG  A continual line of lunch-crowd customers stretched 30 deep from cash register to restaurant door Thursday at Chipotle Mexican Grill in Kelly ...'
p10
a.