(lp0
S'Jan 25, 2016 - Chipotle Mexican Grill, which was simultaneously facing a salmonella outbreak in Minnesota, allegedly tried to "cover up and ... Submit a news tip or photo.'
p1
aS"Jan 26, 2016 - Finally, some news about Chipotle not tied to foodborne illness that ... actually, wait, this won't distract from its sorry public image at all: It's about a lawsuit ..."
p2
aS"Jan 25, 2016 - Shake Shack's CEO tells CNNMoney's Cristina Alesci why Chipotle's ... Why Shake Shack's CEO still eats Chipotle burritos ... 2016 Cable News Network. A Time ..."
p3
aS'Jan 25, 2016 - Chipotle Mexican Grill (NYSE:CMG) is confident the foodborne illness outbreaks ... So follow me on Facebook and Twitter for the most important industry news in ...'
p4
aS'Jan 26, 2016 - If this is so serious; if this is a matter of food safety (as the company states) and the health of paying customers, why not shut down tomorrow?'
p5
aS'Jan 26, 2016 - Facing lawsuits for an E. coli outbreak, Chipotle has new legal woes. This time the ... Convicted murderer smiles at sentencing; News: | 34 hours ago. Undo.'
p6
aS"Jan 25, 2016 - ... safety just can't catch a break. A Chipotle restaurant near Boston closed on Tuesday after four employees fell sic. .... Read More: Chipotle, Business News ..."
p7
aS"Jan 25, 2016 - Neither Chipotle's nor the Center for Disease Control has identified the cause for any of the six outbreaks in 2015. Chipotle needs to demonstrate that they are ..."
p8
aS'Jan 26, 2016 - A Chipotle location is still planned, although food-safety issues caused sales to drop 30 percent in December.'
p9
aS'Jan 27, 2016 - Filed under Breaking News, Community ... the well- known food franchise, Chipotle has been under investigation by the FDA for producing an outbreak of E. Coli ...'
p10
a.