(lp0
S'Jan 6, 2016 - The seemingly endless string of sour news is taking its toll. Shares of Chipotle fell to their lowest level in over two years, after tumbling by nearly 5 percent on ...'
p1
aS'Jan 6, 2016 - The reeling Chipotle restaurant chain had more bad news for investors on Wednesday, announcing it has been served with a federal grand jury subpoena as ...'
p2
aS'Jan 6, 2016 - Chipotle was served with a federal grand jury subpoena as part of a criminal investigation tied to a dangerous norovirus outbreak this summer at one of its restaurants in California, the company announced Wednesday. ... Chipotle Mexican Grill Inc. has been reeling since an E. coli ...'
p3
aS'Jan 6, 2016 - Federal authorities have opened a criminal investigation of Chipotle Mexican Grill after a norovirus outbreak in California that led to at least 234 people being ...'
p4
aS'Jan 6, 2016 - Chipotle faces criminal investigation due to norovirus outbreak at California restaurant. BY Dan Good. NEW YORK DAILY NEWS. Updated: Wednesday, January ...'
p5
aS'Jan 6, 2016 - Chipotle faces criminal probe over norovirus outbreak ... NEW YORK - Chipotle (CMG) faces mounting legal trouble related to incidents of ... Market News ...'
p6
aS'Jan 6, 2016 - Chipotle hit with federal subpoena over California norovirus outbreak ... Any more incremental bad news, particularly if there is an unfavorable decision from the ...'
p7
aS"Jan 6, 2016 - DOW JONES, A NEWS CORP COMPANY. News Corp is a network of .... Chipotle's business has struggled since E. coli outbreaks in the fall. Photo: Associated ..."
p8
aS'Jan 6, 2016 - A grand jury subpoena requires Chipotle to produce a range of documents in ... "It\'s never good news for a company when federal prosecutors open a grand jury ...'
p9
aS'Jan 6, 2016 - The struggling fast casual chain Chipotle says it is the target of a criminal probe. ... The company on Wednesday reported a double dose of bad news. Sales at ...'
p10
a.