(lp0
S'Feb 12, 2016 - Chipotle Mexican Grill closed its doors for a few hours on Monday as it ... So follow me on Facebook and Twitter for the most important industry news in retail and ...'
p1
aS"Feb 11, 2016 - Mistaken for Chipotle, man gets hundreds of 'raincheck' posts asking for free burritos ... chipotle-raincheck-tweet-inline-today-160211 .... More: News News."
p2
aS'Feb 11, 2016 - According to the lawsuit, 25-year-old Haley Hadlock is suing Chipotle for allegedly giving ... 2015 E.coli Cases Linked to Chipotle | HealthGrove ... Filed in: News.'
p3
aS'Feb 11, 2016 - In the fourth quarter of 2015, Chipotle Mexican Grill Inc. experienced some ... As Time reported, although this was presumably good news for Chipotle fans, stock ...'
p4
aS'Feb 12, 2016 - Chipotle Mexican Grill CMG Stock News. Chipotle Mexican Grill, Inc. (NYSE: CMG). Chipotle Mexican Grill has fallen on some hard times as of late. However ...'
p5
aS'Feb 12, 2016 - Chipotle Mexican Grill closed its more than 2000 restaurants for 4 hours this past Monday to hold a virtual town hall meeting with its employees about steps it ...'
p6
aS'Feb 11, 2016 - Some students still go to Chipotle despite the E. Coli outbreak. ... according to a news release, the popular restaurant chain reopened in Athens with a bang.'
p7
aS'Feb 11, 2016 - Chipotle Mexican Grill closed all of its U.S. restaurants during prime lunchtime hours on ... Claims Journal - Insurance news and resources for claims adjusters ...'
p8
aS"Feb 12, 2016 - One of Chipotle Mexican Grill's first customers during the restaurant's grand opening on ... Posted in News, Business on Friday, February 12, 2016 12:15 pm."
p9
aS'Feb 12, 2016 - Chipotle offered free burritos in the wake an e coli outbreak that affected hundreds of customers and led ... Chipotle-Food Safety .... Your Regional News Pages.'
p10
a.