(lp0
S'Feb 16, 2016 - The Chipotle is slated to open about mid-year, said Chris Arnold, communications director for Chipotle Mexican Grill Inc., in an email to the Daily News.'
p1
aS'Feb 15, 2016 - Oliver then played a bunch of customer reactions to this news and they all said they would keep going back to Chipotle despite the fact that it could be ...'
p2
aS'Feb 15, 2016 - Oliver then played a bunch of customer reactions to this news and they all said they would keep going back to Chipotle despite the fact that it could be ...'
p3
aS"Feb 16, 2016 - That is bad news for Chipotle, but on the bright side it's the best day Subway has had since Jared went to prison, joked Oliver. However, as the comedian ..."
p4
aS'Feb 16, 2016 - NEW YORK (Legal Newsline) - A shareholder is suing Chipotle, alleging the fast ... Legal News Line ... Stock holder alleges Chipotle violated securities laws.'
p5
aS'Feb 15, 2016 - Breaking News Staff. SPRINGBORO . UPDATE @ 8:55 p.m.: Police caught the man who nearly smacked into the Chipotle Mexican Grill with his pickup truck.'
p6
aS'Feb 16, 2016 - He also showed a news clip saying health inspectors found a live bird inside one Florida Chipotle, and that the manager of the restaurant told investigators that ...'
p7
aS"Feb 16, 2016 - Chipotle shares are powering up for a potentially volatile move higher. ... Access to Jim Cramer's daily blog; Intraday commentary and news; Real-time trading ..."
p8
aS'Feb 15, 2016 - 1, 2016, that the E. coli outbreak at Chipotle restaurants appears to be over, and that they are closing the ... 17 facts about FOX News anchor Megyn Kelly.'
p9
aS'Feb 16, 2016 - Stories of the recent outbreaks of E. coli have been plastered over the news for ... When Chipotle became the first chain restaurant to use 100 percent GMO free ...'
p10
a.