(lp0
S'Feb 1, 2016 - Chipotle stock was up 4 percent on the news. "We are pleased that the CDC has concluded its investigation, and we have offered our full cooperation throughout ...'
p1
aS'Feb 1, 2016 - The two most recent outbreaks linked to Chipotle Mexican Grill restaurants appear to be ... (To sign up for a free subscription to Food Safety News, click here.).'
p2
aS'Feb 1, 2016 - A sign showing that the Chipotle Mexican Grill seen at 1924 Beacon St. is closed ... Chipotle shares rose on the news, as investors bet that the worst was over for ...'
p3
aS'Feb 1, 2016 - A Chipotle Mexican Grill employee prepares a burrito for a customer in Seattle. ... The Two-Way is the place to come for breaking news, analysis and for stories ...'
p4
aS"Feb 1, 2016 - Chipotle stock rises ahead of expected 'all-clear' from feds. BY Jacqueline Cutler. NEW YORK DAILY NEWS. Monday, February 1, 2016, 10:18 AM. A; A; A."
p5
aS"Feb 1, 2016 - Chipotle's sales and stock price have been slipping since news of the outbreak began surfacing in the Pacific Northwest in late October. The outbreak spread to ..."
p6
aS'Feb 1, 2016 - Good news: Chipotle has received a clean bill of health.'
p7
aS'Feb 1, 2016 - The CDC declared on Monday that the Chipotle Mexican Grill E. coli outbreak appears to be over.'
p8
aS'Feb 1, 2016 - (Reuters) - Two E.coli outbreaks linked to Chipotle Mexican Grill Inc that affected more than 50 people across 14 states appear to be over, ... AFP Relax News.'
p9
aS'Feb 1, 2016 - Chipotle is finally getting some good news: The Centers for Disease Control and Prevention has declared the end of the dual E. coli outbreaks tied to its ...'
p10
a.