(lp0
S'Feb 22, 2016 - Home; / Local News. Chipotle employees forced into cooler during robbery ... The two men entered the Chipotle restaurant at 349 State Road in Dartmouth ...'
p1
aS'Feb 22, 2016 - Police said two men with semi-automatic guns entered the Chipotle restaurant at 349 State ... By MATT REED, NBC 10 NEWS Monday, February 22nd 2016 ...'
p2
aS'Feb 22, 2016 - WPRI 12 Eyewitness News on WPRI.com is Providence, New Bedford, Fall River ... (WPRI)  Police are investigating after a Chipotle restaurant in Dartmouth ...'
p3
aS'Feb 22, 2016 - Chipotle in Dartmouth robbed at gunpoint (with videos) ... Social News ... wearing masks and brandishing semi-automatic guns, robbed Chipotle on State Road ...'
p4
aS"Feb 22, 2016 - ... identifying two suspects in connection with an armed robbery at a Dartmouth Chipotle over the weekend. ... Cell Journalist; Meet the News Team; What's On."
p5
aS"Feb 21, 2016 - That's extremely good news for Chipotle and CMG stock. The company can finally put the food scare to bed and focus on winning its customers back with its ..."
p6
aS"Feb 21, 2016 - Jack in the Box's Qdoba doesn't really gain at Chipotle's expense."
p7
aS'Feb 22, 2016 - On Sunday afternoon two men entered a Chipotle in Dartmouth, Mass. with semi-automatic guns. ... Stay with necn for up-to-the-minute news and weather ...'
p8
aS'Feb 22, 2016 - In response to recent outbreaks, Chipotle closed briefly in order to train employees about new food safety procedures. .... Connect with U.S. News Health.'
p9
aS'Feb 22, 2016 - Police are searching for two masked men who robbed a Chipotle in Dartmouth Sunday night after the restaurant had closed. The men waited in back of the ...'
p10
a.