(lp0
S'Feb 8, 2016 - Since we opened the first Chipotle restaurant more than 22 years ago, we have served fresh, wholesome ingredients prepared using classic cooking techniques ...'
p1
aS'Feb 8, 2016 - Chipotle restaurants across the nation are temporarily closing today in an effort to educate 60,000 employees about the food-borne illnesses that have rocked ...'
p2
aS'Feb 8, 2016 - The meeting will be live broadcast on Twitter and Periscope.'
p3
aS'Feb 9, 2016 - Chipotle burrito lovers were out of luck and lunch Monday. ... NBC News that shutting down all of Chipotle locations for this mandatory meeting is a smart move.'
p4
aS'Feb 8, 2016 - Chipotle shut down its restaurants today to show that it was addressing food-safety scares. ... Needless to say, Italians have some opinions about this news.'
p5
aS"Feb 8, 2016 - If you planned to grab a quick burrito at Chipotle on your lunch break today, you're out of luck.The Mexican fast food chain will be closed until 3 p."
p6
aS'Feb 8, 2016 - Chipotle Mexican Grill closed all of its U.S. restaurants during prime lunchtime hours on Monday to hold staff meetings on food safety guidelines, sparking offers ...'
p7
aS'Feb 8, 2016 - The bad news (for Chipotle lovers): Chipotle Mexican Grill, Inc. CMG, +0.09% has temporarily closed all 2,000 of its locations during lunchtime on Monday for a ...'
p8
aS'Feb 8, 2016 - Chipotle works to regain customer trust after disease outbreak ... Chipotle outlets across the U.S. are opening later than usual Monday so .... Market News ...'
p9
aS"Feb 8, 2016 - In the case of Chipotle Mexican Grill (CMG), the decision could be too little, too late, ... That's a tiny fraction of the $10 billion in market capitalization Chipotle has .... tablet, download the FREE redesigned app, featuring CBSN, live 24/7 news."
p10
a.