(lp0
S'Mar 15, 2016 - Chipotle (CMG) continues to make investors ill. The burrito chain late Tuesday told investors it could lose up to $1 a share "or worse" in the first quarter as the ...'
p1
aS'Mar 15, 2016 - After multiple food safety scares, Chipotle is tying CEO compensation to ... Global Business and Financial News, Stock Quotes, and Market Data and Analysis.'
p2
aS'Mar 15, 2016 - Chipotle shares dip 4% on Q1 guidance ... Shares in Chipotle Mexican Grill dipped as much as 4 percent in extended ... Anita BalakrishnanNews Associate ...'
p3
aS'Mar 15, 2016 - On Mar 15, 2016, Zacks Investment Research downgraded Chipotle Mexican Grill, Inc. (CMG) to Zacks Rank #5 ... Zacks News for ( CMG, DRI, DIN, TAST ) ...'
p4
aS'Mar 15, 2016 - Chipotle said sales had been improving before the situation was publicized, but dropped 27 percent the second week of March as the news brought more ...'
p5
aS'Mar 15, 2016 - ... quickly and accurately delivers business and financial information, news and .... Despite blanketing the country with coupons for free burritos, Chipotle said ...'
p6
aS'Mar 15, 2016 - Food safety costs are expected to cause Chipotle to post its first quarterly loss ... The good news is that sales declines began to moderate in early February.'
p7
aS'Mar 15, 2016 - Chipotle hires meat-safety expert to head food safety. ... But last week news of a restaurant closing temporarily in Massachusetts because of ill workers likely had ...'
p8
aS'Mar 15, 2016 - NEW YORK (AP)  Chipotle says sales were down 26 percent for February and that it expects to report a loss for the first quarter as ... News, Opinion & Analysis.'
p9
aS'Mar 15, 2016 - Chipotle Mexican Grill is seen in uptown Washington, February 8, 2016. ... No customers were sickened, but the news fanned concerns about Chipotle nationally ...'
p10
a.