(lp0
S"Mar 16, 2016 - Chipotle's ongoing food safety problems are weighing on the company's financials. The restaurant chain is expecting to post its first ever quarterly loss as a ..."
p1
aS'Mar 15, 2016 - Chipotle (CMG) continues to make investors ill. The burrito chain late Tuesday told investors it could lose up to $1 a share "or worse" in the first quarter as the ...'
p2
aS'Mar 16, 2016 - By March, Chipotle had mostly been out of the news for the better part of a month. Then workers at a different Massachusetts location got sick. Once again, the ...'
p3
aS'Mar 16, 2016 - Another change is coming to Chipotle: how the company cooks its steaks. A Chipotle spokesperson told ABC News the company is beginning to prepare the ...'
p4
aS'Mar 16, 2016 - "I saw all the news. I thought, \'I have to wait\'," said Trejo, 32. He used to eat at Chipotle Mexican Grill outlet near his job in downtown Los Angeles two to three ...'
p5
aS'Mar 15, 2016 - After multiple food safety scares, Chipotle is tying CEO compensation to ... Global Business and Financial News, Stock Quotes, and Market Data and Analysis.'
p6
aS'Mar 15, 2016 - Chipotle shares dip 4% on Q1 guidance ... Shares in Chipotle Mexican Grill dipped as much as 4 percent in extended ... Anita BalakrishnanNews Associate ...'
p7
aS'Mar 16, 2016 - "I saw all the news. I thought, \'I have to wait\'," said Trejo, 32. He used to eat at Chipotle Mexican Grill (CMG.N) outlet near his job in downtown Los Angeles two ...'
p8
aS'Mar 15, 2016 - On Mar 15, 2016, Zacks Investment Research downgraded Chipotle Mexican Grill, Inc. (CMG) to Zacks Rank #5 ... Zacks News for ( CMG, DRI, DIN, TAST ) ...'
p9
aS'Mar 15, 2016 - Food safety costs are expected to cause Chipotle to post its first quarterly loss ... The good news is that sales declines began to moderate in early February.'
p10
a.