(lp0
S"Mar 18, 2016 - I spent enough years in Massachusetts that when I saw the news that Chipotle shut down a location in Billerica, I didn't have to scramble to try to figure out where ..."
p1
aS'Mar 18, 2016 - Chipotle CMG, -0.01% received 5.3 million requests for free burritos over about ... filing, and suffered a setback with the most recent news of ill workers in Boston, ...'
p2
aS'Mar 17, 2016 - Chipotle is using free food to convince people its food is safe as it reportedly considers rolling back some of its food testing measures. (AP). Chipotle is giving ...'
p3
aS"Mar 18, 2016 - If you've gotten a free burrito from Chipotle in the past few weeks, you're not alone  the restaurant has shelled out about $20 million worth of them since early ..."
p4
aS'Mar 18, 2016 - Chipotle is hoping to entice customers to get back in the restaurants with this second round of free burritos.'
p5
aS'Mar 17, 2016 - Chipotle continues to struggle following several high-profile food incidents, as seen ... But, following news of a fresh norovirus issue at another Boston restaurant ...'
p6
aS'Mar 17, 2016 - A former Chipotle employee sued the company Wednesday, alleging she ... John Cdiz Klemack reports for NBC4 News at Noon on Thursday, March 17, 2016.'
p7
aS"Mar 17, 2016 - Customers avoided Chipotle Mexican Grill Inc. restaurants for months after two E. ... What can we learn from Chipotle's problems? ... MORE BUSINESS NEWS."
p8
aS"Mar 17, 2016 - Chipotle Mexican Grill's same-store sales fell 14.6 percent in the fourth quarter of last year. They will likely fall in the 25 percent to 30 percent range in the current ..."
p9
aS'Mar 17, 2016 - Chipotle Mexican Grill, Inc. (NYSE:CMG) is considering to ramp up offers for free burritos as its sales are slow to recover after a rash of foodborne illness ...'
p10
a.