(lp0
S"Mar 20, 2016 - We knew that the current quarter was going to be the worst in Chipotle Mexican Grill's ... Chipotle stock posted a double-digit percentage decline on the news, ..."
p1
aS'Mar 20, 2016 - Chipotle also announced it was increasing its safety testing across the entire ... the Mexican food chain, but it was mostly shrugged off by the news and investors.'
p2
aS'Mar 21, 2016 - Digital photo hunt challenges players for a chance to win free chips and guac. DENVER --(BUSINESS WIRE)--Mar. 21, 2016-- Chipotle Mexican Grill (NYSE: ...'
p3
aS"Mar 21, 2016 - Chipotle just can't stay out of the news. After revamping its food-safety procedures and then changing them back again, the chain was still hit with another ..."
p4
aS'Mar 21, 2016 - An offer for a free order of chips and guac at any Chipotle in the U.S. or ... This is certainly good news for guac lovers who normally cough up the extra two bucks ...'
p5
aS'Mar 21, 2016 - Chipotle is offering free chips and guacamole to those willing to kill about five minutes playing "Guac Hunter."'
p6
aS'Mar 21, 2016 - Chipotle is offering free chips and guacamole to patrons who play a game done in a partnership with ... Chipotle Back in the News With Restaurant Illness Issue.'
p7
aS'Mar 20, 2016 - Chipotle Mexican Grill, trying to win back customers and recover from weak sales, is planning to give away even more burritos.Chief Financial ... NEWS NOW.'
p8
aS"Mar 21, 2016 - Chipotle fans, guacamole fans, those of you who just love free stuff, we have good news. Chipotle is once again giving away free food. This time, it's the chain's ..."
p9
aS'Mar 21, 2016 - Chipotle is offering a new online game that allows customers to score free orders of chips and guacamole at any ... Sign up for free daily business news emails ...'
p10
a.