(lp0
S'Mar 23, 2016 - The only thing longer than the lunchtime lines at your local Chipotle Mexican Grill, it seems, is the line of employees who have queued up to sue the burrito ...'
p1
aS'Mar 22, 2016 - Chipotle Mexican Grill may try to spin its February sales plunge as an ... So follow me on Facebook and Twitter for the most important industry news in retail and ...'
p2
aS'Mar 23, 2016 - Advocates plan protests for high noon Thursday at two Chipotle Mexican Grill ... bird feces near food production lines, according to the Teamsters news release.'
p3
aS"Mar 23, 2016 - First, the good news: Chipotle makes a very decent margarita. Ayrouth ranks it as one of the best he's ever had, and they're only $4.79. But the cashier did not ..."
p4
aS'Mar 23, 2016 - Community advocates have planned to protest outside two Chipotle restaurants in California over food safety concerns, according to a news release.'
p5
aS'Mar 22, 2016 - Chipotle Mexican Grill is set to open a new location in Clovis sometime this year. The food chain is perhaps best known for its Mexican cuisine, featuring burritos, ...'
p6
aS"Mar 22, 2016 - From Delish  Chipotle just can't stay out of the news. After revamping its food-safety procedures and then changing them back again, the chain was still hit with ..."
p7
aS"Mar 22, 2016 - Chipotle Mexican Grill wants customers back, and it's prepared to woo them with every tool in its arsenal  er, item on its menu. ... More News from MarketWatch."
p8
aS'Mar 23, 2016 - Opinion: The case for buying Chipotle (both the guac and the stock) ... Then the Boston-area norovirus news hit March 8, reversing some of the gains. That was a ...'
p9
aS"Mar 23, 2016 - Chipotle knows the way back to our hearts is through our stomachs. Guacamole and tortilla chip-filled stomachs. . Arizona's source for breaking news, weather, ..."
p10
a.