(lp0
S'Mar 29, 2016 - The investment firm said that Chipotle will not recover its sales loss from the .... Global Business and Financial News, Stock Quotes, and Market Data and ...'
p1
aS'Mar 29, 2016 - Shares of fast casual Mexican Chipotle were dragged down 2% after Wedbush downgraded the stock. ... Search. News; Popular; Videos; Fortune 500 ...'
p2
aS"Mar 28, 2016 - Chipotle was bested by Taco Bueno as America's favorite Mexican-style chain ... annual survey on quick service restaurantsbeating heavy hitters like Chipotle."
p3
aS"Mar 29, 2016 - March isn't over, and that's more bad news for investors in the struggling burrito ... Chipotle stock opened lower this morning after its latest analyst downgrade."
p4
aS"Mar 29, 2016 - Chipotle Mexican Grill Inc.'s sales won't rebound from the chain's wide-ranging food-safety crisis until 2018 at the earliest, and the company still will suffer from ..."
p5
aS'Mar 29, 2016 - Chipotle Mexican Grill is slowly winning back confidence and people are trickling into its restaurants, but the stock likely has a ... More News from MarketWatch.'
p6
aS"Mar 29, 2016 - From Yahoo Finance: Chipotle Mexican Grill Inc.'s sales won't rebound from the chain's wide-ranging ... Last Week's Restaurant News Flipped Over Burgers."
p7
aS'Mar 29, 2016 - On Tuesday, shares of struggling burrito chain Chipotle Mexican Grill CMG are down 3.50% in late morning trading after Wedbush Securities downgraded the ...'
p8
aS'Mar 29, 2016 - On Tuesday, shares of struggling burrito chain Chipotle Mexican Grill (CMG) are down ... Stocks in the News ... Should You Get Rid of Chipotle (CMG) Now?'
p9
aS'Mar 28, 2016 - Most recently, a Boston area (Billerica) Chipotle restaurant was in the news for a norovirus outbreak. (Source: Opinion: The case for buying Chipotle (both the ...'
p10
a.