(lp0
S'Mar 2, 2016 - Chipotle restaurants fell from first place to second as the favorite for teens. .... You will find the latest news, market analysis, and education to help you become a ...'
p1
aS'Mar 2, 2016 - CMG Stock Chipotle Mexican Grill, Inc. (NYSE:CMG) stock is starting to recover from the devastating E. coli outbreaks that hit its restaurants last October.'
p2
aS"Mar 1, 2016 - These 4 'Fast-Casual' Restaurant Stocks Are Beating Chipotle ... First, a look at Chipotle: ... Access to Jim Cramer's daily blog; Intraday commentary and news ..."
p3
aS'Mar 2, 2016 - Chipotle (CMG) shares are getting a boost on Wednesday after CLSA upped its price ... Not based on the news in any given day, the rating may differ from Jim ...'
p4
aS'Mar 2, 2016 - A local developer plans to bring another Chipotle and Noodles & Company to York.'
p5
aS'Mar 1, 2016 - March 8 Deadline: Law Offices of Howard G. Smith Alerts Chipotle Mexican Grill, ... On this news shares of Chipotle fell an additional $13.93 per share, or nearly ...'
p6
aS'Mar 2, 2016 - WJBF News Channel 6 has learned that a new Chipotle restaurant is set to open in Aiken on March 18th.'
p7
aS'Mar 1, 2016 - Model and "The Fab Life" co-host Chrissy Teigen is sharing her love of cooking in her new book, "Cravings: Recipes for All the Food You Want to Eat." Try this ...'
p8
aS"Mar 2, 2016 - CNBC's Jim Cramer explains why he is watching Chipotle traffic after the E. ... Global Business and Financial News, Stock Quotes, and Market Data and Analysis."
p9
aS'Mar 2, 2016 - Chipotle Mexican Grill Inc. (CMG) has had a rough year when it comes to food ... saying that closing every restaurant "makes for a good news story," but he says ...'
p10
a.