(lp0
S"Mar 31, 2016 - If you had beef with Chipotle's E. coli scandal, just wait till you get a taste its new venture."
p1
aS'Mar 31, 2016 - Chipotle has applied for a trademark for "Better Burger" as part of a business .... We are vegetarians & live at Chipotle..needless to say that news of the burger ...'
p2
aS'Mar 30, 2016 - Chipotle Mexican Grill said Wednesday it has applied for a trademark for "Better Burger" as part of a business diversification move to open a burger restaurant ...'
p3
aS'Mar 31, 2016 - Chipotle Mexican Grill confirmed on Wednesday that it filed a trademark application for "Better Burger," ... News of the filing was first reported by Bloomberg.'
p4
aS'Mar 31, 2016 - "We are encouraged by the progress" these conce4pts are making, Chipotle spokesperson Chris Arnold told ABC News. "They are serving delicious food and ...'
p5
aS'Mar 30, 2016 - Chipotle is considering launching a new chain of restaurants called Better Burger. ... 2016 Cable News Network. A Time Warner Company. All Rights Reserved.'
p6
aS"Mar 30, 2016 - A new fast-casual burger chain would bring fresh competition to Five Guys Burgers & Fries, Smashburger and Shake Shack Inc. News of Chipotle's Better ..."
p7
aS'Mar 30, 2016 - Burrito chain Chipotle is now taking a look at the burger business. ... The filing, which was first reported by Bloomberg News, suggests Chipotle could be ...'
p8
aS'Mar 31, 2016 - Chipotle Mexican Grill could be considering entering the hamburger business ... Home / Business News ... As customers abandoned Chipotle, its stock price fell.'
p9
aS'Mar 30, 2016 - Chipotle may launch a burger chain, and has filed for an application to trademark "Better ... Bloomberg News first reported on the Better Burger application.'
p10
a.