(lp0
S'However, those loyal customers were 50% more likely to avoid Chipotle since news of the health scandals ...'
p1
aS'Apr 11, 2016 - Get the news ... Profit goes poof: Chipotle faces first-ever loss Earnings season is about to kick off  and ... A prime example is Chipotle Mexican Grill (CMG).'
p2
aS"Apr 12, 2016 - Chipotle Mexican Grill (NYSE:CMG) has become a serial promoter, and this weekend it's turning its attention to soccer kids. The turnaround-hungry restaurant ..."
p3
aS'Apr 12, 2016 - Despite their recent breakout attracting attention from national news sources, everything seems to be moving smoothly at Chipotle again. Most people have ...'
p4
aS"Apr 12, 2016 - Home; >; Stocks Market News - Articles & Analysis; >; Stock Market Update ... Why It's Too Early To Start Scaling Into The Chipotle Mexican Grill, Inc. Stock."
p5
aS"Apr 11, 2016 - It's Very Difficult To Have Conviction On Chipotle Right Now, Says Stephens ... Goldman Downgrades Chipotle On Near-Term Risk .... Trending News. Benzinga ..."
p6
aS'Apr 11, 2016 - It may not be the freshest investment idea on Wall Street these days, but Chipotle Mexican Grill, Inc. (CMG) stock is looking more and more inviting as a limited ...'
p7
aS"Apr 12, 2016 - News  Chipotle ... Foot traffic into Chipotle locations has dropped 23 percent. ... Foursquare Predicts Chipotle's Q1 Sales Down Nearly 30%; Foot Traffic Reveals ..."
p8
aS"Apr 12, 2016 - TheStreet's Jim Cramer is a firm believer in the ability of Chipotle Mexican Grill (CMG - Get ... Access to Jim Cramer's daily blog; Intraday commentary and news ..."
p9
aS'Apr 12, 2016 - Chipotle Mexican Grill, Inc. (NYSE:CMG) has a consensus earnings per share ... Chipotle Mexican Grill, Inc. - Receive News & Ratings Via Email - Enter your ...'
p10
a.