(lp0
S'Apr 5, 2016 - INDIANAPOLIS - An Indianapolis man who was still in his car when a heavy Chipotle sign fell and crushed it says he now realizes how close he came to being ...'
p1
aS"Apr 5, 2016 - Chesterfield Chipotle temporarily closes after someone inside became sick ... This Chipotle customer wasn't alone. She and dozens of ... CBS 6 News at 11 p.m.."
p2
aS"Apr 5, 2016 - Chipotle bags and cups will feature designs inspired by the Abigail Alford's essay."
p3
aS"Apr 6, 2016 - Chipotle Mexican Grill Inc. Stock - CMG news, historical stock charts, analyst ratings, financials, and today's Chipotle Mexican Grill Inc. stock price."
p4
aS"Apr 6, 2016 - Chipotle's corporate office says it's their policy to always close the store and do a full sanitization sweep if that ever happens. ... Chesterfield County News ..."
p5
aS"Apr 5, 2016 - Jim Cramer's Top Takeaways: Korn/Ferry International, Chipotle Mexican Grill ... Access to Jim Cramer's daily blog; Intraday commentary and news; Real-time ..."
p6
aS"Apr 6, 2016 - Latest news for the restaurant industry, including food services and related jobs. ... Chipotle trademarking 'Better Burger' for possible chain. Wednesday, 30 Mar ..."
p7
aS'Apr 6, 2016 - A Starbucks coffee shop and a Chipotle Mexican Grill are planned for the .... Hikers missing in national forest found - in downtown Asheville; News: | 6 days ago.'
p8
aS"Apr 6, 2016 - Chipotle's comp sales are down, but show an upwards trajectory.Roll-out of new concepts and increasing restaurant count are positives.Chipotle trades at a ..."
p9
aS"Apr 5, 2016 - Who's on Tracey's and Eric's radar as possible contenders for Chipotle's throne? There are plenty of good ... Zacks News for ( CMG, FRGI, LOCO, FOGO, BITE ) ..."
p10
a.