(lp0
S'Former Chevron exec Robertson joins Deloitte oil and gas ...'
p1
aS'Shell, Chevron tackle gas flaring climate change - Vanguard ...'
p2
aS'Energy companies race to meet deadline for filing rig ...'
p3
aS'Philippines: First Oil Flows at Tindalo-1 Well | Offshore ...'
p4
aS'CWT Starts Energy Practice: Business Travel News'
p5
aS'Indonesia: Chevron signs gas supply deal with ConocoPhillips'
p6
aS"BP's Failure to Stop Leak Darkens Mood for Offshore Drilling ..."
p7
aS'Oakridge Energy Inc: OTCMKTS:OAKR quotes & news ...'
p8
aS'GLOBAL E&P BRIEFS - Offshore'
p9
aS'Triton Energy Limited: Private Company Information ...'
p10
a.