(lp0
S'Chevron, HighMount to cut 654 workers in Houston ...'
p1
aS'Serinus Energy - History in brief'
p2
aS'Navarik Inspection | Navarik - Data Delivered'
p3
aS'Clients | Risktec'
p4
aS'CorpWatch : WORLD: Disaster Plans Lacking at Deep Rigs'
p5
aS"Richmond's Winehaven: A Future Indian Casino? - Bearings"
p6
aS'Site Map  CB&I'
p7
aS'BP begins second relief well, places containment system in ...'
p8
aS'[PDF]\nSpeaker Biographies - The National Bureau of Asian ...'
p9
aS'Some refineries earn inspection exemption - Beaumont ...'
p10
a.