(lp0
S'USCAR: Partners & Collaborators'
p1
aS"Ex-Chevron Employee's Slander Suit Endures - Law360"
p2
aS'PSTR Stock News - PostRock Energy Corporation Stock ...'
p3
aS"Hard Times for Wall Street's 'Sell Night' Recruits - Bloomberg"
p4
aS'NewsWatch: Energy - Blogging the business of energy with ...'
p5
aS'The energy challenge in the face of dwindling supplies of ...'
p6
aS'DEEP WATER SAMBA - Oil & Gas Financial Journal'
p7
aS'Wood Group Media Centre  Press Kit, Company Images ...'
p8
aS"Liberia's National Legislature Ratifies Chevron Deal; 4th ..."
p9
aS'Environmental News, Articles & Information | Global ...'
p10
a.