(lp0
S'D&C News - Drilling Contractor'
p1
aS'Colorado oil, gas output rises - The Denver Post'
p2
aS'Bryan Pechersky  Cloud Peak Energy'
p3
aS'About Us - DualEx Energy International Inc.'
p4
aS'Indonesia seeks to purchase LNG carriers - Oil & Gas Journal'
p5
aS'Chevron Environmental Credibility - SlideShare'
p6
aS'Emerge Oil and Gas Inc: TSE:EME quotes & news  Google ...'
p7
aS'Dow falls below 10,000 for first time since Nov. 6 | cleveland ...'
p8
aS'[PDF]\nView - SIPES'
p9
aS'Italy - International Energy Agency'
p10
a.