(lp0
S"SHV Energy acquires Chevron's Indian arm | Business ..."
p1
aS'Oil Industry Meme Detected - 100 Years Is a Long Time ...'
p2
aS'Dutch oil and gas major SHV buys Caltex Gas India | Latest ...'
p3
aS'A&D Activity in Energy Sector Set to Increase in 2010 | Oil ...'
p4
aS'Chevron says SF-Bay refinery flaring -filing | Reuters'
p5
aS'The Culture of Finance--Why Financial Innovation Failed ...'
p6
aS'Chevron Phillips restarts Port Arthur cyclohexane plant in ...'
p7
aS'Vermilion Energy Inc. - Receive News'
p8
aS'Venezuela opens Carabobo oil field bid stage on time'
p9
aS'Oil Dependence Is a Dangerous Habit | Center for American ...'
p10
a.