(lp0
S'Kazakh Oil Too Rich for Tax to Deter Chevron: Energy Markets'
p1
aS'New Oil Spill Containment System to Protect Gulf ... - Chevron'
p2
aS'Energy Value Plays  VLO, XOM, CVX, XOM, BP ...'
p3
aS'Oil Firms Plan Rapid-Response Force - Wall Street Journal'
p4
aS'DownstreamToday.com - News and Information for the ...'
p5
aS'Marbob sold for $1.65 billion - Artesia News'
p6
aS'Big oil companies to present plan to respond to future spills'
p7
aS'GAS PROCESSING- WORLDWIDE CONSTRUCTION - Oil ...'
p8
aS'Oil Giants Create $1 Billion Rapid Response Venture ...'
p9
aS'Prepare now for regulation of OTC derivatives - Oil & Gas ...'
p10
a.