(lp0
S'Harris Corporation to Acquire CapRock Communications, a ...'
p1
aS'WAERA: Western Australian Energy Research Alliance ...'
p2
aS"Morgan Stanley Hires Nomura's Bareggi for Italy - Bloomberg"
p3
aS'EPA demands less toxic dispersants for Gulf of Mexico use ...'
p4
aS'Harris Corporation to Acquire CapRock Communications, a ...'
p5
aS"NEWS | Analysis - BP's Success Continues Despite Tragedy ..."
p6
aS'Board / Advisors - Transnational Energy'
p7
aS'Christophe de Margerie named chairman, CEO of Total - Oil ...'
p8
aS'Ethanol Producer Magazine  The Latest News and Data ...'
p9
aS'SuperAmerica Selloff | CSPnet'
p10
a.