(lp0
S'Chevron: Corporate Rap Sheet | Corporate Research Project'
p1
aS'USA Company Chevron Orders Two LNG Tankers | LNG ...'
p2
aS'Stuart Smith | Environmental Attorney | Stuart H. Smith'
p3
aS'Texaco partnership to offer marine 3D seismic method - Oil ...'
p4
aS'Globeinvestor.com: Appointment Notice - Chevron Canada ...'
p5
aS'Stuart H. Smith - Wikipedia, the free encyclopedia'
p6
aS'The Secret Cult of Office Smokers - Bloomberg'
p7
aS'[PDF]\nSteps Taken by the United States to Implement and Enforce ...'
p8
aS'California Court Of Appeal Affirms Dismissal Of Shareholder ...'
p9
aS'[PDF]\nNarrative Section Download (PDF 2.97 MB) - SNL Financial'
p10
a.