(lp0
S'Former Chevron Phillips CEO joins ConocoPhillips ...'
p1
aS'Conoco COO, CFO to Retire - WSJ'
p2
aS'Interior Dept. OKs first solar projects on public lands - CNET'
p3
aS'BrightSource wins final OK for major solar plant | Reuters'
p4
aS'EERE Network News - Energy Efficiency and Renewable ...'
p5
aS'NM Drill Down - Santa Fe Reporter'
p6
aS'First Solar Power Projects Approved to be Built on U.S. ...'
p7
aS'ConocoPhillips Announces Executive Management Changes'
p8
aS'Petrobras Busts The Price & Ignores Oil Trends (PBR, BP ...'
p9
aS'Conoco Shakes Up Management Team as Executives Depart'
p10
a.