(lp0
S'Quest Oil Corp: OTCMKTS:QOIL quotes & news - Google ...'
p1
aS"BP could learn from Exxon's safety response to Valdez oil spill"
p2
aS'[PDF]\nRemarks by Roy Krzywosinski Managing Director Chevron ...'
p3
aS'David Mays | LinkedIn'
p4
aS'Worst Russian Drought in 50 Years Threatens Next Crop ...'
p5
aS"Tattooed Tigress, Stripper Bash Spice Up 'Real L Word ..."
p6
aS'Amazon Defense Coalition: Chevron Outed for Corporate ...'
p7
aS'Ecofys experts selected for international climate work - Oil ...'
p8
aS'Infrastructure Investment Needed - Energy News Update ...'
p9
aS'large data bank improves crude physical property correlations'
p10
a.