(lp0
S'NEWS | Chevron Extends Atwood Eagle Contract | Rigzone'
p1
aS"Brazil: Chevron's Frade oil field producing 65,000 barrels ..."
p2
aS'OGJ Newsletter - Oil & Gas Journal'
p3
aS'Chevron Produces Renewable Alternative Energy With ...'
p4
aS'Asia-Pacific to Pass North America in Ad Market Size ...'
p5
aS'Strategies are changing for unconventional gas (and oil ...'
p6
aS'Oil Watchdog | Archive | Natural Gas'
p7
aS'News- Center for Responsible Business - Haas School of ...'
p8
aS'BP acquires interest in Block 42/05 South China Sea | Press ...'
p9
aS'Sponsorship | Houston'
p10
a.