(lp0
S"C-Suite: Patricia Yarrington's energy fix - Dec. 21, 2010"
p1
aS'Forensic Expert Discovers Elaborate Forgery of ... - Chevron'
p2
aS'[PDF]\nNigerian opportunities - Hill International'
p3
aS"[PDF]\nColombia's Energy Renaissance - Americas Society"
p4
aS'Water Supplies Soaked Up By Oil Industry in California ...'
p5
aS'ExclusiveREPORTS | New Fuel Now - Latest Energy and ...'
p6
aS'Exxon Resumes Output at Nigeria Oso Field After Attack ...'
p7
aS'2010 Rocky Mountain Map - Oil & Gas Financial Journal'
p8
aS'Investment Treaty News | Page 2 - IISD'
p9
aS'Chevron builds up steam in the Middle East - FT.com'
p10
a.