(lp0
S'Chevron Corporation Midland TX, 79701  Manta.com'
p1
aS'Chevron Pipeline Leak Causes Utah Oil Spill - WSJ'
p2
aS'Oando Says May Buy Nigerian Oil Reserves From Majors ...'
p3
aS"Big Oil can't get beyond petroleum - Washington Post"
p4
aS'Integrated Oil & Gas Company Definition | Investopedia'
p5
aS"Senator Merkley's Proposal Aims to End Foreign Oil ..."
p6
aS'BP (British Petroleum) Apocalypse Oil Volcano'
p7
aS'New method streamlines thixotropic crude calculations - Oil ...'
p8
aS'Chevron investigating cause, magnitude of oil pipe leak in ...'
p9
aS"The Buzz: Brazil's Petrobras may benefit from the BP spill ..."
p10
a.