(lp0
S'Major Oil CEOs Testify At House Hearing On Drilling Safety ...'
p1
aS'Encana, several other producers developing Collingwood ...'
p2
aS'Chevron CEO Speaks to Congress About Drilling Safety ...'
p3
aS'Chevron CEO distances his firm from BP - SFGate'
p4
aS'Lawmakers Berate Oil Execs over Response Plans - CBS ...'
p5
aS'Webcasts and Presentations - Investor Relations - News ...'
p6
aS"US oil firms 'unprepared' for major offshore disaster - BBC ..."
p7
aS'Shell, Exxon, Chevron and Conoco no better prepared to ...'
p8
aS'Permit for Canada-Texas Oil Sands Pipeline under Extra ...'
p9
aS'SATELLITE COMMUNICATIONS How the petroleum ...'
p10
a.