(lp0
S'Maturity Wall Shrinks $196 Billion in 15 Months: Credit ...'
p1
aS'How 60 Minutes Missed on Chevron - Columbia Journalism ...'
p2
aS'North Slope satellite projects spark Alaska exploration - Oil ...'
p3
aS'DeepFlex Inc. Mourns the Death of Founder Michael J. Bryant'
p4
aS'Coal Energy - green econometrics'
p5
aS'Hydrogen Energy - green econometrics'
p6
aS'Shell Trading | LinkedIn'
p7
aS'Three firms to form joint venture for geothermal study at ...'
p8
aS'Akins named Head of E&P at RBC Capital Markets - Oil ...'
p9
aS'Haynesville Play: The Haynesville Shale Resource: Mid ...'
p10
a.