(lp0
S"Chevron completes Canada's deepest well - The Globe and ..."
p1
aS"Chevron finishes Canada's deepest offshore well | Reuters"
p2
aS'Chevron completes deepsea drilling project - Newfoundland ...'
p3
aS'Notable energy industry figure Matt Simmons dead at 67 ...'
p4
aS'Indicated Dividend Yield Ranking for the S&P 500 by Industry'
p5
aS"August | 2010 | Doug Neeper's Blog"
p6
aS'Liberia Plans Oil Exploration Deal With Chevron - allAfrica ...'
p7
aS"Fossil Foolishness: Utah's Pursuit of Tar Sands and Oil Shale"
p8
aS'Climbers scale rig in freezing seas as energy giants eye ...'
p9
aS'Fos Cavaou LNG terminal operating at full capacity - Oil ...'
p10
a.