(lp0
S'Richmond Refinery Energy and Hydrogen Renewal Project'
p1
aS'Impact Technologies with US$2.1m DOE funding for CO2 ...'
p2
aS'[PDF]\nEnergy Market Consequences'
p3
aS'Greenpeace banned from intercepting oil-drilling ship ...'
p4
aS'FleetCor Debuts Chevron, Texaco Universal Business ...'
p5
aS'Government issues tighter rules for deep-water drilling ...'
p6
aS'Petro Bulletin Archives | World of Energy News'
p7
aS'Matching Fun(d) - Global Teams'
p8
aS'Greenpeace swimmers end drill ship blockade - BBC News'
p9
aS'Prop 23 battle heats up in California as Schwarzenegger ...'
p10
a.