(lp0
S'Two firms sell California producing assets - Oil & Gas Journal'
p1
aS'Oil and Gas Industry Gives Big to Members of Congress | US ...'
p2
aS'The soaring cost of G&A and why CEOs should care - Oil ...'
p3
aS"Record of BP's Gulf Worker-Testing Firm Raises Conflict-Of ..."
p4
aS'Drilling and Completions: Index of Disciplines: Chevron ...'
p5
aS'Chevron Rando HD - RUBiS Energy Bermuda'
p6
aS'MINING: Nev. firm seeks place in emerging lithium market ...'
p7
aS'Lawsuit claims Oracle overcharged government - SFGate'
p8
aS'Project Profiles  CB&I'
p9
aS'Barclays Steps Up Hiring in Russia in Leadership Bid ...'
p10
a.