(lp0
S"Bush Brother's TX Oil, Chevron May Win Caspian Oil ..."
p1
aS"Indonesia may approve Chevron's development plan for the ..."
p2
aS'73 - News and energy resources -'
p3
aS'LeFrak Energy Opens Houston Office | Oil and Gas Investor'
p4
aS'Gulf LNG Clean Energy Project - DownstreamToday.com ...'
p5
aS'Reducing scale, increasing flexibility are targets of new LNG ...'
p6
aS'ASIA-PACIFIC REGION SET FOR UPSTREAM ACTIVITY HIKE'
p7
aS'NEWS | Baker Hughes, SOC Revamp Wireline ... - Rigzone'
p8
aS'SunPower | California Green Building Blog'
p9
aS'[PDF]\nOne Step Forward, Two Steps Back? - Brookings Institution'
p10
a.