(lp0
S'Chevron Sanctions Jack/St. Malo Project in the Gulf of Mexico'
p1
aS'GoM: Chevron sanctions Jack/St. Malo Project in the Gulf of ...'
p2
aS'Chevron plans to search for gas in Saudi-Kuwait border ...'
p3
aS'Chevron plans new floating city | Fuel Fix'
p4
aS'Chevron plans floating city of deep-water wells in Gulf ...'
p5
aS"The Failure of Chevron's New 'We Agree' Ad Campaign ..."
p6
aS'Critics spoof new Chevron ads promoting responsibility'
p7
aS'[PDF]\nenergy development corporation - CFA Institute'
p8
aS'Statoil sanctions Jack and St. Malo field development in the ...'
p9
aS"Big oil's big cleanup in Brooklyn - CNN.com"
p10
a.