(lp0
S'Chevron takes $1 million-a-day oil gamble deep in Gulf ...'
p1
aS"Chevron's solar panels won't clean up its filthy oilfield | Fred ..."
p2
aS"Venezuela approves Chevron's extraction of natural gas in ..."
p3
aS'NEWS | Analysis: Wheatstone Lays Foundation for Future ...'
p4
aS'Brand promise | Mays Impacts'
p5
aS'Chevron Logo - UPI.com'
p6
aS'Peter J. Robertson - U.S.-Saudi Arabian Business Council'
p7
aS'Green Energy Faces A New Foe: Angry Neighbors - CBS ...'
p8
aS"petrobras role in brazil's economy disputed - Oil & Gas Journal"
p9
aS'KenGen  Kenya Electricity Generation Co | Think ...'
p10
a.