(lp0
S'UC Berkeley NewsCenter: Gulf oil spill experts'
p1
aS'Ganal, Rapak PSC, Chevron - NEWS | Map and Image ...'
p2
aS'[PDF]\nPublic Comments by William Koetzle for Chevron Corp, 4-21 ...'
p3
aS'World Offshore Oil & Gas E & P and Ocean Engineering ...'
p4
aS'Kazakhstan says Kashagan oil field safe from tax review'
p5
aS'April 2010  Geothermal Power'
p6
aS"MSHA launches inspection blitz in nation's coalfields ..."
p7
aS'Global Conference 2010 | Bill Koetzle  Milken Institute'
p8
aS'[PDF]\nA Stakeholder Analysis of the BP Oil Spill - University of ...'
p9
aS'The Oil Drum | Drumbeat: April 20, 2010'
p10
a.