(lp0
S'Webcasts and Presentations - Investor Relations - News ...'
p1
aS'Chevron CEO distances his firm from BP - SFGate'
p2
aS"US oil firms 'unprepared' for major offshore disaster - BBC ..."
p3
aS'SATELLITE COMMUNICATIONS How the petroleum ...'
p4
aS'Lawmakers Chastise Oil Firms Over Spill-Response Plans ...'
p5
aS'Oil Executives Break Ranks in Testimony - The New York ...'
p6
aS'Nev. Mining Firm Seeks Place in Emerging Lithium Market ...'
p7
aS'Oil Watchdog | Archive | Conoco'
p8
aS'MINING: Nev. firm seeks place in emerging lithium market ...'
p9
aS'Worldwide refining capacity steady in the past year - Oil ...'
p10
a.