(lp0
S'Wolverine Gas & Oil Corp. has trouble with 2nd Utah oil find ...'
p1
aS'Stock:Devon Energy (DVN) - Wikinvest'
p2
aS'ExxonMobil Takes Third Place in Big Oil Sustainability ...'
p3
aS'Kingsland Energy Corporation'
p4
aS'Oasis Petroleum  Senior Management'
p5
aS'Second Utah oil find troubles wildcat operator - BusinessWeek'
p6
aS'Hurricane Katrina victims to sue oil companies over global ...'
p7
aS'PHILIPPINES RESTRUCTURING, PROMOTING ...'
p8
aS'[PDF]\nSpring 2010 - MIT'
p9
aS'GE Oil & Gas supplies $1.1 billion equipment to Gorgon ...'
p10
a.