(lp0
S"Chevron starts US gulf's first Lower Cretaceous flow - Oil ..."
p1
aS'Before Rig Explosion in Gulf, Scant Difference Between BP ...'
p2
aS"Chevron in Ecuador: BP's Gulf Spill Drawing New Attention ..."
p3
aS'CNOOC | LinkedIn'
p4
aS'Ranks of North Sea producers lured by productivity gains ...'
p5
aS'Reliance to Buy Pioneer Shale Stake for $1.3 Billion ...'
p6
aS'Contracting in Aberdeen - SJD Accountancy'
p7
aS'Fox News is BP oil spill misinformation clearinghouse'
p8
aS'Four BP-style extreme energy nightmares to come | full | Grist'
p9
aS'Oil executives close ranks behind BP - The Boston Globe'
p10
a.