(lp0
S'True Cost of Chevron Network | Global Exchange'
p1
aS'Supermajors - Largest Oil Companies - Oil Prices'
p2
aS"Analysis  Oil majors tap Asia's gas resources - News Story ..."
p3
aS'Ecuador Oil Contamination Spawns Turmoil at Chevron ...'
p4
aS'[PDF]\n12 - for Petroleum News'
p5
aS'2010 Annual Meeting Remarks by John S. Watson - Chevron'
p6
aS'Chevron stations changing in Ky. | Lexington Herald-Leader'
p7
aS'GE signs contract, strengthens relationship with Saudi Aramco'
p8
aS'Oil spill cleanup, containment efforts, hearings in wake of ...'
p9
aS'[PDF]\nRussian crude oil exports to the Pacific Basin ... - Platts'
p10
a.