(lp0
S'Indonesia energy firms welcome government forest decree ...'
p1
aS'Innovation strategies: How Chevron drives ingenuity'
p2
aS'Two Canadian picks for peak oil - Financial Post'
p3
aS'NAVFAC Southwest Solar Energy Contract Will Generate 40 ...'
p4
aS'Capital Expenditures Articles - Oil & Gas Financial Journal'
p5
aS'Philippines to seek $300 million for Malampaya gas field stake'
p6
aS"Report Warns Oil Sands Investors of Toxic Wastewater's ..."
p7
aS'Alaskan North Slope operators shift focus from stemming ...'
p8
aS'Low-corrosion brine provides high-temperature completion ...'
p9
aS'Oil and gas facilities guarding| G4S'
p10
a.