(lp0
S'Chevron Sustainability News - Triple Pundit'
p1
aS'[PDF]\nENERGY VISION UPDATE 2011 A New Era for Gas - weforum.org - World ...'
p2
aS'Media monopoly and Big Oil - Workers World'
p3
aS'Oil Industry - Producers of Energy and Disasters / La ...'
p4
aS'New management consulting firm opens in Houston - Oil ...'
p5
aS'The Explorers 2010: Interior Alaska basins - November 14 ...'
p6
aS'The Explorers 2010: Aurora Gas, LLC - for Petroleum News'
p7
aS'The Corporations - RunningWater.us'
p8
aS'Packaged Petroleum Products - Crowley Maritime Corporation'
p9
aS'Williams to buy Bakken oil acreage for $925 million | Reuters'
p10
a.