(lp0
S'Jazan Refinery Project - DownstreamToday.com - News and ...'
p1
aS'Chevron Welcomes Native Title HOA for Wheatstone Gas ...'
p2
aS'Michael W. Tweedy to Join Marathon Oil Company as Chief ...'
p3
aS'GE to Pay $23.5 Million to Settle SEC Kickback Charges - WSJ'
p4
aS'As offshore oil war continues, quieter pollution battles being ...'
p5
aS'Chevron lines up Wheatstone LNG expansion | afr.com'
p6
aS'Chemical BPA found on cash register receipts - USA Today'
p7
aS'Chevron spill plan questioned by expert - Newfoundland ...'
p8
aS'Conoco to Sell Lukoil Stake After Posting Profit Gain ...'
p9
aS'Admiral Allen Says Gas Seep is from the Rigel Gas Field ...'
p10
a.