(lp0
S'Chevron goes all in for Brazil - NewsWatch: Energy'
p1
aS'Chevron Corp Chunchula AL, 36521  Manta.com'
p2
aS'Chevron shuts in Erskine platform production - Oil & Gas ...'
p3
aS'News - Bassett-Hyland Energy'
p4
aS'NEWS | Analysis: Major Offshore Project Start-Ups to Watch ...'
p5
aS'VOCI - The Petroleum Service Companys'
p6
aS'News.Az - Azerbaijani president meets business leaders ...'
p7
aS'JFE Steel Corporation - News Release - 2010 - 01/28'
p8
aS'Piceance Overview - DXI Energy'
p9
aS'[PDF]\nAlternative and Advanced Fuels - National Conference of ...'
p10
a.