(lp0
S'D&C News - Drilling Contractor'
p1
aS'Bryan Pechersky  Cloud Peak Energy'
p2
aS'Making Money with Mobile Workforce Management - Pipeline'
p3
aS'Colorado oil, gas output rises - The Denver Post'
p4
aS"Refining Weakness Hurts Shell's Results - WSJ"
p5
aS'Our Clients | Global Dynamics, Inc.'
p6
aS'Dow falls below 10,000 for first time since Nov. 6 | cleveland ...'
p7
aS'AOC to Develop Schedule for NW October Block - Oil Field ...'
p8
aS'Experimental evidence for a frustrated energy landscape in ...'
p9
aS'Committee Wrangles Over Fate Of $1.5 Million Chevron ...'
p10
a.