(lp0
S"Oil's Well That Ends Well: Parting Shots From Chevron's ..."
p1
aS'NEWS | BP Deal to Expand US Shale-Gas Operations ...'
p2
aS'Two Canadian picks for peak oil - Financial Post'
p3
aS'NAVFAC Southwest Solar Energy Contract Will Generate 40 ...'
p4
aS'Government takes decline as nations diversify terms to ...'
p5
aS'VESSEL CORROSION REPAIR-2 UNUSUAL WELD ...'
p6
aS'Capital Expenditures Articles - Oil & Gas Financial Journal'
p7
aS'ExxonMobil cases first Point Thomson well - Oil & Gas ...'
p8
aS'[PDF]\nUT Austin Launches Campaign to Become Top Public ... - jsg'
p9
aS'Oil and gas facilities guarding| G4S'
p10
a.