(lp0
S'Chevron, Total Accused of Human-Rights Abuses in ... - Time'
p1
aS'Energy giants fund Myanmar nuclear drive: rights group'
p2
aS'Steve Long | LinkedIn'
p3
aS'Integrated - Envestor First - Energy Intelligence'
p4
aS'Special Report: Midyear Forecast: US, Canada drilling ...'
p5
aS'NLNG maximizes LNG production in supply constraint - Oil ...'
p6
aS'DownstreamToday.com - News and Information for the ...'
p7
aS'Interview with Clyde Michael Bandy, Chairman and CEO ...'
p8
aS'No bids necessary for big solar projects, and that can cost you'
p9
aS'[PDF]\nMarch - The International Ombudsman Association'
p10
a.