(lp0
S'Oil and Gas Projects  Summit Electric Supply'
p1
aS'Recent and Current Projects at Summit Electric Supply'
p2
aS'Setback for Chevron in attempts to seize Crude outtakes ...'
p3
aS'IFC invests in Dubai-based GAC to support oil operations in ...'
p4
aS'refiners focus on fcc, hydroprocessing, and alkylation catalysts'
p5
aS'In UK Case, Oil Industry Faces Criminal Charges for 2005 ...'
p6
aS'[PDF]\nIssue 13'
p7
aS'Sir David King: oil extraction a threat to the future - BBC News'
p8
aS'Greenland: Cairn Energy expects go-ahead to start drilling ...'
p9
aS'Two More Gulf Spills? | Mother Jones'
p10
a.