(lp0
S'Chevron Richmond: Home'
p1
aS'Safety & Health | Environment & Safety | Chevron El ...'
p2
aS'Mobil Oil Companies to Pay U.S. $32.2 Million to Resolve ...'
p3
aS'News Releases | City of Presidio, Texas'
p4
aS'privatization of state company catalyzes argentine oil industry'
p5
aS'Chevron-BP Pipeline leaks Oil into Louisiana Wildlife ...'
p6
aS"Tesoro's New Chief to Face Probes of Refinery Blast ..."
p7
aS'[PDF]\nFish &Wildlife News - U.S. Fish and Wildlife Service'
p8
aS'Exxon Mobil paid no federal income tax in 2009 ...'
p9
aS'ChevronToxico | Chevron "Cooked" Evidence in Ecuador ...'
p10
a.