(lp0
S'responsibly developing natural gas in the ... - Chevron'
p1
aS"majors' us retrenchment causes sale property glut - Oil ..."
p2
aS'Energy Investment And Trade Opportunities Emerging In ...'
p3
aS'Exclusive: China slows Iran oil work as U.S. energy ties ...'
p4
aS"Does Chevron Think We're All Stupid? - Rainforest Action ..."
p5
aS"Does Chevron Think We're All Stupid? - Huffington Post"
p6
aS'Chevron Must Think We Are Stupid - Oil Change International'
p7
aS'Texas MBA Energy Finance Team Lights Tower | McCombs ...'
p8
aS'Deepwater discoveries keep West Africa at global forefront ...'
p9
aS"JPMorgan's Highbridge Buys Fraga's Gavea Investimentos ..."
p10
a.