(lp0
S'Production at Phoenix Oil Field in Gulf Of Mexico Begins - '
p1
aS'New technology customizes surfactant-spacer fluids - Oil ...'
p2
aS'Daewoo International Mulls Deep-Water Port in Congo ...'
p3
aS'Alberta Gas Exploration Company Reporting Strong ...'
p4
aS'ETF Basics: How to Invest in Commodities - US News'
p5
aS'Devon Energy receives $1.5 for selling assets in Azerbaijan'
p6
aS"ONGC (India) Asia's No.1 E & P Firm: Platts | Buzzom"
p7
aS'Is the Wolfberry the next Eagle Ford? - PennEnergy'
p8
aS'[PDF]\nConstruction Rules for Morningstar Sector Indexes'
p9
aS'[PDF]\nAegean News - Aegean Marine Petroleum Network Inc.'
p10
a.