(lp0
S'Chevron Acquires Deepwater Exploration Lease in the ...'
p1
aS'Turkey: Chevron Acquires Deepwater Exploration Lease in ...'
p2
aS'Activists stop Chevron deepwater drilling ship off the ...'
p3
aS'Greenpeacers Climb Giant Oil Rig off Scotland to Stop ...'
p4
aS'Oil discovery of the Coast of Greenland - Arctic Portal - The ...'
p5
aS"Shell's shore-based engineers monitor offshore rigs ..."
p6
aS'Boots and Coots Services Stocks, News and Research: Oil ...'
p7
aS'Student power gets results for big corporations | University ...'
p8
aS'21st century energy superpower: China, energy, and global ...'
p9
aS"BP oil spill: Gulf of Mexico well declared 'effectively dead ..."
p10
a.