(lp0
S'Haynesville Shale News, Wells, Formation, Markets and ...'
p1
aS"EERC's John Harju Appointed to National Petroleum ..."
p2
aS'Court rules Chevron must get some film outtakes | Reuters'
p3
aS'Why Size Matters - MIT Sloan Management Review'
p4
aS'Buncefield companies fined 5.35m for oil depot blaze | UK ...'
p5
aS'Buncefield explosion: Five companies fined 9m - Telegraph'
p6
aS'NEWS | BW Offshore Clinches $875MM Gas FPSO Contract ...'
p7
aS'[PDF]\nmidstreamnews - PLS'
p8
aS'Chevron Dividend Yield (TTM) (CVX) - YCharts'
p9
aS'CiSoft: Frontiers of Eneregy Resources Summer Camp 2010'
p10
a.