(lp0
S'Community | Chevron El Segundo Refinery'
p1
aS'Education | Community | Chevron El Segundo Refinery'
p2
aS'Education | Community | Chevron Richmond'
p3
aS'Letter to New Chevron CEO, John Watson: You Have an ...'
p4
aS'Oil Giant Chevron Accused of "Extortion" on Capitol Hill'
p5
aS'United Kingdom: Total launches the development of the ...'
p6
aS'Chief Accounting Officer Articles - Oil & Gas Financial Journal'
p7
aS'Vanoil Energy Ltd. - Kenya - Block 3A - Thu Apr 14, 2016'
p8
aS'[PDF]\nREPORT ON ROYAL DUTCH SHELL PLC & OIL SANDS'
p9
aS'Mining and Exploration Companies'
p10
a.