(lp0
S'Energy - People Blog And Shop - The Latest Hard Hitting ...'
p1
aS'Oil Watchdog | Archive | BP'
p2
aS'study notes separability of oil company profitability, efficiency'
p3
aS'[PDF]\nCHEVRON CORPORATION - Fisher College of Business'
p4
aS'The BP Ad Bonanza of 2010: Best and Worst Campaigns ...'
p5
aS'Putin Bans Vacations Over Power Outages, Travel Chaos ...'
p6
aS'Valero Uses Contract Workers for Easy Layoffs | Consumer ...'
p7
aS'Ogunbiyi trades Afren director post for chief executive post ...'
p8
aS'Top 25 U.S. Energy Lobbyists of 2010 - Renewable Energy ...'
p9
aS'AVENTA launches a high performance polymer solar collector'
p10
a.