(lp0
S'Chevron Pulse Report: July 2008 to December 2009'
p1
aS"The World's Biggest Oil Companies - Forbes"
p2
aS'Chevron restarts shallow water Gulf drilling | Reuters'
p3
aS'[PDF]\nDOB_July 8_2010.pdf - Canadian Discovery Ltd.'
p4
aS'WAERA: Western Australian Energy Research Alliance - e ...'
p5
aS'Scorpion Offshore executives resign as Seadrill snaps up ...'
p6
aS'Gulf uncertainties lead Diamond Offshore to move Endeavor ...'
p7
aS'Vision for a billion - OE Digital'
p8
aS'Indigenous People from Ecuador to Louisiana Forge ...'
p9
aS'An ounce of prevention  or millions of gallons of cure ...'
p10
a.