(lp0
S'COMPANY NEWS: Chevron, Texaco agree to merge in all ...'
p1
aS"Oil's Well That Ends Well: Parting Shots From Chevron's ..."
p2
aS'NEWS | BP Deal to Expand US Shale-Gas Operations ...'
p3
aS'Joint venturing in the oil and gas industry - Oil & Gas ...'
p4
aS'ExxonMobil cases first Point Thomson well - Oil & Gas ...'
p5
aS'Chevron Case Study - Nu Solutions Consulting'
p6
aS'[PDF]\nLine Rider Issue 30 - Chevron Retirees Home'
p7
aS'March 2010 ~ Oil & Energy News'
p8
aS'CHINA China stepping up field development to reduce oil ...'
p9
aS'[PDF]\ncrewes news 0ctober 2010 compressed pictures.pub'
p10
a.