(lp0
S'Chevron Sanctions Jack/St. Malo Project in the Gulf of Mexico'
p1
aS'GoM: Chevron sanctions Jack/St. Malo Project in the Gulf of ...'
p2
aS'Chevron to develop 2 deep-water oil fields in gulf - SFGate'
p3
aS"Chevron's Alter-ego | PlanetSave"
p4
aS"The Failure of Chevron's New 'We Agree' Ad Campaign ..."
p5
aS'Lehman, JPMorgan, Bank of America, HP in Court News ...'
p6
aS'Yes Men make headlines with Chevron spoof | Innovation Trail'
p7
aS'[PDF]\nWho is Chevron?'
p8
aS'KZN oil company acquires fuel distrubution depot'
p9
aS'Papa-Terra | Offshore Energy Today'
p10
a.