(lp0
S'Appeals Court: Chevron Refinery Expansion Plans Illegal ...'
p1
aS'Call for Burma Energy Data'
p2
aS'Shell puts oil sands expansion plans on hold - The Globe ...'
p3
aS'News Update: Valero Energy Corp. Plans Catalytic ...'
p4
aS'Weatherford International - Wikipedia, the free encyclopedia'
p5
aS'Met Opera Moved Millions From Endowment in 2009 - WSJ'
p6
aS'Teacher, Chevron officer selling in El Segundo for $1.099M ...'
p7
aS'Sandri - Renewable Energy News'
p8
aS'Kodiak Energy Inc.: OTCMKTS:KDKN quotes & news ...'
p9
aS"Nedbank CEO Is South Africa's Best Paid Bank Chief ..."
p10
a.