(lp0
S'Enhanced Oil Recovery Articles - Oil & Gas Journal'
p1
aS'OGJ Newsletter - Oil & Gas Journal'
p2
aS"Shell's Perdido blazes a deep-water trail - Houston Chronicle"
p3
aS'Energy-related deal makers turn up the heat - Houston ...'
p4
aS'Company Directory | Page 7 of 9 | Nogtec'
p5
aS'Marketers Blame the Consumer in New Save-the-Planet ...'
p6
aS'JOBS AND CAREER IN OIL AND GAS AND ENERGY'
p7
aS'PTT Philippines Corporation | LinkedIn'
p8
aS'[PDF]\nThe Weekly News - Purdue University'
p9
aS"One Company's Plan to End China's Monopoly on Rare ..."
p10
a.