(lp0
S'Chevron Announces Natural Gas Discovery in Australia ...'
p1
aS"How'd we get stuck with BP? - Jul. 12, 2010 - CNN Money"
p2
aS'Could ExxonMobil or Chevron Take Over or Merge with BP ...'
p3
aS'BP builds defence in takeover threat - Telegraph'
p4
aS'BP boosted 10pc as oil leak cap and bid talk lifts shares ...'
p5
aS'Lobbyists Pull Out Checkbooks to Overturn CA Emission Law'
p6
aS'Chevron Energy Technology Company - Richmond, CA ...'
p7
aS'The Chevron drill ship Discoverer Inspiration, leased by BP ...'
p8
aS"California Schemin' | Mother Jones"
p9
aS"U.S. eyes geothermal for Exim Bank's $1 bln Indonesia ..."
p10
a.