(lp0
S'Chevron buys Atlas Energy in $4.3B deal, enters shale ...'
p1
aS'December 2010 ~ Oil & Energy News'
p2
aS'Wikileaks: What the Chevron-Kazak Cellphone Row ...'
p3
aS"Ecuador's Amazon drilling pledge still to take shape - BBC ..."
p4
aS'The Kuwait Oil Company (KOC) - The International ...'
p5
aS"Engen buys Chevron's Runion, Malawi, Zambia assets ..."
p6
aS'AMOCO REDEVELOPING TREND IN SOUTH LOUISIANA ...'
p7
aS"Controversial gas 'fracking' extraction headed to Europe ..."
p8
aS'[PDF]\nnoble energy, inc. - University of Oregon Investment Group'
p9
aS'Some US Utilities Starting to Replace Coal with Natural Gas'
p10
a.