(lp0
S'Exxon $600 Million Algae Investment Makes Khosla See ...'
p1
aS'Former Chevron exec Robertson joins Deloitte oil and gas ...'
p2
aS'Energy companies race to meet deadline for filing rig ...'
p3
aS"BP Disaster: Canada's deepwater well faces scrutiny - The ..."
p4
aS'CWT Starts Energy Practice: Business Travel News'
p5
aS"BP's Failure to Stop Leak Darkens Mood for Offshore Drilling ..."
p6
aS'Oakridge Energy Inc: OTCMKTS:OAKR quotes & news ...'
p7
aS'NEWS | Market Report: BP Spill Impacts Oil Prices | Rigzone'
p8
aS'MINIMAL PLATFORMS: Oil and gas prices, new concepts ...'
p9
aS'Chevron in Ecuador: June 2010'
p10
a.