(lp0
S'Chevron Signs $3 Million Research Agreement - Cockrell ...'
p1
aS'Brabham Oil | News'
p2
aS'Gas and Renewables: Building a Cleaner Energy Bridge to a ...'
p3
aS'CAMAC Energy Appoints Byron A. Dunn as President and ...'
p4
aS'[PDF]\nChevron Wins BSI Supply Chain Award - Boston Strategies ...'
p5
aS'Going Beyond Oil | Greenpeace International'
p6
aS'17th Africa Oil Week / 1st-5th November 2010, BMW ...'
p7
aS'Pakistan State Oil Company Ltd (PSO.KA) People | Reuters ...'
p8
aS"Greenpeace: Activists preventing drill ship's launch well ..."
p9
aS'Search Results for "Atinum Partners Co Ltd" - The Business ...'
p10
a.