(lp0
S'Silver Oak Energy - News & Events'
p1
aS"ONGC beats China's CNOOC to become Asia's No.1 E&P firm"
p2
aS'Baylor University || The Lariat Online Archives || News'
p3
aS'Alberta Gas Exploration Company Reporting Strong ...'
p4
aS'[PDF]\nAustralia - Oil & Gas Financial Journal'
p5
aS'James W. Simpson: Executive Profile & Biography ...'
p6
aS'Permian Basin: Something for Everyone  CVX, XOM, CHK ...'
p7
aS'No anti-French Bias in Iraq Oil Wins: Total - Energy News ...'
p8
aS"ONGC (India) Asia's No.1 E & P Firm: Platts | Buzzom"
p9
aS'Jones Day | Chevron obtains discovery against former ...'
p10
a.