(lp0
S'Chevron to Acquire Atlas Energy - WSJ'
p1
aS'Range Resources, EQT May Be Targets After Chevron Deal ...'
p2
aS'Chevron buys Atlas Energy, takes over RIL JV | Business ...'
p3
aS'Are Chevron and Exxon Sending an Energy Message ...'
p4
aS'Chevron moves on Marcellus Shale with Atlas acquisition ...'
p5
aS'Chevron to pay $4.3 billion for Atlas Energy and joins ...'
p6
aS'The natural gas shakeout - Nov. 10, 2010 - Fortune'
p7
aS'Chevron, Texaco Accepting Fuelman, FleetWide Cards ...'
p8
aS'RelaDyne - Leadership'
p9
aS'Chevron acquires sizable Marcellus shale gas stake ...'
p10
a.