(lp0
S'Unipec gets oil traders from Chevron, Statoil-sources | Reuters'
p1
aS'S.A. could become a boomtown - San Antonio Express-News'
p2
aS'Chevron bags major North Sea oil contract despite safety ...'
p3
aS'Elf details Caspian Sea exploration plans - Oil & Gas Journal'
p4
aS'SWOT Analysis of Chevron Corporation - MBA Lectures'
p5
aS'Light change called bright idea | CJOnline.com'
p6
aS'A Shetland oil spill could reach Norfolk and Greenland ...'
p7
aS"NEWS | Industry Profile: Devon's Dave Hager | Rigzone"
p8
aS'board of directors for TTARA - Texas Taxpayers and ...'
p9
aS'[PDF]\nIn This Issue - ABS'
p10
a.