(lp0
S'UK: Chevron awards Rosebank field node survey West of ...'
p1
aS'Chevron Mining Inc.: quotes & news - Google Finance'
p2
aS'Energy News - Japan Real Time - WSJ'
p3
aS'The True Cost of Chevron - City Brights: Rebecca Tarbotton'
p4
aS'Grace Energy Founder Passes Away | CSPnet'
p5
aS"Morgan Stanley Hires Nomura's Bareggi for Italy - Bloomberg"
p6
aS'Yoga for Cancer Patients Provides Benefits of Sleep, Vitality ...'
p7
aS'Privately-held Jetta acquires Journey Operating to focus on ...'
p8
aS"Ecuador's oil demons | National Geographic (blogs)"
p9
aS'[PDF]\nKuwait'
p10
a.