(lp0
S'Jan 11, 2016 - A 27-year-old Seattle man is suing Chipotle restaurants after he was infected with E. coli ... Email Newsletter Signup Custom-curated news highlights, delivered ...'
p1
aS'Jan 11, 2016 - DENVER - Denver-based Chipotle is facing scrutiny after a widespread E. coli outbreak spanning six states. ... Chipotle temporarily closed stores in Washington and Oregon after the poisoning cases - a bold move by the corporate headquarters here in Colorado, since some of the ...'
p2
aS"Jan 11, 2016 - On Oct. 31, before the E. coli news, there was a $190 gap between Chipotle's high and low price targets. On Friday, that difference had widened to $338. Among ..."
p3
aS"Jan 11, 2016 - On Oct. 31, before the E. coli news, there was a $190 gap between Chipotle's high and low price targets. On Friday, that difference had widened to $338. Among ..."
p4
aS'Jan 11, 2016 - The suit seeks damages on behalf of investors who acquired Chipotle shares from February 2015 to January 2016. When reached for comment by the news wire ...'
p5
aS"Jan 10, 2016 - NEWS FOR YOUR FAMILY - Home ... No, Chipotle is not selling $1 burritos ... Thus, simply going to Chipotle's Twitter account -- rather than a website whose ..."
p6
aS'Jan 10, 2016 - Popular Mexican cuisine restaurant Chipotle is under fire in the aftermath of ... News & Politics .... The Chipotle lawsuit is spearheaded by investor Susie Ong.'
p7
aS'Jan 11, 2016 - Chipotle Sued Again, This Time for Misleading Investors About Food Safety. By Clint ... Chipotle in Union Square is crazy empty. ... Latest News from Grub Street.'
p8
aS"Jan 11, 2016 - There's seemingly no end in sight for Chipotle's problems: Now, another alleged victim of the burrito chain's E. coli disaster is suing. According to the Seattle ..."
p9
aS'Jan 11, 2016 - Chipotle comes out on top in Denver Post analysis of health inspection reports ... In the California case, health records obtained by Food Safety News showed ...'
p10
a.