(lp0
S'Jan 11, 2016 - A 27-year-old Seattle man is suing Chipotle restaurants after he was infected with E. coli ... Email Newsletter Signup Custom-curated news highlights, delivered ...'
p1
aS'Jan 11, 2016 - DENVER - Denver-based Chipotle is facing scrutiny after a widespread E. coli outbreak spanning six states. ... Chipotle temporarily closed stores in Washington and Oregon after the poisoning cases - a bold move by the corporate headquarters here in Colorado, since some of the ...'
p2
aS"Jan 11, 2016 - On Oct. 31, before the E. coli news, there was a $190 gap between Chipotle's high and low price targets. On Friday, that difference had widened to $338. Among ..."
p3
aS"Jan 11, 2016 - On Oct. 31, before the E. coli news, there was a $190 gap between Chipotle's high and low price targets. On Friday, that difference had widened to $338. Among ..."
p4
aS"Jan 12, 2016 - The foodborne illness cases have wrecked Chipotle's stock, which has lost more than 40% of its value since the fall, when the E. coli news first broke. Costco ..."
p5
aS'Jan 12, 2016 - DENVER --(BUSINESS WIRE)--Jan. 12, 2016-- Chipotle Mexican Grill, Inc. (NYSE: CMG) today announced that the Company will present at an upcoming ...'
p6
aS'Jan 11, 2016 - The suit seeks damages on behalf of investors who acquired Chipotle shares from February 2015 to January 2016. When reached for comment by the news wire ...'
p7
aS"Jan 12, 2016 - On October 31, before the E. coli news, there was a $190.00 gap between Chipotle's high and low price targets, according to analysts surveyed by Bloomberg."
p8
aS'Jan 12, 2016 - ... Service & More.  2016 Time Inc. All rights reserved. Search. News; Popular; Videos; Fortune 500  How Hubris Messed With Chipotle January 12, 2016 ...'
p9
aS"Jan 12, 2016 - But despite my best efforts, I'm ashamed to admit that I'm enjoying Chipotle ... As a former employee of The Dallas Morning News, I am astonished that the paper ..."
p10
a.