(lp0
S"Jan 13, 2016 - Chipotle's leaders said they plan to begin a new marketing campaign in February to bring back worried former customers. ... 2016 Cable News Network. A Time ..."
p1
aS'Jan 13, 2016 - Chipotle Mexican Grill Inc executives on Wednesday said they are confident that steps they are taking to tighten food ... Our top news photography this week.'
p2
aS'Jan 13, 2016 - Chipotle Mexican Grill executives voiced confidence that the company can ... in the worlds of diversified media, news, education, and information services.'
p3
aS'Jan 13, 2016 - Chipotle Mexican Grill Inc. has a chance to win back some investors Wednesday. ... in the worlds of diversified media, news, education, and information services.'
p4
aS'Jan 13, 2016 - The shares climbed the most in more than five months after the beleaguered company assured investors it can rebound from its food-safety crisis. Chipotle told ...'
p5
aS"Jan 13, 2016 - Shares of Chipotle on Wednesday enjoyed their biggest gains in weeks on buoyed confidence in the chain's ability to emerge from ... Submit a news tip or photo."
p6
aS"Jan 13, 2016 - Now's a great time to score burritos at Chipotle Mexican Grill. ... the next quarter  if the bad news comes at the end of the quarter or if there is more bad news."
p7
aS"Jan 12, 2016 - The foodborne illness cases have wrecked Chipotle's stock, which has lost more than 40% of its value since the fall, when the E. coli news first broke. Costco ..."
p8
aS"Jan 13, 2016 - There's a silver lining for Chipotle lovers in the chain's woes. ... Global Business and Financial News, Stock Quotes, and Market Data and Analysis. Data also ..."
p9
aS"Jan 13, 2016 - NEW YORK - Chipotle (CMG) says it will start a marketing push in February to begin ... The remarks from executives come after Chipotle's sales plunged 30 percent in ... Powered and implemented by Interactive Data Managed Solutions News ..."
p10
a.