(lp0
S'Jan 15, 2016 - Chipotle to hold food safety staff meeting at all restaurants Feb. 8 to shake off E. ... Chipotle is shutting down all of its stores nationwide for a few hours next month to hold a national staff meeting about food safety. ..... 2016 Cable News Network.'
p1
aS'Jan 15, 2016 - 8 for a "national team meeting," according to Chipotle Mexican Grill spokesman ... and answer questions from employees," Arnold told ABC News in an email.'
p2
aS'Jan 15, 2016 - Chipotle plans to close all of its stores for a few hours next month to host a company-wide meeting discussing food safety after the chain was tasked with dealing with food poisoning outbreaks last year. Chris Arnold, a spokesman for Chipotle, told the Oregonian the meeting is ...'
p3
aS"Jan 14, 2016 - News/. Chipotle Is Closing All Its Restaurants for 1 Day, so Plan Accordingly ... But once you hear why Chipotle is closing its doors for a little bit, you'll feel much ..."
p4
aS'Jan 15, 2016 - Embattled fast-casual restaurant chain Chipotle Mexican Grill will close all of its ... meeting about the plans to eliminate the issue, a rep confirms to E! News.'
p5
aS'Jan 15, 2016 - Beleaguered by a series of food poisoning outbreaks, Chipotle will close all stores ... and answer questions from employees," Moore told NBC News via email, ...'
p6
aS"Jan 15, 2016 - On Wednesday, The Wall Street Journal reported the news inside a story on Chipotle's marketing efforts, but few noted it then. It gained steam Friday morning ..."
p7
aS'Jan 15, 2016 - Chipotle will be closing its restaurants nationwide on Feb. ... National & International News ... Chipotle to Close Its Doors Nationwide for Food Safety Meeting.'
p8
aS'Jan 15, 2016 - Chipotle to briefly close every store for employee meeting as it fights bad taste left by E. coli and norovirus. BY Christopher Brennan. NEW YORK DAILY NEWS.'
p9
aS"Jan 15, 2016 - Bad news for burrito lovers. ... All Chipotle Restaurants To Temporarily Close February 8th ... I write analytical stories about the day's trending and viral news."
p10
a.