(lp0
S"Jan 19, 2016 - By waiting until next month to close their stores, Chipotle keeps its name in the news cycle for another three weeks. There's no reason for Chipotle to announce a ..."
p1
aS'Jan 18, 2016 - Chipotle is set to close all of its nearly 2000 North American restaurants for ... The unfortunate series of events for Chipotle is yet to be over. ... AFP Relax News.'
p2
aS'Jan 18, 2016 - Monty Moran, the co-CEO of Chipotle, told investors that the restaurant is allowing managers at individual Chipotle locations feed customers more than what ...'
p3
aS'Jan 19, 2016 - View source version on businesswire.com: http://www.businesswire.com/news/home/20160119006446/en/. Source: Chipotle Mexican Grill. Chipotle Mexican ...'
p4
aS'Jan 19, 2016 - Chipotle said Tuesday that it will close all restaurants from 11 a.m. to 3 p.m. on Feb. 8 for a companywide meeting on food safety efforts after E. coli, salmonella ...'
p5
aS'Jan 19, 2016 - Chipotle Mexican Grill to close all restaurants for lunch on Feb. ... Freshii to offer discount during temporary Chipotle closure ... See the latest news from NRN.'
p6
aS'Jan 19, 2016 - Moran, who created what Chipotle calls its "people culture," was quick to point out that Chipotle employees aren\'t exactly depressed despite the barrage of news ...'
p7
aS"Jan 19, 2016 - Today Chipotle released more information on what exactly it'll be discussing with employees when the chain shuts down all locations for a few hours on Feb."
p8
aS'Jan 19, 2016 - Chipotle closes for a day to focus on food safety, Local News, Portland local News, Breaking News alerts for Portland city.'
p9
aS'Jan 19, 2016 - Brace yourselves, Chipotle-lovers  this news may ruin your day (or month). On Feb. 8, Chipotle will be closing every location for a national all-employee ...'
p10
a.