(lp0
S'Jan 20, 2016 - A lawsuit claims Chipotle tried to cover up an outbreak at the restaurant. Gordon Tokumatsu reports for the NBC4 News at 5 p.m. on Wednesday, Jan. 20, 2016.'
p1
aS'Jan 21, 2016 - Lawsuit Claims Chipotle Tried To Cover Up A Norovirus Outbreak Last Year ... Venessa Wong is a business reporter for BuzzFeed News and is based in New ...'
p2
aS'Jan 20, 2016 - Chipotle is working hard to revamp its image by addressing food safety ... Global Business and Financial News, Stock Quotes, and Market Data and Analysis.'
p3
aS'Jan 20, 2016 - Sporting News has asked a half-dozen NBA players from different teams, on and off the record, about Chipotle and its recent outbreak. The respondents, all ...'
p4
aS'Jan 20, 2016 - Chipotle has had a rough go of it lately as the fast-casual burrito and taco ... Actually they have been in the news and have been releasing statements and ...'
p5
aS"Jan 21, 2016 - Freshii using Chipotle's food safety woes to its own benefit with promotion on Feb. 8."
p6
aS'Jan 20, 2016 - Maine news, sports, politics and election results, and obituaries from the Bangor ... PORTLAND, Maine  As Chipotle restaurants near a one-day shutdown Feb.'
p7
aS'Jan 20, 2016 - Another plan to spray local oyster beds with pesticide, Chipotle tries to right itself, a superchef food revolution gets started in L.A. and more.'
p8
aS'Jan 20, 2016 - People walk past a new Chipotle Mexican Grill location in Seattle, Nov. ... work anyway, eventually leaving about 230 customers ill, according to a news release.'
p9
aS'Jan 20, 2016 - Chipotle Mexican Grill, Inc. (NYSE:CMG) has earned a few lucky appetizing gains over the past few days. Those who bought CMG stock at $404.00 on January ...'
p10
a.