(lp0
S"Jan 27, 2016 - Chipotle faces discrimination lawsuit after 'sexist' boss allegedly fired managers for being women. BY Meg Wagner. NEW YORK DAILY NEWS. Wednesday ..."
p1
aS"Jan 26, 2016 - Finally, some news about Chipotle not tied to foodborne illness that ... actually, wait, this won't distract from its sorry public image at all: It's about a lawsuit ..."
p2
aS'Jan 26, 2016 - If this is so serious; if this is a matter of food safety (as the company states) and the health of paying customers, why not shut down tomorrow?'
p3
aS'Jan 27, 2016 - Less than three months after Chipotle was hit with multiple lawsuits from ... TakePart  a digital news & lifestyle magazine and social action platform for the ...'
p4
aS'Jan 26, 2016 - Facing lawsuits for an E. coli outbreak, Chipotle has new legal woes. This time the ... Convicted murderer smiles at sentencing; News: | 34 hours ago. Undo.'
p5
aS"Jan 27, 2016 - Chipotle Mexican Grill Inc. is facing a sex discrimination lawsuit in Cincinnati. ... article's on page print button to print this article. Industry News Legal Services ..."
p6
aS'Jan 27, 2016 - Chipotle Mexican Grill, which is already facing lawsuits related to a widespread E. coli ... Industry News Legal Services. Chipotle faces Cincinnati lawsuit. Jan 27 ...'
p7
aS'Jan 26, 2016 - A Chipotle location is still planned, although food-safety issues caused sales to drop 30 percent in December.'
p8
aS'Jan 27, 2016 - After dealing with a real health safety crisis because of a norovirus infection, Chipotle is now dealing with a fake news crisis caused by known hoax website ...'
p9
aS'Jan 26, 2016 - Chipotle is being sued by three former managers for sexual discrimination and wrongful ... And this week came news of a sexual discrimination case against two ...'
p10
a.