(lp0
S'Jan 28, 2016 - As Chipotle is grappling with lawsuits stemming from E. coli and norovirus outbreaks at several of its restaurants, the Mexican chain is facing another legal ...'
p1
aS"Jan 27, 2016 - Chipotle faces discrimination lawsuit after 'sexist' boss allegedly fired managers for being women. BY Meg Wagner. NEW YORK DAILY NEWS. Wednesday ..."
p2
aS'Jan 28, 2016 - Work is continuing on a new Chipotle restaurant on West Genesee Street in Camillus ... I I have read in publications and news accounts (see link) that Destiny ...'
p3
aS'Jan 27, 2016 - Less than three months after Chipotle was hit with multiple lawsuits from ... TakePart  a digital news & lifestyle magazine and social action platform for the ...'
p4
aS"Jan 28, 2016 - Search Chipotle food poisoning, and up come stories from NBC News, The Huffington Post, Forbes, and The New Yorker, the latter's headlined Can Chipotle ..."
p5
aS"Jan 27, 2016 - Chipotle Mexican Grill Inc. is facing a sex discrimination lawsuit in Cincinnati. ... article's on page print button to print this article. Industry News Legal Services ..."
p6
aS'Jan 27, 2016 - Chipotle Mexican Grill, which is already facing lawsuits related to a widespread E. coli ... Industry News Legal Services. Chipotle faces Cincinnati lawsuit. Jan 27 ...'
p7
aS"Jan 28, 2016 - Chipotle Mexican Grill (CMG) stock has suffered a 40% fall from its 52-week high. But is it ... Access to Jim Cramer's daily blog; Intraday commentary and news ..."
p8
aS"Jan 28, 2016 - Why food-borne illnesses and other woes don't faze Chipotle fans. Dining. By Carlos Fras - Palm .... Travel, News, Golf and more. Choose your favorites and ..."
p9
aS'Jan 27, 2016 - After dealing with a real health safety crisis because of a norovirus infection, Chipotle is now dealing with a fake news crisis caused by known hoax website ...'
p10
a.