(lp0
S'Jan 4, 2016 - Chipotle Mexican Grill Inc., struggling to rebound from a string of foodborne ... Salman field, Fars news agency reported last month, citing an unidentified person.'
p1
aS"Jan 4, 2016 - Chipotle Mexican Grill Inc., still reeling from a series of foodborne-illness outbreaks, isn't the only fast-casual restaurant that suffered last year. An index of eight ..."
p2
aS'Jan 4, 2016 - West Texas News ... New E. coli illnesses linked to Chipotle reported ... All the five victims told authorities that they ate at Chipotle between 18th of November to ...'
p3
aS"Jan 4, 2016 - Chipotle's string of outbreaks could be more than just bad PR for the company's ... His work has appeared in VICE, VICE News, Munchies, and Harper's."
p4
aS'Jan 4, 2016 - These stocks took led the broader market lower on the first day of 2016. Find out why.'
p5
aS'Jan 4, 2016 - Chipotle Mexican Grill Inc., still reeling from recent outbreaks of E. coli and norovirus at its restaurants, is now being investigated for its .... Recent News Articles.'
p6
aS'Jan 3, 2016 - After years of meteoric rise, Denver-based Chipotle Mexican Grill fell back to Earth in 2015 after a series of foodborne-illness ... Submit a news tip or photo.'
p7
aS"Jan 4, 2016 - Another analyst has downgraded Chipotle Mexican Grill Inc. shares. ... article's on page print button to print this article. Industry News Retailing & Restaurants ..."
p8
aS"Jan 4, 2016 - Chipotle Mexican Grill (CMG) stock was downgraded to 'perform' from 'outperform' at ... Not based on the news in any given day, the rating may differ from Jim ..."
p9
aS'Jan 4, 2016 - Oppenheimer downgraded Chipotle Mexican Grill (NYSE: CMG) from Outperform to Perform. ... For more ratings news on Chipotle Mexican Grill click here.'
p10
a.