(lp0
S"Jan 5, 2016 - Chipotle's rise was fueled in part by its image as a healthy, ethical choice. ... With a pinch of skepticism and a dash of fun, The Salt covers food news from the ..."
p1
aS'Jan 5, 2016 - I took advantage of the thinning crowds at Chipotle Mexican Grill (NYSE:CMG) again on Sunday night. It may be bad news for shareholders, but the E. coli and ...'
p2
aS'Jan 4, 2016 - Chipotle Mexican Grill Inc., struggling to rebound from a string of foodborne ... Salman field, Fars news agency reported last month, citing an unidentified person.'
p3
aS"Jan 4, 2016 - Chipotle Mexican Grill Inc., still reeling from a series of foodborne-illness outbreaks, isn't the only fast-casual restaurant that suffered last year. An index of eight ..."
p4
aS'Jan 5, 2016 - Live-updated Colorado news, weather forecasts for Denver and the state, metro-area ... DENVER - A home originally built for the founder of Chipotle is now ...'
p5
aS'Jan 5, 2016 - Employees at this Chipotle store in Ashburn, Virginia stated their business has ... In his blog  Natural News  which fashions itself as a truth new bureau, ...'
p6
aS'Jan 5, 2016 - Chipotle Mexican Grill has been in the news a lot lately - and not for the reason the restaurant chain would prefer.'
p7
aS"Jan 4, 2016 - Chipotle's string of outbreaks could be more than just bad PR for the company's ... His work has appeared in VICE, VICE News, Munchies, and Harper's."
p8
aS'Jan 5, 2016 - DENVERChipotle Mexican Grill has parted ways with Edelman and is currently searching for new PR agency support, the Holmes ... News direct to your inbox.'
p9
aS'Jan 4, 2016 - Chipotle Mexican Grill Inc., still reeling from recent outbreaks of E. coli and norovirus at its restaurants, is now being investigated for its .... Recent News Articles.'
p10
a.