(lp0
S'Feb 10, 2016 - Chipotle was one of the most popular restaurant chains before several high profile outbreaks of E. coli poisoning drove fans away. Since the outbreak was ...'
p1
aS"Feb 10, 2016 - Monday's all-staff meeting with Chipotle Mexican Grill's 50,000 employees included live Tweets such as .... Partner Bill Marler is publisher of Food Safety News."
p2
aS"Feb 10, 2016 - Here's What Happened At Chipotle's Closed-Door Meeting ... On Monday, despite criticism from competitors and customers alike, Chipotle boldly .... Food News."
p3
aS'Feb 9, 2016 - Maryland Man Is Swamped With Texts Demanding Free Chipotle Burritos. ... Levine told ABC News that the first text came in at around 9 a.m. and never stopped.'
p4
aS'Feb 9, 2016 - A Washington D.C. lawyer has a case of mistaken identity  with Chipotle. ... p.m. and my phone just started to jump off the table, Levine told the Daily News.'
p5
aS'Feb 9, 2016 - Chipotle burrito lovers were out of luck and lunch Monday. ... NBC News that shutting down all of Chipotle locations for this mandatory meeting is a smart move.'
p6
aS'Feb 9, 2016 - That caused news outlets to look back at an earlier norovirus outbreak in California, as well as a Salmonella outbreak in Minnesota, and customers to conclude ...'
p7
aS'Feb 9, 2016 - The presumably disappointed texters were attempting to claim a free burrito from Chipotle, which was running a promotion while it shuttered its 2,000 stores for ...'
p8
aS'Feb 9, 2016 - Food Business News logo. Login ... Chipotle has launched a web site detailing new food safety procedures for its suppliers and restaurants. DENVER ...'
p9
aS'Feb 9, 2016 - Chipotle Mexican Grill urged sick employees not to report to work at its restaurants during a company-wide ... Chipotle takes a lunch break ... 332 shares News ...'
p10
a.