(lp0
S'Feb 10, 2016 - Chipotle was one of the most popular restaurant chains before several high profile outbreaks of E. coli poisoning drove fans away. Since the outbreak was ...'
p1
aS"Feb 10, 2016 - Here's What Happened At Chipotle's Closed-Door Meeting ... On Monday, despite criticism from competitors and customers alike, Chipotle boldly .... Food News."
p2
aS'Feb 11, 2016 - According to the lawsuit, 25-year-old Haley Hadlock is suing Chipotle for allegedly giving ... 2015 E.coli Cases Linked to Chipotle | HealthGrove ... Filed in: News.'
p3
aS"Feb 10, 2016 - Monday's all-staff meeting with Chipotle Mexican Grill's 50,000 employees included live Tweets such as .... Partner Bill Marler is publisher of Food Safety News."
p4
aS'Feb 10, 2016 - ADVERTISEMENT. The sign of a Chipotle restaurant is pictured in Pasadena, California October 17, 2012. ... 2016 FOX News Network, LLC. All rights reserved.'
p5
aS'Feb 11, 2016 - In the fourth quarter of 2015, Chipotle Mexican Grill Inc. experienced some ... As Time reported, although this was presumably good news for Chipotle fans, stock ...'
p6
aS'Feb 10, 2016 - Hundreds of Chipotle fans hoping for a free meal accidentally texted a Maryland lawyer instead of the burrito chain.'
p7
aS'Feb 11, 2016 - Chipotle Mexican Grill closed all of its U.S. restaurants during prime lunchtime hours on ... Claims Journal - Insurance news and resources for claims adjusters ...'
p8
aS"Feb 10, 2016 - Nothing says crisis management like a free Chipotle burrito. ... News; Popular; Videos; Fortune 500 .... Chipotle Knows What It's Doing By Closing its Stores."
p9
aS'Feb 11, 2016 - Some students still go to Chipotle despite the E. Coli outbreak. ... according to a news release, the popular restaurant chain reopened in Athens with a bang.'
p10
a.