(lp0
S'Feb 18, 2016 - Chipotle has been the brunt of jokes and hit by lawsuits, but some experts are predicting positive growth figures as early as the end of the year. (AP). On Sunday ...'
p1
aS'Feb 17, 2016 - Trying to catch Chipotle Mexican Grill on a rebound adds unnecessary risk for investors today. ... Chipotle Mexican Grill (NYSE:CMG) was making its customers sick. ... While we wait for Chipotle to get it together, investors are better served in names like Panera Bread (NASDAQ:PNRA) and ...'
p2
aS"Feb 18, 2016 - Similarly, Hillary Clinton stopped at a Chipotle in Ohio to pick up a burrito bowl for lunch the day after announcing her presidential campaign. It's a safe bet to ..."
p3
aS'Feb 17, 2016 - The show then cuts to a (real) news clip about a Chipotle store in Florida that, upon a visit from inspectors, was found to have a live bird flying around inside.'
p4
aS'Feb 18, 2016 - "Young adults represent the largest share of Chipotle\'s overall traffic," said Bonnie ... Based on this pattern, if consumers aren\'t exposed to news about a food ...'
p5
aS"Feb 17, 2016 - HBO's John Oliver goes after Chipotle, a fast-casual chain that got its start in Colorado. Learn more at ... Roberts  Westword  Westword  News  Denver Blogs ..."
p6
aS"Feb 17, 2016 - A new Chipotle Mexican Grill, Menchie's, Tiffany Nails and Starbucks are set to join the new Publix, with all five ... The Sun News | MyrtleBeachOnline.com."
p7
aS'Feb 18, 2016 - If you have seen the news the last few weeks/months, then you probably heard or read about the disastrous E. coli outbreak at Chipotle Mexican Grill restaurants ...'
p8
aS'Feb 17, 2016 - In a hilarious segment on his show Last Week Tonight on HBO, John Oliver has addressed recent news that Chipotle had closed down its stores nationwide on ...'
p9
aS'Feb 17, 2016 - By: Candice A. Tillman Although the Chipotle Mexican Grill public relations disaster is ... Wilson added, I felt a lot safer eating the food since news of the E. coli ...'
p10
a.