(lp0
S'Feb 18, 2016 - Chipotle has been the brunt of jokes and hit by lawsuits, but some experts are predicting positive growth figures as early as the end of the year. (AP). On Sunday ...'
p1
aS'Feb 19, 2016 - The restaurant chain Chipotle is the target of another legal battle. ... Eyewitness News is not identifying the managers because they have not been charged with ...'
p2
aS"Feb 18, 2016 - Similarly, Hillary Clinton stopped at a Chipotle in Ohio to pick up a burrito bowl for lunch the day after announcing her presidential campaign. It's a safe bet to ..."
p3
aS'Feb 18, 2016 - "Young adults represent the largest share of Chipotle\'s overall traffic," said Bonnie ... Based on this pattern, if consumers aren\'t exposed to news about a food ...'
p4
aS"Feb 19, 2016 - Chipotle Mexican Grill (CMG) stock was initiated with a 'neutral' rating on Friday at ... Not based on the news in any given day, the rating may differ from Jim ..."
p5
aS'Feb 18, 2016 - If you have seen the news the last few weeks/months, then you probably heard or read about the disastrous E. coli outbreak at Chipotle Mexican Grill restaurants ...'
p6
aS'Feb 19, 2016 - Levi & Korsinsky notifies shareholders of Chipotle Mexican Grill Inc. of class action lawsuit.'
p7
aS'Feb 18, 2016 - ... a burrito, please. Supporters of Bernie Sanders are more likely to eat at Chipotle than the average American, a survey found. ... More News from MarketWatch.'
p8
aS'Feb 18, 2016 - Nomura Securities Starts Chipotle Mexican Grill (CMG) at Neutral. Article Stock Quotes ... For more ratings news on Chipotle Mexican Grill click here. Shares of ...'
p9
aS'Feb 18, 2016 - Chipotle Mexican Grill, Inc., No. 15-3952, N.D. ... Lexis Legal News ... California Federal Judge Tosses Suit Accusing Chipotle Of Failing To Stay GMO-Free.'
p10
a.