(lp0
S'Feb 22, 2016 - Home; / Local News. Chipotle employees forced into cooler during robbery ... The two men entered the Chipotle restaurant at 349 State Road in Dartmouth ...'
p1
aS"Feb 23, 2016 - Chipotle: The Complete History in About Three Minutes .... and Jack in the Box Inc., in a 2015 consumer survey by WD Partners and Nation's Restaurant News."
p2
aS'Feb 22, 2016 - WPRI 12 Eyewitness News on WPRI.com is Providence, New Bedford, Fall River ... (WPRI)  Police are investigating after a Chipotle restaurant in Dartmouth ...'
p3
aS'Feb 22, 2016 - Police said two men with semi-automatic guns entered the Chipotle restaurant at 349 State ... By MATT REED, NBC 10 NEWS Monday, February 22nd 2016 ...'
p4
aS'Feb 23, 2016 - Deutsche Bank downgraded shares of Chipotle on Tuesday, citing a lack of faith in ... Global Business and Financial News, Stock Quotes, and Market Data and ...'
p5
aS'Feb 23, 2016 - Deutsche Bank downgraded Chipotle Mexican Grill (NYSE: CMG) from Hold to Sell with a price ... For more ratings news on Chipotle Mexican Grill click here.'
p6
aS'Feb 23, 2016 - This post has been updated. Here is a parable about burritos. A few months ago, Chipotle was the darling of American dining. Its customers were loyal; its sales ...'
p7
aS'Feb 23, 2016 - Tony Merevick is Cities News Editor at Thrillist and recently enjoyed a nice burrito from Chipotle and it was a great as ever. Send news tips to news@thrillist.com ...'
p8
aS"Feb 22, 2016 - ... identifying two suspects in connection with an armed robbery at a Dartmouth Chipotle over the weekend. ... Cell Journalist; Meet the News Team; What's On."
p9
aS'Feb 22, 2016 - Chipotle in Dartmouth robbed at gunpoint (with videos) ... Social News ... wearing masks and brandishing semi-automatic guns, robbed Chipotle on State Road ...'
p10
a.