(lp0
S'Feb 24, 2016 - Deutsche Bank advised investors on Tuesday to sell their stock in Chipotle, fearing the burrito chain that built its reputation on high-quality, fresh.'
p1
aS"Feb 23, 2016 - Chipotle: The Complete History in About Three Minutes .... and Jack in the Box Inc., in a 2015 consumer survey by WD Partners and Nation's Restaurant News."
p2
aS'Feb 24, 2016 - Whole Foods might pick up some lost Chipotle sales.'
p3
aS'Feb 23, 2016 - Deutsche Bank downgraded shares of Chipotle on Tuesday, citing a lack of faith in ... Global Business and Financial News, Stock Quotes, and Market Data and ...'
p4
aS'Feb 23, 2016 - Deutsche Bank downgraded Chipotle Mexican Grill (NYSE: CMG) from Hold to Sell with a price ... For more ratings news on Chipotle Mexican Grill click here.'
p5
aS'Feb 23, 2016 - This post has been updated. Here is a parable about burritos. A few months ago, Chipotle was the darling of American dining. Its customers were loyal; its sales ...'
p6
aS'Feb 23, 2016 - Tony Merevick is Cities News Editor at Thrillist and recently enjoyed a nice burrito from Chipotle and it was a great as ever. Send news tips to news@thrillist.com ...'
p7
aS"Feb 24, 2016 - Deutsche Bank analyst is warning investors to sell shares of Chipotle Mexican Grill, Inc. (NYSE:CMG) stock on concerns of chain's recovery."
p8
aS'Feb 24, 2016 - The food safety scandal troubling the fast-casual restaurant chain Chipotle could ... The opportunity would be a bit of good news for Whole Foods, which has ...'
p9
aS'Feb 23, 2016 - News  U.S. News Home  Health  Facebook ... Chipotle restaurants have seen business decline as a result of food safety scares. By Chef Ann Cooper Feb.'
p10
a.