(lp0
S'Feb 24, 2016 - Deutsche Bank advised investors on Tuesday to sell their stock in Chipotle, fearing the burrito chain that built its reputation on high-quality, fresh.'
p1
aS'Feb 24, 2016 - Whole Foods might pick up some lost Chipotle sales.'
p2
aS'Feb 25, 2016 - Like Chipotle, Mast Brothers has been offering free food to customers during the ... In the case of Taco Bell, the commenters on news and food websites (such as ...'
p3
aS'Feb 24, 2016 - The food safety scandal troubling the fast-casual restaurant chain Chipotle could ... The opportunity would be a bit of good news for Whole Foods, which has ...'
p4
aS"Feb 25, 2016 - Chipotle stock is primed for a rebound now that it's operations are back to ... and it's going to catch Wall Street analysts off-guard -- which is great news for us."
p5
aS"Feb 24, 2016 - Deutsche Bank analyst is warning investors to sell shares of Chipotle Mexican Grill, Inc. (NYSE:CMG) stock on concerns of chain's recovery."
p6
aS"Feb 24, 2016 - Popular Restaurant Temporarily Closed; Chipotle Eyes Opening; Police Arrest Log: Branford's Top News. Police chief's raise leads to reaction by the RTM/ boat ..."
p7
aS"Feb 24, 2016 - Whole Foods Market should get some extra business from former Chipotle Mexican Grill customers, but it won't make a huge dent in the grocer's overall ..."
p8
aS'Feb 25, 2016 - Chipotle Mexican Grill traffic will likely improve in February, but its free-food giveaway weakened average check. ... See the latest news from NRN. Chipotle finds ...'
p9
aS'Feb 25, 2016 - This rendering showing the outline of a new Chipotle restaurant in Branford is on ... as it continues to rebound from national news of an E. Coli outbreak at some ...'
p10
a.