(lp0
S"Feb 4, 2016 - Lettuce pray! After weathering outbreaks of E. Coli, salmonella and norovirus in its restaurants  Chipotle has turned over a new leaf and now there's none left ..."
p1
aS"Feb 5, 2016 - From Yahoo Finance: The source of Chipotle's E. coli outbreak might have been tainted ... Consumer and retail news: 10 things you need to know today"
p2
aS'Feb 5, 2016 - WEST PALM BEACH - Chipotle is working to make its food safer after multiple outbreaks of food borne illness. ... The Consumer Watchdog found South Florida customers began complaining Chipotle made them sick after the outbreak. ... While nothing was discovered in South Florida, the state ...'
p3
aS'Feb 5, 2016 - More than 50 people were infected - all of it linked to Chipotle restaurants. ... Stay in touch anywhere, anytime with news, weather and video -- Download the ...'
p4
aS"Feb 5, 2016 - Chipotle's E. coli scare has been declared over, but still no one knows where the dangerous bacteria that landed 21 people in the hospital came from. Or at least ..."
p5
aS'Feb 4, 2016 - KMBC 9 News pulled 13 inspection reports from seven Chipotle stores since the announcement about the Shawnee cases last fall. While all seven stores in the ...'
p6
aS"Feb 5, 2016 - Civil Eats curates food news: this week, Chipotle blames Australian beef for food safety woes, Hellmann's eggless spread, and a new glyphosate study."
p7
aS"Feb 5, 2016 - See the latest news from NRN. On deck is the largest marketing campaign in Chipotle's history that will include significant use of freebies and discounts."
p8
aS'Feb 4, 2016 - Chipotle and Buffalo Wild Wings food poisoning issues means food might be safer ... The regular flow of news on how pathogens in our food are making us ...'
p9
aS'Feb 5, 2016 - Chipotle Mexican Grill Restaurants nationwide will close their doors for part of Monday for an ... Share your news tips, photos and video: share@abc15.com.'
p10
a.