(lp0
S'Mar 11, 2016 - Chipotle shaved the total compensation of co-CEOs Steve Ells and Monty Moran by roughly half in 2015, which was a brutal year ... 2016 Cable News Network.'
p1
aS'Mar 11, 2016 - Chipotle suspended exec bonuses after food borne illness outbreak.'
p2
aS'Mar 10, 2016 - (Photo credit should read PAUL J. RICHARDS/AFP/Getty Images) What sounded like bad news at first may be actually good news. Chipotle Mexican Grill Inc., [.'
p3
aS'Mar 10, 2016 - Chipotle Mexican Grill Inc received praise for its handling of potential norovirus infections at a Boston-area restaurant, as sick employees stayed home and the ...'
p4
aS'Mar 10, 2016 - Thanks for signing up! PEOPLE News; Great Ideas; StyleWatch; Pets; Moms & Babies; All ... Chipotle in Massachusetts Closed Amid Norovirus Fears. 0SHARES.'
p5
aS'Mar 11, 2016 - VIRGINIA BEACH, Va.  A Chipotle Mexican Grill temporarily closed during the lunchtime rush on Thursday to clean the restaurant. ... Filed in: News. Suggest a ...'
p6
aS'Mar 10, 2016 - See the latest news from NRN. Billerica is about 20 miles outside of Boston. No customers were reported to have fallen ill due to eating at the location. Chipotle ...'
p7
aS'Mar 10, 2016 - Chipotle shares are too expensive; buy them. ... upcoming trading sessions as the market digests the news," with the key word there perhaps being "digests.".'
p8
aS'Mar 10, 2016 - Another Chipotle Norovirus Outbreak Left 4 Sick And Forced A Shutdown. Food News 4 weeks ago. Isai Rocha. 7912 7882 8 0 0. Chipotle-Delivery. Chipotle ...'
p9
aS"Mar 11, 2016 - The sun shines over a temporarily closed Chipotle restaurant in Billerica, Massachusetts ... Thomson Reuters is the world's largest international multimedia news ..."
p10
a.