(lp0
S"Mar 16, 2016 - Chipotle's ongoing food safety problems are weighing on the company's financials. The restaurant chain is expecting to post its first ever quarterly loss as a ..."
p1
aS'Mar 17, 2016 - Chipotle is using free food to convince people its food is safe as it reportedly considers rolling back some of its food testing measures. (AP). Chipotle is giving ...'
p2
aS'Mar 16, 2016 - By March, Chipotle had mostly been out of the news for the better part of a month. Then workers at a different Massachusetts location got sick. Once again, the ...'
p3
aS'Mar 16, 2016 - Another change is coming to Chipotle: how the company cooks its steaks. A Chipotle spokesperson told ABC News the company is beginning to prepare the ...'
p4
aS"Mar 16, 2016 - Chipotle's latest bout of bad press was triggered by the parent of one of the ... of the public and Wall Street to any hint of bad news involving the burrito chain."
p5
aS'Mar 16, 2016 - "I saw all the news. I thought, \'I have to wait\'," said Trejo, 32. He used to eat at Chipotle Mexican Grill outlet near his job in downtown Los Angeles two to three ...'
p6
aS'Mar 16, 2016 - Detroit News ..... Chipotle uses free food to combat empty restaurants ... Chipotle is still giving away free burritos to convince people its food is safe and combat ...'
p7
aS'Mar 16, 2016 - Chipotle is giving away free burritos to combat the eeriness of empty stores and to ... Detroit News ..... Chipotle has freebies to fight eeriness of empty stores.'
p8
aS'Mar 16, 2016 - A rep confirmed to E! News, the stores shut down for one day to hold a national employee meeting. Why? To find a way out of this giant food fiasco, of course.'
p9
aS'Mar 16, 2016 - Chipotle could give away roughly 9 million burritos as it fights to win back ... Global Business and Financial News, Stock Quotes, and Market Data and Analysis.'
p10
a.