(lp0
S"Feb 29, 2016 - Jim Cramer likes shares of Chipotle Mexican Grill (CMG). ... Access to Jim Cramer's daily blog; Intraday commentary and news; Real-time trading forums."
p1
aS"Mar 1, 2016 - These 4 'Fast-Casual' Restaurant Stocks Are Beating Chipotle ... First, a look at Chipotle: ... Access to Jim Cramer's daily blog; Intraday commentary and news ..."
p2
aS'Feb 29, 2016 - Chipotle Mexican Grill (CMG) PT Raised to $590 at Piper Jaffray. Article Stock Quotes ... For more ratings news on Chipotle Mexican Grill click here. Shares of ...'
p3
aS'Feb 29, 2016 - Chipotle and Panera Bread have been announced as two of the businesses going into ... In that interview, Armel told the Lebanon Daily News that he and his ...'
p4
aS"Feb 29, 2016 - Here's Why Chipotle Mexican Grill, Inc Stock Has Rallied Higher Today ... In addition, ever since the outbreak hit the news, there has been a significant drop off ..."
p5
aS'Feb 29, 2016 - To communicate its food safety enhancement procedures and win back its customers, Chipotle Mexican Grill (CMG) is conducting aggressive marketing and ...'
p6
aS'Mar 1, 2016 - March 8 Deadline: Law Offices of Howard G. Smith Alerts Chipotle Mexican Grill, ... On this news shares of Chipotle fell an additional $13.93 per share, or nearly ...'
p7
aS'Feb 29, 2016 - Covered Call Alerts For Freeport-McMoRan, Chipotle Mexican Grill, The ... While many other market reports only provide stock news and opinion, we offer ...'
p8
aS'Mar 1, 2016 - Model and "The Fab Life" co-host Chrissy Teigen is sharing her love of cooking in her new book, "Cravings: Recipes for All the Food You Want to Eat." Try this ...'
p9
aS'Feb 29, 2016 - To help, supporters can eat at Chipotle and tell the cashier they are support Denton High LULAC. Chipotle will donate 50 percent of the total ticket to DHS ...'
p10
a.