(lp0
S'Mar 22, 2016 - Chipotle Mexican Grill may try to spin its February sales plunge as an ... So follow me on Facebook and Twitter for the most important industry news in retail and ...'
p1
aS"Mar 21, 2016 - Chipotle just can't stay out of the news. After revamping its food-safety procedures and then changing them back again, the chain was still hit with another ..."
p2
aS'Mar 21, 2016 - Digital photo hunt challenges players for a chance to win free chips and guac. DENVER --(BUSINESS WIRE)--Mar. 21, 2016-- Chipotle Mexican Grill (NYSE: ...'
p3
aS'Mar 21, 2016 - An offer for a free order of chips and guac at any Chipotle in the U.S. or ... This is certainly good news for guac lovers who normally cough up the extra two bucks ...'
p4
aS'Mar 21, 2016 - Chipotle is offering free chips and guacamole to those willing to kill about five minutes playing "Guac Hunter."'
p5
aS"Mar 21, 2016 - Chipotle fans, guacamole fans, those of you who just love free stuff, we have good news. Chipotle is once again giving away free food. This time, it's the chain's ..."
p6
aS'Mar 21, 2016 - Chipotle is offering a new online game that allows customers to score free orders of chips and guacamole at any ... Sign up for free daily business news emails ...'
p7
aS'Mar 21, 2016 - Chipotle is offering free chips and guacamole to patrons who play a game done in a partnership with ... Chipotle Back in the News With Restaurant Illness Issue.'
p8
aS"Mar 22, 2016 - Food Safety News reported that hundreds of Chipotle's customers were victims of six confirmed foodborne illness outbreaks in the second half of 2015."
p9
aS"Mar 22, 2016 - Chipotle Mexican Grill wants customers back, and it's prepared to woo them with every tool in its arsenal  er, item on its menu. ... More News from MarketWatch."
p10
a.