(lp0
S'Mar 23, 2016 - The only thing longer than the lunchtime lines at your local Chipotle Mexican Grill, it seems, is the line of employees who have queued up to sue the burrito ...'
p1
aS'Mar 24, 2016 - Union Plans Chipotle Protests, Saying Diners Are Still at Risk ... to demonstrate outside two Chipotle stores today at noon local time, reports Food Safety News.'
p2
aS'Mar 23, 2016 - Advocates plan protests for high noon Thursday at two Chipotle Mexican Grill ... bird feces near food production lines, according to the Teamsters news release.'
p3
aS'Mar 23, 2016 - They said the good news was that sales across their 2,000 restaurants in ... James Marsden, executive director for food safety at Chipotle Mexican Grill Inc.'
p4
aS'Mar 23, 2016 - Community advocates have planned to protest outside two Chipotle restaurants in California over food safety concerns, according to a news release.'
p5
aS"Mar 23, 2016 - First, the good news: Chipotle makes a very decent margarita. Ayrouth ranks it as one of the best he's ever had, and they're only $4.79. But the cashier did not ..."
p6
aS'Mar 24, 2016 - Chipotle co-CEOs see compensation fall by half because of e.coli, taking in almost $14 million each instead of more than ... News; Popular; Videos; Fortune 500 ...'
p7
aS'Mar 24, 2016 - Community Groups Raise Concerns About Chipotle Supplier Taylor Farms, Citing Poor ... Teamster Nation News is your weekly stop for key Teamster news for ...'
p8
aS'Mar 24, 2016 - Chipotle Mexican Grill, the popular burrito-building restaurant chain, is coming to Abilene sometime in the fourth quarter of the year, a spokesperson confirmed ...'
p9
aS'Mar 23, 2016 - Opinion: The case for buying Chipotle (both the guac and the stock) ... Then the Boston-area norovirus news hit March 8, reversing some of the gains. That was a ...'
p10
a.