(lp0
S'Mar 29, 2016 - The investment firm said that Chipotle will not recover its sales loss from the .... Global Business and Financial News, Stock Quotes, and Market Data and ...'
p1
aS'Mar 30, 2016 - Chipotle Mexican Grill said Wednesday it has applied for a trademark for "Better Burger" as part of a business diversification move to open a burger restaurant ...'
p2
aS'Mar 30, 2016 - Chipotle is considering launching a new chain of restaurants called Better Burger. ... 2016 Cable News Network. A Time Warner Company. All Rights Reserved.'
p3
aS"Mar 30, 2016 - A new fast-casual burger chain would bring fresh competition to Five Guys Burgers & Fries, Smashburger and Shake Shack Inc. News of Chipotle's Better ..."
p4
aS'Mar 30, 2016 - Burrito chain Chipotle is now taking a look at the burger business. ... The filing, which was first reported by Bloomberg News, suggests Chipotle could be ...'
p5
aS'Mar 30, 2016 - Chipotle may launch a burger chain, and has filed for an application to trademark "Better ... Bloomberg News first reported on the Better Burger application.'
p6
aS"Mar 30, 2016 - A new fast-casual burger chain would bring fresh competition to Five Guys Burgers & Fries, Smashburger and Shake Shack Inc. News of Chipotle's Better ..."
p7
aS"Mar 29, 2016 - March isn't over, and that's more bad news for investors in the struggling burrito ... Chipotle stock opened lower this morning after its latest analyst downgrade."
p8
aS'Mar 30, 2016 - Chipotle Mexican Grill may be gearing up to bite the hand that birthed it. The fast-casual burrito chain has filed a trademark application for Better Burger  and ...'
p9
aS'Mar 30, 2016 - Chipotle Mexican Grill is developing a new burger chain called Better Burger, ... in the worlds of diversified media, news, education, and information services.'
p10
a.