(lp0
S"Mar 3, 2016 - The soup and sandwich chain says it's not benefiting from Chipotle's woes. ... And that could be good news for another leader of the so-called fast casual dining ..."
p1
aS'Mar 3, 2016 - According to Zackfia\'s note, the survey "suggests that Chipotle\'s recovery .... Global Business and Financial News, Stock Quotes, and Market Data and Analysis.'
p2
aS'Mar 2, 2016 - Chipotle restaurants fell from first place to second as the favorite for teens. .... You will find the latest news, market analysis, and education to help you become a ...'
p3
aS'Mar 2, 2016 - CMG Stock Chipotle Mexican Grill, Inc. (NYSE:CMG) stock is starting to recover from the devastating E. coli outbreaks that hit its restaurants last October.'
p4
aS'Mar 2, 2016 - Chipotle (CMG) shares are getting a boost on Wednesday after CLSA upped its price ... Not based on the news in any given day, the rating may differ from Jim ...'
p5
aS'Mar 2, 2016 - WJBF News Channel 6 has learned that a new Chipotle restaurant is set to open in Aiken on March 18th.'
p6
aS'Mar 3, 2016 - Chipotle Mexican Grill Inc has hired Burson-Marsteller as its U.S. agency of recordas it works to recover from a string of ... Our top news photography this week.'
p7
aS'Mar 2, 2016 - A local developer plans to bring another Chipotle and Noodles & Company to York.'
p8
aS'Mar 2, 2016 - Chipotle Mexican Grill Inc. (CMG) has had a rough year when it comes to food ... saying that closing every restaurant "makes for a good news story," but he says ...'
p9
aS'Mar 2, 2016 - ALWAYS ON: Click here to watch our streaming news channel. Good Day Gourmet: Shrimp Lettuce Wraps with Chipotle-Lime Dressing ... 1 small clove garlic, finely minced; 3/4 tsp. Chipotle powder; 2 tbs. sour cream; Salt & pepper, to taste.'
p10
a.