(lp0
S'Mar 3, 2016 - According to Zackfia\'s note, the survey "suggests that Chipotle\'s recovery .... Global Business and Financial News, Stock Quotes, and Market Data and Analysis.'
p1
aS'Mar 4, 2016 - Some positive news for Chipotle-land: Financial analysts say the situation is finally looking up for the burrito chain. The latest survey, by investment company ...'
p2
aS"Mar 3, 2016 - The soup and sandwich chain says it's not benefiting from Chipotle's woes. ... And that could be good news for another leader of the so-called fast casual dining ..."
p3
aS'Mar 4, 2016 - After customers avoided Chipotle after an E. Coli outbreak at the fast casual Mexican food chain, they show signs of ... News; Popular; Videos; Fortune 500 ...'
p4
aS"Mar 4, 2016 - What: Casual-dining giant Chipotle's (NYSE:CMG) stock rose 12% in February, ... That good news was followed closely by a Q4 earnings report from the ..."
p5
aS'Mar 4, 2016 - As part of its charm offensive, Chipotle doubled the amount of free food .... TakePart  a digital news & lifestyle magazine and social action platform for the ...'
p6
aS'Mar 4, 2016 - Chipotle Mexican Grill Inc. has hired a new public relations firm and customers appear willing to head back to the ... Industry News Retailing & Restaurants ...'
p7
aS'Mar 3, 2016 - Chipotle Mexican Grill Inc has hired Burson-Marsteller as its U.S. agency of recordas it works to recover from a string of ... Our top news photography this week.'
p8
aS'Mar 4, 2016 - Chipotle Mexican Grill (CMG) stock is advancing after the company hired a PR firm to ... Not based on the news in any given day, the rating may differ from Jim ...'
p9
aS"Mar 4, 2016 - Branford brings Chipotle to the table with last night's approval for a ... at this story:http://www.zip06.com/news/20160225/chipotle-blazing-a-trail-into-branford ..."
p10
a.