(lp0
S'Mar 7, 2016 - Credit Suisse revealed on Monday that it is lowering its forecasts Chipotle, ... Global Business and Financial News, Stock Quotes, and Market Data and Analysis.'
p1
aS'Mar 7, 2016 - Since William Blair started surveys of about 800 adults in November 2015 and as news of the E. coli cases broke, traffic at Chipotle dropped. The restaurant ...'
p2
aS'Mar 7, 2016 - Chipotle Mexican Grill is up at midday trade Monday but still lying nearly 30% below .... You will find the latest news, market analysis, and education to help you ...'
p3
aS'Mar 7, 2016 - Apple and Ambarella both had their price targets cut, while Chipotle Mexican Grill got ... You will find the latest news, market analysis, and education to help you ...'
p4
aS'Mar 7, 2016 - After the food safety issues in the latter half of 2015, Chipotle Mexican Grill (NYSE: CMG) not only faced a decline in customer traffic and comparable store sales ...'
p5
aS'Mar 7, 2016 - Text This Number Right Now And Get FREE CHIPOTLE. Food News 1 month ago. Isai Rocha. chipotle. WHO: Chipotle "Mexican" Grill. WHAT: Text "Raincheck" ...'
p6
aS"Mar 7, 2016 - Berkeley's News | The Daily Californian ... Sushinista: Chipotle for sushi burritos ... But Sushinista differentiates itself because it operates like a Chipotle for ..."
p7
aS'Mar 7, 2016 - A public relations and communications manager for Chipotle has confirmed they are opening a store in Cape Coral. . Fort Myers, Cape Coral, Naples news, ...'
p8
aS'Mar 7, 2016 - Chipotle Mexican Grill (NYSE:CMG) and Panera Bread (NASDAQ:PNRA) are Foolish favorites that have beaten the S&P 500 over the past five years and are far ...'
p9
aS'Mar 7, 2016 - The stock is up 0.33% or $1.74 after the news, hitting $530.39 per share. About 354,474 shares traded hands. Chipotle Mexican Grill, Inc. (NYSE:CMG) has ...'
p10
a.