(lp0
S'Mar 9, 2016 - Chipotle Mexican Grill Inc received praise for its handling of potential norovirus ... "The publicity around this news announcement will be another negative ...'
p1
aS'Mar 9, 2016 - Chipotle Mexican Grill temporarily shut a restaurant in Massachusetts after four employees got sick, the latest issue for the chain as it tries to recover from a ...'
p2
aS'Mar 9, 2016 - A Chipotle restaurant near Boston closed on Tuesday after four employees fell sick, Bloomberg ..... How Fox News Unwittingly Destroyed the Republican Party ...'
p3
aS'Mar 9, 2016 - After learning of the health risk from the television news station, the Billerica Board of Health sent an inspector to the Chipotle store, which had already opened ...'
p4
aS'Mar 9, 2016 - A Boston-area Chipotle closed after several employees fell sick and one tested positive ... This is the latest incident in a string of bad health-safety news for the ...'
p5
aS'Mar 9, 2016 - Chipotle Mexican Grill Inc which is trying to recover from a series of ... People that comment on Fox News are super obnoxious compared to most other news ...'
p6
aS'Mar 9, 2016 - From Yahoo: A Massachusetts Chipotle restaurant has voluntarily shut down after four ... was closed for a full sanitization," a Chipotle spokesman told ABC News.'
p7
aS'Mar 9, 2016 - The closure of the Chipotle in Billerica, Massachusetts, was seen as a test of a .... Minister Oommen Chandy told NDTV news network, after officials earlier put ...'
p8
aS'Mar 8, 2016 - A Chipotle restaurant in Billerica voluntarily closes its doors Tuesday after an ... Home; / Local News ... Chipotle connected to norovirus outbreak reopened.'
p9
aS'Mar 8, 2016 - A Chipotle Mexican Grill restaurant in Massachusetts closed today because an employee ... (To sign up for a free subscription to Food Safety News, click here.).'
p10
a.