(lp0
S"Mar 31, 2016 - If you had beef with Chipotle's E. coli scandal, just wait till you get a taste its new venture."
p1
aS'Mar 31, 2016 - Chipotle has applied for a trademark for "Better Burger" as part of a business .... We are vegetarians & live at Chipotle..needless to say that news of the burger ...'
p2
aS'Mar 31, 2016 - "We are encouraged by the progress" these conce4pts are making, Chipotle spokesperson Chris Arnold told ABC News. "They are serving delicious food and ...'
p3
aS'Apr 1, 2016 - The news, which was confirmed by Chipotle  "it\'s a growth seed idea we are exploring," company spokesman Chris Arnold told Bloomberg on Wednesday ...'
p4
aS'Mar 31, 2016 - Chipotle Mexican Grill confirmed on Wednesday that it filed a trademark application for "Better Burger," ... News of the filing was first reported by Bloomberg.'
p5
aS'Mar 31, 2016 - Chipotle Mexican Grill could be considering entering the hamburger business ... Home / Business News ... As customers abandoned Chipotle, its stock price fell.'
p6
aS'Mar 31, 2016 - If you\'re Chipotle , you get... Money News Summaries. ... Chipotle filed a trademark application for the name "Better Burger" this month, with a spokesperson ...'
p7
aS"Apr 1, 2016 - Chipotle stock will be under pressure as consumers won't be so quick to ... The good news is that with $1.285 billion in cash and investments and zero debt, ..."
p8
aS'Mar 31, 2016 - DENVER  Chipotle Mexican Grill filed a trademark application for Better Burger on March 11, according to the U.S. Patent and Trademark Office web site, ...'
p9
aS'Apr 1, 2016 - Goldsboro News-Argus: Covering Wayne County since 1885 ... Goldsboro will soon be getting a Chipotle and a Vitamin Shoppe that will be part of a new ...'
p10
a.