(lp0
S'Apr 4, 2016 - When Chipotle (CMG) was coping with a rash of foodborne illnesses in January, Bloomberg noted that Wall Street was "struggling to figure out if the worst is ...'
p1
aS'Apr 3, 2016 - However, the trend worsened again in the second week of March, with comp sales declining 27.3%. This was likely caused by news that a Chipotle restaurant in ...'
p2
aS'Apr 4, 2016 - Just days after announcing that it may be moving into the premium burger market, Chipotle has started to woo customers with brand new boozy offerings.'
p3
aS"Apr 4, 2016 - Indeed, CMG stock investors are bracing for the slightest of good news in Chipotle's food safety crisis. Investors need a reason to hold on, to keep the stock in ..."
p4
aS'Apr 4, 2016 - BREAKING NEWS Deputies searching for driver in deadly hit and run. Full Story ... High winds toppled the Chipotle sign over the weekend. The driver said he ...'
p5
aS'Apr 4, 2016 - ... quickly and accurately delivers business and financial information, news and .... As Chipotle tries to recover from a food-safety crisis, its competitors are no ... a menu of similarities between it and Chipotle: aggressive growth, an elevated ...'
p6
aS"Apr 4, 2016 - On April 1st, when big-ticket news organizations were covering Chipotle's efforts to introduce alcoholic beverages with integrity, GrubStreet's ended its article ..."
p7
aS"Apr 4, 2016 - On April 1st, when big-ticket news organizations were covering Chipotle's efforts to introduce alcoholic beverages with integrity, GrubStreet's ended its article ..."
p8
aS'Apr 3, 2016 - Local news from Indianapolis, Ind. reports that a strong wind blew over a massive brick sign in front of a Chipotle restaurant there, crushing a Honda Accord that ...'
p9
aS'Apr 3, 2016 - Strong winds knocked over a brick sign at a Chipotle in Nora, and it fell onto a car as the ... RTV6 TheIndyChannel.com has breaking news in Indianapolis, Indiana.'
p10
a.