(lp0
S"Apr 8, 2016 - Public perception on Chipotle's (CMG - Get Report) food safety may be slowly ... But following news of the fresh norovirus issue at the Boston restaurant which ..."
p1
aS'Apr 8, 2016 - Updated news for Chipotle Mexican Grill Inc. - including CMG company news, press releases and other industry & stock market news.'
p2
aS'Apr 8, 2016 - Chipotle has won over our hearts with their delicious burritos, but now, their famous guacamole might be sandwiched between burger buns too. According to ...'
p3
aS'Apr 8, 2016 - Chipotle Mexican Grill, Inc. (CMG) News  Find the latest company news headlines for Chipotle Mexican Grill, Inc. and all the companies you research at ...'
p4
aS'Apr 9, 2016 - Finance. Change the date range, chart type and compare Chipotle Mexican Grill, Inc. Co against other companies. ... News & Info. Headlines  Press Releases ...'
p5
aS'Apr 9, 2016 - Find out the latest news headlines for Chipotle Mexican Grill, Inc. Co (CMG).'
p6
aS'Apr 8, 2016 - On Apr 6 @Jassiel_Macias tweeted: "Nice fellow #Chipotle https://t.co/nO.." - read what others are saying and join the conversation.'
p7
aS'Apr 7, 2016 - Whether knowingly or unknowingly, Chipotle has adopted similar successful moves used by the iconic Starbucks when facing adversity.But there are other ...'
p8
aS'Apr 7, 2016 - Chipotle Mexican Grill, Inc. (NYSE:CMG) filed a patent for. ... Stock Market News; >; Should You Be Excited About The Chipotle Mexican Grill, Inc. Burger ...'
p9
aS'Apr 8, 2016 - Just after I finished writing that article on why Chipotle Mexican Grill, Inc. (CMG) has a massive PR problem on its hands, and that Chipotle stock may have seen ...'
p10
a.