(lp0
S'The New York Times'
p1
aS'Forbes'
p2
aS'San Antonio ExpressNews'
p3
aS'San Antonio ExpressNews'
p4
aS'San Antonio ExpressNews'
p5
aS'San Antonio ExpressNews'
p6
aS'Voice of America'
p7
aS'Saint Louis University'
p8
a.