(lp0
S'Environmental Leader'
p1
aS'San Antonio ExpressNews'
p2
aS'San Antonio ExpressNews'
p3
aS'Seattle Seahawks'
p4
aS'San Angelo StandardTimes'
p5
aS'San Angelo StandardTimes'
p6
aS'Dave Thomas Foundation for Adoption'
p7
a.