(lp0
S'Grist'
p1
aS'Los Angeles Times'
p2
aS'San Antonio ExpressNews'
p3
aS'San Antonio ExpressNews'
p4
aS'San Antonio ExpressNews'
p5
aS'San Antonio ExpressNews'
p6
aS'San Antonio ExpressNews'
p7
aS'Amarillo GlobeNews'
p8
a.