(lp0
S'Memphis Flyer'
p1
aS'Ethanol Producer Magazine'
p2
aS'NBCNews.com'
p3
aS'Consumer Reports'
p4
aS'ADVFN'
p5
aS'Aspen Technology'
p6
aS'San Antonio ExpressNews'
p7
aS'San Antonio ExpressNews'
p8
aS'KQED'
p9
aS'Politico'
p10
a.