(lp0
S'San Antonio ExpressNews'
p1
aS'San Antonio ExpressNews'
p2
aS'San Antonio ExpressNews'
p3
aS'KENS'
p4
aS'East Bay Express'
p5
aS'East Bay Express'
p6
aS'The Wall Street Journal'
p7
aS'United Nations'
p8
aS'Abilene ReporterNews'
p9
a.