(lp0
S'The TimesPicayune'
p1
aS'CNET'
p2
aS'San Antonio ExpressNews'
p3
aS'San Antonio ExpressNews'
p4
aS'San Antonio ExpressNews'
p5
aS'San Antonio ExpressNews'
p6
aS'East Bay Express'
p7
aS'Forbes'
p8
a.