(lp0
S'San Antonio ExpressNews'
p1
aS'San Antonio ExpressNews'
p2
aS'San Antonio ExpressNews'
p3
aS'San Antonio ExpressNews'
p4
aS'East Bay Express'
p5
aS'East Bay Express'
p6
aS'East Bay Express'
p7
aS'San Angelo StandardTimes'
p8
a.