(lp0
S'San Antonio ExpressNews'
p1
aS'San Antonio ExpressNews'
p2
aS'San Antonio ExpressNews'
p3
aS'San Antonio ExpressNews'
p4
aS'Voice of America'
p5
aS'The Daily Telegraph'
p6
aS'Roger Ebert'
p7
a.