(lp0
S'The Huffington Post'
p1
aS'San Antonio ExpressNews'
p2
aS'San Antonio ExpressNews'
p3
aS'San Antonio ExpressNews'
p4
aS'Voice of America'
p5
aS'Mercuria Energy Group'
p6
aS'News & Review'
p7
aS'San Angelo StandardTimes'
p8
a.