(lp0
S'Ethanol Producer Magazine'
p1
aS'Natural Resources Defense Council'
p2
aS'San Antonio ExpressNews'
p3
aS'San Antonio ExpressNews'
p4
aS'San Antonio ExpressNews'
p5
aS'San Antonio ExpressNews'
p6
aS'The Guardian'
p7
a.