(lp0
S'Bloomberg L.P.'
p1
aS'National Geographic Society'
p2
aS'San Antonio ExpressNews'
p3
aS'San Antonio ExpressNews'
p4
aS'San Antonio ExpressNews'
p5
aS'San Antonio ExpressNews'
p6
aS'San Antonio ExpressNews'
p7
aS'United States Department of Energy'
p8
aS'San Angelo StandardTimes'
p9
a.