(lp0
S'San Antonio ExpressNews'
p1
aS'San Antonio ExpressNews'
p2
aS'KPBS'
p3
aS'San Francisco Chronicle'
p4
aS'East Bay Express'
p5
aS'East Bay Express'
p6
aS'Federation of American Scientists'
p7
aS'Roger Ebert'
p8
a.