(lp0
S'National Geographic Society'
p1
aS'The Huffington Post'
p2
aS'DeSmogBlog'
p3
aS'Union of Concerned Scientists'
p4
aS'San Antonio ExpressNews'
p5
aS'San Antonio ExpressNews'
p6
aS'King & Spalding'
p7
aS'Los Angeles Times'
p8
aS'Hybridcars.com'
p9
a.