(lp0
S'Electric Reliability Council of Texas'
p1
aS'Electric Reliability Council of Texas'
p2
aS'San Antonio ExpressNews'
p3
aS'San Antonio ExpressNews'
p4
aS'San Antonio ExpressNews'
p5
aS'San Antonio ExpressNews'
p6
aS'San Jose Mercury News'
p7
aS'Seattle Seahawks'
p8
aS'John F. Kennedy School of Government'
p9
a.