(lp0
S'San Antonio ExpressNews'
p1
aS'San Antonio ExpressNews'
p2
aS'San Antonio ExpressNews'
p3
aS'San Antonio ExpressNews'
p4
aS'San Antonio ExpressNews'
p5
aS'Oil & Gas Journal'
p6
aS'Aspen Institute'
p7
aS'Voice of America'
p8
a.