(lp0
S'CNNMoney'
p1
aS'Qteros'
p2
aS'U.S. News & World Report'
p3
aS'U.S. News & World Report'
p4
aS'San Antonio ExpressNews'
p5
aS'San Antonio ExpressNews'
p6
aS'ThinkProgress'
p7
aS'East Bay Express'
p8
a.