(lp0
S'San Antonio ExpressNews'
p1
aS'San Antonio ExpressNews'
p2
aS'San Antonio ExpressNews'
p3
aS'Intercontinental Exchange'
p4
aS'Defense Industry Daily'
p5
aS'San Angelo StandardTimes'
p6
aS'San Angelo StandardTimes'
p7
aS"Hoover's"
p8
a.