(lp0
S'East Bay Express'
p1
aS'East Bay Express'
p2
aS'East Bay Express'
p3
aS'San Antonio ExpressNews'
p4
aS'KQED'
p5
aS'American Chemical Society'
p6
aS'Texas Music Educators Association'
p7
aS'MareNostrum'
p8
a.