(lp0
S'San Antonio ExpressNews'
p1
aS'San Antonio ExpressNews'
p2
aS'San Antonio ExpressNews'
p3
aS'San Antonio ExpressNews'
p4
aS'Bloomberg L.P.'
p5
aS'Center for American Progress'
p6
aS'Golf Digest'
p7
aS'ProPublica'
p8
a.