(lp0
S'NPR'
p1
aS'The Huffington Post'
p2
aS'Environmental Leader'
p3
aS'DeSmogBlog'
p4
aS'Union of Concerned Scientists'
p5
aS'San Antonio ExpressNews'
p6
aS'King & Spalding'
p7
aS'Los Angeles Times'
p8
a.