(lp0
S'Los Angeles Times'
p1
aS'San Antonio ExpressNews'
p2
aS'San Antonio ExpressNews'
p3
aS'Phoenix New Times'
p4
aS'The Plain Dealer'
p5
aS'San Angelo StandardTimes'
p6
aS'CNN International'
p7
aS'American Chemical Society'
p8
a.