(lp0
S'San Antonio ExpressNews'
p1
aS'San Antonio ExpressNews'
p2
aS'San Antonio ExpressNews'
p3
aS'San Antonio ExpressNews'
p4
aS'Legacy.com'
p5
aS'Center for Public Integrity'
p6
aS'The New York Times'
p7
a.