(lp0
S'United States Department of State'
p1
aS'Renewable Energy World'
p2
aS'San Antonio ExpressNews'
p3
aS'San Antonio ExpressNews'
p4
aS'San Antonio ExpressNews'
p5
aS'San Antonio ExpressNews'
p6
aS'San Antonio ExpressNews'
p7
aS'East Bay Express'
p8
aS'East Bay Express'
p9
aS'American Chemical Society'
p10
a.