(lp0
S'Houston Chronicle'
p1
aS'The New York Times'
p2
aS'San Francisco Chronicle'
p3
aS'NUVO'
p4
aS'San Antonio ExpressNews'
p5
aS'San Antonio ExpressNews'
p6
aS'San Antonio ExpressNews'
p7
aS'Akin Gump Strauss Hauer & Feld'
p8
aS'East Bay Express'
p9
a.