(lp0
S'Houston Chronicle'
p1
aS'Investigative Reporting Workshop'
p2
aS'San Angelo StandardTimes'
p3
aS'San Angelo StandardTimes'
p4
aS'Voice of America'
p5
aS'Energy Transfer Partners'
p6
aS'United States Citizenship and Immigration Services'
p7
aS'American Chemical Society'
p8
aS'Discover'
p9
a.