(lp0
S'San Antonio ExpressNews'
p1
aS'San Antonio ExpressNews'
p2
aS'San Antonio ExpressNews'
p3
aS'San Antonio ExpressNews'
p4
aS'ThinkProgress'
p5
aS'Grist'
p6
aS'San Angelo StandardTimes'
p7
aS'The New York Times'
p8
a.