(lp0
S'Bloomberg L.P.'
p1
aS'CBS News'
p2
aS'San Antonio ExpressNews'
p3
aS'San Antonio ExpressNews'
p4
aS'San Antonio ExpressNews'
p5
aS'San Antonio ExpressNews'
p6
aS'San Antonio ExpressNews'
p7
aS'The Plain Dealer'
p8
aS'East Bay Express'
p9
a.