(lp0
S'The Guardian'
p1
aS'San Antonio ExpressNews'
p2
aS'San Antonio ExpressNews'
p3
aS'San Antonio ExpressNews'
p4
aS'InsideClimate News'
p5
aS'San Angelo StandardTimes'
p6
aS'San Angelo StandardTimes'
p7
aS'Valley Morning Star'
p8
a.