(lp0
S'Electric Reliability Council of Texas'
p1
aS'Chicago Bridge & Iron Company'
p2
aS'San Antonio ExpressNews'
p3
aS'San Antonio ExpressNews'
p4
aS'San Antonio ExpressNews'
p5
aS'San Antonio ExpressNews'
p6
aS'San Jose Mercury News'
p7
aS'East Bay Express'
p8
aS'Seattle Seahawks'
p9
a.