(lp0
S'InsideClimate News'
p1
aS'San Antonio ExpressNews'
p2
aS'San Antonio ExpressNews'
p3
aS'San Antonio ExpressNews'
p4
aS'East Bay Express'
p5
aS'East Bay Express'
p6
aS'University of Texas at San Antonio'
p7
aS'Voice of America'
p8
a.