(lp0
S'Morningstar, Inc.'
p1
aS'Seattle Seahawks'
p2
aS'San Antonio ExpressNews'
p3
aS'San Antonio ExpressNews'
p4
aS'San Antonio ExpressNews'
p5
aS'San Antonio ExpressNews'
p6
aS'San Antonio ExpressNews'
p7
aS'San Antonio ExpressNews'
p8
aS'San Antonio ExpressNews'
p9
aS'San Angelo StandardTimes'
p10
a.