(lp0
S'San Antonio ExpressNews'
p1
aS'San Antonio ExpressNews'
p2
aS'San Antonio ExpressNews'
p3
aS'Occupational Safety and Health Administration'
p4
aS'San Angelo StandardTimes'
p5
aS'American Chemical Society'
p6
a.