(lp0
S'San Antonio ExpressNews'
p1
aS'San Antonio ExpressNews'
p2
aS'San Antonio ExpressNews'
p3
aS'The Wall Street Journal'
p4
aS'East Bay Express'
p5
aS'East Bay Express'
p6
aS'San Angelo StandardTimes'
p7
a.