(lp0
S'InsideClimate News'
p1
aS'Google'
p2
aS'Bloomberg L.P.'
p3
aS'San Antonio ExpressNews'
p4
aS'San Antonio ExpressNews'
p5
aS'San Antonio ExpressNews'
p6
aS'San Antonio ExpressNews'
p7
aS'San Antonio ExpressNews'
p8
aS'Abengoa Solar'
p9
aS'East Bay Express'
p10
a.