(lp0
S'San Antonio ExpressNews'
p1
aS'San Antonio ExpressNews'
p2
aS'San Antonio ExpressNews'
p3
aS'San Antonio ExpressNews'
p4
aS'Oil & Gas Journal'
p5
aS'Milwaukee Journal Sentinel'
p6
aS'Yelp'
p7
a.