(lp0
S'San Antonio ExpressNews'
p1
aS'San Antonio ExpressNews'
p2
aS'San Antonio ExpressNews'
p3
aS'Baker Botts'
p4
aS'East Bay Express'
p5
aS'East Bay Express'
p6
aS'The Daily Telegraph'
p7
aS'Mediaite'
p8
a.