(lp0
S'San Francisco Chronicle'
p1
aS'Seeking Alpha'
p2
aS'San Antonio ExpressNews'
p3
aS'San Antonio ExpressNews'
p4
aS'The Commercial Appeal'
p5
aS'KCBD'
p6
aS'East Bay Express'
p7
aS'The Texas Observer'
p8
a.