(lp0
S'Santa Barbara Independent'
p1
aS'San Antonio ExpressNews'
p2
aS'San Antonio ExpressNews'
p3
aS'San Antonio ExpressNews'
p4
aS'San Antonio ExpressNews'
p5
aS'San Antonio ExpressNews'
p6
aS'Grist'
p7
aS'East Bay Express'
p8
aS'The Des Moines Register'
p9
a.