(lp0
S'The TimesPicayune'
p1
aS'The Christian Science Monitor'
p2
aS'San Antonio ExpressNews'
p3
aS'San Antonio ExpressNews'
p4
aS'San Antonio ExpressNews'
p5
aS'San Antonio ExpressNews'
p6
aS'University of Texas at San Antonio College of Business'
p7
a.