(lp0
S'The Advocate'
p1
aS'San Francisco Chronicle'
p2
aS'The Wall Street Journal'
p3
aS'The Huffington Post'
p4
aS'San Antonio ExpressNews'
p5
aS'San Antonio ExpressNews'
p6
aS'San Antonio ExpressNews'
p7
aS'San Antonio ExpressNews'
p8
a.