(lp0
S'Chicago Bridge & Iron Company'
p1
aS'San Antonio ExpressNews'
p2
aS'San Antonio ExpressNews'
p3
aS'San Antonio ExpressNews'
p4
aS'San Antonio ExpressNews'
p5
aS'San Antonio ExpressNews'
p6
aS'East Bay Express'
p7
aS'ScienceBlogs'
p8
a.