(lp0
S'Burns & McDonnell'
p1
aS'San Antonio ExpressNews'
p2
aS'San Antonio ExpressNews'
p3
aS'San Antonio ExpressNews'
p4
aS'San Antonio ExpressNews'
p5
aS'San Antonio ExpressNews'
p6
aS'San Antonio ExpressNews'
p7
aS'Greentech Media'
p8
aS'East Bay Express'
p9
aS'East Bay Express'
p10
a.