(lp0
S'Burns & McDonnell'
p1
aS'San Antonio ExpressNews'
p2
aS'San Antonio ExpressNews'
p3
aS'San Antonio ExpressNews'
p4
aS'Greentech Media'
p5
aS'Voice of America'
p6
aS'Yellowpages.com'
p7
aS'Royal Dutch Shell'
p8
a.