(lp0
S'PGA TOUR'
p1
aS'San Antonio ExpressNews'
p2
aS'San Antonio ExpressNews'
p3
aS'San Antonio ExpressNews'
p4
aS'San Antonio ExpressNews'
p5
aS'The Dallas Morning News'
p6
aS'Greentech Media'
p7
a.