(lp0
S'San Antonio ExpressNews'
p1
aS'San Antonio ExpressNews'
p2
aS'San Antonio ExpressNews'
p3
aS'United Nations'
p4
aS'Morningstar, Inc.'
p5
aS'The Wall Street Journal'
p6
aS'San Angelo StandardTimes'
p7
aS'Roger Ebert'
p8
aS'National Board of Boiler and Pressure Vessel Inspect...'
p9
a.