(lp0
S'NJ.com'
p1
aS'Reuters'
p2
aS'Amarillo GlobeNews'
p3
aS'San Antonio ExpressNews'
p4
aS'Oil & Gas Journal'
p5
aS'The American Lawyer'
p6
aS'Voice of America'
p7
aS'San Angelo StandardTimes'
p8
a.