(lp0
S'San Antonio ExpressNews'
p1
aS'San Antonio ExpressNews'
p2
aS'American Chemical Society'
p3
aS'Wikipedia'
p4
aS'San Angelo StandardTimes'
p5
aS'San Angelo StandardTimes'
p6
aS'San Angelo StandardTimes'
p7
aS'San Angelo StandardTimes'
p8
a.