(lp0
S'Google'
p1
aS'San Antonio ExpressNews'
p2
aS'San Antonio ExpressNews'
p3
aS'San Antonio ExpressNews'
p4
aS'East Bay Express'
p5
aS'East Bay Express'
p6
aS'East Bay Express'
p7
aS'Milwaukee Journal Sentinel'
p8
a.