(lp0
S'San Antonio ExpressNews'
p1
aS'San Antonio ExpressNews'
p2
aS'San Antonio ExpressNews'
p3
aS'United Steelworkers'
p4
aS'The Scranton TimesTribune'
p5
aS'East Bay Express'
p6
aS'East Bay Express'
p7
aS'East Bay Express'
p8
aS'The Texas Observer'
p9
a.