(lp0
S'University of Texas at San Antonio'
p1
aS'Ethanol Producer Magazine'
p2
aS'San Antonio ExpressNews'
p3
aS'San Antonio ExpressNews'
p4
aS'Natural Resources Defense Council'
p5
aS'The Guardian'
p6
aS'East Bay Express'
p7
a.