(lp0
S'San Antonio ExpressNews'
p1
aS'San Antonio ExpressNews'
p2
aS'San Antonio ExpressNews'
p3
aS'San Antonio ExpressNews'
p4
aS'San Antonio ExpressNews'
p5
aS'East Bay Express'
p6
aS'United States Department of Energy'
p7
a.