(lp0
S'National Geographic Society'
p1
aS'San Antonio ExpressNews'
p2
aS'San Antonio ExpressNews'
p3
aS'San Antonio ExpressNews'
p4
aS'Los Angeles Times'
p5
aS'Hybridcars.com'
p6
aS'East Bay Express'
p7
aS'East Bay Express'
p8
aS'East Bay Express'
p9
a.