(lp0
S'Santa Barbara Independent'
p1
aS'San Antonio ExpressNews'
p2
aS'San Antonio ExpressNews'
p3
aS'San Antonio ExpressNews'
p4
aS'San Antonio ExpressNews'
p5
aS'ThinkProgress'
p6
aS'Ballard Spahr'
p7
a.