(lp0
S'Memphis Flyer'
p1
aS'Ethanol Producer Magazine'
p2
aS'ADVFN'
p3
aS'Issues in Science and Technology'
p4
aS'San Antonio ExpressNews'
p5
aS'San Antonio ExpressNews'
p6
aS'San Antonio ExpressNews'
p7
aS'News & Review'
p8
a.