(lp0
S'The New York Times'
p1
aS'San Antonio ExpressNews'
p2
aS'San Antonio ExpressNews'
p3
aS'San Antonio ExpressNews'
p4
aS'East Bay Express'
p5
aS'East Bay Express'
p6
aS'News & Review'
p7
aS'American Petroleum Institute'
p8
a.