(lp0
S'San Antonio ExpressNews'
p1
aS'San Antonio ExpressNews'
p2
aS'Ethanol Producer Magazine'
p3
aS'University of Texas at San Antonio College of Business'
p4
aS'Voice of America'
p5
aS'East Bay Express'
p6
a.