(lp0
S'San Antonio ExpressNews'
p1
aS'San Antonio ExpressNews'
p2
aS'San Antonio ExpressNews'
p3
aS'San Antonio ExpressNews'
p4
aS'Reuters'
p5
aS'East Bay Express'
p6
aS'East Bay Express'
p7
aS'Environment America'
p8
aS'Golf Channel'
p9
a.