(lp0
S'United Nations'
p1
aS'San Antonio ExpressNews'
p2
aS'San Antonio ExpressNews'
p3
aS'The Wall Street Journal'
p4
aS'San Angelo StandardTimes'
p5
aS'Texas A&M UniversityKingsville'
p6
aS'Austin AmericanStatesman'
p7
aS'Roger Ebert'
p8
a.