(lp0
S'Google'
p1
aS'The Guardian'
p2
aS'InsideClimate News'
p3
aS'San Antonio ExpressNews'
p4
aS'San Antonio ExpressNews'
p5
aS'San Antonio ExpressNews'
p6
aS'San Antonio ExpressNews'
p7
aS'East Bay Express'
p8
aS'East Bay Express'
p9
a.