(lp0
S'ADVFN'
p1
aS'San Antonio ExpressNews'
p2
aS'San Antonio ExpressNews'
p3
aS'San Antonio ExpressNews'
p4
aS'San Antonio ExpressNews'
p5
aS'Voice of America'
p6
aS'Depository Trust & Clearing Corporation'
p7
a.