(lp0
S'San Antonio ExpressNews'
p1
aS'San Antonio ExpressNews'
p2
aS'San Antonio ExpressNews'
p3
aS'Ethanol Producer Magazine'
p4
aS'KENS'
p5
aS'United States Army'
p6
aS'United Nations'
p7
aS'Abilene ReporterNews'
p8
aS'San Angelo StandardTimes'
p9
a.