(lp0
S'bp - Connecticut Gas Prices'
p1
aS'BP Gas Stations in Sacramento, California'
p2
aS'33 Conspiracy Theories That Turned Out To Be True, What ...'
p3
aS'OMV hires new E&P chief Jaap Huijskes from rival Shell ...'
p4
aS'Noah Raford  The coming boom and bust of design thinking'
p5
aS"Facing the Heat: Man's Chilling Impact on Global Warming ..."
p6
aS"China's Inroads into North Africa: An Assessment of Sino ..."
p7
aS'Contingent Environmental Liabilities: Disclosures and ...'
p8
aS'Naisby to Lead Caterpillar Marine in - Maritime News'
p9
aS'[PDF]\nEco-nomics: Are the Planet-Unfriendly Features of Capitalism'
p10
a.