(lp0
S'Oil Spill Media - Huffington Post'
p1
aS'BP Oil Spill | TEDFellows Blog'
p2
aS'Iraq to Boost Oil Output -- Photos - WSJ'
p3
aS'[PDF]\nPreventing Accidents in Offshore Oil and Gas Operations ...'
p4
aS"La mare noire pourrait atteindre l'ocan Atlantique en juillet"
p5
aS'Iraq | Fred Donaldson'
p6
aS'BP Tony Hayward - Gulf of Mexico Oil Spill Blog'
p7
aS'WATCHING THE WORLD THE BHP-HAMILTON ...'
p8
aS'Roy Franklin - Statoil'
p9
aS'Royal Dutch Shell Panalpina Nigerian Corruption Scandal ...'
p10
a.