(lp0
S'Furious Growth and Cost Cuts Led To BP Accidents Past ...'
p1
aS"BP's Troubled Past | The Spill | FRONTLINE | PBS"
p2
aS'The Spill | FRONTLINE | PBS'
p3
aS'British Petroleum Company PLC Facts, information, pictures ...'
p4
aS'The Petroleum Broadcast System Owes Us an Apology'
p5
aS'BP: Beyond Petroleum?.'
p6
aS'BP brand positioning criticised by Shell - Marketing'
p7
aS'October | 2010 | Disenfranchised Citizen'
p8
aS'CBI conference 2010 live - Telegraph'
p9
aS'Investigators begin probe of fatal plane crash in northern ...'
p10
a.