(lp0
S'[PDF]\nCrisis Management: Lessons Learnt from the BP ... - ORBi'
p1
aS'Gulf Oil Spill, Deepwater Disaster - National Geographic ...'
p2
aS"[PDF]\nBP's Brand Image: The Past, the Deepwater Horizon ..."
p3
aS'BP oil spill: A Rebuttal - Wessex Scene'
p4
aS'Big Oil Goes to College | Center for American Progress'
p5
aS'Automotive Group - Lubricants - British Petroleum ...'
p6
aS'Shah Deniz Stage 1 | Shah Deniz | Operations ... - BP Global'
p7
aS'Report: UC Berkeley-BP pact riddled with conflicts | eats ...'
p8
aS'From Burning River to Burning Ocean, the Fight for Clean ...'
p9
aS'North Sea oil companies angry at new EU rules - Telegraph'
p10
a.