(lp0
S'BP Oil Gusher Declared Extinguished  Lessons Learned'
p1
aS'BP May Have Violated U.S. Sanctions On Trade With Iran ...'
p2
aS"Gulf seafood safety and the government's response ..."
p3
aS'NY Sea Grant | NYSG: Gulf Oil Spill Discussion at SBU (Oct ...'
p4
aS"D'Souza's The Roots of Obama's Rage rooted in lies"
p5
aS'Alaska Destroys Peak Oil Theory  Newly Discovered Oil ...'
p6
aS'Ig Nobel Prizes 2010: Oil and Water Mixing, Preventing ...'
p7
aS'Is 2010 the year of corporate greenwashing? | 8 businesses ...'
p8
aS"The World's Most Profitable Companies | BusinessBlogs Hub"
p9
aS'Egyptian LNG Project in Idku'
p10
a.