(lp0
S"America's Most Generous Corporate Foundations: No. 11 ..."
p1
aS'How to profit from the cold snap - Telegraph'
p2
aS'The Centre for Energy, Petroleum and Mineral Law and ...'
p3
aS'Peril of petroleum-based plastics | SanDiegoUnionTribune ...'
p4
aS"Palin, Beck, FOX News & Statue of Liberty | intheknow7's Blog"
p5
aS'Thieves use master key to fill up for free :: WRAL.com'
p6
aS'[PDF]\nEIC Monthly News - UTC Engenharia'
p7
aS'14 January: World Cup-bound Cameroon stunned by lowly ...'
p8
aS'The Haiti earthquake in depth : Nature News'
p9
aS'Pre-Arrest Criminal Investigations | Haggard Law Firm'
p10
a.