(lp0
S'BP Apology - British Petroleum Apolgizes CNN - Gulf Oil ...'
p1
aS'Oil industry has yet to adopt lessons of BP spill  Coastal Care'
p2
aS'BCA v BP A resource for legal information'
p3
aS'BP America Production CO Wilburton OK, 74578  Manta.com'
p4
aS'GAO Finds 16 Firms Sold Oil To Iran Prior To New Sanctions ...'
p5
aS'Deep Water, Deep Trouble - WSJ'
p6
aS'BP Systems Solutions | LinkedIn'
p7
aS'ME Welcomes the Return of Mike Ohadi | Mechanical ...'
p8
aS'40 years of North Sea Oil: Veteran oilman recalls the day ...'
p9
aS'JA Solar To Supply BP Solar With More Than 185MW Of ...'
p10
a.