(lp0
S'BP Sued in Ecuador for Violating the Rights of Nature'
p1
aS"BP sells Argentina's Bridas to Bulgheroni family and ..."
p2
aS'THE GULF OF MEXICO IS DYING - A Special Report on the ...'
p3
aS'Phoenix Rising from the Gulf | The BP Gulf Oil Spill ...'
p4
aS'Bridas Corporation - Wikipedia, the free encyclopedia'
p5
aS"Florida Beaches (Without BP): The only oil you'll see here is ..."
p6
aS'Oil spill in the Philippines  Royal Dutch Shell plc .com'
p7
aS'Residents kept united front for gas leak cleanup - The ...'
p8
aS'[PDF]\nChallenges and opportunities in risk management in ...'
p9
aS'Petroleum Monopolies of the Capitalist Countries | Article ...'
p10
a.