(lp0
S'How the blowout happened - Popular Mechanics'
p1
aS'Andy Hopwood | Executive team | Board and ... - BP Global'
p2
aS'BP and BCP - Continuity Insights'
p3
aS'Big Oil Blowout Led to Two Banks - NumisMaster'
p4
aS'GA Serves America: Above the spill - AOPA'
p5
aS'[PDF]\nTwenty-One Years After the Exxon Valdez Oil Spill, Will ...'
p6
aS'Bp: Stickers | Redbubble'
p7
aS'British Gas (BG) Exploration and Production is pulling out of ...'
p8
aS'India predicts 40% leap in demand for fossil fuels - Phys.org'
p9
aS'Dave Grossman  Dog Canyon'
p10
a.