(lp0
S"Analysis: Post-spill, Gulf of Mexico key to BP's fortunes ..."
p1
aS'Put your questions to a trainee oil trader at BP ...'
p2
aS'Scripps Institution of Oceanography Works With BP to ...'
p3
aS'Gulf of Mexico Oil Spill Blog BP Amoco'
p4
aS'How safe are small planes? - The Express Tribune'
p5
aS'Apache Completes Acquisition of BP Assets in ... - Investors'
p6
aS'Service contract liability after Deepwater Horizon ...'
p7
aS"Why Aren't You Getting the Job? Because You're a Jerk ..."
p8
aS'Stan Polovets - AAR Consortium'
p9
aS'Forces of Nature | Science Buzz'
p10
a.