(lp0
S'Debate: Should the U.S. ban offshore drilling for oil ...'
p1
aS'OGDCL also bidding for BP | Aaj News'
p2
aS'5 Stocks for Peak Oil - TheStreet'
p3
aS"WikiLeaks Shell 'revelations' are old news in Nigeria ..."
p4
aS'Jesse Ventura Conspiracy Theory - "Gulf Disaster Planned ...'
p5
aS'Mexico Sues BP - Gulf of Mexico Oil Spill Blog - WordPress ...'
p6
aS'Gulf of Mexico Oil Spill Blog | A historical aggregation ...'
p7
aS'BOLIVIA: Madidi National Park and the Curse of Petroleum ...'
p8
aS"Nude Lady Gaga statue called 'Patron Saint of the Gulf ..."
p9
aS"British Airways Says Hong Kong Staff Can't Bring UK Lawsuit"
p10
a.