(lp0
S'Furious Growth and Cost Cuts Led To BP Accidents Past ...'
p1
aS"BP's Troubled Past | The Spill | FRONTLINE | PBS"
p2
aS'The Spill | FRONTLINE | PBS'
p3
aS'British Petroleum Company PLC Facts, information, pictures ...'
p4
aS'Speech to CBI annual conference | Speeches | Press | BP ...'
p5
aS'The Petroleum Broadcast System Owes Us an Apology'
p6
aS'The Gulf Blue Plague - Rense.com'
p7
aS'Project Deepwater Horizon - KD Analytical'
p8
aS'CBI conference 2010 live - Telegraph'
p9
aS'OPEC will never run out of oil - Resilience.org'
p10
a.