(lp0
S'BP initial image repair strategies after the Deepwater ...'
p1
aS'BP Oil Spill Blowout Preventer Investigation May Be ...'
p2
aS'BP Oil Spill: A Disaster of Leadership and Strategy ...'
p3
aS'The Cutting Edge News - Energy'
p4
aS'Iran Energy Project Milestones | Foundation for Defense of ...'
p5
aS'Passport to Texas  2010  December'
p6
aS"Pressure building to restructure Japan's beleaguered ..."
p7
aS'Connection between Freezing Europe and the BP spill | Physics ...'
p8
aS'Shell scam against its employees in the Philippines ...'
p9
aS'[PDF]\nUnilateral Action by Oil-Producing Countries - Semantic ...'
p10
a.