(lp0
S'Jobs | Oil & Gas Jobs in North America | Rigzone'
p1
aS'BP PRODUCTS NORTH AMERICA INC Warrenville IL ...'
p2
aS'[PDF]\nDownload the full article/document - University of Dundee'
p3
aS'F. Gerald Maples, PA - F. Gerald Maples, PA'
p4
aS"Shell's North Sea history of safety violations, blackmail and ..."
p5
aS'9 ways to taste Houston (like an expert) | New York Post'
p6
aS'Patent US20100022422 - High temperature shear stable ...'
p7
aS'FRONTLINE/WORLD: The Business of Bribes: Nuhu Ribadu ...'
p8
aS"The Rag Blog: Mexico's Narco Wars : Capos Bite Dust as ..."
p9
aS'Table of contents : Nature'
p10
a.