(lp0
S'BP Profit Drops After Further Charge Taken on Spill ...'
p1
aS'BP oil spill costs to hit $40bn | Business | The Guardian'
p2
aS'BP ups spill cost to $40 billion, profits beat forecast | Reuters'
p3
aS'How the blowout happened - Popular Mechanics'
p4
aS'Andy Hopwood | Executive team | Board and ... - BP Global'
p5
aS'Animal Deaths from Gulf Oil Spill Estimated : Discovery News'
p6
aS'Big Oil Blowout Led to Two Banks - NumisMaster'
p7
aS'GA Serves America: Above the spill - AOPA'
p8
aS'[PDF]\nTwenty-One Years After the Exxon Valdez Oil Spill, Will ...'
p9
aS'BRITISH PETROLEUM VS. THE NIGERIAN GOVERNMENT ...'
p10
a.