(lp0
S"Why Barack Obama doesn't much care for Britain ..."
p1
aS'5 Stocks for Peak Oil - TheStreet'
p2
aS'BP Could Save $3B in Fines By Challenging Government ...'
p3
aS"WikiLeaks cables: Shell's grip on Nigerian state revealed ..."
p4
aS'Unipec gets oil traders from Chevron, Statoil-sources | Reuters'
p5
aS'Mexico Sues BP - Gulf of Mexico Oil Spill Blog - WordPress ...'
p6
aS'Gulf of Mexico Oil Spill Blog | A historical aggregation ...'
p7
aS'BOLIVIA: Madidi National Park and the Curse of Petroleum ...'
p8
aS'Leadership_Catastrophe_2010-2012_Obama_the_ ...'
p9
aS'SHELL RULES: Wikileaks Cable Details Shell Petroleum ...'
p10
a.