(lp0
S'Six events that got us talking about nonprofits in 2010 ...'
p1
aS'Companies in Europe Most Affected by Wikileaks ...'
p2
aS"The Reputation Doctor's Top 10 List of Reputations in Crisis ..."
p3
aS'2010 News Archive - Bureau of Economic Geology - The ...'
p4
aS'Goodbye to 2010, Year of the Tiger, Hello to 2011, Year of ...'
p5
aS"OPEC'S EVOLVING ROLE: D'Arcy concession centennial ..."
p6
aS'Top Corporate Scandals of 2010 - Death and Taxes'
p7
aS'Texas | Mesothelioma Cancer and Asbestos Exposure in TX'
p8
aS"Tantaros: Palin, Tea Party among 2010's winners - NY Daily ..."
p9
aS'2010 News Archive - Nigeria'
p10
a.