(lp0
S'Speech to CBI annual conference | Speeches | Press | BP ...'
p1
aS"GULF BLUE PLAGUE: It's Not Wise to Fool Mother Nature - The World ..."
p2
aS'U.S. looks to British model to improve offshore drilling safety ...'
p3
aS'The Gulf Blue Plague - Rense.com'
p4
aS'Project Deepwater Horizon - KD Analytical'
p5
aS'OPEC Will Never Run Out Of Oil - Decline of the Empire'
p6
aS"THE GULF BLUE PLAGUE: IT'S NOT WISE TO FOOL ..."
p7
aS'BBC Mundo - Noticias - BP presenta plan para reconstruir ...'
p8
aS'Gas prices rise, breaking pre-election pattern - Washington ...'
p9
aS'Health, Safety and the Environment - HSE'
p10
a.