(lp0
S'Tony Hayward: BP not prepared for fallout, was on financial ...'
p1
aS"US oil spill inquiry chief slams BP's 'culture of complacency ..."
p2
aS'Algae Biofuels Dealt a Blow by BP funded EBI | OilPrice.com'
p3
aS'Massive Coral Die-Off Found Just 7 Miles from BP Oil Spill Site'
p4
aS'BP, Corporate R&D, and the University | AAUP'
p5
aS'BP worker living at The Ritz for 3 years | News | London ...'
p6
aS'Gulf Shrimp Tests Show Oil Contamination, But Is It Safe To ...'
p7
aS'2010 Deepwater Horizon oil spill - Expand Your Mind'
p8
aS"UAE has world's 4th largest oilfield - Emirates 24|7"
p9
aS'Shell $3.35bn stake sale sparks Woodside speculation ...'
p10
a.