(lp0
S'US Deepwater Horizon explosion & oil spill lawsuits ...'
p1
aS'Cornstarch might have ended the Gulf spill agony sooner ...'
p2
aS'Richard Hardman - Wikipedia, the free encyclopedia'
p3
aS'News & Discoveries - NSF'
p4
aS"AG's in the News - 2010 Archives | National State Attorneys ..."
p5
aS'Offshore oil drilling - Akdart.com'
p6
aS'Post-drilling analysis identifies other play types in Falkland ...'
p7
aS'Reporter, Greg Palast describes BP abuses in Azerbaijan ...'
p8
aS'royal dutch shell: the most evil company on the planet?'
p9
aS"Seattle's first Leaf owners see green in going electric | The ..."
p10
a.