(lp0
S"YBP's Profits Fuel Need for Growth Adjustments"
p1
aS"Alaskan MK'd Kitten Caribou Barbie Controlled Asset ..."
p2
aS"Russia-Belarus Oil Dispute Threatens Europe's Supply ..."
p3
aS'Shell accused of abandoning solar power buyers in the ...'
p4
aS'BBC News - China water warning as oil spill hits Yellow River'
p5
aS'The fine art of managing change - The Globe and Mail'
p6
aS"For Chevron, It Could Be a Happy New Year - Barron's"
p7
aS"The NEWS behind the NEWS. - Page 983 - David Icke's Official Forums"
p8
aS'Advanced BioFuels USA  Ladies and Green Racing Ideas ...'
p9
aS"Article: The History of the Iranian People's Strugle for ..."
p10
a.