(lp0
S"8 months later, BP's Gulf oil spill cleanup costs appear ..."
p1
aS'Recreational Fishermen Line Up for BP Oil Spill ...'
p2
aS'Corporate Announcement - About MB Petroleum Services'
p3
aS'Top Corporate Scandals of 2010 - Death and Taxes'
p4
aS'A Justification of Habit - The Moments Count Journal'
p5
aS'Texas | Mesothelioma Cancer and Asbestos Exposure in TX'
p6
aS'Ferment Two Sugars at the Same Time - New Energy and Fuel'
p7
aS'Ice Age Now! Damaged Gulf Stream affects Jet Stream ...'
p8
aS"Europe: Lord Stirling's News Blog EUROPE"
p9
aS'2010 News Archive - Nigeria'
p10
a.