(lp0
S'Company profile for BP | Global | The Guardian'
p1
aS'Basra in southern Iraq has been transformed - thanks to oil ...'
p2
aS'BP Costume Hot For Halloween This Year  CBS New York'
p3
aS'BP: Deepwater Horizon - dezastrul lobby-ului petrolului'
p4
aS'Gulf Coast Tourism Industry Faces PR Crisis - Cookerly ...'
p5
aS'Big Gay Welcome Wagon: Activism Archives - ChicagoNow'
p6
aS'General Trading Terms and Conditions | Shell Global'
p7
aS'Nutrient Cycles and Pollution, Lake Michigan Style ...'
p8
aS'Socialist Party of Texas: October 2010'
p9
aS'Tufts Environmental Alumni (TEA) Quarterly E-Newsletter'
p10
a.