(lp0
S'Halliburton and BP Knew of Cement Flaws, Report Says ...'
p1
aS'Coon 2: Hindsight - Wikipedia, the free encyclopedia'
p2
aS'BP: Beyond Petroleum?.'
p3
aS'British Petroleum - U.S. Chamber Watch'
p4
aS'BP brand positioning criticised by Shell - Marketing'
p5
aS'"South Park" Coon 2: Hindsight (TV Episode 2010) - IMDb'
p6
aS'South Park Casualty Count: Coon & Friends Take On BP ...'
p7
aS'Top 10 most productive companies in the UK - Telegraph'
p8
aS'The After-Effects Of The BP Oil Spill | Care2 Causes'
p9
aS'Greens Vs. Big Oil and Prop. 23 | L.A. Weekly'
p10
a.