(lp0
S'BP to streamline IT supply chain - ComputerWeekly.com'
p1
aS'Best of British: Brands we love...and lost | Express Yourself ...'
p2
aS'News: Canaport LNG announces new General Manager'
p3
aS'IO TIMES, MULTTIFOLDES @ CMP, (100% authentic news ...'
p4
aS'BP - BP p.l.c. Fundamental Analysis, Financials and Key ...'
p5
aS'Uganda oil contracts give little cause for optimism | Katine ...'
p6
aS'Free BP Oil Case Review - BP Gulf Oil Spill'
p7
aS'The Centre for Energy, Petroleum and Mineral Law and ...'
p8
aS'Health benefits of red-wine chemical unclear : Nature News'
p9
aS'Solar Power - Matthew Engel'
p10
a.