(lp0
S'Green Health and Wellness | GreenandSave.com | Green ...'
p1
aS'Oil & Gas News (OGN)'
p2
aS'Oil in Dubai: History & timeline - Gulf News'
p3
aS'Dubai: Major Oil Field Discovery Will Relieve Debt'
p4
aS'How long before the lights go out? - Telegraph'
p5
aS'[PDF]\nSUBSEA UK NEWS'
p6
aS'Falklands: Argentina protests Falklands oil exploration plans'
p7
aS'Norway Technology in SE Asia - Products - Offshore'
p8
aS'Global Rights Management, LLC | LinkedIn'
p9
aS'Robert McChesney and John Nichols on "The Death and ...'
p10
a.