(lp0
S'Oil in Dubai: History & timeline - Gulf News'
p1
aS'NEWS | Analysis: Reserve Potential Remains Positive in ...'
p2
aS'Dubai: Major Oil Field Discovery Will Relieve Debt'
p3
aS'[PDF]\n5LEADING WOMEN IN HEDGE FUNDS - Financial News'
p4
aS'How long before the lights go out? - Telegraph'
p5
aS"Norway's pension fund: Passive aggressive - The Economist"
p6
aS"Hundreds mourn loss of 'brave as a lion' Steven Moore ..."
p7
aS'Question denied - Living - The Telegram'
p8
aS'Academic-Industry Collaboration | The New York Academy ...'
p9
aS'Robert McChesney and John Nichols on "The Death and ...'
p10
a.