(lp0
S'Russia to seize Kovytka gas field from BP venture - Telegraph'
p1
aS'BP TO DEVELOP NORTH SEA GAS FIELD - Oil & Gas Journal'
p2
aS'Strategic denial of oil in Haiti? - The Real News Network'
p3
aS'Flashpoint in The Falklands: Argentine anger as British oil ...'
p4
aS'Oil War in the Falkland Islands - Oil-price.net'
p5
aS'Vision of True Vineyard Energy Independence | The ...'
p6
aS'Hype of Global Warming Far Scarier Than Science Shows'
p7
aS'Deadly Business in Moscow - Bloomberg'
p8
aS'Three small-cap oil stocks to watch - MoneyWeek'
p9
aS'Crude diplomacy | The Economist'
p10
a.