(lp0
S"BP's Sun King Lord Browne reveals his darker side ..."
p1
aS'Falklands oil prospects stir Anglo-Argentinian tensions | UK ...'
p2
aS'PIPELINES Upsurge in field activity keeps North Sea ...'
p3
aS"Cleveland's former BP America Building (200 Public Square ..."
p4
aS"galicia's atlantic coast basin - Oil & Gas Journal"
p5
aS"'No concerns' about pair despite British links"
p6
aS'[PPT]\npeak oil - University of Washington, School of Oceanography'
p7
aS'Companies Developing Modified Microorganisms for Ethanol'
p8
aS'COOPRADIO.ORG: US HAARP Weapon Triggered Haiti ...'
p9
aS'Yahudi AS Dominasi Ekonomi Indonesia? | EXP- BLOGGER'
p10
a.