(lp0
S'BP to pay Devon $7 bln for fields | Reuters'
p1
aS'Devon and BP team up on oil sands revival - The Globe and ...'
p2
aS'Brabham Oil | About'
p3
aS'Row over Environmental Commission - Trinidad and ...'
p4
aS'Trinidad 2010 - Luke Marshall - Earth and Environmental ...'
p5
aS'Prison reform - Prison News Blog'
p6
aS'Prison News Blog - Page 2 of 24 - Prison News and ...'
p7
aS'Candax Receives Shareholder Approval in Respect of ...'
p8
aS'Oil workers drown in North Sea - Mar 30, 1980 - HISTORY ...'
p9
aS'Kuwaiti Scientists Say Peak Oil Will Arrive in 2014 - Gas 2'
p10
a.