(lp0
S'History - Giant Oil | Petroleum Jobber of the Future |'
p1
aS'oil and gas news projects and contracts for contractors and ...'
p2
aS'Shortcomings Exposed in Oil Data Collection - WSJ'
p3
aS'[PDF]\n2020 vision The future of filling stations - PetrolPlaza'
p4
aS'Panarctic Oils Limited: field work in 1969 - Cambridge ...'
p5
aS'Tony Blair takes on jobs advising South Korean oil firm and ...'
p6
aS'Falklands rife with speculation waiting for first oil drilling ...'
p7
aS'Joint Operating Environment 2010: Oil Supply Concerns ...'
p8
aS'RUSSIAN RESERVES TERMINOLOGY BECOMING ...'
p9
aS'Shell continues to wreck lives, act unethical and bulldoze ...'
p10
a.