(lp0
S'[PDF]\nBritish Petroleum expansion in Brazil and Marketing ...'
p1
aS'The Centre for Energy, Petroleum and Mineral Law and ...'
p2
aS'Major 3D seismic acquisition undertaken by British Gas ...'
p3
aS"Northwest Europe's Operators Show Creativity In New ..."
p4
aS'Finding Petroleum - All Companies'
p5
aS'The curious return of coaldung fuelballs - Resilience.org'
p6
aS'Ethylene cracker complex | Shell Global'
p7
aS'[PDF]\nResource Nationalism Trends in Kazakhstan, 20042009'
p8
aS'CORPORATE SYSTEMS IN THE UNITED KINGDOM ...'
p9
aS'Fridman Mikhail Maratovich -  .  ...'
p10
a.