(lp0
S'History - Giant Oil | Petroleum Jobber of the Future |'
p1
aS'Debunking the Myth of Peak Oil - Why the Age of Cheap Oil ...'
p2
aS'Debunking the Myth of Peak Oil - Why the Age of Cheap Oil ...'
p3
aS'Shortcomings Exposed in Oil Data Collection - WSJ'
p4
aS'Falkland Islands oil row: Navy attack submarine HMS ...'
p5
aS'Tony Blair takes on jobs advising South Korean oil firm and ...'
p6
aS'From oil sector to wind power - The Research Council of ...'
p7
aS'Joint Operating Environment 2010: Oil Supply Concerns ...'
p8
aS'[PDF]\nEconomic Challenges in Post-Conflict Iraq - Center for ...'
p9
aS'RUSSIAN RESERVES TERMINOLOGY BECOMING ...'
p10
a.