(lp0
S'BP demonstrates its field of the future program at SPE ...'
p1
aS'Overall recommendations for BP Group - HSE'
p2
aS'Texas City Explosion Library BP Texas City Explosion'
p3
aS'Fraser Wilkins: Mideast Oil of "Tremendous" Importance to US'
p4
aS'[PDF]\nView Report (PDF, 25 pages) - US Government ...'
p5
aS'CNPC, Shell join forces on Sichuan natural gas project'
p6
aS'Meat, dairy diet not tied to global warming - Washington Times'
p7
aS'Who Uses SPI Products - Specialty Products, Inc.'
p8
aS'Research Project for the 2010 Alaska Region National ...'
p9
aS'green minds : Behind the headlines'
p10
a.