(lp0
S'BP to pay Devon $7 bln for fields | Reuters'
p1
aS'Devon and BP team up on oil sands revival - The Globe and ...'
p2
aS'Why BP is betting billions that God is Brazilian - Telegraph'
p3
aS'Brabham Oil | About'
p4
aS'Row over Environmental Commission - Trinidad and ...'
p5
aS'Can the E&P industry avoid future shock? - Oil & Gas Journal'
p6
aS'Oil workers drown in North Sea - Mar 30, 1980 - HISTORY ...'
p7
aS'Qatar on the Cusp - Bloomberg'
p8
aS'Profiting From Iran, and the U.S. - Interactive Feature ...'
p9
aS'Jim Marino | LinkedIn'
p10
a.