(lp0
S'BP chief stresses energy diversity, competition - Oil & Gas ...'
p1
aS'Seismic analysis suggests more deepwater plays off NW ...'
p2
aS'BP: Beyond Petroleum? | Erb Institute  University of Michigan'
p3
aS'American Zombie: April 2010'
p4
aS'The US military has confirmed the authenticity of newly ...'
p5
aS'Peak asphalt: the return of gravel roads - Resilience.org'
p6
aS'Officials Wake Up to Peak Oil | Xenophilia (True Strange Stuff)'
p7
aS'TNK-BP entdeckt sieben neue lfelder im westsibirischen ...'
p8
aS'Iran Sanctions Yield Little - WSJ'
p9
aS"That's My Congress | Jim Matheson's Lobbyist Problem ..."
p10
a.