(lp0
S'Oil prices and not pressure groups can force BP to change ...'
p1
aS'GRENADA-ENERGY-Ex-minister blasts government over oil ...'
p2
aS'Drilling Contracts: The Danger Of Not Reviewing The ...'
p3
aS'Empire States: Geostrategic Powercenters, Part 2 of 3 ...'
p4
aS'The Social Poets: 04/01/2010 - 05/01/2010'
p5
aS"You've heard of peak oil. How about peak gold? - The Globe ..."
p6
aS'U.K. North Sea HP/HT developments spreading - Oil & Gas ...'
p7
aS'Party at the Pumps  Pix-&-Vidz  Sat 10 Apr 10 - UK ...'
p8
aS'BLACK POLITICAL BUZZ....: Katie Washington Makes ...'
p9
aS'Freeing human eggs of mutant mitochondria : Nature News'
p10
a.