(lp0
S'British Petroleum Settlement - Jurist'
p1
aS'BP Oil Spill | Stuart H. Smith'
p2
aS'BP Case Study | Corporate Social Responsibility'
p3
aS'BP CEO Denies Responsibility for Deepwater Horizon Oil Spill'
p4
aS'BP Deepwater Horizon Gulf Oil Spill: Overview - Greenpeace'
p5
aS'[PDF]\nA Stakeholder Analysis of the BP Oil Spill - University of ...'
p6
aS'[PDF]\nCase Study: The Gulf Coast and the BP Oil Spill About the ...'
p7
aS'Oyster Mortality Due to Freshwater Diversions in the ...'
p8
aS'Bp Exploration Alaska in Anchorage, Alaska with Reviews ...'
p9
aS'BP Oil Spill Lawyers - Arguello, Hope and Associates, PLLC'
p10
a.