(lp0
S'BBC News - Oil spill in Gulf of Mexico in maps and graphics'
p1
aS"The three causes of BP's oil disaster - Salon.com"
p2
aS'Anatomy of the BP Oil Spill: An Accident Waiting to Happen ...'
p3
aS"Olive: Is BP's image makeover the worst ever? | Toronto Star"
p4
aS'The Balfour Agreement, the major decline of the British ...'
p5
aS'It Could Have Been Avoided - Sea Shepherd Conservation ...'
p6
aS'Massive disaster looms in Gulf of Mexico spill - Phys.org'
p7
aS"'Volcano' of oil to be absorbed using stockings ... - Daily Mail"
p8
aS'BP: From Oil Spilling to Financial Reform Killing | Mother ...'
p9
aS'Eleven workers die amidst oil spill that can be seen from ...'
p10
a.