(lp0
S"BP OK's tests of Kevin Costner's invention - device to clean ..."
p1
aS'BP accused of cover-up | Reuters'
p2
aS'British Petroleum Greenwashing Backfired'
p3
aS'Gulf of Mexico oil spill: BP faces growing calls for boycott of ...'
p4
aS'BP Oil Spill - One Month and Counting - National Wildlife ...'
p5
aS'BP disaster spreads oil pollution across the Gulf of Mexico ...'
p6
aS'British Petroleum (@BPGlobalPetrol) | Twitter'
p7
aS"Greenpeace activists scale BP's London headquarters in oil ..."
p8
aS'Greenpeace attacks BP with competition to redesign its logo'
p9
aS'BP told to use less toxic dispersant in oil spill: report - Phys.org'
p10
a.