(lp0
S'Twitter, Facebook and the BP oil spill | NewsCut | Minnesota ...'
p1
aS'ABC News interviews BP exec Tony Hayward in his deep ...'
p2
aS"BP: 'We are doing everything we can' to stop oil in Gulf of ..."
p3
aS'"It\'s BP\'s Oil" | Mother Jones'
p4
aS'U.S. keeps boot on neck of BP over spill | Reuters'
p5
aS"Protesters bare nearly all at BP's Houston office | Reuters"
p6
aS'Fears BP spill could hit BHP Billiton Petroleum - Telegraph'
p7
aS'British Petroleum Visionaries - CounterThink.com'
p8
aS'EXCLUSIVE: Debunking the myth of Obama\'s "BP cash"'
p9
aS'Gulf of Mexico Oil Spill - Xinhua | English.news.cn'
p10
a.