(lp0
S"BP Oil Spill: 7 Secrets BP Doesn't Want You To Know ..."
p1
aS'BP Gulf Oil Spill Cheat Sheet: A Timeline of Unfortunate ...'
p2
aS'Gulf of Mexico oil slick: Sarah Palin fuels anti-British sentiment'
p3
aS'BP Stock Looks Cheap After Spill Leads to Panic Selling ...'
p4
aS'Obama biggest recipient of BP cash - POLITICO'
p5
aS"BP's trail of accidents, scandals stretches to Alaska | The ..."
p6
aS"What P.R. experts think of BP's response to the oil spill. - Slate"
p7
aS"BP touts itself as 'green,' but faces PR disaster with 'BP oil spill'"
p8
aS"U.S. exempted BP's Gulf of Mexico drilling from ..."
p9
aS'BP: Dividend Date & History for BP PLC - Dividend.com'
p10
a.