(lp0
S"BP's Dismal Safety Record - ABC News"
p1
aS'Bombshell memo: BP ignored warnings hours before oil rig ...'
p2
aS"BP will try 'top kill' - NY Daily News"
p3
aS'BP Resumes Work to Plug Oil Leak After Facing Setback ...'
p4
aS"BP's Profits Far Outweigh The Cost Of Cleaning Up Gulf Oil ..."
p5
aS'Gulf of Mexico oil spill: Can BP stem the flow of oil and vitriol ...'
p6
aS'BP begins top kill method to try to stop Gulf oil leak ...'
p7
aS'BP Gets Punked: 7 Best Oil Spill Pranks & Satires (Images ...'
p8
aS'Facebook fans organize to boycott BP - May. 26, 2010'
p9
aS'Thunder Horse Oil Field - Wikipedia, the free encyclopedia'
p10
a.