(lp0
S"BP's Dismal Safety Record - ABC News"
p1
aS'The Tort Lawyer and the BP Oil Disaster - Bloomberg'
p2
aS"BP's Profits Far Outweigh The Cost Of Cleaning Up Gulf Oil ..."
p3
aS'BP Resumes Work to Plug Oil Leak After Facing Setback ...'
p4
aS"Gulf of Mexico oil leak 'halted' amid fears BP could face hefty ..."
p5
aS'Thunder Horse Oil Field - Wikipedia, the free encyclopedia'
p6
aS'20 - Latest News BP Oil Spill Settlement Claims Attorneys'
p7
aS'NWF: BP underestimates acres of wetlands affected by oil spill'
p8
aS'N.J. residents join online protest against BP | NJ.com'
p9
aS'Another take on the BP Oil Spill | Risk & Decision Analysis ...'
p10
a.