(lp0
S'BP (British Petroleum) Originated as Anglo-Iranian Oil ...'
p1
aS'BP Oil Spill Facts - Gulf Oil Spill Statistics - Esquire'
p2
aS'BP OIL SPILL: Lord Tebbit and Boris Johnson attack ...'
p3
aS"It'll always be British Petroleum to me - Salon.com"
p4
aS'Stephen Kinzer on the History of BP/British Petroleum and ...'
p5
aS"Barack Obama is playing dirty over BP. That's probably a ..."
p6
aS'The rise and fall of BP | Business | The Guardian'
p7
aS'June 1-15, News selections and links about the British ...'
p8
aS'BP Fund Has Pros, Cons for Gulf Oil Spill Victims - WSJ'
p9
aS'BP has plenty of money to pay spill damages - NBC News'
p10
a.