(lp0
S'BP oil spill: Was Tony Hayward right after all? - Telegraph'
p1
aS'BP British Petroleum CIA - British Government Files'
p2
aS"BP Oil Disaster: 'Spillionaires' Cleaning Up On The Gulf Spill ..."
p3
aS'British Petroleum (BP) Continues to Reveal Mistakes and ...'
p4
aS'Timeline of the Gulf of Mexico Oil Spill - CNBC.com'
p5
aS'Time to scrap BP brand? Gas-station owners divided ...'
p6
aS'BP Oil Spill: Has Environmental Damage Been Exaggerated ...'
p7
aS'BP to exit coal bed methane block in Bengal | Latest News ...'
p8
aS'[PDF]\nbp gulf of mexico oil spill - IITM Student Chapter'
p9
aS'"Organogelator" Could Help Gulf of Mexico Spill'
p10
a.