(lp0
S'BP and Iran: The Forgotten History - CBS News'
p1
aS'Conspiracy Theories Behind BP Oil Spill in Gulf - CBS News'
p2
aS'Oil Spill News: BP Burning Endangered Sea Turtles - Blue ...'
p3
aS"July Fourth Outrage: British Gov't Elevates Disgraced BP Boss"
p4
aS'Okay America, So Why is BP Different from Union Carbide ...'
p5
aS'Former BP Exec Cynthia Warner Left Big Oil for Big Algae ...'
p6
aS'BP Gulf Oil Spill Questions and Answers - The Market Oracle'
p7
aS'BP aims to raise $9bn from sale of South American assets to ...'
p8
aS'Phil Wilayto, "BP and the Other Gulf"'
p9
aS'BP Appeals to Banks for Help | Save | Get the best rates on ...'
p10
a.