(lp0
S"BP oil spill: Why claims that Gulf of Mexico was history's ..."
p1
aS'Bp News and Political Cartoons - CartoonStock'
p2
aS'BP - Wikipedia, la enciclopedia libre'
p3
aS'BP Oil Spill : The Undead Story @ Jo Abbess'
p4
aS'Attorney Mike Papantonio Says BP Is a Criminal ...'
p5
aS'Loop Current in the Gulf of Mexico Has Stalled From BP Oil ...'
p6
aS'Analysis of Environmental and Economic Damages from ...'
p7
aS'UK oil spill dome planned as BP cements leak - Telegraph'
p8
aS'BP Class Action Lawsuit Filed Over Release of Benzene ...'
p9
aS'Corexit: Oil Spill Facts and Dangers - Dr. Sircus'
p10
a.