(lp0
S'[PDF]\nBP Oil Spill - Schulte Roth & Zabel LLP'
p1
aS'BP - Latest news, videos, and information- NBCNews.com'
p2
aS'Business In The News: Crisis Management at BP'
p3
aS'British SIS Hit Team Kills Top US Oil Expert For Breaking ...'
p4
aS"BP's long road to regaining consumer confidence in its brand"
p5
aS'Environmental Health Insights into the 2010 Deepwater ...'
p6
aS'Oil spilled. But hysteria did the real damage in the Gulf ...'
p7
aS'Collapsing Marsh Dwarfs BP Oil Blowout as Ecological ...'
p8
aS'Meet the Microbes Eating the Gulf Oil Spill [Slide Show ...'
p9
aS'Gulf Oil Disaster  Fire Earth'
p10
a.