(lp0
S'BP Oil Spill Overview - Daily Titan'
p1
aS'BP, Tony Hayword, and Ethical Leadership'
p2
aS'BP Said to Fault Staff for Mistakes Before Blowout - Bloomberg'
p3
aS'The Comedy News: BP PATENTS PHRASE, "MAKING THIS ...'
p4
aS'National Commission on the BP Deepwater Horizon Oil Spill ...'
p5
aS"The Gulf of Mexico Oil Spill:the World's Largest Accidental ..."
p6
aS'Human Rights in the Gulf Coast | Amnesty International USA'
p7
aS'Why ExxonMobil Left Ghana | General News 2010-08-31'
p8
aS'2010 August - Contending for Truth by Dr. Scott Johnson'
p9
aS'2010 AugustWolfram|Alpha Blog'
p10
a.