(lp0
S"BP's advertising budget during the spill neared $100 million ..."
p1
aS'BP and Corporate Social Responsibility | CSR NEWS'
p2
aS'BP Tripled Its Ad Budget After Oil Spill - WSJ'
p3
aS'British Hit Team Spy Killed After Top BP Critic Assassinated'
p4
aS"The Surprise Threat to BP's Future :: The Market Oracle ..."
p5
aS'Why BP is key to our national future | The Jewish Chronicle'
p6
aS'The Difference between the Exxon and BP Spills? Dollars ...'
p7
aS'BREAKING: Another Oil Rig Explodes in the Gulf of Mexico ...'
p8
aS'No Safe Harbor on Gulf Coast; Human Blood Tests Show ...'
p9
aS'Kosher BBQ Lovers Try Not To Overcook the Brisket - News ...'
p10
a.