(lp0
S'BP thrown off FTSE4Good ethical index | Business | The ...'
p1
aS'BP report shifts blame for Gulf of Mexico oil spill to American ...'
p2
aS"BP's Accident Report: Look at the Recommendations for the ..."
p3
aS'The Truth WareHouse: September 2010'
p4
aS'Client Letter: Gulf Oil Spill Claimants Must Pay Taxes on ...'
p5
aS"The Oil Drum | BP's Deepwater Oil Spill - Evidence of ..."
p6
aS"09 | September | 2010 | That Woman's Weblog"
p7
aS'Oil Spill a Wake Up Call - Delta Free Press'
p8
aS'Global Environment - Delta Free Press'
p9
aS"'Mistress Of Disaster' Mired in BP Mess  Jamie Gorelick"
p10
a.