(lp0
S'Brand Identity | Brand Strategy | Brand Positioning | BP'
p1
aS"BP oil spill: Gulf of Mexico well declared 'effectively dead ..."
p2
aS'Oil Leak Sealed for Good | Scholastic News Online ...'
p3
aS'BP | Science Buzz'
p4
aS'Oil spill cleanup: After digging deep to kill well, BP faces ...'
p5
aS'BP: The Unfinished Crimes and Plunder of Anglo-American ...'
p6
aS'British Petroleum | The Purple Pedant'
p7
aS"Big Dan's Big News Sept 20, 2010 - Big Dan's Big Blog"
p8
aS'garret Graves | Disenfranchised Citizen'
p9
aS"crucial changes ahead for ecuador's oil, gas sector"
p10
a.