(lp0
S'Public perception of BP affected spill response, Allen says ...'
p1
aS'BP oil spill: interactive timeline | Environment | theguardian ...'
p2
aS"BP's head of safety admits human error over oil spill | New ..."
p3
aS'Factbox: Reckless diversification by oil companies into ...'
p4
aS"BP's ampm Introduces Hispanic Snacks | CSPnet"
p5
aS'Controversies surrounding Royal Dutch Shell'
p6
aS'Green Project Management and the BP Deepwater Horizon ...'
p7
aS'[PDF]\nFraudclosure: The End Run - Rense.com'
p8
aS"Got Pay Per Click Advertising? You're in Good Company ..."
p9
aS'read my mind: Gulf of Mexico oil spill (Part 2)'
p10
a.