(lp0
S'Oct 12, 2010 - Valero oil refinery in Aruba/Flickr user David Stanley ... Valero Energy Corp., and an oil-refining business owned by the oil and gas company Koch ... This is good news for fans of the climate law, as absentee voting began in the state this week.'
p1
aS"Oct 12, 2010 - ... from a green-tech energy sector, which is why Valero is the principle funder behind California Proposition 23. ... Valero's net refining margins in California have been 37% higher per barrel than those from its ... Part of HuffPost on HPMG News."
p2
aS'Oct 12, 2010 - Summary: California has been a gold mine for San Antonio-based Valero energy. A review of ... Introduction. Valero Energy, a San Antonio, Texas-based refining and gasoline retail company, is among the .... 3, 2003. News release with links:.'
p3
aS"Oct 12, 2010 - Study: Texas-Based Valero Gouging California Drivers For A Decade ... report by Consumer Watchdog's OilWatchdog.org project finds that Valero Energy reaped ... Sign up for email updates and get the latest news about what Big Oil is up to."
p4
aS'Oct 11, 2010 - A San Antonio man was sentenced to 18 years in prison Monday for a shooting spree last year that left a police officer with a bullet wound in his back. Officers ...'
p5
aS'Oct 13, 2010 - San Antonio Express-News  ExpressNews.com  iPad app  eEdition  Search Our News Archive  Manage Your Subscription. Hearst Newspapers  Copyright ...'
p6
aS'Oct 13, 2010 - ... the eyes still blaze. The look on his face tells you he knows something about losing sleep. News Research Director Michael Knoop contributed to this report.'
p7
aS'Oct 11, 2010 - Texas oil companies Tesoro and Valero are attempting to hamstring their clean energy ... Passing Prop 23 would put all of these news jobs and businesses in ...'
p8
aS"Oct 13, 2010 - California's new state-issued energy textbook avoids climate change, puts coal on ... Several recent national news stories publicized BP's position on the .... http://climateprogress.org/2010/09/04/koch-industries-valero-tesoro-proposition-23/."
p9
aS"Oct 11, 2010 - Others in the group include San Antonio-based Valero ($4 million); San Antonio-based Tesoro ($1.5 ... And in other green news: ... energy sources is more important than reducing the nation's energy consumption; 60 percent think investing in ..."
p10
a.