(lp0
S"Oct 14, 2010 - But Harris and other Sierra Club members at the meeting say the energy company's ... To counter the pollution, Valero's community relations spokesperson Lisa ..."
p1
aS'Oct 13, 2010 - msnbc.com staff and news service reports ... More U.S. news .... Valero Energy, a large oil refiner and ethanol producer, said it generally supports pro-ethanol ...'
p2
aS'Oct 14, 2010 - ... capacity for market expansion to meet increasing renewable fuel standard blend volume requirements," said Valero Energy Corp., in its comment to the EPA.'
p3
aS"Oct 13, 2010 - Consumer Reports News: October 13, 2010 01:37 PM ... Valero Energy and Marathon Fuels say they are hesitant to sell E15, because they don't want to be ..."
p4
aS"Oct 14, 2010 - BP PLC ADS News BP Refinery Status: Husky's Lima, Ohio Coker, FCCU Shut ... Valero Delaware 210.0 PBF Energy has closed Apr 2011 deal to buy plant."
p5
aS'Oct 13, 2010 - Several drivers for alternative fuels include energy security, the desire to .... Conference news. Wednesday ... Asa Queen, Valero Energy, and Nena Fremin,.'
p6
aS'Oct 13, 2010 - San Antonio Express-News  ExpressNews.com  iPad app  eEdition  Search Our News Archive  Manage Your Subscription. Hearst Newspapers  Copyright ...'
p7
aS'Oct 14, 2010 - Award for Excellence in the Promotion of Architecture through the Media: AIA San Antonio and the San Antonio Express-News for "Building San Antonio," the ...'
p8
aS'Oct 13, 2010 - News Main Page .... Valero has been in the spotlight as the largest single contributor to Prop 23, with more than $4 million in the game. ... greenhouse gases presents them with a dilemma, since all that added equipment requires energy to run, ...'
p9
aS'Oct 13, 2010 - THE LATEST NEWS .... on oil production in the state to fund research, development and deployment of alternative energy technologies. ... The biggest checks have come from San Antonio-based Valero ($4 million), San Antonio-based Tesoro ...'
p10
a.