(lp0
S'Oct 27, 2010 - Submit Release. QUICK LINKS : Goldman Sachs Conviction Buy List  Carl Icahn News  Warren Buffett News  Ackman News ... Valero Energy Corp.'
p1
aS"Oct 27, 2010 - ... among the city's seven living former mayors spanned the creation of Valero Energy ... The discussion, moderated by San Antonio Express-News Editor Robert ..."
p2
aS'Oct 28, 2010 - Breaking news .... mainly from two Texas refining companies, Valero Energy Corp, which has donated more than $5m, and Tesoro, which has donated $2m.'
p3
aS'Oct 28, 2010 - As lead process engineer managing several projects for Valero Energy ... John has had to work on multiple projects moving at the same speed and on parallel timeframes, says Joe Rahija, a process engineer at Valero. ... 2: News in Brief.'
p4
aS'Oct 28, 2010 - LA Weekly is the definitive source of information for news, music, movies, ... funded by major oil corporations such as Tesoro, Valero and the agricultural-energy ...'
p5
aS"Oct 27, 2010 - Study: Texas-Based Valero Gouging California Drivers For A Decade ... report by Consumer Watchdog's OilWatchdog.org project finds that Valero Energy reaped ... Sign up for email updates and get the latest news about what Big Oil is up to."
p6
aS'Oct 27, 2010 - News ... In addition, Nella is a branded distributor of Chevron, Shell and Valero fuels for both wholesale and retail customers. Card lock fueling chains include ...'
p7
aS'Oct 27, 2010 - October 27, 2010 News & Opinion  Eco Watch .... Opponents of oil-by-rail shipments want the city to block a proposed Valero facility, but Valero says the city ...'
p8
aS"Oct 28, 2010 - Join LinkedIn to get the latest news, insights, and opportunities from over 3 million companies. It's free! Join LinkedIn ... Mina Fazelpour: Sr. Project Engineer at Alisto Engineering Group / SoCal Gas, Sempra Energy Utility ... Nancy Valero."
p9
aS'Oct 28, 2010 - LATEST NEWS ... Interstate tensions came out when it was publicized that Texas oil companies Valero and Tesoro, both based in San Antonio, had supplied the ...'
p10
a.