(lp0
S"Oct 19, 2010 - Valero Energy's St. Charles Refinery got St. Charles Parish's endorsement for $300 ... Latest live event and breaking news, weather, sports and entertainment ..."
p1
aS'Oct 19, 2010 - The two Texas-based oil companies behind the initiative  Valero and ... regulations, says Bill Day, spokesman for San Antonio-based Valero Energy Corp.'
p2
aS'Oct 20, 2010 - Valero - Benicia, CA ConocoPhillips - Sweeney ... STARCON International Inc. at Valero Energy Corporation, Benecia Refinery - STARCON International Inc.'
p3
aS'Oct 20, 2010 - The resolutions target Occidental Petroleum Corp., Valero Energy Corp. and Tesoro Corp., which have contributed to an $8-million campaign on behalf of ...'
p4
aS"Oct 19, 2010 - Cnooc is back in the US attempting to buy in to Chesapeake Energy's Eagle Ford Shale ..... Companies such as Sunoco and Valero also benefited from drives in ..."
p5
aS"Oct 19, 2010 - Yrle's next goal is to look at installing solar panels and possibly a small hydropower plant to capture the energy of the treated water that leaves the plant via a ..."
p6
aS"Oct 19, 2010 - A charge against a teenager of aggravated assault with a deadly weapon will likely be upgraded to murder, after a teen he's accused of shooting died, ..."
p7
aS'Oct 20, 2010 - Mexicans seek news of loved ones after deadly explosion ... ExpressNews.com  iPad app  eEdition  Search Our News Archive  Manage Your Subscription.'
p8
aS'Oct 20, 2010 - Home  About Us  News; Academics ... president and controller for Valero Energy Corporation, the largest independent petroleum refiner in the United States.'
p9
aS'Oct 20, 2010 - News & Events ... for Corporate Aviation Training (PCAT) is a non-profit organization, founded by the Valero Energy, HEB, and Zachry flight departments. more> ...'
p10
a.