(lp0
S'Oct 27, 2010 - News zur VALERO ENERGY AKTIE  und aktueller Realtime-Aktienkurs  VALERO ENERGY Aktien jetzt ab 5,00 US-Dollar handeln!'
p1
aS'Oct 27, 2010 - Submit Release. QUICK LINKS : Goldman Sachs Conviction Buy List  Carl Icahn News  Warren Buffett News  Ackman News ... Valero Energy Corp.'
p2
aS"Oct 27, 2010 - ... among the city's seven living former mayors spanned the creation of Valero Energy ... The discussion, moderated by San Antonio Express-News Editor Robert ..."
p3
aS'Oct 27, 2010 - San Antonio Express-News  ExpressNews.com  iPad app  eEdition  Search Our News Archive  Manage Your Subscription. Hearst Newspapers  Copyright ...'
p4
aS"Oct 27, 2010 - Study: Texas-Based Valero Gouging California Drivers For A Decade ... report by Consumer Watchdog's OilWatchdog.org project finds that Valero Energy reaped ... Sign up for email updates and get the latest news about what Big Oil is up to."
p5
aS'Oct 27, 2010 - News ... In addition, Nella is a branded distributor of Chevron, Shell and Valero fuels for both wholesale and retail customers. Card lock fueling chains include ...'
p6
aS'Oct 26, 2010 - U.S. DEPARTMENT OF ENERGY  TEXAS RECOVERY ACT SNAPSHOT. Texas has ... Geology, and Valero Energy ...... stated in a news release. Sysco is.'
p7
aS'Oct 27, 2010 - October 27, 2010 News & Opinion  Eco Watch .... Opponents of oil-by-rail shipments want the city to block a proposed Valero facility, but Valero says the city ...'
p8
aS'Oct 26, 2010 - Valero Energy Corp to export ethanol for first time  40,000 in southeast ... US News. The Robot-Snake Charger Designed by Tesla Could Scare you Along with ...'
p9
aS"Oct 28, 2010 - Join LinkedIn to get the latest news, insights, and opportunities from over 3 million companies. It's free! Join LinkedIn ... Mina Fazelpour: Sr. Project Engineer at Alisto Engineering Group / SoCal Gas, Sempra Energy Utility ... Nancy Valero."
p10
a.