(lp0
S"Oct 4, 2010 - PBF Energy, a new oil refinerbacked by a $2 billion private equity bet on distressed assets,said on Monday it picked ... The deal brings PBF closer to closing its acquisition of Valero Energy Corp's (VLO. ... Our top news photography last month."
p1
aS'Oct 4, 2010 - ... of the Paulsboro refinery from Valero, PBF entered into commitments arranged by ... About PBF Energy: PBF Energy owns and operates oil refineries and related facilities in North America. ... More News RSS feed for The Blackstone Group.'
p2
aS'Oct 5, 2010 - ... including real-time stock quotes, historical charts & financial news, all for free! ... attributable to four customers accounting for 33% (Valero Marketing Supply Co.) ... Encompass Energy Services Inc, OTCMKTS, EESI, 0.250, *, 0.000 (0.00%) ...'
p3
aS'Oct 5, 2010 - San Antonio Express-News  ExpressNews.com  iPad app  eEdition  Search Our News Archive  Manage Your Subscription. Hearst Newspapers  Copyright ...'
p4
aS'Oct 4, 2010 - CenterPoint Energy officials said the power had been shut off to the line because ... At a news briefing Tuesday, an AEP spokesman said this was the company s first ... Bill Day, a spokesman with Valero, said a three-day closure would not ...'
p5
aS'Oct 4, 2010 - Tammero, Michael, News Corporation, VP, Marketing, FOX News Network, LLC. Tan, Buck .... Thomas, Cheryl, Valero Energy Corporation, VP and CIO. Thomas ...'
p6
aS"Oct 4, 2010 - The Dallas Morning News today follows a strong investigation into millions of taxpayer dollars going to the .... Austin Energy customers foot bill  $2 a month per customer for 19. ... Valero tells the tax man what's what, awarded $5 million in."
p7
aS'Oct 3, 2010 - Valero Energy Corp to export ethanol for first time  40,000 in southeast ... US News. The Robot-Snake Charger Designed by Tesla Could Scare you Along with ...'
p8
aS'Oct 3, 2010 - Valero Energy Corp to export ethanol for first time  40,000 in southeast ... US News. The Robot-Snake Charger Designed by Tesla Could Scare you Along with ...'
p9
aS'Oct 3, 2010 - Sacramento, CA News - View Daily Local Business News, Resources & more in Sacramento, California. ... Industries & Tags: Environment,  Energy ... The proposition is backed by Tesoro and Valero, Texas oil companies that have footed ...'
p10
a.