(lp0
S"Oct 8, 2010 - Terminal News. Terminal News ..... reactivation project in the fourth quarter, connecting Valero Energy Corp's Ardmore refinery with Cushing for the first time."
p1
aS'Oct 7, 2010 - ... which started in June; Valero Energy Corp.; AT&T Inc.; and the Hearst Corp. ... Express-News Business Writers Jason Buch, Vicki Vaughan and William Pack ...'
p2
aS'Oct 7, 2010 - The "others" flanked LaHood, at a news conference Thursday on the steps of the Bexar County Courthouse. LaHood has changed his life, supporters say, and ...'
p3
aS'Oct 8, 2010 - More News From Greenwire .... The fight has pitted Brown once again against Big Oil -- this time the Valero Energy Corp., the Koch bothers and Tesoro Corp., ... For more news on energy and the environment, visit www.greenwire.com.'
p4
aS'Oct 8, 2010 - Stanford University students view the campus of Valero Benicia Refinery from its heliport Thursday morning during a ... Valero reduces its energy use and improves its efficiency by using its own co-generated waste heat. ... Filed Under: News ...'
p5
aS'Oct 7, 2010 - Oil & Energy News  Home  Oil and Energy Jobs ... Northern Tier Energy will operate the Minnesota assets as a stand-alone company. The senior Northern Tier ...'
p6
aS"Oct 8, 2010 - Safeway; PETCO Animal Supplies; News Corp; Comcast Cable; Land O'Lakes .... Royale Energy, Inc. Santos, Ltd; Shell; Swift Energy Co., Inc. Valero Energy ..."
p7
aS'Oct 8, 2010 - The CIO Energy Summit will bring together CIOs and IT executives to discuss ... Royale Energy, Inc. Santos, Ltd; Shell; Swift Energy Co., Inc. Valero Energy Corporation .... NBA; Sony Pictures; Dreamworks; MLB; New York Times; News Corp.'
p8
aS"Oct 8, 2010 - ... athletes interrupted by a story on poop, good news: It means you're normal. ... In a pre-energy bar era, Moss drew her in-race nutritional needs from an almost ..."
p9
aS'Oct 8, 2010 - Valero Energy Corp to export ethanol for first time  40,000 in southeast ... US News. The Robot-Snake Charger Designed by Tesla Could Scare you Along with ...'
p10
a.