(lp0
S'Nov 11, 2010 - ... San Antonio and volunteered to serve on the Valero Alamo Bowl Committee. ... Everyone is downtown in one spot and you feel the energy from your fan base.'
p1
aS"Nov 12, 2010 - Keep up with all the latest news from Texas Watchdog. Fan our page on .... Austin Energy customers foot bill  $2 a month per customer for 19... Texas props up wind, ... We will miss... Valero tells the tax man what's what, awarded $5 million in."
p2
aS"Nov 11, 2010 - ... more poisonous forms, according to reporting at the San Jose Mercury News. .... Valero in Benicia faced the same problem and put a stand-by scrubber on it's ... involved in energy production and transportation, no matter what the source."
p3
aS'Nov 13, 2010 - Valero Texas Open View Leaderboard > ..... Golf Channel Mobile offers instant access to the latest news, videos and photos from around the world of golf.'
p4
aS'Nov 11, 2010 - Thanks to donations from H-E-B, The USAA Foundation, Valero Energy ... Service Federal Credit Union, Tesoro, the San Antonio Express-News, News 4 WOAI, ...'
p5
aS'Nov 12, 2010 - Find 38 listings related to Valero in Little Rock on YP.com. See reviews, photos, directions, ... Valero Energy - CLOSED. 10402 Mabelvale ...'
p6
aS"Nov 12, 2010 - Valero Energy Corp to export ethanol for first time  40,000 in southeast ... US News. IBM Watson's Uses Artificial Intelligence techniques to Teach Robots Better ..."
p7
aS"Nov 12, 2010 - Community Impact Newspaper is Texas' fastest-growing news organization and ... and nonprofit organizations such as Miller Lite, Budweiser, Reliant Energy, ..."
p8
aS'Nov 13, 2010 - Valero Scholarships >>> (& Archer Daniels Midland) ... Scholarships  Valero Energy and Archer Daniels Midland Scholarships  Boeing HBCU and Goldman ...'
p9
aS'Nov 12, 2010 - A response from Chaz Ebert regarding the News-Gazette\'s April 10 article about ... FFC Gerardo Valero considers the flaws within "Star Wars: Episode VII - The .... We\'re also here, participating in the back and forth exchange of energy and ...'
p10
a.