(lp0
S"Nov 15, 2010 - Valero Energy Corp., of course, took the industry's breath away when it snatched up a big share of the bankrupt VeraSun assets and became one of the top U.S. ..."
p1
aS'Nov 15, 2010 - Memphis Daily News The Memphis News Chandler Reports Nashville Ledger .... Bill Day, executive director of media relations for Valero Energy Corp., said as ...'
p2
aS"Nov 16, 2010 - Valero Paulsboro PBF Energy agrees to 166 New Jersey buy on Sept. 27 for $360 million. Shell Heide Agreed sale to 91 Germany U.K.'s Klesch & Co. on Aug."
p3
aS'Nov 15, 2010 - However, because of an ethanol use mandate set out by the Energy Policy Act of 2005 and expanded in ... Valero Energy Corporation and ExxonMobil  two of the largest U.S. oil refiners  have publicly said ... Part of HuffPost on HPMG News.'
p4
aS'Nov 15, 2010 - Several traditional refiners including Valero Energy and Marathon Oil have bought or acquired interests in ethanol plants. Alternative fuel sources serve these ...'
p5
aS"Nov 15, 2010 - That's good news for the lungs of Californians. ... of Prop 23 were Texas-based oil companies like Tesoro and Valero Energy and Koch Industries (owned by the ..."
p6
aS"Nov 16, 2010 - Study: Texas-Based Valero Gouging California Drivers For A Decade ... report by Consumer Watchdog's OilWatchdog.org project finds that Valero Energy reaped ... Sign up for email updates and get the latest news about what Big Oil is up to."
p7
aS"Nov 16, 2010 - US Labor Department's OSHA publishes proposes rulemaking to prevent injuries from slips, trips and falls on walking-working surfaces. WASHINGTON  The ..."
p8
aS'Nov 17, 2010 - Analyze the Fidelity VIP Energy (FAVNR) and perform annuity research on other annuities. Learn more about ... News & Insights ..... VALERO ENERGY CORP.'
p9
aS'Nov 16, 2010 - Mexicans seek news of loved ones after deadly explosion ... ExpressNews.com  iPad app  eEdition  Search Our News Archive  Manage Your Subscription.'
p10
a.