(lp0
S'Nov 28, 2010 - In 1981, he partnered with Valero Energy and the humble refinery he founded in 1967 would soon become one of the largest and most state of the art refineries ...'
p1
aS'Nov 30, 2010 - Castro and his wife, Erica, will serve as co-chairs for the concert, along with retired Valero Energy Corp. President Ed Benninger and his wife, Nelda. Proceeds ...'
p2
aS'Nov 30, 2010 - Attend core competency seminar by Valero Energy Corporation in Aruba. Valero Core Competencies: train the trainer in Aruba. Promises; promises in ... News ...'
p3
aS'Nov 28, 2010 - "The news started out bad and got worse," Ron said. "I knew it .... For now, Ron is trying desperately to shift his family\'s energy and focus from "what if?" to "what ...'
p4
aS'Nov 29, 2010 - MENU. CB Law In the News  Our Firm  Our People  Practice Areas  Business Litigation ... Valero Energy Corporation, et al., 2012 U.S. Dist. LEXIS 40291 (S.D. ...'
p5
aS"Nov 29, 2010 - Company response: Valero Energy deferred questions on the stimulus .... Sign up for the Center for Public Integrity's Watchdog email and get the news you want ..."
p6
aS"Nov 29, 2010 - news. Read the latest from NRDC's Media Center. -Advocacy, publications ... Texas-based oil companies Valero and Tesoro emerged as the primary funders."
p7
aS"Nov 29, 2010 - To have others decide what will and what won't compromise your news-gathering methods? Would that not chill your ... Credit Valero Doval. Stuart Pilichowski"
p8
aS'Nov 29, 2010 - ... the chances of changing energy systems fast enough to limit global warming to less than 2C is "slim" and eventual temperature ... Earth News . In Climate Change. Fisherman Rene Valero, from the Urus ethnic group, is seen on his boat on ...'
p9
aS'Nov 29, 2010 - A well-known advocate of fighting climate change, the head of News ... He has led the way in California with limits on pollution and incentives for green energy.'
p10
a.