(lp0
S'Nov 25, 2010 - Mike Mora stood among a crowd of 455 people at Fort Sam Houston on Thanksgiving morning, waiting to give soldiers a break from their training and offer them a slice of home. ... Mora, 53, watched as 215 soldiers lined up in mass formation at MacArthur Parade Field as part of the ...'
p1
aS'Nov 26, 2010 - Gusts of freezing wind lashed at die-hard shoppers as they camped out for doorbuster deals on Black Friday - some folks still in pajamas and blankets, others in ...'
p2
aS'Nov 27, 2010 - Latest Business News ... San Antonio Express-News  ExpressNews.com  iPad app  eEdition  Search Our News Archive  Manage Your Subscription.'
p3
aS'Nov 25, 2010 - Some may have been surprised that longtime Bexar County District Clerk Margaret Montemayor was swept out of office Nov. 2, but not Donna Kay McKinney.'
p4
aS'Nov 26, 2010 - ... around the world in 2009. Source: BP Statistical Review of World Energy 2010. ... 8, Valero Energy Corp, 2,422,590, 2.8. 9, Saudi Aramco, 2,005,000, 2.3.'
p5
aS'Nov 26, 2010 - Valero Energy Corp to export ethanol for first time  40,000 in southeast Michigan still deprived of power ... Featured  Entertainment News  Anne Hathaway.'
p6
aS'Nov 25, 2010 - Valero Energy Corp to export ethanol for first time  40,000 in southeast ... US News. The Robot-Snake Charger Designed by Tesla Could Scare you Along with ...'
p7
aS'Nov 25, 2010 - A layer correlation technique for pion energy calibration at the 2004 ATLAS ..... M Karagoez Unelbs, G Unals, G Unelai, G Usait, R Van Bergbu, A Valerocz, ..... H.W. Bertini and M.P. Guthrie 1971 News item results from medium-energy ...'
p8
aS'Nov 26, 2010 - Chaz Ebert Responds to News-Gazette Ebertfest Article The Editors. A response from Chaz Ebert ... Not zap my energy nor dry my well. A summer day of ...'
p9
aS'Nov 26, 2010 - Valero Energy Corporation Energy. 48th in Top Companies By ... Notify me about Top 1000 news, promotions and tips. Email. Job Title. CEO, Chairman, Director ...'
p10
a.