(lp0
S"Nov 10, 2010 - Food trends may run from Continental cuisine to science experiments over the years, but there's no denying the enduring popularity of one dish: meatloaf. [."
p1
aS'Nov 9, 2010 - San Antonio Express-News  ExpressNews.com  iPad app  eEdition  Search Our News Archive  Manage Your Subscription. Hearst Newspapers  Copyright ...'
p2
aS'Nov 8, 2010 - King sat down with San Antonio Express-News staff for a Q&A. ... They spend so much emotional and mental energy worrying about who likes them and who ...'
p3
aS'Nov 8, 2010 - Highlights Work in Nuclear Energy, Science, Medicine, Technical Cooperation ...... JORGE VALERO ( Venezuela) said his country had benefited from technical cooperation and financial support from the IAEA .... News & Media Resources.'
p4
aS'Nov 8, 2010 - DOW JONES, A NEWS CORP COMPANY .... Congress gives them a hefty tax break, an argument that many other alternative energy projects are also making.'
p5
aS'Nov 8, 2010 - ... Freeman, about a conspiracy to suppress a new source of low-cost energy. ... FFC Gerardo Valero considers the flaws within "Star Wars: Episode VII - The ...'
p6
aS'Nov 10, 2010 - As of 4:15 PM 04/20/16 All times are local (Market data is delayed by at least 15 minutes). Snapshot  News  Charts ... Valero Energy Corporation, $1.2M.'
p7
aS'Nov 10, 2010 - Battelle Energy Alliance, LLC (BEA) .... A MidAmerican Energy Holdings Company 6226 W. Sahara Ave MS 25 .... Owned by Ultramar Inc., a Valero Company'
p8
aS'Nov 8, 2010 - Valero Energy Corp to export ethanol for first time  40,000 in southeast Michigan ... Cairn India Ltd. verified that its U. K. parent Cairn Energy PLC has sent a letter to ... US News. The Robot-Snake Charger Designed by Tesla Could Scare you ...'
p9
aS'Nov 8, 2010 - Pedro Javier Zapata , Gregory A Tucker , Daniel Valero , Mara Serrano. Journal of the Science of Food .... C&EN Online News. Chemical & Engineering News: ...'
p10
a.