(lp0
S'Dec 14, 2010 - The Express-News staff receives hundreds of request for stories and event announcements every day. Because space is limited, our editors must prioritize which ...'
p1
aS'Dec 15, 2010 - By John Tedesco/jtedesco@express-news.net .... A photograph from his last news conference shows him with a wisp of a mustache, shaggy hair and ...'
p2
aS'Dec 15, 2010 - ... traditionally non-Hispanic, Anglo neighborhoods and throughout the metro area. Express-News Staff Writer Melissa Fletcher Stoeltje contributed to this report.'
p3
aS'Dec 16, 2010 - Latest News about INT.N ... corporation and units resolving several pending issues. Mar 22 2016.  More INT.N News ... Valero Energy Corporation (VLONP.'
p4
aS'Dec 15, 2010 - December 15, 2010 News & Opinion  Eco Watch .... Opponents of oil-by-rail shipments want the city to block a proposed Valero facility, but Valero says the city ...'
p5
aS"Dec 15, 2010 - Valero Energy Corp to export ethanol for first time  40,000 in southeast ... US News. IBM Watson's Uses Artificial Intelligence techniques to Teach Robots Better ..."
p6
aS'Dec 15, 2010 - Valero Energy Corp to export ethanol for first time  40,000 in southeast ... US News. The Robot-Snake Charger Designed by Tesla Could Scare you Along with ...'
p7
aS'Dec 14, 2010 - ... The Cargill Partnership Plan, Textron Savings Plan, Valero Energy Corporation Thrift Plan, Freescale 401k Retirement Savings Plan, the 401k Savings and ...'
p8
aS'Dec 15, 2010 - This article was contributed by Daniel Valero, Rafael Garca-Bartual, Ignacio Andrs ... Such a device forces a hydraulic jump involving high energy losses and ...'
p9
aS'Dec 15, 2010 - Peterson took time off to work full time and refocus his energy and passion on his game. A high school friend, Dan Smith, pushed Peterson to give college ...'
p10
a.