(lp0
S'Dec 16, 2010 - Latest News about INT.N ... corporation and units resolving several pending issues. Mar 22 2016.  More INT.N News ... Valero Energy Corporation (VLONP.'
p1
aS'Dec 15, 2010 - By John Tedesco/jtedesco@express-news.net .... A photograph from his last news conference shows him with a wisp of a mustache, shaggy hair and ...'
p2
aS'Dec 15, 2010 - ... traditionally non-Hispanic, Anglo neighborhoods and throughout the metro area. Express-News Staff Writer Melissa Fletcher Stoeltje contributed to this report.'
p3
aS'Dec 17, 2010 - San Antonio Express-News  ExpressNews.com  iPad app  eEdition  Search Our News Archive  Manage Your Subscription. Hearst Newspapers  Copyright ...'
p4
aS'Dec 16, 2010 - In 1994 the river flooded but Texaco, Valero, and Exxon refused to cut off their lines and as a result ... Categories: Blog, Climate and Energy / Tags: Keystone xl.'
p5
aS'Dec 16, 2010 - Archive  Home / Top News / Special Reports ... PGA Tour: Top 10 players to watch at the Valero Texas Open  Australian report ... U.S. News  Energy Resources'
p6
aS'Dec 16, 2010 - Valero Energy Corp to export ethanol for first time  40,000 in southeast ... Confirming the news to the media was Al Jean, the executive producer of `The ...'
p7
aS'Dec 15, 2010 - Valero Energy Corp to export ethanol for first time  40,000 in southeast ... US News. The Robot-Snake Charger Designed by Tesla Could Scare you Along with ...'
p8
aS'Dec 15, 2010 - This article was contributed by Daniel Valero, Rafael Garca-Bartual, Ignacio Andrs ... Such a device forces a hydraulic jump involving high energy losses and ...'
p9
aS'Dec 15, 2010 - Peterson took time off to work full time and refocus his energy and passion on his game. A high school friend, Dan Smith, pushed Peterson to give college ...'
p10
a.