(lp0
S'Dec 9, 2010 - BP PLC ADS News BP Refinery Status: Valero To Restart Idled Aruba Refinery New ... Valero Delaware 210.0 PBF Energy has closed Apr deal to buy plant.'
p1
aS'Dec 9, 2010 - San Antonio Express-News  ExpressNews.com  iPad app  eEdition  Search Our News Archive  Manage Your Subscription. Hearst Newspapers  Copyright ...'
p2
aS'Dec 10, 2010 - Juan Moreno (seated right) talks with his lawyer, William Maynard, after being. Photo: BILLY CALZADA/gcalzada@express-news.net. Image 1of/1. Caption.'
p3
aS'Dec 9, 2010 - The city finally was spurred into action when an 18-inch rain in September 1921 left most of the business district submerged and drowned about 50 residents.'
p4
aS'Dec 10, 2010 - Mexicans seek news of loved ones after deadly explosion ... ExpressNews.com  iPad app  eEdition  Search Our News Archive  Manage Your Subscription.'
p5
aS'Dec 10, 2010 - FREDERICKSBURG  A jury found former Pedernales Electric Co-op General Manager Bennie Fuelberg guilty Friday of theft, money laundering and ...'
p6
aS"Dec 9, 2010 - He's deputy director of renewable energy at the California Energy Commission, ...... Local activists ask elected officials to block Valero's plan to ship oil by train."
p7
aS'Dec 9, 2010 - ... whether through the grossly unapologetic Koch Industries or ExxonMobil, or more slyly by the likes of Chevron or Duke Energy. ... POLLUTERWATCH News ...'
p8
aS'Dec 10, 2010 - Front Page  News ... The money came from the amendment to the Good Neighbor Steering Committee-Valero Improvement Project Settlement, and was ...'
p9
aS"Dec 9, 2010 - Douglas was filled with nervous energy, raw vitality. He couldn't remain ... Chaz Ebert Responds to News-Gazette Ebertfest Article The Editors. A response from ..."
p10
a.