(lp0
S"Dec 21, 2010 - Valero Energy Corp. has been receiving crude oil from the Eagle North Pipeline at ... according to the nation's Shana news service, which cited Oil Minister Bijan ..."
p1
aS'Dec 22, 2010 - Iowa biorefinery online in 2016 - where will we re-form energy next? ... as Tesoro, Valero and Marathon announced they would not sell E15 ethanol at their gas ...'
p2
aS'Dec 21, 2010 - ... supply in 2000, represents 20 percent today and could grow to 50 percent by 2035, according to a March report by IHS-Cambridge Energy Research Associates.'
p3
aS"Dec 21, 2010 - Cary Clack's column appears on Sundays, Tuesdays and Thursdays. To leave a message, call 210-250-3486 or e-mail at cclack@express-news.net."
p4
aS'Dec 21, 2010 - VALERO BENICIA REFINERY will be conducting a months-long project that makes this a common sight. ... in favor of installing new energy-efficient furnaces that further reduce the greenhouse gas produced by Valero, ... Filed Under: News ...'
p5
aS'Dec 21, 2010 - This system currently delivers crude oil to the BP Texas City and Valero Houston ... energy services to producers and consumers of natural gas, NGLs, crude oil, ...'
p6
aS'Dec 22, 2010 - December 22, 2010 News & Opinion  News .... Opponents of oil-by-rail shipments want the city to block a proposed Valero facility, but Valero says the city lacks ...'
p7
aS"Dec 21, 2010 - Valero Energy downgraded to neutral from outperform at Credit Suisse .... Plus, read more personal finance news in today's pages, including why you might ..."
p8
aS'Dec 22, 2010 - oil and gas news and contracts for contractors and engineers in the ... Talisman Energy Announces Strategic Partnership With Sasol in Montney Shale C$ 1,050 .... procurement and construction support lump sum contract by Valero Refining ...'
p9
aS'Dec 21, 2010 - Dec 21, 2010. ESPN.com news services. Email ... "Because our players really fed off the energy that he brings, the leadership that he brings." After that opening ...'
p10
a.