(lp0
S'Dec 27, 2010 - About: Valero Energy Corporation (VLO) ... 1.25% this morning (8am) as the Shanghai fell 2% and the Hang Seng dropped 0.3% on news that China was raising ...'
p1
aS'Dec 27, 2010 - 1, said Ken Medlock, an energy fellow at the James A. Baker III Institute for Public ... San Antonio-based spokesman for Valero Energy Corp., the largest U.S. refiner. .... Kuwaiti news agency reported, without giving a specific time for the restart.'
p2
aS'Dec 26, 2010 - Prediction news and technical articles from Oil & Gas Financial Journal. ... Valero Energy Corp., a Fortune 500 company based in San Antonio, is set to acquire ...'
p3
aS'Dec 27, 2010 - ... catches fire but no one is hurt. By Sarah Mills smills@express-news.net ... Photo: John Davenport/Express-News. Image 1of/6. Caption. Close. Image 1 of 6.'
p4
aS"Dec 26, 2010 - Photo: Courtesy Photo/Express-News. Image 1of/1. Caption. Close. Image 1 of 1. Jerry Butler's Wine & Spirit, released in November, is described as a guiltless ..."
p5
aS'Dec 26, 2010 - Oklahoma State offensive tackle Nick Martinez is doing his best to boost attendance at the Valero Alamo Bowl. At last count, about 40 people  family members, ...'
p6
aS'Dec 26, 2010 - news[In 46 min.] ... the aircraft and it is precisely what we have done," Bernard Valero, France\'s foreign ministry spokesman, told the Reuters news agency.'
p7
aS"Dec 27, 2010 - Photo Credit: Burt Harris/HGStar1-News ... Sure, this a long season, but to show little or no energy in a game that has been plastered on everybody's scorecard ..."
p8
aS'Oil Refinery. Energy Tomorrow. SubscribeSubscribedUnsubscribe 2,3552K. Loading... Loading... Working ...'
p9
aS'Refinery Control. Energy Tomorrow. SubscribeSubscribedUnsubscribe 2,3562K. Loading... Loading... Working ...'
p10
a.