(lp0
S'Dec 2, 2010 - This would be the third refinery purchase for Parsippany, New Jersey-based PBF, which agreed to buy two plants from Valero Energy Corp. this year.'
p1
aS"Dec 2, 2010 - Sunoco also said it may delay the spin-off its Suncoke Energy unit, citing pending litigation. ... PBF purchased a shuttered Valero refinery in Delaware City and a plant in .... Thomson Reuters is the world's largest international multimedia news ..."
p2
aS'Dec 2, 2010 - We are recognized as a leading firm in the energy, technology and life sciences sectors. ... News Release .... Valero Energy Corporation entered into a drop-down transaction with Valero Energy Partners LP for total consideration of $240 ...'
p3
aS"Dec 3, 2010 - News Video  Blogs  Philadelphia  New Jersey ... The fuel company will sell its Toledo refinery for $400 million to PBF Energy, the Connecticut firm that earlier this year acquired Valero Energy Corp.'s refineries in Delaware City, Del., and in ..."
p4
aS'Dec 2, 2010 - Simona Davis, the widow of the victim, struggles to explain her feelings after Seaton. Photo: TOM REEL/treel@express-news.net. Image 1of/2. Caption. Close.'
p5
aS'Dec 2, 2010 - San Antonio Express-News  ExpressNews.com  iPad app  eEdition  Search Our News Archive  Manage Your Subscription. Hearst Newspapers  Copyright ...'
p6
aS'Dec 3, 2010 - Latest Business News ... San Antonio Express-News  ExpressNews.com  iPad app  eEdition  Search Our News Archive  Manage Your Subscription.'
p7
aS"Dec 2, 2010 - Crews are putting the final touches on nearly 1000 vendor spaces that fill a new 300-acre flea market that will open on the city's Southwest Side. Shoppers will ..."
p8
aS"Dec 2, 2010 - News Clipping. Energy Co's Pay Regulators' Way ... Energy Firms Help Pay For State Regulators' Far-Flung Trips By Tom Knudson, SACRAMENTO BEE July ..."
p9
aS"Dec 3, 2010 - Another piece of good news was the selection of the Westville Environmental ...... buy Valero Energy Corp's Delaware City, Delaware, refinery for $220 million as ..."
p10
a.