(lp0
S"Dec 6, 2010 - According to the company, the new unit will function in a waste heat (flue gas) steam generator application, and is to be installed at Valero Energy Corporation's ..."
p1
aS'Dec 7, 2010 - Carlos Guerra, a former columnist for the San Antonio Express-News who began his career as a civil rights activist, grants writer and fundraiser, was found dead ...'
p2
aS'Dec 6, 2010 - San Antonio TV and media columnist Jeanne Jakle writes about television, TV shows and local media for mySanAntonio.com and San Antonio Express-News.'
p3
aS"Dec 6, 2010 - In October, the Chinese news outlet People's Online Daily reported that the ..... In September, Valero Energy Corp. agreed to sell its 185,000-b/d refinery at ..."
p4
aS'Dec 7, 2010 - Parent Name, Parent Ticker, Spinoff Name, Spinoff Ticker ...'
p5
aS'Dec 7, 2010 - Other Related News: The Philadelphia Inquirer; Breaking News; Thursday, 23 July 2009. Good Morning ... Valero Energy Corporation | H-E-B. Coordinated by:'
p6
aS'Dec 7, 2010 - The Cancun Climate Conference is using up as much energy as a small village in England for a whole year. ... In Climate Change. Fisherman Rene Valero, from the Urus ethnic group, is seen on his boat on ... Top news galleries ...'
p7
aS'Dec 6, 2010 - Archive  Home / Top News / World News .... PGA Tour: Top 10 players to watch at the Valero Texas Open  Australian report ... U.S. News  Energy Resources'
p8
aS'Dec 6, 2010 - Additionally, the Department of Energy is .... Valero Energy Corporation ... news, Wilkins added, is that Houston is better prepared for terrorism than most cities.'
p9
aS'Dec 7, 2010 - Download the vector logo of the Valero Corner Store brand designed by in Encapsulated ... Red Corner Fitness and Boxing Club; Logo of Valero Energy Valero ...'
p10
a.