(lp0
S'Jan 11, 2010 - Noria news wires. Articles by Noria news wires .... 2010-09-29; PBF to Acquire Valero Energy Refinery in Paulsboro, N.J.  Noria news wires 2010-09-29; Alfa ...'
p1
aS'Jan 10, 2010 - Nevertheless, Valero (NYSE:VLO), the biggest refiner, trades for two thirds book value. Valero ... Subscribe to News To Use for the latest insights and analysis ...'
p2
aS'Jan 11, 2010 - High energy prices, including prices at the pump, will slow and even reverse ... Sign up for email updates and get the latest news about what Big Oil is up to.'
p3
aS'Jan 12, 2010 - Topic: Energy. After temporarily closing down its facilities in St. Nicolas, Valero Refinery Aruba still is seeking buyer for the aging facility. ... Tourism News.'
p4
aS'Jan 10, 2010 - UPI delivers the latest headlines from around the world: Top News, ... PGA Tour: Top 10 players to watch at the Valero Texas Open. Videos ... Energy Resources'
p5
aS"Jan 10, 2010 - News. World  U.S.  Politics  N.Y.  Business  Tech  Science  Health  Sports  Education  Obituaries  Today's Paper  Corrections ..."
p6
aS'Jan 11, 2010 - Valero Energy Corp to export ethanol for first time  40,000 in southeast ... US News. The Robot-Snake Charger Designed by Tesla Could Scare you Along with ...'
p7
aS'Jan 10, 2010 - ... battlefields and barbed-wire trenches of WWI, a flight of brain energy making ... FFC Gerardo Valero considers the flaws within "Star Wars: Episode VII - The ..... Many editors would see that it\'s news and say "give me the review, good or bad".'
p8
aS'Jan 11, 2010 - ... taxpayers in the city are ExxonMobil Company, CenterPoint Energy, Verizon Southwest, Wal-Mart Stores, Inc., Continental Airlines, Inc., Valero Marketing & Supply, Car ... Join us for conversations on the latest news in the industry, company ...'
p9
aS'Jan 10, 2010 - News reports said that Cotto Sr., age 57, apparently suffered a heart attack while driving on Jan. 3. He suffered from severe asthma and carried an oxygen tank ...'
p10
a.