(lp0
S'Jan 11, 2010 - Noria news wires. Articles by Noria news wires .... 2010-09-29; PBF to Acquire Valero Energy Refinery in Paulsboro, N.J.  Noria news wires 2010-09-29; Alfa ...'
p1
aS'Jan 11, 2010 - High energy prices, including prices at the pump, will slow and even reverse ... Sign up for email updates and get the latest news about what Big Oil is up to.'
p2
aS'Jan 12, 2010 - I had been working on The News-Gazette in Champaign-Urbana since 1958, and .... FFC Gerardo Valero considers the flaws within "Star Wars: Episode VII - The ..... their minds... because real life takes time, energy, our attention and focus.'
p3
aS'Jan 11, 2010 - Valero Energy Corp to export ethanol for first time  40,000 in southeast ... US News. The Robot-Snake Charger Designed by Tesla Could Scare you Along with ...'
p4
aS'Jan 12, 2010 - One of the drawbacks of working for the Valero Alamo Bowl is that you are too busy to attend the bowl games that kickoff before yours and too wiped out to go to ...'
p5
aS'Jan 12, 2010 - Topic: Energy. After temporarily closing down its facilities in St. Nicolas, Valero Refinery Aruba still is seeking buyer for the aging facility. ... Tourism News.'
p6
aS'Jan 12, 2010 - ... dark field scanning electron microscopy and electron energy loss spectroscopy. ... Roco Jurado , Paulina Frczek , Mlissa Droetto , Purificacin Snchez , Elsa Valero , Jos M. Domnguez-Vera , Natividad Glvez .... C&EN Online News.'
p7
aS"Jan 12, 2010 - This entry was posted in Biomass, Climate, energy, health, pollution, Waste and ... Years ago, I suggested in the State News that Delaware Electric Cooperative ... Valero's Delaware City Refinery, and NRG's Indian River Power Plantpump ..."
p8
aS'Jan 13, 2010 - Alex Martinez- Atmos Energy. Wanda Merritt- US ..... K L B K & K A M C News. Kuykendall Foundation ... Valero Energy Corporation. WestMark Realtors*.'
p9
aS'Jan 11, 2010 - Fresh off the News Everyone Already Knows desk: Mark McGwire admits to steroid use . .... How much cash is up for grabs at the 2016 Valero Texas Open?'
p10
a.