(lp0
S"Jan 21, 2010 - UPDATE 1-Valero says Aruba refinery tax dispute deal proposed ... HOUSTON, Jan 21 Valero Energy Corp (VLO.N) said ... Thomson Reuters is the world's largest international multimedia news agency, providing investing news, world news, ..."
p1
aS"Jan 20, 2010 - Leading U.S. refiner Valero Energy Corp (VLO. ... N); Benicia,owned by Valero; and Martinez, where one is owned by Shell andthe other by Tesoro Corp (TSO. ... Thomson Reuters is the world's largest international multimedia news agency, ..."
p2
aS'Jan 20, 2010 - DOW JONES, A NEWS CORP COMPANY ... companies in the worlds of diversified media, news, education, and information services. .... Valero Energy Corp.'
p3
aS'Jan 20, 2010 - mySouTex.com is your website for breaking news, classifieds, and businesses in South Texas.'
p4
aS'Jan 20, 2010 - Valero Energy Corporation ... Valero St Charles Refinery ... With the latest News & Advice from Manta, you can stay ahead of the trends and challenges affecting ...'
p5
aS'Jan 20, 2010 - January 20, 2010 News & Opinion  News .... Opponents of oil-by-rail shipments want the city to block a proposed Valero facility, but Valero says the city lacks ...'
p6
aS'Jan 20, 2010 - Contact Us. News and Info .... VLO US, VALERO ENERGY CORP, UNITED STATES, 2.34. KMI US ... NBL US, NOBLE ENERGY INC, UNITED STATES, 0.91.'
p7
aS'Jan 20, 2010 - Methodologies for estimating shipping emissions and energy consumption: A comparative ... Juan Moreno-Gutirrez , Ftima Calderay , Nieves Saborido , Maria Boile , Rafael Rodrguez Valero , Vanesa Durn-Grados .... C&EN Online News.'
p8
aS'Jan 21, 2010 - Get All the Oil and Gas Journal News Delivered to Your Inbox ... Manitok Energy Inc., Calgary, has completed the purchase of natural gas processing and ...'
p9
aS"Jan 21, 2010 - Mark Holan/Sun NewsMike Byrne is facing some tough decisions in the city's ... of business owners, spearheaded by Doug Schull of the Valero gas station, who ..."
p10
a.