(lp0
S"Jan 5, 2010 - The World's #1 Renewable Energy Network for News, Information, and Companies. .... Another big biofuel order recently announced by Valero Energy could be ..."
p1
aS'Jan 3, 2010 - Mark Cirinna. Valero Energy. Corporation .... submissions to news@neisd.net or mail to 8961 Tesoro Drive, San Antonio, Texas, 78217. For more information ...'
p2
aS'Jan 4, 2010 - Valero Energy Corp to export ethanol for first time  40,000 in southeast ... US News. The Robot-Snake Charger Designed by Tesla Could Scare you Along with ...'
p3
aS'Jan 4, 2010 - E-mail daily trend deliverable of the most recent and noteworthy news from design industries to a mailing list of ... Tax Specialist at Valero Energy Corporation.'
p4
aS'Jan 3, 2010 - Skip navigation. Products  News & Advice  Academy  Community  Find a Business  ADD BUSINESS ... Valero Energy Station Gasoline Service Stations in ...'
p5
aS'Jan 5, 2010 - DEP Offices | Agency History | News | Outlook Web Access ...'
p6
aS'Jan 4, 2010 - Valero. AVERAGE STORE SIZE: 2,800 square feet with six MPDs ... 70% ownership in Platinum Energy,. Agoura Hills ... when news broke in August 2008 that.'
p7
aS'Jan 5, 2010 - Easily apply. 26 days ago - email. Sponsored by Job News ... America & Caribbean (LAC)  Enphase Energy - 9 reviews - Rio Piedras, PR ...'
p8
aS'Jan 3, 2010 - Valero Energy declined to comment but said they are "not currently in the market for ... Keep up with the latest business news from the region with the Emirates ...'
p9
aS'Jan 3, 2010 - Sign up to get the latest science news delivered weekly right to your inbox! ... Sheril Kirshenbaum is a research scientist with the Webber Energy Group at the ...'
p10
a.