(lp0
S"Jan 5, 2010 - The World's #1 Renewable Energy Network for News, Information, and Companies. .... Another big biofuel order recently announced by Valero Energy could be ..."
p1
aS"Jan 5, 2010 - Valero Energy Corp to export ethanol for first time  40,000 in southeast ... the world's tallest building Burj Dubai here Monday, WAM news agency reported."
p2
aS'Jan 4, 2010 - Valero Energy Corp to export ethanol for first time  40,000 in southeast ... US News. The Robot-Snake Charger Designed by Tesla Could Scare you Along with ...'
p3
aS"Jan 5, 2010 - Noria news wires 2015-05-21; Advantages of Using Lube .... Noria news wires 2010-03-08; Valero Energy's Lubrication Transformation  Paul V. Arnold, Noria ..."
p4
aS'Jan 5, 2010 - DEP Offices | Agency History | News | Outlook Web Access ...'
p5
aS'Jan 4, 2010 - E-mail daily trend deliverable of the most recent and noteworthy news from design industries to a mailing list of ... Tax Specialist at Valero Energy Corporation.'
p6
aS'Jan 4, 2010 - Valero. AVERAGE STORE SIZE: 2,800 square feet with six MPDs ... 70% ownership in Platinum Energy,. Agoura Hills ... when news broke in August 2008 that.'
p7
aS'Jan 5, 2010 - Good news  business users can rapidly procure and deploy, while innovating with minimal budget and IT team constraints. Bad news  users must depend ...'
p8
aS'Jan 5, 2010 - Easily apply. 26 days ago - email. Sponsored by Job News ... America & Caribbean (LAC)  Enphase Energy - 9 reviews - Rio Piedras, PR ...'
p9
aS'Jan 6, 2010 - Topic: Energy. A new government took helm of Aruba early ... Today the government published new prices in local news papers. New gas prices will be updated ...'
p10
a.