(lp0
S'Feb 17, 2010 - Energy major Reliance Industries may be forced to raise its offer for LyondellBasell ... include assets owned by U.S.-based Valero Energy and Sunoco, energy assets belonging ... (For more news on Reuters Money visit www.reutersmoney.in) ...'
p1
aS'Feb 17, 2010 - Valero Energy Corp (NYSE: VLO)Buy @ 19, Stop @ 15.65 ..... Also, any whiff of good newssuch as an uptick in US gasoline demandwould be an important ...'
p2
aS'Feb 16, 2010 - Find 23 listings related to Valero in Des Allemands on YP.com. ... From Business: Valero Refining is a subsidiary of Valero Energy ...'
p3
aS'Feb 16, 2010 - Ali Akbar Salehi, Iran\'s atomic energy chief, claimed Monday that the allies had ... to unveil the contents of this proposal," Salehi told Iran\'s Fars News Agency. ... a satisfactory response," French foreign ministry spokesman Bernard Valero said.'
p4
aS"Feb 16, 2010 - DealBook - A Financial News Service of The New York Times ... Mr. Dickman has more than 20 years of experience in the energy world and was last ... Richfield on its sale to BP in 2000 and the refiner Valero's 2001 acquisition of Ultramar."
p5
aS'Feb 17, 2010 - East Bay Express. Oakland, Berkeley, And East Bay News, Events, Restaurants, Music, & Arts ... Create Account. February 17, 2010 News & Opinion  Feature ...'
p6
aS'Feb 17, 2010 - Oakland, Berkeley, And East Bay News, Events, Restaurants, Music, & Arts ..... The restaurant owners need to focus their energy on getting better tasting food ...'
p7
aS'Feb 17, 2010 - Valero Energy Corp to export ethanol for first time  40,000 in southeast Michigan still deprived of power ... There is good news for Indian advertising industry.'
p8
aS'Feb 16, 2010 - FACT: PSEA members from every part of the Commonwealth volunteer their time and energy to study the candidates and their positions on issues of importance ...'
p9
aS"Feb 17, 2010 - Chaz Ebert Responds to News-Gazette Ebertfest Article The Editors. A response ... There's an energy to the director's passions that are very powerful as well."
p10
a.