(lp0
S"Feb 24, 2010 - News & Opinions ... Petroplus Chief Executive Thomas O'Malley sold his previous venture U.S. refiner Premcor Inc to Valero Energy Corp in 2005 and is now in ..."
p1
aS'Feb 24, 2010 - Abstract Since mass and energy balances are coupled, process energy can be optimized ... www1.eere.energy.gov/news/progress_alerts/progress_ alert.asp?aid=183. ... Valero: Houston Refinery Uses Plant-Wide Assessment to Develop an ...'
p2
aS'Feb 23, 2010 - Valero Energy Corp to export ethanol for first time  40,000 in southeast ... US News. The Robot-Snake Charger Designed by Tesla Could Scare you Along with ...'
p3
aS'Feb 23, 2010 - Valero Energy Corp to export ethanol for first time  40,000 in southeast ... US News. The Robot-Snake Charger Designed by Tesla Could Scare you Along with ...'
p4
aS'Feb 23, 2010 - P.S. Debbie, thank you so much for bring forward reliable and solid news, which ... I told off a gas station troll at a Valero(I was really low and in a hurry) when he .... and disease or other issues and you are wasting your time and energy on this.'
p5
aS'Feb 24, 2010 - FFC Gerardo Valero considers the flaws within "Star Wars: Episode VII - The Force .... Seeing him unmasked in the prison sequence, his energy and intensity in .... in the Bad News Bears films and the psuedo disaster epic "Damnation Alley.'
p6
aS'Feb 23, 2010 - Archive  Home / Science News .... PGA Tour: Top 10 players to watch at the Valero Texas Open. Videos. Photos ... World News  U.S. News  Energy Resources'
p7
aS'Feb 24, 2010 - February 24, 2010 News & Opinion  News ..... Everything you need to know about saving water, energy efficiency, sustainable farming and eating, and more.'
p8
aS'Feb 23, 2010 - List of top ranked PGA golfers in the playing field for 2016 Valero Texas Open  Hot photos of Nieke Coetzee the girlfriend of PGA golfer Branden Grace in 2016 ...'
p9
aS"Feb 24, 2010 - Pacquiao opposes dirty energy - the issue is much larger. Floyd's allegations anger Manny. Roach: 'The first time I've seen Manny angry at another fighter' ..."
p10
a.