(lp0
S'Feb 7, 2010 - Story courtesy of The Morning News ... Valero Energy (VLO) Tuesday said its Aruba refinery may resume operations after completing turnaround maintenance in ...'
p1
aS'Feb 8, 2010 - Valero says it is in advanced talks with PBF Investments to sell the plant. [. ... companies to sidestep all regulations, said Mark Norman, an environmental and energy lawyer with Vorys in Cincinnati. ... Why stocks need more really bad news.'
p2
aS'Feb 7, 2010 - The Greenville News ... a partnership between Diamond Alternative Energy, a wholly owned subsidiary of Valero Energy Corp., and American Process Inc.'
p3
aS'Feb 7, 2010 - ... 31, the newly named director of the Valero Texas Open, the opportunities are ... News. CPS Energy board offers departing CEO Doyle Beneby a deal to stay ...'
p4
aS'Feb 8, 2010 - Wind energy grants under stimulus program. By Russ Choma.'
p5
aS'Feb 9, 2010 - Absolutely not, Geithner said, when asked in an ABC News interview broadcast yesterday whether a downgrade is a ... Valero Is Approaching Bargain Territory ... Williams Is Worth Owning Even If The Energy Transfer Equity Merger Fails.'
p6
aS'Feb 7, 2010 - They said his consultancy group, The Energy and Resources Institute (Teri), had built a university on The Ridge, a protected ... Earth News . In Climate Change. Fisherman Rene Valero, from the Urus ethnic group, is seen on his boat on ...'
p7
aS'Feb 7, 2010 - The Energy and Resources Institute (Teri) has given awards for ... Earth News  ... Fisherman Rene Valero, from the Urus ethnic group, is seen on his boat on ...'
p8
aS"Feb 7, 2010 - In March of 2008 more good news came Valero's way as he was cleared to fight in the state of Texas, giving him at least a taste of championship level pugilism ..."
p9
aS'Feb 8, 2010 - ... DW PRACTICE LLC,34 HALLIBURTON ENERGY SERVICES INC,34 OREGON ...... BANK NATIONAL ASSOCIATION,6 U S FRONTLINE NEWS INC,6 UNITED ... STATE UNIVERSITY,6 UTOPIACOMPRESSION CORP,6 VALERO ENERGY ...'
p10
a.