(lp0
S'Mar 9, 2010 - Valero Energy Corp. News VLO CERA Week: Valero: Still Considering Options For Aruba New York Stock Exchange Announcements, Company Reports ...'
p1
aS'Mar 10, 2010 - Lima, OH Husky Energy has agreed to pay refinery workers in Lima, Ohio, nearly ... in place by Valero Energy, from whom Husky purchased the refinery in May 2007. ... According to the Lima News, the DOL initiated a two-year investigation in ...'
p2
aS'Mar 11, 2010 - In January, Artpace, a local institution that fosters the creation and advancement of international contemporary art, launched a year-long exhibition of 13 ...'
p3
aS'Mar 10, 2010 - ... Antonio Clean Technology Regional Water Forum 2010 at the Pearl Stable with moderator Robert Rivard (back to camera), editor of the Express-News. less.'
p4
aS"Mar 9, 2010 - Environment News Service latest environmental news, global warming, ... caused by a malfunction at the Tesoro Energy Corp's refinery in Wilmington, ... Along with the Tesoro refinery, Wilmington hosts ConocoPhillips and Valero refineries."
p5
aS'Mar 10, 2010 - March 10, 2010 News & Opinion  News .... Opponents of oil-by-rail shipments want the city to block a proposed Valero facility, but Valero says the city lacks this ...'
p6
aS'Mar 10, 2010 - March 10, 2010 News & Opinion  Eco Watch .... Opponents of oil-by-rail shipments want the city to block a proposed Valero facility, but Valero says the city ...'
p7
aS'3/9/2010-On Tuesday, Chevron Corp. (NYSE:CVX) said it will eliminate 2,000 positions this year and that it ...'
p8
aS"Mar 9, 2010 - Recent investigations from fellow members of the Investigative News Network ... story on the $78,000-per-house rollout of stimulus program to make homes energy-efficient ... Valero tells the tax man what's what, awarded $5 million in."
p9
aS'Mar 10, 2010 - "Just woke up to the sad, sad news that Corey Haim passed away. .... PGA Tour: Top 10 players to watch at the Valero Texas Open ... Energy Resources'
p10
a.