(lp0
S'Mar 15, 2010 - By Cindy George - Express-News .... Antonio Express-News  ExpressNews.com  iPad app  eEdition  Search Our News Archive  Manage Your Subscription.'
p1
aS'Mar 17, 2010 - ... San Antonio Express-News, touting ?cutting-edge? technology for oncology imaging, breast imaging ... 1 Key Cenovus Energy Stock Number You Must Know ...'
p2
aS'Mar 15, 2010 - Eastman Kodak Co. 10. Koch Industries. 11. ConocoPhillips. 12. Valero Energy Corp. 13. General Electric Co. 14. AK Steel Holding. 15. Dow Chemical Co. 16.'
p3
aS'Mar 16, 2010 - Valero Energy Corp to export ethanol for first time  40,000 in southeast ... US News. The Robot-Snake Charger Designed by Tesla Could Scare you Along with ...'
p4
aS"Mar 16, 2010 - Valero Energy Corp to export ethanol for first time  40,000 in southeast ... US News. IBM Watson's Uses Artificial Intelligence techniques to Teach Robots Better ..."
p5
aS'Mar 15, 2010 - Valero Energy Corp to export ethanol for first time  40,000 in southeast ... US News. The Robot-Snake Charger Designed by Tesla Could Scare you Along with ...'
p6
aS'Mar 15, 2010 - Follow the link below to sign up for our breaking news alerts and specialty newsletters: Sonoma Report, Napa Report and Wine Industry Report. Signup ...'
p7
aS'Mar 16, 2010 - Valkyrie, let me break the bad news... marginal income is already taxed way beyond 50%. If you add up federal, state, .... Valero Energy Corp. 37. Bruce Karatz.'
p8
aS'Mar 15, 2010 - Contact  News ... Alon USA Energy, Inc. (NYSE: ALJ)  Alon USA Partners, LP (NYSE: ALDW) ... Executive Vice President of Refining and Marketing Operations with Frontier Oil Corporation and Senior Vice President of Planning with Valero.'
p9
aS'Mar 16, 2010 - F. Leardini , J. R. Ares , J. Bodega , M. J. Valero-Pedraza , M. A. Baares , J. F. Fernndez , and C. Snchez. The Journal of Physical Chemistry C 2012 116 (46), ...'
p10
a.