(lp0
S'Mar 17, 2010 - Valero Texas Open. April 18 - 24, 2016 ... Valero Volunteer Council, Debra Weems, Jennifer Kester. Volunteer ... Valero Energy Corporation  USAA Real Estate ...'
p1
aS'Mar 17, 2010 - News. HOUSTON, March 17, 2010 -- The partners of Baker Botts L.L.P. have ... Valero Energy Corporation in the $240 Million Drop-Down to Valero Energy ...'
p2
aS'Mar 19, 2010 - By Peter J. Holley - Express-News ... Antonio Express-News  ExpressNews.com  iPad app  eEdition  Search Our News Archive  Manage Your Subscription.'
p3
aS'Mar 18, 2010 - Latest Business News ... San Antonio Express-News  ExpressNews.com  iPad app  eEdition  Search Our News Archive  Manage Your Subscription.'
p4
aS'Mar 17, 2010 - San Antonio Express-News  ExpressNews.com  iPad app  eEdition  Search Our News Archive  Manage Your Subscription. Hearst Newspapers  Copyright ...'
p5
aS'Mar 17, 2010 - Mexicans seek news of loved ones after deadly explosion ... ExpressNews.com  iPad app  eEdition  Search Our News Archive  Manage Your Subscription.'
p6
aS'Mar 17, 2010 - March 17, 2010 News & Opinion  News .... Opponents of oil-by-rail shipments want the city to block a proposed Valero facility, but Valero says the city lacks this ...'
p7
aS'Mar 17, 2010 - March 17, 2010 News & Opinion  News ..... Opponents of oil-by-rail shipments want the city to block a proposed Valero facility, but Valero says the city lacks this ...'
p8
aS'Mar 17, 2010 - Archive  Home / Top News / U.S. News .... PGA Tour: Top 10 players to watch at the Valero Texas Open. Videos. Photos ... U.S. News  Energy Resources'
p9
aS'Mar 18, 2010 - Valero Energy Corp to export ethanol for first time  40,000 in southeast Michigan ... The share market reacted positively to the news and the share prices of the ...'
p10
a.