(lp0
S'Mar 19, 2010 - By Peter J. Holley - Express-News ... Antonio Express-News  ExpressNews.com  iPad app  eEdition  Search Our News Archive  Manage Your Subscription.'
p1
aS'Mar 20, 2010 - Merrisa Brown, Express-News - ... San Antonio Express-News  ExpressNews.com  iPad app  eEdition  Search Our News Archive  Manage Your Subscription.'
p2
aS'Mar 18, 2010 - Latest Business News ... San Antonio Express-News  ExpressNews.com  iPad app  eEdition  Search Our News Archive  Manage Your Subscription.'
p3
aS'Mar 19, 2010 - By Vincent T. Davis - Express-News .... Antonio Express-News  ExpressNews.com  iPad app  eEdition  Search Our News Archive  Manage Your Subscription.'
p4
aS'Mar 19, 2010 - Valero Energy Corp to export ethanol for first time  40,000 in southeast ... US News. The Robot-Snake Charger Designed by Tesla Could Scare you Along with ...'
p5
aS'Mar 18, 2010 - Valero Energy Corp to export ethanol for first time  40,000 in southeast Michigan ... The share market reacted positively to the news and the share prices of the ...'
p6
aS'Mar 19, 2010 - Valero Energy Corp to export ethanol for first time  40,000 in southeast ... US News. The Robot-Snake Charger Designed by Tesla Could Scare you Along with ...'
p7
aS'Mar 18, 2010 - Valero Energy Corp to export ethanol for first time  40,000 in southeast ... US News. The Robot-Snake Charger Designed by Tesla Could Scare you Along with ...'
p8
aS'Mar 19, 2010 - Valero Energy Corp to export ethanol for first time  40,000 in southeast ... US News. The Robot-Snake Charger Designed by Tesla Could Scare you Along with ...'
p9
aS'Mar 18, 2010 - The transport sector will have to be run on electricity from renewables or low carbon energy such as nuclear, ... Earth News   Environment . In Climate Change. Fisherman Rene Valero, from the Urus ethnic group, is seen on his boat on ...'
p10
a.