(lp0
S'Mar 21, 2010 - Valero Energy Corp to export ethanol for first time  40,000 in southeast ... US News. The Robot-Snake Charger Designed by Tesla Could Scare you Along with ...'
p1
aS'Mar 21, 2010 - Valero Energy Corp to export ethanol for first time  40,000 in southeast ... US News. The Robot-Snake Charger Designed by Tesla Could Scare you Along with ...'
p2
aS"Mar 22, 2010 - ... provide its MagnaCat catalyst separation system to Valero's Corpus Christi HOC unit. ... products and services used in hydrocarbon and energy-related activities. ... Get the latest industry news, insights, and analysis delivered to your inbox."
p3
aS'Mar 22, 2010 - SA Express News foodie and author Pat Mozersky says she loves Ottavio Private Reserve, a Tuscan blend, and she has some wonderful information about olive ...'
p4
aS'Mar 22, 2010 - Girls Inc. 4th Annual Science Festival Presented by Valero. ... News By Tag ... SAN ANTONIO, TX  March 22, 2010  Valero Energy Corporation has been ...'
p5
aS'Mar 22, 2010 - CIRCE, Center of Research for Energy Resources and Consumption, ... Valero, A.; Usn, S.; Torres, C.; Valero, A. Application of Thermoeconomics to Industrial ...'
p6
aS'Mar 21, 2010 - News Corporation (NASDAQ:NWSA), NWSA, 7.0%, 0.30, 2.10%. Nicor Inc. GAS, 19.0% .... Valero Energy Corporation, VLO, -5.0%, 0.11, -0.55%. Varian Medical ...'
p7
aS'Mar 21, 2010 - Victor Jimenez, Francisco J. Cazorla, Roberto Gioiosa, Eren Kursun, Canturk Isci, Alper Buyuktosunoglu, Pradip Bose, Mateo Valero, A Case for Energy-Aware ...'
p8
aS'Mar 21, 2010 - How much cash is up for grabs at the 2016 Valero Texas Open? The 2016 Valero Texas Open golf tournament on the PGA Tour is taking place this week from ...'
p9
aS'Mar 22, 2010 - ... $90 million; and Valero Energy, up to $20 million. Verizon has also warned its employees about its new higher health-care costs, and there will be many more ...'
p10
a.