(lp0
S'Mar 29, 2010 - Before joining Tesoro, Smith was chief financial officer at Valero Energy Corp., a larger San Antonio refiner and marketer. Smith is the highest-compensated ...'
p1
aS"Mar 29, 2010 - Latest PSX News | Press Releases ... Warren Buffett's Favorite Energy Stock Doesn't Care About Low Oil Prices ... change. VLOValero Energy, +0.43, +0.71%."
p2
aS"Mar 28, 2010 - Speaking on ABC News's This Week, Jarrett said the administration is taking ... Holding Corp.; up to $90 million at 3M; and up to $20 million at Valero Energy."
p3
aS'Mar 29, 2010 - ... the Region 8 Science Fair was sponsored by Valero St. Charles Refinery. ... first, energy and transportation; Priash Patel, second, engineering; Michael Sitarz, ...'
p4
aS'Mar 29, 2010 - They can also decide whether to share their good news with the public. ..... Valero Energy Corp, an oil and gas refining company based in San Antonio, Texas, ...'
p5
aS'Mar 28, 2010 - Valero Energy Corp to export ethanol for first time  40,000 in southeast ... US News. The Robot-Snake Charger Designed by Tesla Could Scare you Along with ...'
p6
aS"Mar 29, 2010 - Valero Energy Corp to export ethanol for first time  40,000 in southeast ... for Physical and Chemical Analysis, China's state-run news agency said on Friday."
p7
aS"Mar 28, 2010 - Noria news wires ... Valero Energy's Lubrication Transformation  The Advantages of Lubricant Conditioners  How Temperature Affects Lubricants  Selecting the ..."
p8
aS'Mar 29, 2010 - Henry Waxman, chairman of the House Committee on Energy and Commerce, has ... the companies -- so far, they include AT&T, Verizon, Caterpillar, Deere, Valero Energy, AK Steel and 3M ... The news is an embarrassment for Democrats.'
p9
aS'Mar 28, 2010 - New Fox News piece: Unemployment Numbers Are a Mixed Bag ...... week, AK Steel Corp., Caterpillar Inc., Deere & Co. and Valero Energy announced similar ...'
p10
a.