(lp0
S'Mar 1, 2010 - Web: www.valero.com ... More Details for Valero Energy Corporation ... With the latest News & Advice from Manta, you can stay ahead of the trends and ...'
p1
aS'Mar 1, 2010 - 3) AT&T - $1 billion (Source: Yahoo News 26 MAR 2010 article by Barbara Ortutay). 4) AK Steel (mentioned in the Yahoo News article above). 5) Valero Energy ...'
p2
aS'Mar 3, 2010 - Don Gum sat on the wing of a Wright B Flyer, dressed fashionably by Army Signal Corps standards of 1910: a khaki shirt with fat pockets, pleated khaki slacks ...'
p3
aS'Mar 2, 2010 - Jim Atchison president & CEO of SeaWorld Parks & Entertainment, speaks during a press conference at the killer whale underwater viewing area of SeaWorld in ...'
p4
aS"Mar 1, 2010 - SRS in the News ... Target - State-wide Dispositions; Diamond Shamrock/Valero Energy - Tenant Representation; McDonald's - Tenant Representation; Pier 1 ..."
p5
aS'Mar 1, 2010 - Read Market Status: US wind market grows in the gloom and other wind energy news & analysis on Windpower Monthly.'
p6
aS"Mar 1, 2010 - But the resulting shift in the energy base has left the country with redundant ... Valero closed its 185,000 bpd Delaware City refinery permanently in November 2009. .... Thomson Reuters is the world's largest international multimedia news ..."
p7
aS'Mar 2, 2010 - Edwin Valero is confidence personified. ... If we were to draw comparisons as far as energy levels, Valerio was like a street savvy alley cat and DeMarco, ...'
p8
aS'Mar 2, 2010 - News  About Us  Contact Us; Arguments ... Stormy weather for Steve Mostyn  Former employee alleges energy services company failed to follow overtime rules ...'
p9
aS"Mar 2, 2010 - First Lady  News  Initiatives  Organization  Contact. Texas Governor's Mansion ... Chesapeake Energy Senate Ladies .... Valero Energy Foundation Mr. and ..."
p10
a.