(lp0
S'Mar 29, 2010 - Before joining Tesoro, Smith was chief financial officer at Valero Energy Corp., a larger San Antonio refiner and marketer. Smith is the highest-compensated ...'
p1
aS"Mar 29, 2010 - Latest PSX News | Press Releases ... Warren Buffett's Favorite Energy Stock Doesn't Care About Low Oil Prices ... change. VLOValero Energy, +0.43, +0.71%."
p2
aS'Mar 30, 2010 - You are oil refining giant Valero Energy, t - March 30, 2010 - Business ... Once in the news with the growth fuel of the future, ethanol companies were a hot item a ...'
p3
aS'Mar 30, 2010 - Before he joined Tesoro, Smith was treasurer and vice president of Valero Energy Corp. (VLO.N) He also ... Our top news photography last month. Slideshow ...'
p4
aS'Mar 30, 2010 - The news that NASA scientists will join the probe came as Toyota, reeling from a .... Already, companies like AT&T, Caterpillar, 3M, Verizon, Valero Energy, John ...'
p5
aS'Mar 30, 2010 - Inovateus Solar is partnering with project manager Chart House Energy and .... which contains BP (NYSE: BP), Valero Energy Corporation (NYSE: VLO), ...'
p6
aS'Mar 29, 2010 - ... the Region 8 Science Fair was sponsored by Valero St. Charles Refinery. ... first, energy and transportation; Priash Patel, second, engineering; Michael Sitarz, ...'
p7
aS'Mar 30, 2010 - "Efforts to pass US clean energy and climate policy are being hampered by polluter lobbyists and climate science denial campaigns, and Koch ... Fisherman Rene Valero, from the Urus ethnic group, is seen on his boat on ... Top news galleries ...'
p8
aS'Mar 29, 2010 - They can also decide whether to share their good news with the public. ..... Valero Energy Corp, an oil and gas refining company based in San Antonio, Texas, ...'
p9
aS'Mar 30, 2010 - Verizon and Valero Energy are alerting employees their health costs are about to skyrocket. ... Question: What was the liberal response to this news? As The ...'
p10
a.