(lp0
S'Apr 21, 2010 - are based in Texas, prompting calls for a boycott of Valero gas stations throughout ... For more news on energy and the environment, visit www.climatewire.net.'
p1
aS'Apr 20, 2010 - Get company or corporate stock equity shareholder overview data for shares of Valero Energy Corp including Fund Owners Activity, Style, Equity & Debt ...'
p2
aS'Apr 20, 2010 - Since 2008, Venezuelan news reports had repeatedly linked Valero to domestic violence incidents, but the fighter and his supporters denied those reports.'
p3
aS"Apr 20, 2010 - The news isn't all bad. The nation's life insurer said no to ... Symantec; Chesapeake Energy Chesapeak... CC Media ... Valero Energy Valero En... State Street ..."
p4
aS'Apr 20, 2010 - Chesapeake Energy  Fannie Mae; Freddie Mac; American ... News Corp. Rite Aid; Supervalu; Devon Energy ... Valero Energy Valero En... State Street Corp.'
p5
aS'Apr 20, 2010 - Valero Energy  Fannie Mae; Freddie Mac; American International Group American ... GMAC; Symantec; Chesapeake Energy Chesapeak ... News Corp. Rite Aid'
p6
aS'Apr 20, 2010 - American ... GMAC; Symantec; Chesapeake Energy Chesapeak... CC Media Holdings CC Media ... News Corp. ... Valero Energy Valero En... State Street Corp.'
p7
aS'Apr 20, 2010 - American ... GMAC; Symantec; Chesapeake Energy Chesapeak... CC Media Holdings CC Media ... News Corp. ... Valero Energy Valero En... State Street Corp.'
p8
aS'Apr 20, 2010 - American ... GMAC; Symantec; Chesapeake Energy Chesapeak... CC Media Holdings CC Media ... News Corp. ... Valero Energy Valero En... State Street Corp.'
p9
aS"Apr 20, 2010 - Top Story  Boxing champion Edwin Valero was found hanged with his own clothes ... paramilitary politics in Colombia with The Latin America News Dispatch after her ... Brazil's energy agency Aneel suspended the Belo Monte dam auction ..."
p10
a.