(lp0
S"Apr 7, 2010 - The Valero Energy Corporation, a San Antonio-based company that is one of the nation's largest independent oil refiners and retailers, has contributed ..."
p1
aS"Apr 8, 2010 - http://www.bloomberg.com/apps/news?pid=newsarchive&sid=azqLRq8_zF48. Bloomberg publishes an analysis of Valero's shift to lighter grade fuel due to ..."
p2
aS'Apr 8, 2010 - PBF Energy Partners, LP (PBF) has entered into an agreement to acquire the ... assets plus the 218 MW Power Plant Complex from Valero Energy Corporation.'
p3
aS'Apr 7, 2010 - Valero (12, Hammond); General Electric ... Duke Energy (17, Owensville, New Albany, Cayuga, West Terre Haute, Edwardsport); United States ... More News .'
p4
aS"Apr 8, 2010 - San Antonio-based Valero Energy Corporation, one of the nation's largest ... by 15% below current levels by 2020 through energy efficiency, cap-and-trade rules ..."
p5
aS"Apr 8, 2010 - Bush said, according to news reports. [. ... Bradford said he wants to focus his energy on others, now that he's come so far in his own recovery. He said he hopes ..."
p6
aS"Apr 7, 2010 - Vice President Biden adds to atmosphere. By Chad Peters - Express-News ... Charley Hoffman is Valero Texas Open's clubhouse leader ..."
p7
aS'Apr 7, 2010 - My investment thesis for a short-term trade in refiner Valero Energy (NYSE: VLO) ..... Such events are rarely scheduled to relay bad news; the company appears ...'
p8
aS'Apr 7, 2010 - Oakland, Berkeley, And East Bay News, Events, Restaurants, Music, & Arts ... that both save energy and provide enough light to enhance worker performance. ... Opponents of oil-by-rail shipments want the city to block a proposed Valero ...'
p9
aS'Apr 7, 2010 - April 07, 2010 News & Opinion  Feature ..... Opponents of oil-by-rail shipments want the city to block a proposed Valero facility, but Valero says the city lacks ...'
p10
a.