(lp0
S'Apr 9, 2010 - DOW JONES, A NEWS CORP COMPANY .... Thursday agreed to pay $220 million for a Delaware refinery that he once owned and sold to Valero Energy Corp.'
p1
aS"Apr 8, 2010 - http://www.bloomberg.com/apps/news?pid=newsarchive&sid=azqLRq8_zF48. Bloomberg publishes an analysis of Valero's shift to lighter grade fuel due to ..."
p2
aS'Apr 8, 2010 - PBF Energy Partners, LP (PBF) has entered into an agreement to acquire the ... assets plus the 218 MW Power Plant Complex from Valero Energy Corporation.'
p3
aS'Apr 9, 2010 - The Valero Energy Corp. units operate retail outlets under brands including Valero, Beacon, Diamond Shamrock, Ultramar, Corner Store and Stop N Go.'
p4
aS"Apr 8, 2010 - Bush said, according to news reports. [. ... Bradford said he wants to focus his energy on others, now that he's come so far in his own recovery. He said he hopes ..."
p5
aS'Apr 10, 2010 - San Antonio Express-News  ExpressNews.com  iPad app  eEdition  Search Our News Archive  Manage Your Subscription. Hearst Newspapers  Copyright ...'
p6
aS'Apr 10, 2010 - In a 2005 Boeing News Now feature, Sy Liebergot, command and service module life support systems flight controller, said when he thought of heroes, ...'
p7
aS"Apr 8, 2010 - San Antonio-based Valero Energy Corporation, one of the nation's largest ... by 15% below current levels by 2020 through energy efficiency, cap-and-trade rules ..."
p8
aS"Apr 9, 2010 - Someone not as wizened, not as jaded as Arum might have blanched at this news but, when it comes to Valero, I don't think the promoter would've been ..."
p9
aS'Apr 8, 2010 - Weekly technical analysis chart of energy sector stock HK (Petrohawk ... Stock Chart  WEC  Wisconsin Energy Corp  Stock Chart  VLO  Valero Energy Corp ...'
p10
a.