(lp0
S"May 11, 2010 - RECENT NEWS ... The trailing-twelve-month profit margin at Valero Energy Partners LP (NYSE: VLP) is 55.90 percent. Valero Energy Partners' PEG ratio is."
p1
aS"May 11, 2010 - ... crisis team helps vulnerable population. By Veronica Flores-Paniagua - Express-News ... By the end of the month, there'll be four. vflores@express-news.net ..."
p2
aS"May 12, 2010 - Conversation with ? Anet Alaniz, owner of Pig Liquors Anet Alaniz opened Pig Liquors, a liquor store and boutique in Southtown, because, well, there wasn't ..."
p3
aS'May 10, 2010 - The announcement this week that Valero and Algenol had established a joint ... the "Renewable Fuels Standards" provisions of the Energy Independence and Security Act (see EPA ... SunEdison Shares at 24 Cents on WSJ Bankruptcy News.'
p4
aS"May 11, 2010 - Home  Breaking News ... campaign against two Texas companies, Tesoro and Valero Energy Corp., that are helping fund the initiative. ... AB32's energy cost."
p5
aS'May 10, 2010 - Upon graduation, he will continue his interest in the petroleum industry working as an associate engineer for Valero Energy Corporation in Benicia, Calif.'
p6
aS"May 10, 2010 - So the bad news for European consumers is that you may have thought you were not ... Valero Energy's Port Arthur refinery, which since at least June 2009 has ..."
p7
aS'May 11, 2010 - Valero Energy Corp to export ethanol for first time  40,000 in southeast ... US News. The Robot-Snake Charger Designed by Tesla Could Scare you Along with ...'
p8
aS'May 11, 2010 - Valero Energy Corp to export ethanol for first time  40,000 in southeast ... US News. The Robot-Snake Charger Designed by Tesla Could Scare you Along with ...'
p9
aS'May 10, 2010 - ... 2006 incident in which 142,700 gallons spilled into the Corpus Christi Ship Channel from a containment berm at a Valero refinery. ... Our daily news summary ...'
p10
a.