(lp0
S'May 14, 2010 - ... a drug arrest in his past. His unlawful activities in the summer of 1994 are not something that can just be sealed and forgotten. gpadilla@express-news.net ...'
p1
aS"May 13, 2010 - Fronted by former San Antonio denizen Kevin Martin, Candlebox  which plays Scout Bar on Sunday  rode the rock wave to the top in the early '90s with the ..."
p2
aS'May 13, 2010 - ... includes the stars of reality television. "So if Kim Kardashian can turn that into a financial empire, all the more power to her." mquintanilla@express-news.net ...'
p3
aS"May 14, 2010 - Edwin Valero murder/suicide Top Boxing News Yahoo's Boxing rankings are flawed: ... Another shocking twist to the Edwin Valero tragedy; Body Exhumed and .... Shocking video shows dogs being hit by energy contractor  Heartbreak - see ..."
p4
aS"May 14, 2010 - News & Publications. About OSHA  It's the Law .... 22111, Talen Energy Brunner Island LLC, York Haven, PA, Star SB. 221111, CP&L Energy .... 236210, Bay Ltd @ Valero Houston Refinery, Friendswood, TX, Star SB. 236210, CBI Services ..."
p5
aS'May 14, 2010 - Established almost 300 years ago as Mission San Antonio de Valero, the city has ... including Valero Energy, Tesoro, USAA and Clear Channel Communications. ..... newspaper is the San Antonio Express-News (www.mysanantonio.com).'
p6
aS'May 14, 2010 - Margarita Valero , Isabelle Grillo , and Ccile A. Dreiss ... Franca Castiglione , Margarita Valero , Ccile A. Dreiss , and Andrea Mele .... C&EN Online News.'
p7
aS'May 13, 2010 - Valero Energy Corp to export ethanol for first time  40,000 in southeast ... US News. The Robot-Snake Charger Designed by Tesla Could Scare you Along with ...'
p8
aS"May 13, 2010 - 15 window replacement jobs did not meet energy savings standards. Sheltering Arms ..... Texas station... Since 1971, The Radio Television Digital News Association. ... We will miss... Valero tells the tax man what's what, awarded $5 million in."
p9
aS'May 14, 2010 - FFC Gerardo Valero considers the flaws within "Star Wars: Episode VII - The ..... as we get older we need to discard the negative energy accumulated during our ...'
p10
a.