(lp0
S'May 17, 2010 - San Antonio Express-News  ExpressNews.com  iPad app  eEdition  Search Our News Archive  Manage Your Subscription. Hearst Newspapers  Copyright ...'
p1
aS'May 18, 2010 - San Antonio Express-News  ExpressNews.com  iPad app  eEdition  Search Our News Archive  Manage Your Subscription. Hearst Newspapers  Copyright ...'
p2
aS'May 18, 2010 - Mexicans seek news of loved ones after deadly explosion ... San Antonio Express-News  ExpressNews.com  iPad app  eEdition  Search Our News Archive ...'
p3
aS'May 17, 2010 - He practiced there until February 1971, when he was asked to become General Council and Executive Vice President of Valero Energy Corp, where he ...'
p4
aS'May 17, 2010 - The International Atomic Energy Agency (IAEA), which would oversee the nuclear ... program," French Foreign Ministry spokesman Bernard Valero said in a statement. .... Thomson Reuters is the world\'s largest international multimedia news ...'
p5
aS'May 17, 2010 - Bernard Valero, the French foreign ministry spokesman said: "Let\'s not be duped by this. The exchange of uranium that is envisaged amounts to ... World News  ...'
p6
aS'May 17, 2010 - In December 2009, a boiler at the Valero Energy Corp. Star Site refinery in Texas City failed, according to company officials, killing one refinery worker and ...'
p7
aS'May 17, 2010 - said late on Monday while visiting Tunisia, Xinhua news agency said. ... Ali Akbar Salehi, head of Iran\'s Atomic Energy Organization, told Reuters. ... nuclear program," French Foreign Ministry spokesman Bernard Valero said in a statement.'
p8
aS'May 19, 2010 - ... Providers (MultiPlan), (800) 546-3887. United Healthcare, (877) 842-3210. USA Managed care Organization, (800) 872-0020. Valero Energy, (800) 755-5680.'
p9
aS"May 18, 2010 - MailOnline US - news, sport, celebrity, science and health stories .... In March, the International Atomic Energy Agency said Iran's stockpile stood at around 2,100kg. ... French Foreign Ministry spokesman Bernard Valero agreed, saying the ..."
p10
a.