(lp0
S'May 22, 2010 - By Zeke McCormack - Express-News .... San Antonio Express-News  ExpressNews.com  iPad app  eEdition  Search Our News Archive  Manage Your ...'
p1
aS'May 20, 2010 - Corporate presence from companies like Medtronic and Valero Energy Corp. keep business humming for tech companies that provide support, Uribe said, even ...'
p2
aS'May 21, 2010 - Houston Ruck, creative director, was a designer for U.S. News & World Report. ... "Andrew has shown great interest within the industry and we feel his energy will be .... >Valero Renewable Fuels, the third largest ethanol producer in the U.S., ...'
p3
aS'May 20, 2010 - ... KENS5 talent and members of the community puton their red dancing shoes forthe 7th annual Red Shoes Gala, honoring Bill Klesse, CEO Valero Energy.'
p4
aS'May 21, 2010 - ... Community Relations  Current Operations  Energy  Environment  Health  Human ... Homepage >; News Archives >; Article ... John Daly, PGA golfer, autographs Valero Texas Open hats for fans attending the putting. Soldiers undergoing treatment and rehabilitation at Brooke Army Medical Center welcome Valero Texas ...'
p5
aS"May 20, 2010 - n Jeev Milkha Singh Former ACU golfer shot 76-70 at the Valero Texas Open and missed the cut by one shot. It was Singh's first tournament since missing ..."
p6
aS'May 20, 2010 - JORGE VALERO BRICEO ( Venezuela) said, as far as he knew, the concept of human security had not ... problems facing the world, from the financial crisis to food insecurity and high energy and food costs. ..... News & Media Resources.'
p7
aS'May 21, 2010 - Valero Energy Corp to export ethanol for first time  40,000 in southeast ... US News. The Robot-Snake Charger Designed by Tesla Could Scare you Along with ...'
p8
aS'May 20, 2010 - M.P. Lobera , S. Valero , J.M. Serra , S. Escolstico , E. Argente , V. Botti. Chemical Engineering ... C&EN Online News. Chemical & Engineering ... Waste material from the energy crop elephant grass yields flavor and fragrance compounds.'
p9
aS"May 21, 2010 - You won't have to worry about which news organization is getting a mug shot first under .... Renewable Energy Company, offering farm-to-market solar power for the Houston area. ... Valero tells the tax man what's what, awarded $5 million in."
p10
a.