(lp0
S"May 3, 2010 - Valero Energy Corp., the largest U.S. independent refiner, operates five ... we're not expecting any disruptions to supply, Bill Day, a Valero spokesman, said in a ..."
p1
aS'May 4, 2010 - San Antonio Express-News  ExpressNews.com  iPad app  eEdition  Search Our News Archive  Manage Your Subscription. Hearst Newspapers  Copyright ...'
p2
aS'May 2, 2010 - A man allegedly jealous that his ex-girlfriend was with someone else is accused of walking into her Northwest Side apartment Sunday morning and shooting the ...'
p3
aS'May 3, 2010 - Mexicans seek news of loved ones after deadly explosion ... ExpressNews.com  iPad app  eEdition  Search Our News Archive  Manage Your Subscription.'
p4
aS'May 3, 2010 - Valero Energy Corp to export ethanol for first time  40,000 in southeast Michigan still deprived of power supply ... Insurance Sector  Featured  TNM  India News.'
p5
aS'May 2, 2010 - Valero Energy Corp to export ethanol for first time  40,000 in southeast ... US News. The Robot-Snake Charger Designed by Tesla Could Scare you Along with ...'
p6
aS'May 2, 2010 - Valero Energy Corp to export ethanol for first time  40,000 in southeast ... US News. The Robot-Snake Charger Designed by Tesla Could Scare you Along with ...'
p7
aS'May 3, 2010 - swimming that require a burst of energy, and where a split second can decide the winner, the Australian researchers said. Human growth hormone, or HGH, ...'
p8
aS'May 3, 2010 - Valero Energy (NYSE:VLO) complex spread - on target. Oil futures short at $85.15, out at $85, up $10 per penny per contract. OIH May $131 calls sold for $4, ...'
p9
aS'May 3, 2010 - The good news is that your training will teach you everything you need to know to succeed on the job 17d. Shell Logo ... Valero Energy Logo. Environmental ...'
p10
a.