(lp0
S'Valero Energy Corp. (NYSE:VLO) announced Wednesday that it has signed a joint development agreement ...'
p1
aS'May 5, 2010 - News in Focus .... agreement with Valero Services, Inc., a subsidiary of Valero Energy Corporation (NYSE: VLO) to ... The news you need, when you need it.'
p2
aS'May 6, 2010 - QUICK NEWS, 5-6: HUGE WIND PROJECT FOR BAJA; ENERGY STORAGE ... "Valero Energy Corp. has inked a joint development pact with Algenol Biofuels ...'
p3
aS'May 6, 2010 - Outside of a sport they both loved, he had very little in common with Valero. .... Edwin to keep this tremendous anger and energy he had bottled up inside of him.'
p4
aS"May 6, 2010 - Latin Notes: Naranjo follows in grandad's steps. By Hector Saldaa - Express-News. Published 12:00 am, ... Latest News. The Latest: Tributes to Prince spring ..."
p5
aS'May 6, 2010 - San Antonio Express-News  ExpressNews.com  iPad app  eEdition  Search Our News Archive  Manage Your Subscription. Hearst Newspapers  Copyright ...'
p6
aS'May 6, 2010 - News Updates: ... Californians for Clean Energy and Jobs announced Monday that George Shultz, secretary of state under President Ronald Reagan, would ...'
p7
aS"May 5, 2010 - May 05, 2010 News & Opinion  Eco Watch ... said they'll pump back into eco-friendly initiatives such as low-flow water fixtures and energy-efficient lighting."
p8
aS'May 5, 2010 - BOOKMARK this BLOG for NEWS 7 DAYS A WEEK! ..... Opponents of oil-by-rail shipments want the city to block a proposed Valero facility, but Valero says the ...'
p9
aS'May 5, 2010 - According to ABC News, the victim and her family did not want Stovall to go to prison .... Opponents of oil-by-rail shipments want the city to block a proposed Valero facility, ... Everything you need to know about saving water, energy efficiency, ...'
p10
a.