(lp0
S'May 6, 2010 - QUICK NEWS, 5-6: HUGE WIND PROJECT FOR BAJA; ENERGY STORAGE ... "Valero Energy Corp. has inked a joint development pact with Algenol Biofuels ...'
p1
aS'May 6, 2010 - Outside of a sport they both loved, he had very little in common with Valero. .... Edwin to keep this tremendous anger and energy he had bottled up inside of him.'
p2
aS'May 8, 2010 - On one side was the U.S. Fish and Wildlife Service, a lumbering bureaucracy out to curb the spread of a pesky fowl; on the other, thousands of duck lovers, ...'
p3
aS"May 6, 2010 - Latin Notes: Naranjo follows in grandad's steps. By Hector Saldaa - Express-News. Published 12:00 am, ... Latest News. The Latest: Tributes to Prince spring ..."
p4
aS'May 6, 2010 - News Updates: ... Californians for Clean Energy and Jobs announced Monday that George Shultz, secretary of state under President Ronald Reagan, would ...'
p5
aS'May 7, 2010 - Valero Energy Corp., the biggest U.S. refiner, had operating income of $1.84 billion in ... That was considered good news, as the company had lost money for the ...'
p6
aS'May 7, 2010 - ... the April 2010 purchase of the Valero Refinery in Delaware City by PBF Energy. ..... AEROSPACE NEWS: Aerojet Rocketdyne in Arkansas, Boeing in South ...'
p7
aS'May 7, 2010 - The big news last week was the changing of the guard at Artforum ... more energy to writing and teaching," and will become editor-at-large, according to a post at ...'
p8
aS"May 6, 2010 - Valero Energy Corp to export ethanol for first time  40,000 in southeast ... US News. IBM Watson's Uses Artificial Intelligence techniques to Teach Robots Better ..."
p9
aS"May 6, 2010 - Valero Energy Corp to export ethanol for first time  40,000 in southeast ... US News. IBM Watson's Uses Artificial Intelligence techniques to Teach Robots Better ..."
p10
a.