(lp0
S"Jun 16, 2010 - Valero Energy Corp. has bought 10 ethanol plants in the past 14 months, including one from VeraSun Energy in Aurora, S.D. The plants are part of Valero's ..."
p1
aS'Jun 18, 2010 - Now that Churchill High school has completed a 69000-square-foot athletic complex, it was time Thursday to demolish the old gym across campus, built in 1963.'
p2
aS"Jun 16, 2010 - There was no news that weekend that would suggest the Big 12 could be ... From the Valero Alamo Bowl's perspective, we appreciated the opportunity to host ..."
p3
aS'Jun 17, 2010 - San Antonio Express-News  ExpressNews.com  iPad app  eEdition  Search Our News Archive  Manage Your Subscription. Hearst Newspapers  Copyright ...'
p4
aS"Jun 17, 2010 - MarkWest Energy Partners, The Energy & Minerals Group and Sunoco Logistics. Partners are ... market information, including news and analysis .... The government of Aruba said sales talks have been held for Valero Energy's Aruba refin-."
p5
aS'Jun 16, 2010 - Energy News, Analysis & Opinion .... news in this vast, tropical ..... www.kron.com/News/ArticleView/tabid/298/smid/1126/ArticleID/6342/reftab/66/t/Valero.'
p6
aS"Jun 16, 2010 - Valero Energy Corp. has given hundreds of thousands of dollars in ... Thanks to News Radio 740's morning show for featuring Texas Watchdog's report on ..."
p7
aS"Jun 17, 2010 - Political news, analysis, commentary, and more about California and beyond. ... When Texas oil refiners Valero and Tesoro were contemplating whether to buy ... proposition to repeal the state's clean energy and air standards: skyrocketing ..."
p8
aS'Jun 16, 2010 - Valero Energy Corporation ... Valero Corner Store ... With the latest News & Advice from Manta, you can stay ahead of the trends and challenges affecting your ...'
p9
aS'Jun 16, 2010 - June 16, 2010 News & Opinion  Feature ..... Opponents of oil-by-rail shipments want the city to block a proposed Valero facility, but Valero says the city lacks ...'
p10
a.