(lp0
S'Jun 21, 2010 - The U.S. Department of Energy (DOE) announced June 10th that it had awarded more ... of Texas Bureau of Economic Geology, and Valero Energy Corporation. ... press release: http://www.adm.com/news/_layouts/PressReleaseDetail.aspx?'
p1
aS'Jun 22, 2010 - Landa Park reopens after flooding. Merrisa Brown, Express-News - ... Mexicans seek news of loved ones after deadly explosion ...'
p2
aS'Jun 20, 2010 - San Antonio Express-News  ExpressNews.com  iPad app  eEdition  Search Our News Archive  Manage Your Subscription. Hearst Newspapers  Copyright ...'
p3
aS'Jun 20, 2010 - San Antonio Express-News  ExpressNews.com  iPad app  eEdition  Search Our News Archive  Manage Your Subscription. Hearst Newspapers  Copyright ...'
p4
aS"Jun 20, 2010 - ... it's worth repeating: There was a bus crash, but it happened in Utah, although it was national front-page news. The tower-leap story is more complicated."
p5
aS"Jun 21, 2010 - Courthouse News Service has an item today on a dispute between the city of Arlington and a law firm over .... Austin Energy customers foot bill  $2 a month per customer for 19. ... Valero tells the tax man what's what, awarded $5 million in."
p6
aS'Jun 21, 2010 - Mike Ciskowski and Bill Klesse of Valero Energy thanked the sponsors and ... In February the Rivera family was surprised with the news that they were the next ...'
p7
aS'Jun 21, 2010 - Get All the Oil and Gas Journal News Delivered to Your Inbox ... Customer Experience Management for Energy Companies: The Path to Happy Customers ...'
p8
aS'Jun 22, 2010 - Valero Energy Station ... With the latest News & Advice from Manta, you can stay ahead of the trends and challenges affecting your industry and help your small ...'
p9
aS'Jun 20, 2010 - Weather will be a factor at the Valero Texas Open at TPC San Antonio. ... News Watchdog Opinion Sports Business Entertainment Lifestyle Green Sheet ...'
p10
a.