(lp0
S'Jun 27, 2010 - Teen suspected of attacking Valero store clerk ... A tipster called police after seeing news of the assault and led police to Avilez, who was arrested without ...'
p1
aS'Jun 27, 2010 - San Antonio Express-News  ExpressNews.com  iPad app  eEdition  Search Our News Archive  Manage Your Subscription. Hearst Newspapers  Copyright ...'
p2
aS'Jun 28, 2010 - Latest Business News ... San Antonio Express-News  ExpressNews.com  iPad app  eEdition  Search Our News Archive  Manage Your Subscription.'
p3
aS'Jun 28, 2010 - San Antonio Express-News  ExpressNews.com  iPad app  eEdition  Search Our News Archive  Manage Your Subscription. Hearst Newspapers  Copyright ...'
p4
aS'Jun 27, 2010 - West is no fan of wind farms, but said that, There are some areas that have great potential for wind energy. And water has been a hot issue for years.'
p5
aS'Jun 27, 2010 - Valero Energy Corp to export ethanol for first time  40,000 in southeast ... US News. The Robot-Snake Charger Designed by Tesla Could Scare you Along with ...'
p6
aS'Jun 28, 2010 - Valero Energy Corp to export ethanol for first time  40,000 in southeast ... US News. The Robot-Snake Charger Designed by Tesla Could Scare you Along with ...'
p7
aS"Jun 27, 2010 - Recently in the news a tragic incident was reported describing how ... and exert a lot of physical energy, which highly excites their sympathetic nervous system. ... There were many factors that lead to boxer Edwin Valero's arrest for murder, ..."
p8
aS'Jun 28, 2010 - Steven Chu, the US Energy Secretary, has endorsed installation of white roofs to help prevent ... World News   South America   Peru   Earth . In Climate Change. Fisherman Rene Valero, from the Urus ethnic group, is seen on his boat on ...'
p9
aS'Jun 28, 2010 - RIGZONE News - leading source for the latest news and information for the oil and ... With its insatiable appetite for energy resources, the United States is the ...'
p10
a.