(lp0
S'Jun 28, 2010 - Latest Business News ... San Antonio Express-News  ExpressNews.com  iPad app  eEdition  Search Our News Archive  Manage Your Subscription.'
p1
aS'Jun 28, 2010 - San Antonio Express-News  ExpressNews.com  iPad app  eEdition  Search Our News Archive  Manage Your Subscription. Hearst Newspapers  Copyright ...'
p2
aS'Jun 30, 2010 - Mexicans seek news of loved ones after deadly explosion ... ExpressNews.com  iPad app  eEdition  Search Our News Archive  Manage Your Subscription.'
p3
aS'Jun 28, 2010 - Valero Energy Corp to export ethanol for first time  40,000 in southeast ... US News. The Robot-Snake Charger Designed by Tesla Could Scare you Along with ...'
p4
aS'Jun 28, 2010 - RIGZONE News - leading source for the latest news and information for the oil and ... With its insatiable appetite for energy resources, the United States is the ...'
p5
aS'Jun 29, 2010 - Valero Energy Corp., the largest independent U.S. oil refiner, has three south Texas plants -- two ... http://www.bloomberg.com/news/2010-0...s-an-hour.html.'
p6
aS'Jun 28, 2010 - Steven Chu, the US Energy Secretary, has endorsed installation of white roofs to help prevent ... World News   South America   Peru   Earth . In Climate Change. Fisherman Rene Valero, from the Urus ethnic group, is seen on his boat on ...'
p7
aS"Jun 28, 2010 - Political news, analysis, commentary, and more about California and beyond. ... off the coast to address the country's energy needs and reduce dependence on ..... When Texas oil refiners Valero and Tesoro were contemplating whether to ..."
p8
aS'Jun 28, 2010 - Victor Diaz - News 8 Austin. When the ... It brings a lot of energy and a good feel to the team. .... How much cash is up for grabs at the 2016 Valero Texas Open?'
p9
aS'Jun 28, 2010 - C&EN Online News. Chemical & Engineering News: Latest News ... C&EN Online Current Issue News RSS Feed  More From Archives. 1155 Sixteenth Street ...'
p10
a.