(lp0
S'Jun 8, 2010 - In the course of the reporting, the San Antonio Express-News team followed another teen girl who juggled a job and took part in a magnet program in ...'
p1
aS"Jun 8, 2010 - seriously, in a fire at Valero Energy Corp.'s. Memphis refinery. ... occurred at Valero's Corpus Christi, Texas, ..... talking points, a petition, our latest news releases ..."
p2
aS"Jun 8, 2010 - Sky Sports News Headlines ... http://www.telegraph.co.uk/finance/newsbysector/energy/oilandgas/7802978/BP-its-10-biggest-shareholders.html. IT'S ON THE ..."
p3
aS'Jun 7, 2010 - As we have seen, all of the last eight presidents espoused a goal of energy ..... know that cellulosic is really viable not when Poet does it, but when Valero gets into it. .... This is good news for farmers, but has the potential to upset the plans of a ...'
p4
aS'Jun 8, 2010 - The Official Friends and Family Cycling Team of Valero Energy Corporation ... This weekend there are two great rides including the Bike MS: Valero 2010 Alamo Ride to the River ... VCrew Tuesday Training Rides  Tour de Cure News  ...'
p5
aS"Jun 8, 2010 - POWHATAN NEWS VIDEO. Richmond ... We're always interested in hearing about news in our community. ... John Ramsey; Energy, Military, Transportation."
p6
aS'Jun 7, 2010 - Valero Energy Corp ... With the latest News & Advice from Manta, you can stay ahead of the trends and challenges affecting your industry and help your small ...'
p7
aS'Jun 8, 2010 - Weather will be a factor at the Valero Texas Open at TPC San Antonio. ... News Watchdog Opinion Sports Business Entertainment Lifestyle Green Sheet ...'
p8
aS'Jun 8, 2010 - Observing the economy, Bernanke said the news so far is "pretty good. ... Attention and energy focus on the family member who is ill or addicted. .... B), Harmony Gold Mining (NYSE:HMY), Valero (NYSE:VLO) and TBT and, after hours, I laid ...'
p9
aS'Jun 7, 2010 - Energy / Environment  All Energy / Environment ... "Croatia is on the threshold" of EU membership, said Mr. Valero. He added that other Balkan states, including ...'
p10
a.