(lp0
S'Jun 8, 2010 - In the course of the reporting, the San Antonio Express-News team followed another teen girl who juggled a job and took part in a magnet program in ...'
p1
aS"Jun 8, 2010 - seriously, in a fire at Valero Energy Corp.'s. Memphis refinery. ... occurred at Valero's Corpus Christi, Texas, ..... talking points, a petition, our latest news releases ..."
p2
aS"Jun 8, 2010 - Sky Sports News Headlines ... http://www.telegraph.co.uk/finance/newsbysector/energy/oilandgas/7802978/BP-its-10-biggest-shareholders.html. IT'S ON THE ..."
p3
aS'Jun 9, 2010 - June 09, 2010 News & Opinion  Eco Watch ..... Opponents of oil-by-rail shipments want the city to block a proposed Valero facility, but Valero says the city lacks ...'
p4
aS"Jun 8, 2010 - POWHATAN NEWS VIDEO. Richmond ... We're always interested in hearing about news in our community. ... John Ramsey; Energy, Military, Transportation."
p5
aS"Jun 9, 2010 - He's been a serious player in the energy industry, particularly in natural gas and oil .... Antonio to meet with executives from Valero, according to the Houston Chronicle. ... A Dallas Morning News survey of mayors of the nation's 10 largest cities ..."
p6
aS'Jun 8, 2010 - Weather will be a factor at the Valero Texas Open at TPC San Antonio. ... News Watchdog Opinion Sports Business Entertainment Lifestyle Green Sheet ...'
p7
aS'Jun 9, 2010 - Valero Energy Corp to export ethanol for first time  40,000 in southeast ... US News. The Robot-Snake Charger Designed by Tesla Could Scare you Along with ...'
p8
aS'Jun 8, 2010 - Observing the economy, Bernanke said the news so far is "pretty good. ... Attention and energy focus on the family member who is ill or addicted. .... B), Harmony Gold Mining (NYSE:HMY), Valero (NYSE:VLO) and TBT and, after hours, I laid ...'
p9
aS'Jun 9, 2010 - ... on YP.com. See reviews, photos, directions, phone numbers and more for Valero Gas Station Locations locations in Henderson, NV. ... Clean Energy.'
p10
a.