(lp0
S"Jul 12, 2010 - See Valero Energy Corp's 10 year historical growth, profitability, financial, efficiency, and cash flow ratios."
p1
aS'Jul 12, 2010 - San Antonio Express-News  ExpressNews.com  iPad app  eEdition  Search Our News Archive  Manage Your Subscription. Hearst Newspapers  Copyright ...'
p2
aS'Jul 12, 2010 - If you get skirt steak that still has some of the membrane or silver skin attached, remove this before marinating because the membrane is virtually unchewable.'
p3
aS'Jul 12, 2010 - News, Videos & Photos .... Valero then referenced Hard Knox, the biography of former Seahawks coach Chuck Knox, ... And not just that, his energy is nonstop.'
p4
aS'Jul 12, 2010 - Valero Refining Company-California ... Valero Energy Corporation ... With the latest News & Advice from Manta, you can stay ahead of the trends and challenges ...'
p5
aS"Jul 11, 2010 - Expect China's big three energy companies to continue to invest in North American and ... I'm a retired Petroleum GeologistExxon, Valero and others."
p6
aS'Jul 13, 2010 - ... OR "AmerisourceBergen" OR "Costco Wholesale" OR "Valero Energy" OR ... OR "Humana" OR "Honeywell International" OR "Abbott Laboratories" OR "News ...'
p7
aS'Jul 12, 2010 - This statement embodies the spirit and energy around everything we do, as individuals and as a company, to enhance the lives of the ... 94 Valero Refining Co.'
p8
aS'Jul 11, 2010 - Valero Energy Corp to export ethanol for first time  40,000 in southeast ... US News. The Robot-Snake Charger Designed by Tesla Could Scare you Along with ...'
p9
aS'Jul 11, 2010 - Location: Houston, Texas Area; Industry: Oil & Energy .... Major clients included ConocoPhillips, MPC and Valero. .... Control Engineering (Monthly); Design World (Monthly); E&P (Monthly); Engineering News Record (Monthly); Fast Company ...'
p10
a.