(lp0
S'Jul 1, 2010 - Energy produced: 308 billion kilowatt-hours (2009) ... ENERGY. PRODUCED. 2009. ERCOT QUICK FACTS. Natural Gas. 59% ... Valero Energy Corporation.'
p1
aS'Jun 30, 2010 - Valero Energy selected CB&I to provide the engineering, procurement, and construction of several process units for an Ultra Low Diesel Processing Facility at its ...'
p2
aS'Jul 1, 2010 - Alterman completed several data centers in 2009, including ones for Valero Energy and Frost Bank,... ... including ones for Valero Energy and Frost Bank, and the Christus Santa Rosa ... Click here to subscribe to Engineering News-Record ...'
p3
aS"Jun 30, 2010 - ... San Antonio Convention & Visitors Bureau. ?It's like having the Valero Alamo Bowl for four days in a row,? said White. ?Hotel operators are very, very excited."
p4
aS'Jul 1, 2010 - Band members Anthony Romeo Santos and his cousin Henry Santos Jeter tell Gannett newspapers they started singing as teenagers when they joined their ...'
p5
aS"Jul 1, 2010 - Mark Gunst, Wilford Hall's chief of trauma, said at a news conference Wednesday. We have worked closely with the city of San Antonio to ensure that there will ..."
p6
aS'Jul 1, 2010 - San Jose Mercury News .... Connor Edson, Christopher Fontes, Robbie George, Austin Kause, Eddie Lee, Anthony Navarro, Drew Valenzuela, Gabe Valero.'
p7
aS'Jul 1, 2010 - News, Videos & Photos  Recent News  Recent Photo .... Art Valero, asst. offensive line ... He brought his energy and his level of awareness to the team. Norton ...'
p8
aS'Jun 30, 2010 - June 30, 2010 News & Opinion  Eco Watch .... Opponents of oil-by-rail shipments want the city to block a proposed Valero facility, but Valero says the city lacks ...'
p9
aS'Jul 1, 2010 - It will also likely curtail energy supplies and increase gasoline prices nationwide. ... Goodyear Houston chemical plant; Magellan East Houston tank farm; Univar USA Houston FM 529 facility; Valero Refining Houston refinery ... Livability News.'
p10
a.