(lp0
S'Jul 21, 2010 - And the news clearly troubled Chinese authorities, who quickly questioned the credibility of the ... Valero Energy Corp (NYSE: VLO)Buy @ 20, Stop @ 14.95'
p1
aS'Jul 22, 2010 - Home  Database  Screener  Newsletter  Free Tools  News ...'
p2
aS'Jul 21, 2010 - Photo: SAN ANTONIO EXPRESS-NEWS. Image 1of/1. Caption. Close. Image 1 of 1. The Triple Berry mojito is one of five variations on the rum-based cocktail ...'
p3
aS"Jul 22, 2010 - Enrique Castillo doesn't mind playing tough-guy roles, even if some audiences see the characters as stereotypical Latino depictions. Castillo, 60, sees his role ..."
p4
aS'Jul 20, 2010 - A strong work ethic and business acumen pushed Joe Gorder up the ladder at Valero Energy Corp., where he was named president and chief executive officer ...'
p5
aS'Jul 22, 2010 - News XOM Refinery Status: Murphy Oil Puts Its Refineries Up New York Stock ... Valero Sunray, TX 170.0 FCCU upset when expander coup- mid-Jul ling on power ... 04/13/2016, 16:52:00, Energy Up After Supplies Data -- Energy Roundup.'
p6
aS'Jul 21, 2010 - July 21, 2010 News & Opinion  Eco Watch .... Opponents of oil-by-rail shipments want the city to block a proposed Valero facility, but Valero says the city lacks ...'
p7
aS'Jul 21, 2010 - July 21, 2010 News & Opinion  Full Disclosure .... Opponents of oil-by-rail shipments want the city to block a proposed Valero facility, but Valero says the city ...'
p8
aS"Jul 21, 2010 - ... count the fact that he earned a spot in the PGA Tour's Valero Texas Open in May via a Monday qualifier. ... to make the year a success, adding that trying to crunch numbers is an enormous energy drain anyway. .... Submit a news tip or photo."
p9
aS'Jul 21, 2010 - The Lamar University College of Engineering (LUCOE) is an engineering college at Lamar ... The college gets industry and government support, such as a $1 million donation from the Valero Energy Foundation, and a $4.8 million .... Lamar.edu; Jump up ^ http://www.lamar.edu/newsevents/news/207_7996.htm Lamar.edu ...'
p10
a.