(lp0
S'Jul 27, 2010 - This is good news for the women who run the legal offices at companies like ... Those companies were, from largest to smallest in revenue: Valero Energy, ...'
p1
aS'Jul 27, 2010 - San Antonio Express-News  ExpressNews.com  iPad app  eEdition  Search Our News Archive  Manage Your Subscription. Hearst Newspapers  Copyright ...'
p2
aS'Jul 27, 2010 - 77, VALERO ENERGY CORPORATION, KIMBERLY S. BOWERS, View ... 84, MARKWEST ENERGY PARTNERS, L. P., C. CORWIN BROMLEY, View.'
p3
aS'Jul 25, 2010 - For Shultz - who argues that energy independence is directly connected to national security - the work puts ... interests, including Texas-based oil companies Valero and Tesoro, which have put $1.5 million into the effort. ... Latest news videos ...'
p4
aS'Jul 26, 2010 - Valero Energy Corporation ... With the latest News & Advice from Manta, you can stay ahead of the trends and challenges affecting your industry and help your ...'
p5
aS'Jul 26, 2010 - ... LLC, a General Partner of HEP Logistics Holdings LP and Holly Energy Partners ... are local (Market data is delayed by at least 15 minutes). Snapshot  News ... Partners GP LLC and Chief Executive Officer of Valero Energy Partners GP LLC'
p6
aS'Jul 26, 2010 - Join over 100,000 investors who get the latest news from Dividend.com ..... Analyst Moves: Schlumberger, Medtronic, Valero Energy, More (SLB, MDT, VLO, ...'
p7
aS'Jul 26, 2010 - Illinois, will have lasting impacts on the way we meet our energy needs and on .... visit www.burnsmcd.com/news. .... giant Valero, another Burns & McDonnell.'
p8
aS'Jul 26, 2010 - Government energy plans unveiled by Chris Huhne. 27 Jul 2010 ... UK News  ... Fisherman Rene Valero, from the Urus ethnic group, is seen on his boat on ...'
p9
aS'Jul 26, 2010 - On Fox News Sunday, former Republican Speaker of the House Newt Gingrich defended his year-old "Latina woman racist" attack against Justice Sonia ...'
p10
a.