(lp0
S"Jul 6, 2010 - In a paean of praise to Bill Greehey, former CEO of Valero Energy and current ... Greehey at Valero) describes Greehey's leadership model that drove Valero to the ... online communities for HR, HR articles, HR news, human resources articles, ..."
p1
aS'Jul 7, 2010 - Theres good news for South Texans who are longing for a taste of the old Christies restaurant favorites. Even though the San Antonio restaurant closed in the 90s, its possible to find many of the dishes: You just have to drive to Houston to enjoy them. ... But Christie says ...'
p2
aS'Jul 7, 2010 - We wanted a cold summer treat that people could enjoy outside, says Don Merrill, president and CEO of Tootie Pie Co. We tried the recipe first with our ...'
p3
aS'Jul 6, 2010 - Valero Energy Corp to export ethanol for first time  40,000 in southeast ... US News. The Robot-Snake Charger Designed by Tesla Could Scare you Along with ...'
p4
aS'Jul 6, 2010 - Weather will be a factor at the Valero Texas Open at TPC San Antonio. ... News Watchdog Opinion Sports Business Entertainment Lifestyle Green Sheet ...'
p5
aS'Jul 6, 2010 - ... Univision, Vogue, Glamour, Yahoo!, Mattel, Valero, Microsoft, Bosse, Clarin, ... SC Johnson, Bizneo, Resistance runner, TXU Texas Energy, Outlets at Tejon, ...'
p6
aS'Jul 6, 2010 - Tennessee is also a Southern leader in recruiting renewable energy projects, .... Valero Refining, N/A, $298 Million .... Northrop Grumman, Newport News, Va.'
p7
aS'Jul 6, 2010 - Now, we may be sapped of energy, and of our tolerance for a proverbial stinky ... Television ads will air nationwide on the cable news giant Fox News, as well as ...'
p8
aS"Jul 6, 2010 - Phillips 66; Procter & Gamble; Russell Stover Candies; SABIC; Sanofi-Aventis; Sinclair Oil; Sunoco; Tate & Lyle; Unilever; Valero; Welch's; Williams Energy ..."
p9
aS"Jul 6, 2010 - Swamplot Sponsor: Harvest Moon Renewable Energy Company Today Swamplot is sponsored by Harvest Moon ... Since 1971, The Radio Television Digital News Association. ..... Valero tells the tax man what's what, awarded $5 million in."
p10
a.