(lp0
S'Jul 8, 2010 - Get detailed financial information on Nuveen Energy MLP Total Return Fund (NYSE:JMF) including real-time stock quotes, historical charts & financial news, all for free! ... Valero Energy Partners: Top Midstream MLP Gainer on October 8.'
p1
aS'Jul 8, 2010 - Jack Valero. Jack Valero is a senior representative and member of Opus Dei. July 2010 ... 2016 Guardian News and Media Limited or its affiliated companies.'
p2
aS'Jul 8, 2010 - By Elizabeth McGowan, InsideClimate News ... Maviglio is a spokesperson with Californians for Clean Energy and Jobs, the coalition rallying around ... Records show the bulk of its funding comes from Texas oil companies Valero and Tesoro.'
p3
aS"Jul 8, 2010 - IAWA News & Views. President's ... 22nd Annual Conference News ..... WNEET is the Women's Network for Energy, Environment and Transportation. ... Dana Parnes is Senior Manager of Aircraft Maintenance and Corporate Travel for Valero."
p4
aS'Jul 7, 2010 - If energy giant Calpine Corporation has its way, the East Bay will soon be home to ... Oakland, Berkeley, And East Bay News, Events, Restaurants, Music, & Arts .... city to block a proposed Valero facility, but Valero says the city lacks this power.'
p5
aS'Jul 7, 2010 - July 07, 2010 News & Opinion  News .... Opponents of oil-by-rail shipments want the city to block a proposed Valero facility, but Valero says the city lacks this ...'
p6
aS'Jul 9, 2010 - The good news is that the ownership team and the rest of the hard-working, ... I PROMISE you that our energy, focus, capital, knowledge and experience will be ...'
p7
aS'Jul 7, 2010 - Fund Profile. Focus, Worldwide investments into an actively managed portfolio of Shariah-compliant equities, which may be located in any jurisdiction or in any ...'
p8
aS'Jul 8, 2010 - ... on Wednesday after the stock was hit by a downgrade and news of a car fire. ..... this week, revealing new positions in Goodrich Petroleum and Valero Energy.'
p9
aS'Jul 9, 2010 - To quantify the transmitted energy, a broadband Gaussian pulse is applied to .... F. J. Valdivia-Valero and M. Nieto-Vesperinas, Resonance excitation and light ...'
p10
a.