(lp0
S'Aug 17, 2010 - Valero Marketing and Supply Co. partnered with Outsite Networks to launch the Valero Rewards Club loyalty program in its wholesale marketing channel of ...'
p1
aS'Aug 17, 2010 - Backed chiefly by two Texas oil companies, Valero Energy Corporation and Tesoro, ... In November, vote no on Proposition 23, the Dirty Energy Proposition.'
p2
aS"Aug 19, 2010 - Musical group Andean Fusion has become a staple at Rivercenter mall. ... And once you discover the source of the melodies, you may also realize that you've witnessed the 12-member band Andean Fusion in action before, especially if you frequent San Antonio's Rivercenter mall."
p3
aS"Aug 17, 2010 - The Art in Action program is the latest effort by the city's graffiti abatement office to curb illegal tagging and graffiti. It takes aspiring young artists and shows them ..."
p4
aS'Aug 18, 2010 - If you are looking for a lost recipe or have a favorite recipe to share, e-mail kharam@express-news.net or write Recipe Find, San Antonio Express-News, P.O. ...'
p5
aS"Aug 18, 2010 - It's being underwritten by the Texas oil companies Tesoro and Valero along with ... The Silicon Valley folks who are willing to invest in the new clean energy ..."
p6
aS'Aug 17, 2010 - Categories: Green Fields: Agriculture and Alternative Energy ... Last year Valero Energy of Texas, which like Flint Hills is an oil refiner, bought ethanol plants ...'
p7
aS'Aug 18, 2010 - And then as the news of the steroid scandal broke Nelson stepped it up asking on his twitter .... How much cash is up for grabs at the 2016 Valero Texas Open?'
p8
aS'Aug 17, 2010 - Valero Energy Corp to export ethanol for first time  40,000 in southeast ... US News. The Robot-Snake Charger Designed by Tesla Could Scare you Along with ...'
p9
aS"Aug 18, 2010 - The best news for Texans, Wolf says, is that there won't be enough money to do here what Moses ... stands at the ready to provide wood-fired power to Austin Energy customers. .... Valero tells the tax man what's what, awarded $5 million in."
p10
a.