(lp0
S'Aug 19, 2010 - Keith Kaiser talks to John Marhsall quarterbacks Daniel Tittle (left) and Sammy Kemp in his office prior to their afternoon practice session on Aug. 16, 2010.'
p1
aS'Aug 20, 2010 - Family and friends walked with Esteban Jordan III as he carried the cremated remains of his father, Esteban "Steve" Jordan, from their West Side home to San ...'
p2
aS'Aug 19, 2010 - New, small churches dodge traditional methods. By Miranda Koerner - Staff Writer/North Central News. Published 12:00 am, Thursday, August 19, 2010.'
p3
aS'Aug 20, 2010 - San Antonio Express-News  ExpressNews.com  iPad app  eEdition  Search Our News Archive  Manage Your Subscription. Hearst Newspapers  Copyright ...'
p4
aS'Aug 19, 2010 - Join over 100,000 investors who get the latest news from Dividend.com ..... Devon Energy- (DVN)-engage in oil and gas exploration, development, and ...'
p5
aS"Aug 20, 2010 - Memberships  testimonialspress  contact. news. workshops & eventscalendarmonthly newsletter!old school coolDakota's Bridal Challenge  Cocktails. Beers."
p6
aS"Aug 19, 2010 - The Dallas Morning News recently sought an updated list of employees at the city's Parkland ... Swamplot Sponsor: Harvest Moon Renewable Energy Company Today Swamplot is ... Valero tells the tax man what's what, awarded $5 million in."
p7
aS"Aug 20, 2010 - GO. Market News  Stock Ideas  Dividends  Market Outlook  Investing Strategy  ETFs & Funds  Earnings  PRO  Today's Market  Economy  Gold & Precious ..."
p8
aS'Aug 20, 2010 - News & ToursAugust 20, 2010 ... Fantasy Golf: Will Bryson DeChambeau keep rolling at the Valero Texas Open? ... Is the key to better golf the right energy bar?'
p9
aS'Aug 19, 2010 - Valero Energy Corporation. Valley AIDS Council. Valley Regional Medical Center ..... KVEO News Center 23. L&F Distributors. La Villita Head Start. Los Fresnos ...'
p10
a.