(lp0
S'Aug 2, 2010 - Mr. Waters also serves on the Board of Directors of Valero Energy Corporation and sits on ... More News RSS feed for Boston Private Financial Holdings, Inc.'
p1
aS'Aug 2, 2010 - Latest Business News ... San Antonio Express-News  ExpressNews.com  iPad app  eEdition  Search Our News Archive  Manage Your Subscription.'
p2
aS'Aug 1, 2010 - ... has us well prepared, wherever we go. jwhisler@express-news.net ... Valero Texas Open: Live updates and analysis  View Comments.  2016 Hearst ...'
p3
aS'Aug 2, 2010 - Posts about Texas Workforce Commission written by Coastal Bend College News and ... emergency response training for new and incumbent Valero employees. ... biotech and life sciences; energy; petroleum refining and chemical products; ...'
p4
aS'Aug 2, 2010 - CSPnet.com - Convenience Store News .... under brands including Chevron, Exxon, Shell, Sunoco and Valero, said Amoco was a very strong brand in Florida.'
p5
aS'Aug 2, 2010 - From NASBA. Licensees. News You Can Use .... Valero Energy Corporation. 02/01/2012 - 01/31/2013 ... News / continued from page 1. Texas CPAs can use the ...'
p6
aS'Aug 2, 2010 - Valero Energy Foundation. Website Link: http://www.valero.com ... Register Your Child  In the News  View Our Calendar. How You Can Help. Make a Donation'
p7
aS'Aug 1, 2010 - 2006  Valero Energy Corp. ... News in a minute? C-Store Decision Enewsletters get you caught up on all the convenience store news you need. Sign up today.'
p8
aS'Aug 3, 2010 - The Investor Globe: lastest news on Follow posts on Embraer-Empresa.'
p9
aS'Aug 2, 2010 - dit le 02/08/2010 - Plus de news de "GE Energy" - Voir la fiche entreprise de ... The Kenitra 9E gas turbines will be produced at GE Energy\'s Belfort facilities in ...'
p10
a.