(lp0
S'Aug 31, 2010 - Valero Energy has gone from corn ethanol hater to one of the largest producers of the product in the past two years. Find out how the company is cementing its ...'
p1
aS'Aug 31, 2010 - ... 1.26 0.09 17.3 CNX Consol Energy Inc 1.25 0.10 33.9 VLO Valero Energy Corp ... NWSA News Corp 1.22 0.07 23.4** DIS Walt Disney Co/The 1.08 0.35 77.4* ...'
p2
aS'Aug 31, 2010 - Dresser Wayne and Valero offer retailers rebate and discount incentives for installations through October 29. ... today that the Nucleus pointofsale (POS) system has been approved by Valero Energy Corporation (NYSE: ... News and Events.'
p3
aS'Aug 31, 2010 - San Antonio Express-News  ExpressNews.com  iPad app  eEdition  Search Our News Archive  Manage Your Subscription. Hearst Newspapers  Copyright ...'
p4
aS'Aug 30, 2010 - ... any and all stock screening tools do not know about news events such as an oil spill, ... Chesapeake Energy (CHK) ($20.81) is an independent oil and gas company ... Valero Energy is rated a BUY and is expected to rally 6.2% over the next ...'
p5
aS'Aug 30, 2010 - 10/17/2011, -, Duke Energy increased Residential Electrcity Rates by 17% this ... 05/06/2011, -, New Valero Opened on Hwy 150 at exit 36 - Free Carwash and ...'
p6
aS'Aug 31, 2010 - Valero Energy Corp to export ethanol for first time  40,000 in southeast ... US News. The Robot-Snake Charger Designed by Tesla Could Scare you Along with ...'
p7
aS"Aug 30, 2010 - Valero Energy Corp to export ethanol for first time  40,000 in southeast ... US News. IBM Watson's Uses Artificial Intelligence techniques to Teach Robots Better ..."
p8
aS"Aug 31, 2010 - The fans have been just giving so much energy to the band. The band's really playing well and really having a good time. The Life: With the tour winding down, ..."
p9
aS"Aug 30, 2010 - Mr Pachauri has previously acted as an adviser to green energy companies. It's hard to see how the United Nations can both ... Science News . In Climate Change. Fisherman Rene Valero, from the Urus ethnic group, is seen on his boat on ..."
p10
a.