(lp0
S"Aug 4, 2010 - Inside Climate News ... By Stacy Feldman, InsideClimate News ... Firelake Capital, as well as oil refiner Valero Energy, the country's top corn ethanol producer."
p1
aS'Aug 5, 2010 - Get detailed financial information on Flyers Energy, LLC () including real-time ... distributor to retail and wholesale customers for Valero, Chevron, and Shell.'
p2
aS"Aug 5, 2010 - Valero Energy Corp.'s 182,000-barrel-a-day Delaware City, Delaware, plant, was shut in November to stem losses of as much as $1 million a day. The refinery ..."
p3
aS'Aug 5, 2010 - Latest Business News ... San Antonio Express-News  ExpressNews.com  iPad app  eEdition  Search Our News Archive  Manage Your Subscription.'
p4
aS"Aug 6, 2010 - A year and a half after Bexar County's leading bail bondsman starred in an Express-News report on whether he offered illicit favors to a range of public officials ..."
p5
aS'Aug 4, 2010 - 1, exclusively in the print edition of the San Antonio Express-News. Bexar County is breaking a state law requiring the swift examination of every mentally ill ...'
p6
aS'Aug 5, 2010 - Latest Business News ... San Antonio Express-News  ExpressNews.com  iPad app  eEdition  Search Our News Archive  Manage Your Subscription.'
p7
aS'Aug 5, 2010 - ... the two plants will generate enough solar energy to meet the electricity needs of 52,000 households, and avoiding the emission ... Mnica Valero de Bernab'
p8
aS'Aug 4, 2010 - Killinger is senior vice president and controller for Valero Energy Corp. and former board member, executive committee member and officer of the UTSA Alumni ...'
p9
aS'Aug 4, 2010 - East Bay Express. Oakland, Berkeley, And East Bay News, Events, Restaurants, Music, & Arts ... August 04, 2010 News & Opinion  Legalization Nation ...'
p10
a.