(lp0
S'Aug 9, 2010 - Universal News, Inc, Pipeliners Hall of Fame News or any employee or representative of either organization ...... Valero Energy Corporation announced Phase I.'
p1
aS'Aug 9, 2010 - ... holds her son Brian Perez, 4 months. Both were. Jose Perez wipes tears from his eyes as he speaks about his family. Photo: SAN ANTONIO EXPRESS-NEWS.'
p2
aS'Aug 9, 2010 - San Antonio Express-News  ExpressNews.com  iPad app  eEdition  Search Our News Archive  Manage Your Subscription. Hearst Newspapers  Copyright ...'
p3
aS'Aug 9, 2010 - Oil refining is one of the most important business segments in the energy ... of so-called independent refiners such as Valero Energy Corp (NYSE: VLO) and Holly .... News of increased demand for refined products is a positive for the refiners.'
p4
aS'Aug 9, 2010 - Market Prices  Cash Prices  2016 Market Outlooks  Market News  Market Analysis  Market Rally with Chip Flory ... Crops; Livestock; Finance; Energy; Metals.'
p5
aS"Aug 9, 2010 - ... but Brewers will make playoffs  Jul 2, 2014 | Bucks' news conference shows Kidd ... Weather will be a factor at the Valero Texas Open at TPC San Antonio."
p6
aS'Aug 8, 2010 - Pointsmith LP, founded 63 years ago as a family-owned outdoor billboard business, is now hopping to keep up with growth in point-of-purchase operations.'
p7
aS'Aug 9, 2010 - News Room ... depressed 2009 levels, even with the previous shutdown of two area refineries (Valero -- Delaware City, ... From this industry, Energy and Utilities'
p8
aS'Aug 9, 2010 - Valero Energy Station ... With the latest News & Advice from Manta, you can stay ahead of the trends and challenges affecting your industry and help your small ...'
p9
aS"Aug 9, 2010 - Valero Energy Corp to export ethanol for first time  40,000 in southeast ... US News. IBM Watson's Uses Artificial Intelligence techniques to Teach Robots Better ..."
p10
a.