(lp0
S'Sep 13, 2010 - Valero Energy Corp. ... North American Energy Security Trumps Environment - Poll ... s Keystone XL pipeline and suggest securing a stable energy supply for ...'
p1
aS'Sep 13, 2010 - Environmental news from California and beyond ... 23 is primarily funded by oil refiners, including Valero Energy Corp., Tesoro Corp. and Koch Industries, and is ...'
p2
aS"Sep 13, 2010 - The taste of Euphoric Energy's watermelon/kiwi energy drink could be described as similar to sucking on watermelon Jolly Ranchers. It could..."
p3
aS"Sep 12, 2010 - Ellis, the former director of the University of Central Florida's Marching Knights, was interviewed by San Antonio Express-News higher education writer Melissa ..."
p4
aS'Sep 13, 2010 - Enbridge Energy Partners of Houston reported Thursday that it had shut down the line after the loss ... Paul Elhendi, who operates a Valero filling station in Lyndhurst, said that a week ago he was ... Northeast Ohio commercial real estate news.'
p5
aS'Sep 14, 2010 - News; Services ... corporate expansion facilities including Valero Energy, Citicorp, USAA, Capital Group, Ultramar Diamond Shamrock, World Savings and Loan, ...'
p6
aS"Sep 12, 2010 - Midfielder Borja Valero and Brazilian international Nilmar were also on target as Villarreal ... However, there was better news for Laudrup's former club Getafe."
p7
aS'Sep 12, 2010 - Archbishop Vincent Nichols displays real energy and vigour i. ... http://www.telegraph.co.uk/news/newstopics/religion/the-pope/7994960/Pope-visit-Opus-Dei- ...'
p8
aS'Sep 13, 2010 - Rafael Lpez-Garzn , M. Luz Godino-Salido , Mara D. Gutirrez-Valero .... C&EN Online News ... Future displays that glow like fireflies could use less energy.'
p9
aS'Sep 12, 2010 - Prop 23 was sponsored by two oil companies, Tesoro and Valero Energy. .... Photo via StormyDog Good news for water thanks to San Diego. The city is home to ...'
p10
a.