(lp0
S'Aug 31, 2010 - Valero Energy has gone from corn ethanol hater to one of the largest producers of the product in the past two years. Find out how the company is cementing its ...'
p1
aS'Sep 1, 2010 - Mayor Antonio Villaraigosa on Tuesday rebuked Valero Energy Corp. and Tesoro ... "Go home, Texas oil companies," Villaraigosa urged at a news conference ...'
p2
aS'Sep 1, 2010 - The use of E85 is about to get more exposure, as Valero Energy Corp. recently ... Dwight Barron Jones fills up his taxi with E85 fuel at the Valero Corner.'
p3
aS'Sep 1, 2010 - Valero Energy Corp. added the Nucleus point-of-sale (POS) system by Dresser ... Enewsletters get you caught up on all the convenience store news you need.'
p4
aS'Aug 31, 2010 - ... 1.26 0.09 17.3 CNX Consol Energy Inc 1.25 0.10 33.9 VLO Valero Energy Corp ... NWSA News Corp 1.22 0.07 23.4** DIS Walt Disney Co/The 1.08 0.35 77.4* ...'
p5
aS'Sep 1, 2010 - The company also has partnered with Valero Energy Co. to assist a start-up company producing high-octane ... Northeast Ohio commercial real estate news.'
p6
aS"Sep 1, 2010 - BREAKING NEWS: Contra Costa County's Questionable Payoff .... Opponents of oil-by-rail shipments want the city to block a proposed Valero facility, but Valero ..."
p7
aS"Aug 31, 2010 - The fans have been just giving so much energy to the band. The band's really playing well and really having a good time. The Life: With the tour winding down, ..."
p8
aS'Aug 31, 2010 - Valero Energy Corp to export ethanol for first time  40,000 in southeast ... US News. The Robot-Snake Charger Designed by Tesla Could Scare you Along with ...'
p9
aS'Sep 1, 2010 - According to French foreign ministry spokesman Bernard Valero, France ... either about foreign policy or Italy\'s interests," the Italian news agency ANSA ... BACJoint Declaration by Industry Associations on a Flexible European Energy System ...'
p10
a.