(lp0
S"Sep 28, 2010 - Greenwich-based PBF Energy Co. LLC on Monday bought Valero Energy Corp.'s oil refinery in Paulsboro, N.J., the second Delaware River plant it has acquired ..."
p1
aS'Sep 29, 2010 - PBF to Acquire Valero Energy Refinery in Paulsboro, N.J.. Print  Noria news wires ... pipeline and related assets from subsidiaries of Valero Energy Corporation.'
p2
aS'Sep 28, 2010 - The only job losses or costs, he said, would be in polluting industries like Valero Energy Corp. and Tesoro Corp., both of which have refineries in California that ...'
p3
aS'Sep 29, 2010 - Delek US Holdings Inc. Stock - DK news, historical stock charts, analyst ratings, financials, ... DOW JONES, A NEWS CORP COMPANY ..... Valero Energy Corp.'
p4
aS"Sep 29, 2010 - Valero Energy Corporation's bald attempt to overturn California Assembly Bill 32 is based on the hope ... a boom in skilled alternative energy jobs is somehow a net loss for California is not a credible argument. ... Part of HuffPost on HPMG News."
p5
aS'Sep 29, 2010 - San Antonio Express-News  ExpressNews.com  iPad app  eEdition  Search Our News Archive  Manage Your Subscription. Hearst Newspapers  Copyright ...'
p6
aS'Sep 28, 2010 - San Antonio Express-News  ExpressNews.com  iPad app  eEdition  Search Our News Archive  Manage Your Subscription. Hearst Newspapers  Copyright ...'
p7
aS'Sep 28, 2010 - ... sure what to do next, "Know you\'re not alone. Look for people who are going through the same thing because they\'re out there." jbelasco@express-news.net ...'
p8
aS'Sep 30, 2010 - San Antonio Express-News  ExpressNews.com  iPad app  eEdition  Search Our News Archive  Manage Your Subscription. Hearst Newspapers  Copyright ...'
p9
aS'Sep 29, 2010 - Longtime political science professor and TV news analyst Joe Tuman also did well in .... and a new renewable energy authority, all tied to a jobs training program. ..... Opponents of oil-by-rail shipments want the city to block a proposed Valero ...'
p10
a.