(lp0
S'Sep 3, 2010 - Environmental news from California and beyond ... 23 was launched by two Texas-based refiners, Valero Energy Corp. and Tesoro Corp. which have been its ...'
p1
aS'Sep 3, 2010 - She pointed to allegations in news reports that the society has ties to the Muslim Brotherhood, an organization branded by some as extremist. A former president ...'
p2
aS"Sep 2, 2010 - In production mode now, Rebecca Creek Distillery, located at 26605 Bulverde Road, is South Texas' first legal distillery since Prohibition, according to co-owner ..."
p3
aS'Sep 2, 2010 - San Antonio Express-News  ExpressNews.com  iPad app  eEdition  Search Our News Archive  Manage Your Subscription. Hearst Newspapers  Copyright ...'
p4
aS"Sep 3, 2010 - Already, 200 workers are busy completing the foundation for the Valero Energy Corp. Port Arthur refinery's hydrocracker unit. Three weeks ago, Valero restarted ..."
p5
aS"Sep 2, 2010 - California energy officials blessed the fifth and sixth solar power projects in the ...... It's supported by Texas refiners Tesoro and Valero and just got a $1 million ..."
p6
aS'Sep 2, 2010 - Whether you want to learn more about Dirty Energy Prop 23 or you already know ... Protest Valero  The largest donor to the Prop 23 campaign to effectively repeal ... Stop Texas OilKeep up to date with all the hottest urban planning news by ...'
p7
aS'Sep 4, 2010 - San Antonio is home to five Fortune 500 companies: Valero Energy Corp, Tesoro, USAA, Clear Channel Communications and NuStar Energy. H-E-B, the 19th ...'
p8
aS'Sep 2, 2010 - Valero Energy Corp to export ethanol for first time  40,000 in southeast ... US News. The Robot-Snake Charger Designed by Tesla Could Scare you Along with ...'
p9
aS'Sep 3, 2010 - Valero Energy Corp to export ethanol for first time  40,000 in southeast ... US News. The Robot-Snake Charger Designed by Tesla Could Scare you Along with ...'
p10
a.