(lp0
S'Sep 7, 2010 - The use of E85 is about to get more exposure, as San Antonio-based Valero Energy Corp. recently announced it will add E85 pumps to all of its new Valero ...'
p1
aS'Sep 7, 2010 - ENERGY$LINEBREAK$More on the way$LINEBREAK$Valero is expanding the availability of E85, a blend of ... VICKI VAUGHAN, San Antonio Express-News ...'
p2
aS"Sep 8, 2010 - The report notes that in California, Tesoro and Valero prefer using this kind of ... Educate yourself on how California's climate and energy laws have created ..."
p3
aS'Sep 7, 2010 - ... Temple-Inland in Austin and Valero Energy, Rackspace, and Clear Channel in ... News Product Manager and Monika Maeckle, Vice President of New Media.'
p4
aS'Sep 8, 2010 - There was both bad and good news for petroleum contractors this summer. ... Valero Energy Corp. has postponed several petro projects this summer and has ...'
p5
aS'Sep 8, 2010 - San Antonio Express-News  ExpressNews.com  iPad app  eEdition  Search Our News Archive  Manage Your Subscription. Hearst Newspapers  Copyright ...'
p6
aS'Sep 9, 2010 - San Antonio Express-News  ExpressNews.com  iPad app  eEdition  Search Our News Archive  Manage Your Subscription. Hearst Newspapers  Copyright ...'
p7
aS'Sep 8, 2010 - San Antonio Express-News  ExpressNews.com  iPad app  eEdition  Search Our News Archive  Manage Your Subscription. Hearst Newspapers  Copyright ...'
p8
aS'Sep 8, 2010 - Roy Urrutia, Atmos Energy. William Ware, Amarillo National Bank. Andrew Welch, Amarillo VAHCS. Dale Williams, Xcel Energy. Dane Williams, Valero.'
p9
aS'Sep 7, 2010 - In a refreshing blast, CPS Energy in San Antonio has disclosed its top salaries ... In the Express-News story, Beneby "said he made the decision \'with much difficulty,\' noting that .... Valero tells the tax man what\'s what, awarded $5 million in.'
p10
a.