(lp0
S"Sep 8, 2010 - The report notes that in California, Tesoro and Valero prefer using this kind of ... Educate yourself on how California's climate and energy laws have created ..."
p1
aS'Sep 8, 2010 - There was both bad and good news for petroleum contractors this summer. ... Valero Energy Corp. has postponed several petro projects this summer and has ...'
p2
aS'Sep 10, 2010 - In a conference call with news media Thursday, former Secretary of State ... Two Texas-based refiners, Valero Energy Corp. and Tesoro Corp., along with ...'
p3
aS'Sep 8, 2010 - San Antonio Express-News  ExpressNews.com  iPad app  eEdition  Search Our News Archive  Manage Your Subscription. Hearst Newspapers  Copyright ...'
p4
aS'Sep 9, 2010 - San Antonio Express-News  ExpressNews.com  iPad app  eEdition  Search Our News Archive  Manage Your Subscription. Hearst Newspapers  Copyright ...'
p5
aS"Sep 9, 2010 - The Alamo's security chief, who took over the shrine's private police force after the 9-11 terror attacks and has claimed to have seen ghosts there at night, has ..."
p6
aS'Sep 9, 2010 - San Antonio Express-News  ExpressNews.com  iPad app  eEdition  Search Our News Archive  Manage Your Subscription. Hearst Newspapers  Copyright ...'
p7
aS'Sep 8, 2010 - San Antonio Express-News  ExpressNews.com  iPad app  eEdition  Search Our News Archive  Manage Your Subscription. Hearst Newspapers  Copyright ...'
p8
aS'Sep 8, 2010 - Roy Urrutia, Atmos Energy. William Ware, Amarillo National Bank. Andrew Welch, Amarillo VAHCS. Dale Williams, Xcel Energy. Dane Williams, Valero.'
p9
aS"Sep 8, 2010 - Valero Three Rivers Refinery gives $175 000 to local children's charities - Last ... Valero Energy Corporation is a Fortune 500 company based in San Antonio with ... mySouTex.com - Breaking news, classifieds, businesses in South Texas. is in ..."
p10
a.