(lp0
S'Oct 18, 2010 - Energy Digital - Energy News - Energy Magazine - News and Information for ... Chevron Corporation unveiled their We Agree campaign on Monday, which ...'
p1
aS'Oct 18, 2010 - Chevron Corporation (NYSE: CVX) today launched a new global advertising campaign ... It also describes the actions the company takes in producing energy ...'
p2
aS"Oct 18, 2010 - Chevron has added a news release to its Investor Relations website. ... Chevron Corporation is one of the world's leading integrated energy companies."
p3
aS'Oct 18, 2010 - Chevron responds head-on to industry critics with new company ads designed to evoke anti-industry posters. ... DOW JONES, A NEWS CORP COMPANY. News ...'
p4
aS'Oct 18, 2010 - ... with \'We Agree\' Ad CampaignBy: Gina Roos. Chevron has launched a new global advertising campaign called "We Agree," which is ... Energy Manager News.'
p5
aS"Oct 18, 2010 - Chevron Corp launched a new advertising campaign on Monday to address negative ... efforts to develop renewable energy, create jobs and support local communities. ... Thomson Reuters is the world's largest international multimedia news ..."
p6
aS'Oct 18, 2010 - San Ramon-based Chevron launched a new advertising campaign agreeing with ... "It does talk about reinvestment to the community and the renewable energy ...'
p7
aS'Oct 18, 2010 - This is viewer supported news. Donate. Over the past five years, ExxonMobil, Chevron, BP, Royal Dutch Shell and ConocoPhillips have given millions of dollars to support energy research at top US universities. The private funds might fill a ...'
p8
aS"Oct 18, 2010 - News, Policy & Issues ... On Sunday, David J. O'Reilly, retired chief executive officer of Chevron, was awarded the ... Watson succeeds Devon Energy Executive Chairman Larry Nichols and will lead API for the next two years. ... Steve Chazen of Occidental Petroleum Corporation and Karen Wright of Ariel Corporation."
p9
aS"Oct 18, 2010 - 1. See. Advertising: The Power of Human Energy, CHEVRON. CORP., .... emerged, spoofing Chevron's campaign so well that some news outlets believed them ..."
p10
a.