(lp0
S'Oct 24, 2010 - Chevron agrees. ... Chevron Hallmark - Human Energy ... In South Africa, Chevron started a center to help AIDS patients. ... 2001 - 2016 Chevron Corporation.'
p1
aS"Oct 25, 2010 - While AB32 is bad news for out of state Big Oil, it's good news for California's cleantech industry and general ... Chevron Corporation, $2,500,000 ... Mr. Koch, I get that you and your corporation don't want to be part of our clean energy future."
p2
aS'Oct 25, 2010 - ... general national news, politics, business, energy, sports, entertainment, fashion ... ABUJA- Chevron Nigeria Ltd, CNL, on Friday announced the launch of the ... five-year, $50 million programme established by the Chevron Corporation to ...'
p3
aS'Oct 25, 2010 - The late Bloomberg News reporter Mark Pittman asked the U.S. Treasury in ... held by Citigroup, American International Group Inc. and Bank of America Corp. .... ConocoPhillips and Chevron Corp. have already abandoned some Gulf ... drilling and construction work, the Energy Information Administration said last month.'
p4
aS'Oct 25, 2010 - ConocoPhillips and Chevron Corp. have already abandoned some Gulf prospects ... testimony before the Senate Energy and Natural Resources Committee.'
p5
aS'Oct 25, 2010 - (James Pressley writes for Muse, the arts and leisure section of Bloomberg News. ... ConocoPhillips and Chevron Corp. have already abandoned some Gulf prospects ... testimony before the Senate Energy and Natural Resources Committee.'
p6
aS"Oct 25, 2010 - The energy density of oil derivatives such as gasoline is superior to any other substance in liquid or gas form. That's why the majority of cars are propelled either ..."
p7
aS'Oct 25, 2010 - News RSS feed subscription ... dollar energy research agreements between American universities and large oil companies. ... CAP notes that over the past decade, large oil companies such as ExxonMobil Corp., BP PLC and Chevron Corp.'
p8
aS'Oct 25, 2010 - Grassroots and Progressive views on local, national and world news ... A corporation is a bunch of monetary interests bound together into a legal body ... four mega-corporations by sales on the Fortune Global 500 list (and Chevron came in eighth). .... In the 1970s, we started setting energy efficiency standards that mean we ...'
p9
aS'Oct 26, 2010 - Omala. The Shell Omala range of industrial gear oils has been developed to enable equipment operators to select the oil that will deliver optimum value to their ...'
p10
a.