(lp0
S'Oct 21, 2010 - Chevron Corporation (NYSE:CVX) today announced it has sanctioned ... Chevron to help meet future U.S. energy demand while delivering a safe and reliable ...'
p1
aS"Oct 22, 2010 - Chevron has sanctioned development of the Jack/St. Malo project, its first ... Upstream oil and gas news for exploration and production professionals ... of major capital projects,' said George Kirkland, vice chairman, Chevron Corporation. ... in the U.S. Gulf of Mexico and will enable Chevron to help meet future U.S. energy ..."
p2
aS'Oct 20, 2010 - Company News ... Chevron Corp, the second-largest US energy company, plans to start looking for natural gas in the Saudi ... Finding gas in the shared zone will also help Chevron unlock oil deposits at two of the three reservoirs at the Saudi- ...'
p3
aS"Oct 21, 2010 - Chevron Corp. has approved a $7.5 billion project to develop two deep-water fields in the outer rim ... Though it won't make the U.S. energy independent, production from Lower Tertiary fields is ... Get Journal good news straight to your email."
p4
aS"Oct 20, 2010 - Though it won't make the U.S. energy independent, production from Lower Tertiary fields is expected to ... Chevron Corp. has approved a $7.5 billion project to develop two deep-water fields in the .... Why stocks need more really bad news."
p5
aS'Oct 21, 2010 - How energy companies can spend millions trying in vain to make ... Chevron\'s decision to launch a splashy ad campaign with the tagline "We Agree" was .... more likely to be located in New York or Washington, D.C., than television-news jobs.'
p6
aS'Oct 21, 2010 - News of possible blackouts in Metro Manila last February. Energy Crisis ..... Philippine Energy Mix: Electricity. Generated in GWh. EDC. 66%. Chevron. 34%.'
p7
aS'Oct 20, 2010 - Chevron launched a new ad campaign Monday. ... Network News ... an oil company that supports renewable energy and small businesses, among other things, ...'
p8
aS'Oct 21, 2010 - Statoil, along with operator Chevron and other partners, have sanctioned the Jack/St Malo field development, located in the ultra-deepwater Walker Ridge area ...'
p9
aS"Oct 20, 2010 - RELATED TOPICS. Oil Spills  Brooklyn (New York City)  BP  Exxon Mobil Corporation  Chevron Corporation ... BP, Exxon Mobil and Chevron did not directly spill most of the oil. ... In all, the energy companies have extracted more than 11 million gallons of petroleum since the early '80s. ... Explore the news with NewsPulse "
p10
a.