(lp0
S'Oct 21, 2010 - Chevron Corporation (NYSE:CVX) today announced it has sanctioned ... Chevron to help meet future U.S. energy demand while delivering a safe and reliable ...'
p1
aS"Oct 22, 2010 - Chevron has sanctioned development of the Jack/St. Malo project, its first ... Upstream oil and gas news for exploration and production professionals ... of major capital projects,' said George Kirkland, vice chairman, Chevron Corporation. ... in the U.S. Gulf of Mexico and will enable Chevron to help meet future U.S. energy ..."
p2
aS'Oct 21, 2010 - How energy companies can spend millions trying in vain to make ... Chevron\'s decision to launch a splashy ad campaign with the tagline "We Agree" was .... more likely to be located in New York or Washington, D.C., than television-news jobs.'
p3
aS"Oct 22, 2010 - Chevron Corp. has approved a $7.5 billion project to develop two ... Though it won't make the United States energy independent, production from Lower Tertiary ..."
p4
aS'Oct 22, 2010 - For the latest trial and appeals news, click here. .... Chevron Corp., the second-largest U.S. energy company, can subpoena an American attorney working for ...'
p5
aS'Oct 22, 2010 - It also describes the actions the company takes in producing energy responsibly and ... Keep up to date with all the most interesting green news on the planet by ...'
p6
aS'Oct 22, 2010 - Oil company, Chevron really did release a new public relations campaign this week. ... Chevron\'s engagement with communities and renewable energy. The series of Chevron ads sent to news outlets hours before, with messages like "Oil ...'
p7
aS'Oct 22, 2010 - Chevron Corporation (NYSE: CVX Euronext: CHTEX) is an American multinational ... every aspect of the oil, gas, and geothermal energy industries, including ...'
p8
aS'Oct 22, 2010 - China National Offshore Oil Corporation (CNOOC) has signed a contract with its ... Jansz-Io gas compressor on agenda for Chevron Supermajor eyes design ... to our weekly newspaper providing in-depth news from the energy industry, plus ...'
p9
aS'Oct 21, 2010 - REGIONAL NEWS ... Chevron Corporation confirmed today that its Brazilian subsidiary and Petrobras have started crude oil production ... November 12, 2013 ...'
p10
a.