(lp0
S"Oct 5, 2010 - Chevron Corporation (NYSE:CVX) today announced that it will commit an additional ... Chevron is one of the world's leading integrated energy companies, with ..."
p1
aS"Oct 5, 2010 - These firms don't analyze a company's value or bet on financial news. .... To value oil giant Chevron Corp., a high-frequency program might monitor not only ..."
p2
aS'Oct 4, 2010 - ConocoPhillips and Chevron Corp. have already abandoned some Gulf ... An analysis conducted by consulting firms Quest Offshore and Blade Energy Partners ...'
p3
aS'Oct 4, 2010 - ... according to the Ivorian ministry of mines and energy, an increase of 12.3% over 2008. ... Get All the Oil and Gas Journal News Delivered to Your Inbox ... Chevron Corp. has started LNG and condensate production at the Gorgon project on ...'
p4
aS"Oct 4, 2010 - Petron Corp. together with Two San Isidro SIAI Assets Inc., formed a P3.4- billion new company that will engage in the power generation ... Philippine News for the Filipino Global Community ... s 27.9 percent and Chevron Philippines Inc.'s 13.9 percent. ... San Miguel, through power generation arm San Miguel Energy Corp."
p5
aS'Oct 4, 2010 - News. Subscribe. Subscribe to receive email updates from the Joint Institute for Strategic Energy Analysis. Please provide and submit the following information.'
p6
aS'Oct 4, 2010 - Natural gas producer Chesapeake Energy Corp (CHK. ... to business as normal with the news that the UK energy department has agreed to let Chevron begin ...'
p7
aS'Oct 5, 2010 - Ocean State is the largest distributor of Chevron lubricants and TOTAL synthetic lubricants in the Northeast. ... The news you need, when you need it. Journalists ...'
p8
aS'Oct 4, 2010 - was mentioned in 200 news outlets locally and nationally. ..... Chevron Corporation. The Coca-Cola ... CBS Corporation. Charitable Foundation of the Energy.'
p9
aS'Oct 5, 2010 - NEWSNews, features & press releases ... Telescope image, at high northern latitudes, a large chevron-shaped area of water ice clouds mark a storm front.'
p10
a.