(lp0
S"Oct 8, 2010 - Chevron Hallmark - Human Energy ... Chevron's Mid-Continent Alaska business unit commands gas and oil assets from Texas to ... Chevron Corporation 2010."
p1
aS'Oct 7, 2010 - DOW JONES, A NEWS CORP COMPANY .... value after Exxon and Chevron Corp., engaged in aggressive deal-making during the energy boom but found itself ...'
p2
aS'Oct 8, 2010 - 660 Corporation dba Campus/City Convenience. 7-Eleven Store # ... Chevron Corporation. CHS Inc. ... Henderson Oil Company, Inc. dba Energy Mart. Stores.'
p3
aS'Oct 7, 2010 - BrightSource Energy Inc said Thursday it won final approval for a $1.7 billion-plus, 370-megawatt ... plants in recent weeks, including a 1,000 mW plant from Chevron Corp and Solar Millennium AG. ... Our top news photography last month.'
p4
aS'Oct 8, 2010 - More News From Greenwire ... resumed his campaign against San Francisco-based Standard Oil (which later became Chevron Corp.) ... Berkeley, said Brown saw before most politicians "what the future held" on energy, with the United States ...'
p5
aS'Oct 7, 2010 - We wanted to see how this compares to other oil giants and we took a look at BP plc (NYSE: BP), Exxon Mobil Corporation (NYSE: XOM), Chevron Corporation ...'
p6
aS"Oct 8, 2010 - SunEdison Shares at 24 Cents on WSJ Bankruptcy News ... a 709 MW CSP plant named Imperial Valley, and Chevron Energy's 45 MW Lucerne PV project."
p7
aS'Oct 7, 2010 - GE Continues Expansion of USD40 Billion Energy Technology Portfolio With Acquisition of Dresser, Inc. dit le 07/10/2010 - Plus de news de "GE Energy" ...'
p8
aS'Oct 8, 2010 - LATEST NEWS  CONTACT ... Apache Corporation BG Group Plc BP Plc Cairn Energy Plc CalEnergy Gas Ltd Centrica Plc Chevron Ltd CNR International (UK) ...'
p9
aS"Oct 7, 2010 - Alberta's Energy Minister Ron (I Am Not A Criminal) Liepert .... The corporation with aging pipelines from decades gone by that refuses to have a conscience and ..."
p10
a.