(lp0
S'Nov 15, 2010 - Chevron. Chevron: CSR & Sustainability News. Chevron is an American multinational energy corporation headquartered in San Ramon, California, United ...'
p1
aS'Nov 15, 2010 - ABB Ltd, Applied Materials Inc, BP Plc, Centrica Plc, Chevron Corporation, ..... the news. The global gas market, on an energy basis, is. 70% the size of the ...'
p2
aS"Nov 15, 2010 - Like every other corporation, they are in business to make money. ... AOL), Disney (ABC), Rupert Murdoch's News Corporation (FOX), Bertelsmann of ... Far above all others, it's the oil and energy companies, which pull in the greatest profit. ExxonMobil and Chevron, the first- and second-largest U.S. oil companies, top the ..."
p3
aS"Nov 15, 2010 - Cheney, Rothschild, and Fox News' Murdoch to Drill for Oil in Syria, Violating ... Loses Latest Stage of Amazon Pollution Battle - More Trouble For Chevron."
p4
aS'Nov 15, 2010 - Chevron. 102.64. +0.94%. +0.95. ConocoPhillips. 47.08. +0.00. +0.00 ... CFO of First Seismic Corp., and was an executive officer managing a multi-state energy ... Get All the Oil & Gas Financial Journal News Delivered to Your Inbox for free.'
p5
aS"Nov 14, 2010 - Petroleum News Senior Staff Writer ... Anschutz and Pacific Energy Resources, the company that bought Forest Oil's Alaska properties in ... According to Doyon Ltd., the Native regional corporation that owns some subsurface land in the ... ARCO, Chevron, Sohio, Unocal and Alaska's Division of Geological and Geophysical ..."
p6
aS'Nov 14, 2010 - A joint venture with Swift Energy in 2006 led to an unsuccessful well. A legal battle with Enstar over a contract dispute led Aurora to suspend drilling operations ...'
p7
aS'Nov 14, 2010 - Chevron will purchase Atlas Energy and its Marcellus holdings for $3.2 billion ... http://whyy.org/cms/news/government-politics/2010/11/11/chevron-now-pursues- ... Cabot Oil & Gas Corporation, headquartered in Houston, Texas, is a leading ...'
p8
aS'Nov 14, 2010 - We have 17 locations throughout the state offering name brands such as Chevron, Shell, Citgo, Mobil, Castrol, Mystik, and Recochem. Additionally ... More News.'
p9
aS"Nov 15, 2010 - Gripping News. A regular quarterly ... industry, we are also working on projects in the renewable energy industry. We have a ... order for Chevron's Semi-Submersible production unit to be moored in ... Bardex Corporation,. 8203 Willow Place ..."
p10
a.