(lp0
S'Nov 9, 2010 - SAN RAMON, Calif., November 9, 2010  Chevron Corporation (NYSE: CVX) and Atlas Energy, Inc. (NASDAQ: ATLS) announced today that Chevron would ...'
p1
aS'Nov 9, 2010 - Chevron Corp., the second-largest U.S. oil company, agreed to buy Atlas Energy Inc. for $3.2 billion, giving it access to the natural gas-rich Marcellus Shale ...'
p2
aS'Nov 10, 2010 - Chevron agreed to acquire natural-gas producer Atlas Energy for $3.2 billion, joining rivals Exxon Mobil, Shell and ... DOW JONES, A NEWS CORP COMPANY.'
p3
aS"Nov 9, 2010 - Chevron Corp (CVX.N) plans to buy U.S. natural gas producer Atlas Energy ATLS. ... Thomson Reuters is the world's largest international multimedia news ..."
p4
aS"Nov 9, 2010 - NEW YORK (MarketWatch)  Chevron Corp. said Tuesday it will buy Atlas Energy Inc. in a $4.3 billion deal ... Chevron's move to acquire Atlas Energy comes less than a year after fellow blue chip Exxon Mobil ... More News from MarketWatch."
p5
aS"Nov 9, 2010 - Atlas Energy, Inc. (NASDAQ: ATLS) (Atlas Energy or ATLS) announced today that it has entered into a definitive agreement t. ... Chevron Corporation is one of the world's leading integrated energy .... English; EON: Enhanced Online News ..."
p6
aS'Nov 9, 2010 - Chevron has agreed to acquire Atlas Energy for $4.3 billion, the most recent deal by an energy ... DealBook - A Financial News Service of The New York Times.'
p7
aS'Nov 9, 2010 - Chevron to Buy Atlas Energy in a Competition for Natural Gas ... Credit Daniel Acker/Bloomberg News ... Resources Corporation, the EQT Corporation and the Cabot Oil and Gas Corporation increased at least 4 percent in heavy trading.'
p8
aS"Nov 10, 2010 - Chevron Corp's decision to buy US natural gas producer Atlas Energy has brought the two former partners  Chevron and Reliance Industries Ltd (RIL) ..."
p9
aS'Nov 10, 2010 - Following in the footsteps of rival Exxon Mobil Corp. while commodity prices are ... unconventional natural gas explorer, Atlas Energy Inc. of Moon Township, Pa.'
p10
a.