(lp0
S"Nov 22, 2010 - IHS Named Leader in Carbon and Energy Management Software by ... (BUSINESS WIRE)--Chevron Corporation's announcement yesterday that it will acquire ..."
p1
aS"Nov 22, 2010 - Patricia Yarrington's energy fix. November 22, 2010. Chevron's CFO on the gulf spill, the future of fossil fuels, and her journey to the top of the oil industry. More."
p2
aS"Nov 22, 2010 - The News  Contact Us. Local ... Illegal expropriation of energy assets is a red flag for the international community's ... such as ExxonMobil, Royal Dutch Shell, BP, Chevron Corporation, ConocoPhillips and Total S.A., operating in Kazakhstan."
p3
aS'Nov 21, 2010 - Petroleum News ... Chevron USA Inc. drilled the Diamond well in 1991. ... When the Bureau of Ocean Energy Management, Regulation and Enforcement held ... to the village corporation testified in favor of OCS from that village, Haddad said.'
p4
aS'Nov 22, 2010 - ... auto suppliers, steel and business of law  Jay Greene - Health care, energy, environment  Kirk ... based Chevron Corp. in 1986. As part of the sale, Chevron sold parts of the Gulf Oil business, including the intellectual property of the brand to Framingham, Mass. ... Get a roundup of important news that happens each day.'
p5
aS'Nov 22, 2010 - MercoPress - South Atlantic News Agency ... PDVSA awarded minority stakes in joint ventures to groups of companies led by Repsol YPF SA and Chevron Corp.'
p6
aS'Nov 22, 2010 - Since the 1950s, American energy companies have drilled into m ... ... News and commentary about environmental issues. ... While ExxonMobil and Chevron have dominated the oil industry, scrappier independent companies ... In July 2010, the state-owned China National Petroleum Corporation announced that it aims to ...'
p7
aS'Nov 22, 2010 - The 2007 Energy Independence and Security Act expanded the program to ..... 7 Jeff Montgomery, Valero refinery in Delaware City to close permanently, The News Journal, November ... Chevron Perth Amboy Refinery/Terminal Perth Amboy.'
p8
aS'Nov 21, 2010 - John Schiller of Energy XXI bags another trophy with $1 billion Gulf of Mexico acquisition from ExxonMobil. ... and Chevron. ... By then, they might also have happy news from a second well currently being drilled into Davy Jones (now at ...'
p9
aS"Nov 22, 2010 - DealBook - A Financial News Service of The New York Times ... The energy industry's love for shale gas has been in evidence in recent years. ... XTO Energy last December and Chevron's $3.2 billion purchase of Atlas Energy announced Nov."
p10
a.