(lp0
S'Dec 16, 2010 - ... U.S. energy supply," said George Kirkland, vice chairman, Chevron Corporation. ... Big Foot will be Chevron\'s sixth operated facility in the deepwater Gulf of ...'
p1
aS'Dec 17, 2010 - REGIONAL NEWS ... Chevron Corporation announced it has sanctioned development of its $4 billion Big Foot project in the deepwater U.S. Gulf of Mexico.'
p2
aS'Dec 16, 2010 - Chevron Corp. has sanctioned development of its $4 billion Big Foot project in the ... US energy supply, said George Kirkland, vice chairman, Chevron Corp. ... Get All the Oil & Gas Financial Journal News Delivered to Your Inbox for free.'
p3
aS'Dec 16, 2010 - Haaretz - Israel News Tuesday, April 19, 2016. ... Chevron Corp. expressed interest in developing oil reserves straddling the Iran-Iraq border, potentially putting the American energy giant at risk of violating U.S. sanctions against Tehran, ...'
p4
aS"Dec 15, 2010 - The US energy firm Chevron negotiated with Tehran about developing an Iraq-Iran ... there were news stories that Iraq's government was in talks with Chevron to ..."
p5
aS'Dec 15, 2010 - The Caspian Pipeline Consortium partners agreed to spend $5.4 billion doubling the capacity of the oil link that runs from the Chevron Corp.-led Tengiz oil field ...'
p6
aS'Dec 16, 2010 - Wells Fargo Misjudged the Risks of Energy Financing ... for oil-rich Kazakhstan and energy companies including Chevron Corp. and the former Mobil Oil Corp., ...'
p7
aS'Dec 15, 2010 - Info. Energy & Industry 4 comments ... in the mid-1800s, helped build the Standard Oil empire that eventually evolved into the likes of Chevron and ExxonMobil.'
p8
aS'Dec 16, 2010 - Chevron Corp. on Thursday gave another multi-billion dollar vote of .... survive, much less grow, on energy from wind and solar, then they foolish idiots with a voice. ... http://atmo.tamu.edu/news/658-on-global-warming-the-science-is-solid-say- ...'
p9
aS'Dec 15, 2010 - State pension fund invested billions in energy projects, report says ... of $2.6bn, and the US-based Chevron Corp, in which the fund has $900m invested.'
p10
a.