(lp0
S'Dec 16, 2010 - ... U.S. energy supply," said George Kirkland, vice chairman, Chevron Corporation. ... Big Foot will be Chevron\'s sixth operated facility in the deepwater Gulf of ...'
p1
aS'Dec 17, 2010 - REGIONAL NEWS ... Chevron Corporation announced it has sanctioned development of its $4 billion Big Foot project in the deepwater U.S. Gulf of Mexico.'
p2
aS'Dec 16, 2010 - Chevron Corp. has sanctioned development of its $4 billion Big Foot project in the ... US energy supply, said George Kirkland, vice chairman, Chevron Corp. ... Get All the Oil & Gas Financial Journal News Delivered to Your Inbox for free.'
p3
aS'Dec 17, 2010 - Chevron said it will invest $4 billion over several years to develop a new oil field that lies 5200 feet below the ... DOW JONES, A NEWS CORP COMPANY.'
p4
aS'Dec 16, 2010 - Haaretz - Israel News Tuesday, April 19, 2016. ... Chevron Corp. expressed interest in developing oil reserves straddling the Iran-Iraq border, potentially putting the American energy giant at risk of violating U.S. sanctions against Tehran, ...'
p5
aS'Dec 16, 2010 - Wells Fargo Misjudged the Risks of Energy Financing ... for oil-rich Kazakhstan and energy companies including Chevron Corp. and the former Mobil Oil Corp., ...'
p6
aS'Dec 17, 2010 - ... case against oil producer Chevron Corp told Reuters on Friday that he has closed the evidentiary phase of the trial. ... Bonds  Currencies  Comm & Energy  Futures  Funds  Earnings  Dividends ... Residents in the countrys Amazon region are suing Chevron, accusing the U.S. ... Our top news photography this week.'
p7
aS'Dec 16, 2010 - Chevron Corp. on Thursday gave another multi-billion dollar vote of .... survive, much less grow, on energy from wind and solar, then they foolish idiots with a voice. ... http://atmo.tamu.edu/news/658-on-global-warming-the-science-is-solid-say- ...'
p8
aS'Dec 17, 2010 - Get All the Oil and Gas Journal News Delivered to Your Inbox ... Chevron Corp. has started LNG and condensate production at the Gorgon project on Barrow ... Customer Experience Management for Energy Companies: The Path to Happy ...'
p9
aS"Dec 17, 2010 - ... Concession Agreement with the Egyptian General Petroleum Corporation in June 2007 ... Shell, GDF Suez, TransGlobe Energy, Circle Oil and Sea Dragon Energy are ... Founded in 1998, HELLENIC PETROLEUM is one of the leading energy ... Failure  Chevron Signs Up Australia's Alinta To Buy Gas From Wheatstone ..."
p10
a.