(lp0
S"Dec 27, 2010 - Former Oil Exec Predicts $5-a-Gallon Gas by 2012, Energy Shortages by Decade's End ... 23 photo, gas prices are displayed at a Chevron gas station in San Francisco. .... 'Smart' spray cans could make anyone a mural artist Fox News Tech ..."
p1
aS'Dec 27, 2010 - In this case, we check the impact of Wikileaks news on Chevron media reputation. Blue diamonds refers to Chevron media reputation taking into account all ...'
p2
aS'Dec 27, 2010 - One of the most important developments of the past week was the newfound strength of big-cap energy, such as Exxon Mobil Corp. (NYSE: XOM) and Chevron ...'
p3
aS'Dec 28, 2010 - The news media frequently calls on Brookshire for expert commentary on a variety of financial ... Brookshire Advisory and Research, Inc. is a consultancy focused on energy ... Chevron Profit Unexpectedly Falls on Exploration Costs (Update4).'
p4
aS'Dec 28, 2010 - Energy and materials companies were posting gains as the price of crude oil gained. Chevron Corp. led Dow gainers, rising 1.2 percent to finish at $91.19. ... In corporate news, General Motors Co. gained 2.1 percent to close at $35.32 after a ...'
p5
aS'Dec 28, 2010 - Newsroom@Salem-news.com ... the Ivanpah Solar Electric Generating Project (Brightsource Energy), the Blythe Solar Power Project (Chevron Energy Solutions ...'
p6
aS'Dec 27, 2010 - Get All the Oil and Gas Journal News Delivered to Your Inbox ... Manitok Energy Inc., Calgary, has completed the purchase of natural gas processing and ... Chevron Corp. has started LNG and condensate production at the Gorgon project on ...'
p7
aS"Dec 28, 2010 - Currencies  Comm & Energy  Futures  Funds ... of the United States, Rare Element Resources Ltd of Canada and Lynas Corp of Australia. ... by a unit of the oil company Chevron Corp, stopped in 2002, in part because of the price collapse. ... Thomson Reuters is the world's largest international multimedia news agency, ..."
p8
aS'Dec 28, 2010 - dit le 28/12/2010 - Plus de news de "JACOBS" - Voir la fiche entreprise de "JACOBS" ... and gas, refining & chemicals, mining & metals and energy & environmental. ... 08/12/2010 - Jacobs Receives Contract from CPC Corporation, Taiwan for .... chevron china cnooc cnpc co2 commission-europeenne compressor congo ...'
p9
aS'Dec 27, 2010 - We will discuss energy and metal/mining ETF products in separate reports. ... with holdings such as Chevron, Exxon Mobil, Schlumberger, ConocoPhillips, ... Copper at only a 2.9% weighting and Barrick Gold Corp at a 2.7% weighting. .... Stock Quotes  Futures Quotes  Forex Quotes  ETF Quotes  News & Commentary.'
p10
a.