(lp0
S'Dec 22, 2010 - oil and gas news and contracts for contractors and engineers in the ... Talisman Energy Announces Strategic Partnership With Sasol in Montney Shale C$ ... Chevron Corporation sanction development of its $4 billion Big Foot project in the ...'
p1
aS'Dec 23, 2010 - In one major example, Chevron Corporation is a large funder of science education ... Chevron is also a sponsor of the National Energy Education Development ..... More good news: thanks to clouds - yes, clouds - global warming may be "far ...'
p2
aS"Dec 22, 2010 - 30000 natives fight for compensation against Texaco (now Chevron), accused of 3 decades of ... OSCAR LEON: Welcome to The Real News. ... JAMES CRAIG, MEDIA ADVISOR FOR LATIN AMERICA, CHEVRON CORP. .... they can fund their little games, Free energy has available for a hundred years it's time for a change."
p3
aS"Dec 22, 2010 - ... Co's 290,000 bpd, which is jointly-owned by PetroChina and Chevron Corp. One of China's four national oil firms -- PetroChina , Sinopec Corp , CNOOC ... The Chinese energy giant also owns nearly half of the 295,000-bpd Singapore Refining Co. ... Thomson Reuters is the world's largest international multimedia news ..."
p4
aS'Dec 22, 2010 - Market News Highlights ... Officers of the Corporation: Harold McGraw III, Chairman, President and Chief ..... a cluster of major companies  including Chevron,.'
p5
aS'Dec 24, 2010 - Senior Reservoir Engineer, Chevron Energy Technology Company, Chevron Corporation (August 2007  November 2010) Lead Reservoir Engineer, Chevron ...'
p6
aS'Dec 23, 2010 - Energy News  Most Popular ... Petrohawk Energy Corp. |. Thursday ... Ex-Petrohawk CEO to Head $550M Re-Capitalized Ram Energy (Dec 22) - BHP Billiton ...'
p7
aS'Dec 23, 2010 - The Big Energy companies responsible for worst environmental disasters, ... gone awry, pipeline problems and a less-than-stellar quarter: Chevron(CVX) has ... From lavish parties to a paranoid tirade: First news broke of the lavish parties, ...'
p8
aS'Dec 24, 2010 - Resource Center; News/Press ... Energy and Communications ... Chevron Phillips Storage-In-Transit Yard Construction ... 2016 TranSystems Corporation.'
p9
aS'Dec 23, 2010 - For example, the energy company Baard has been planning a coal-to-liquids ... Credit Nadine Hutton/Bloomberg News ... Sasol is building a similar plant in Nigeria with Chevron, and last month, it completed a feasibility study in Uzbekistan.'
p10
a.