(lp0
S"Jan 11, 2010 - The 32-year-old energy attorney had a very stressful decade. ... That's why he's ready to celebrate by tackling the Chevron Houston Marathon on Jan. 17."
p1
aS'Jan 11, 2010 - Noria news wires ... 2010-01-14; Energy Efficiency is Driving Lubricant Development .... 2010-05-11; Pall Corporation Announces Retirement of President Stevens ... 2010-06-30; Chevron Introduces HDAX 7200 Low Ash Gas Engine Oil'
p2
aS'Jan 10, 2010 - Chevron said on Saturday it had been forced to shut down 20000 barrels per day (bpd) of crude oil production in ... News | Sun Jan 10, 2010 6:07am EST ...'
p3
aS'Jan 11, 2010 - High energy prices, including prices at the pump, will slow and even reverse ... Sign up for email updates and get the latest news about what Big Oil is up to.'
p4
aS'Jan 11, 2010 - "This week\'s surge in demand for energy in response to the cold weather raises serious concerns about the UK\'s increased reliance ... Business Latest News .'
p5
aS'Jan 11, 2010 - ... the Real Estate Development, Residential Real Estate and Energy & Infrastructure Finance Practices. ... Prior to joining MMM, Causey was in private practice in Chapel Hill, NC and with Gulf Oil Corp./Chevron U.S.A. She is a graduate of Mississippi State University and Tulane University School of Law. ... Back to All News ...'
p6
aS"Jan 11, 2010 - In The News ... Celgene; Chevron; Chipotle Mexican Grill; CitiBank; Clorox; CMS Energy; Coca-Cola; Colgate-Palmolive; Comcast ... The Coca-Cola company is an American multinational corporation that manufactures, retails, and ... quantitative, time bound targets for increasing Coca-Cola's renewable energy sourcing."
p7
aS'Jan 12, 2010 - The demonstration plant, which will be built at the Tesoro Corp. refinery in ... As we continue to seek alternatives to reduce our fossil energy consumption, ... For more news and information on Honeywell, please visit www.honeywellnow.com. ... Chevron Technology Ventures  Premium Renewable Energy  Red Arrow ...'
p8
aS'Jan 11, 2010 - When the UK Needs Energy, Wind Farms Fail to Produce; Lack of Wind During ... An attack on a crude-oil pipeline operated by U.S. oil giant Chevron Corp. is the .... according to a Bloomberg News survey of refinery officials in the three Asian ...'
p9
aS'Jan 11, 2010 - News and information on Royal Dutch Shell Plc. ... ARGUS FSU ENERGY ARTICLE: Shell weights its options: 27 Oct 2006 ..... COM ARTICLE: Chevron A Safer Bet Than Shell: 13 April 2015 ..... sensitive government positions in the Presidency, the Nigerian National Petroleum Corporation (NNPC), and the Federal Ministry ...'
p10
a.