(lp0
S'Jan 12, 2010 - Chevron Corp. is paying nearly $500,000 a day to the owner of the Clear Leader, .... If you read or listen to energy market news for very long, you should begin to ...'
p1
aS"Jan 12, 2010 - Chevron Corp (CVX. ... Chevron says SF-Bay refinery flaring -filing ... Thomson Reuters is the world's largest international multimedia news agency, providing ..."
p2
aS'Jan 11, 2010 - Noria news wires ... 2010-01-14; Energy Efficiency is Driving Lubricant Development .... 2010-05-11; Pall Corporation Announces Retirement of President Stevens ... 2010-06-30; Chevron Introduces HDAX 7200 Low Ash Gas Engine Oil'
p3
aS'Jan 12, 2010 - ConocoPhillips and Chevron Corp. have already abandoned some Gulf prospects ... testimony before the Senate Energy and Natural Resources Committee.'
p4
aS'Jan 12, 2010 - Trusted market intelligence for the global chemical, energy and fertilizer industries .... HOUSTON (ICIS news)--Chevron Phillips Chemical restarted its Port Arthur ...'
p5
aS"Jan 11, 2010 - The 32-year-old energy attorney had a very stressful decade. ... That's why he's ready to celebrate by tackling the Chevron Houston Marathon on Jan. 17."
p6
aS"Jan 13, 2010 - Upstream oil and gas news for exploration and production professionals ... energy-pedia licensing ... In recent months firms including France's Total, U.S. major Chevron, Spain's Repsol, India's Oil and Natural Gas Corp (ONGC), Petronas from ..."
p7
aS'Jan 11, 2010 - High energy prices, including prices at the pump, will slow and even reverse ... Sign up for email updates and get the latest news about what Big Oil is up to.'
p8
aS'Jan 12, 2010 - Energy News  Most Popular  Headlines ... Operates 32 Offshore Rigs. - ITF JIP Enters Trial Phase with Support from Total, BP, Shell, Chevron (Apr 20)'
p9
aS'Jan 12, 2010 - ASRC Energy Services (AES) is a wholly- ... for profit Native Regional Corporation manages five ... The Engineering News-Record consistently ..... Chevron MCA.'
p10
a.