(lp0
S'Jan 26, 2010 - Chevron Corporation, through an Australian subsidiary, today announced further ... Upstream oil and gas news for exploration and production professionals ... to Chevron\'s energy portfolio," said George Kirkland, vice chairman, Chevron.'
p1
aS"Jan 26, 2010 - Chevron.com  News .... Chevron is one of the world's leading integrated energy companies and through its Australian subsidiaries, has ... This press release of Chevron Corporation contains forward-looking statements relating to Chevron's ..."
p2
aS'Jan 27, 2010 - 2015-10-13; Chevron Launches Program to Control Particle Contamination  Noria news wires ..... 2014-06-05; Green4All Energy Solutions Unveils New Oil Additive  Noria news ..... 2012-02-16; SKF to Acquire General Bearing Corporation'
p3
aS"Jan 27, 2010 - Chevron Corporation is one of the world's leading integrated energy companies, with subsidiaries that conduct business worldwide. The company's success is ..."
p4
aS'Jan 27, 2010 - Case opinion for TX Court of Appeals IN RE: CHEVRON U.S.A.. ... See In re Valero Energy Corporation, 968 S.W.2d 916, 916-17 (Tex.1998) (instructing .... Providence Newspaper Guild, 271 F.3d 16 (1st Cir.2001) (extending Hart Surgical to ...'
p5
aS'Jan 26, 2010 - Posted by Big Gav in arrow energy, australia, chevron, coal seam gas, lng, natural gas. The Australian ... Energy Business News (Au)  EV World  Gas 2.0'
p6
aS'Jan 26, 2010 - John Gass, president, Chevron Global Gas said, "Kyushu Electric is a leading company in ... Chevron Corporation is one of the world\'s leading integrated energy ...'
p7
aS'Jan 27, 2010 - NEWS CORP .... Valero Energy is negotiating to sell this Delaware refinery, which it bought in 2005 and ... Diversified oil companies, from Chevron Corp.'
p8
aS"Jan 27, 2010 - A6 NEWS/NORTH, June, 2009. The amount of ... March of 2008, Chevron's. Fort Liard ..... International Frontier Resour- ces Corp. and Pacific Rodera. Energy."
p9
aS'Jan 27, 2010 - More Details for Centerpoint Energy Resources Corp ... Chevron Corporation ... With the latest News & Advice from Manta, you can stay ahead of the trends and ...'
p10
a.