(lp0
S'Feb 1, 2010 - Chevron. 101.40. -0.29%. -0.29. ConocoPhillips. 46.23. -1.81%. -0.85 ... (rig rates, lease activity, worldwide consumption, energy stockpiles, capital availability, etc.) .... Get All the Oil & Gas Financial Journal News Delivered to Your Inbox for free ... Exterran Corp. plans to close a facility near Houston, eliminating 241 jobs, ...'
p1
aS'Feb 1, 2010 - energy-pedia general news ... in Karachaganak Petroleum, each with a 32.5 percent stake, while Chevron Corp. has a 20 percent interest and Lukoil 15 percent.'
p2
aS"Feb 1, 2010 - Foehr, who is currently vice president of finance for Chevron's Global Upstream and Gas ... Chevron Corporation is one of the world's leading integrated energy ..."
p3
aS'Feb 1, 2010 - The global energy consultancy PFC Energy has published the top 50 energy companies of the world for 2009 based on market cap. ... 8, Chevron, CVX, $154.50, Integrated IOC, US ... Why Declining Consumer Sentiment Is Bad News In 3 Charts ... David Alton Clark; Prospect Capital Corporation: A Free $.46 Per Share For ...'
p4
aS'Feb 1, 2010 - Photo: The research was prompted following anecdotal reports of energy drinks being linked to heart attacks and sudden cardiac deaths (Tim Leslie: ABC News).'
p5
aS"Feb 1, 2010 - In December, it announced the $31 billion purchase of XTO Energy, a leader in natural ... In 2008, Exxon became the world's most profitable corporation with earnings over ... Chevron's fourth-quarter profit dropped 37 percent, to $3.07 billion. ... News. World  U.S.  Politics  N.Y.  Business  Tech  Science  Health  Sports ..."
p6
aS'Feb 1, 2010 - Home  Shareholder News; CIRI buys North Wind Inc. ... CIRI Development Corp. acquired North Wind Inc., an environmental management, ... of Defense, Bechtel Corp., NASA, Chevron Phillips Chemical, Duke Energy and General Electric.'
p7
aS'Jan 31, 2010 - These are the most important sources of energy in the world--fields worth fighting over. ... In November, British giant BP and China National Petroleum Corp. won the first oil contract ... TOPICS: Business/Economy; News/Current Events .... I doubt Chevron contacted her then to share the results of a test well on Federal Land.'
p8
aS'Jan 31, 2010 - dit le 31/01/2010 - Plus de news de "CNPC" - Voir la fiche entreprise de "CNPC" ... 16/05/2012 - PetroChina and International Energy Firms Launch LNG Canada .... Industries Compressor Corporation and Mitsubishi Hitachi Power Systems to ... chevron china cnooc cnpc co2 commission-europeenne compressor congo ...'
p9
aS'Feb 1, 2010 - More Drilling & Completion News .... include Total with seven rigs under contract, ExxonMobil with six rigs, and Chevron Corp. subsidiary Cabinda Gulf with five.'
p10
a.