(lp0
S'Feb 23, 2010 - (oil sands insitu) and Pengrowth Energy Corporation (Canadian oil and gas), and a ... In his last assignment with Chevron, he was Manager of Well Engineering ...'
p1
aS'Feb 22, 2010 - energy-pedia general news ... GS Caltex, equally owned by GS Holdings Corp. and Chevron, the second-largest U.S. oil company, has stakes in six exploration ...'
p2
aS'Feb 23, 2010 - Pangaea (Peru) Energy Ltd. said Block 71 is believed to offer reserve potential of billions of barrels of oil. ... International news for oil and gas professionals ... Chevron Corp. plans a $26.6-billion capital and exploratory investment program for ...'
p3
aS'Feb 23, 2010 - Use for minimum logging requirements, with a waiver from the Energy .... Get All the Oil and Gas Journal News Delivered to Your Inbox ... Chevron Corp. has signed a nonbinding heads of agreement with China Huadian Green Energy Co.'
p4
aS'Feb 22, 2010 - DOW JONES, A NEWS CORP COMPANY .... The General Atomics reactor, which is dubbed EM2 for Energy Multiplier Module, would be about one-quarter the ...'
p5
aS'Feb 23, 2010 - This could be problematic for oil and gas producers like Exxon and Chevron that ... Map of shale gas plays in the United States from the U.S. Energy Information ...'
p6
aS"Feb 23, 2010 - Qatar Petroleum and Exxon Mobil Corporation confirmed today that the Al Khaleej ... of Energy and Industry, Chairman and Managing Director of Qatar Petroleum, said, ... Qatar Petroleum to Acquire Part of Chevron's Moroccan Assets (Feb 8)"
p7
aS'Feb 22, 2010 - Trusted market intelligence for the global chemical, energy and fertilizer industries .... Companies like Chevron Oronite are investigating the use of Group II base oils in ... Take a free trial to ICIS news for breaking chemical news as it happens ...'
p8
aS'Feb 22, 2010 - International Association for Energy Economics(IAEE)  International Association ... World Energy Efficiency Association(WEEA)  World LP Gas ... Chevron Corp.'
p9
aS"Feb 22, 2010 - Chevron. 98.70. +1.51%. +1.47. ConocoPhillips. 45.00. +2.97%. +1.30 .... Get All the Oil & Gas Financial Journal News Delivered to Your Inbox for free ... Paradigm Energy Partners LLC's wholly owned subsidiary, Paradigm Midstream Services  ND LLC, has .... Copyright  2007-2016 Pennwell Corporation, Tulsa, OK."
p10
a.