(lp0
S'Feb 4, 2010 - Chesapeake Energy Corp announced the execution of an agreement for a $2.25 ... contract with Cabinda Gulf Oil Company, a Chevron subsidiary, in Q1 2010.'
p1
aS'Feb 4, 2010 - Bryan Pechersky joined Cloud Peak Energy in January 2010 as its Senior Vice ... an international energy company acquired by Chevron Corporation in 2005.'
p2
aS'Feb 4, 2010 - Colorado Breaking News, Sports, Weather, Traffic ... sections of well casing while drilling in unincorporated Washington County for Delta Petroleum Corp.'
p3
aS'Feb 4, 2010 - Share Information  News Releases  Financials  Presentation  Tax Information ... positions of increasing responsibility with Chevron Canada Resources for 13 ... Prior to joining DualEx, Lorne was the Controller of Stratic Energy Corporation.'
p4
aS'Feb 3, 2010 - Get All the Oil and Gas Journal News Delivered to Your Inbox ... Chevron Corp. has started LNG and condensate production at the Gorgon project on Barrow ... Customer Experience Management for Energy Companies: The Path to Happy ...'
p5
aS"Feb 3, 2010 - ... appeal The Effects of 21 explaining Chevron's alternative energy endeavors. .... from Chevron Corporation entitled Untapped Energy increased the company's ..."
p6
aS'Feb 3, 2010 - SunEdison Shares at 24 Cents on WSJ Bankruptcy News .... Chevron Energy Solutions, a division of the oil major Chevron Corporation, develops both solar and ...'
p7
aS"Feb 4, 2010 - ... Inc (TSE:EME) including real-time stock quotes, historical charts and financial news, all for free! ... Shell, Chevron Await LNG's Return From `Pause Mode' .... January 9, 2012, Twin Butte Energy Ltd completed combination with the Company."
p8
aS'Feb 3, 2010 - by Richard K. Stoneburner, Petrohawk Energy Corporation  Houston, Texas. Figure 1: ... many are not convinced the bad news has ended. Given the ...'
p9
aS'Feb 4, 2010 - A flood of bad news, including rising debt levels in European nations and an unexpected jump in .... Energy stocks fell as oil slid. Exxon Mobil Corp. fell $1.88, or 2.8 percent, to $64.72, while Chevron Corp. fell $1.84, or 2.5 percent, to $71.37.'
p10
a.