(lp0
S"Feb 9, 2010 - Landmark's OpenWorks R5000 Software Selected as Part of Chevron's Next Generation Interpretation Environment ... with Chevron Energy Technology Company, a Chevron Corporation (NYSE:CVX) ... More News RSS feed for Halliburton."
p1
aS'Feb 9, 2010 - AERA ENERGY; BAKERSFIELD, CALIFORNIA 93311; 661-769-8512. AERA ENERGY ... CHEVRON CORP; SAN RAMON, CALIFORNIA 94583; 925-842-1000.'
p2
aS'Feb 9, 2010 - Or Standard Chartered Bank or Chevron oil, for that matter? ... Breaking news .... Right, so getting any big money making corp. to help people is worthwhile, ...'
p3
aS'Feb 9, 2010 - All Recent SI Reports Press Releases SEC Filings Major News. Apr 12, 2016 10:34 AM Stifel Raises Price Target on Cimarex Energy (XEC) After Meeting with ...'
p4
aS"Feb 8, 2010 - CHEVRON CORP. The California-based energy behemoth, which is currently yielding about 3.7 per cent, is another favourite of my O'Shaughnessy-based ..."
p5
aS'Feb 8, 2010 - Of the major integrated oil companies, Chevron gets most of its income from oil ... This underrated Canadian energy trust hit the news earlier this year with the ...'
p6
aS'Feb 8, 2010 - Walter H. Shorenstein, Chevron Corporation, The Coca-Cola Company, and General. Motors. The views ... Since few people like bad news, companies must often overcome a reluctance to .... Talisman Energy, Inc., 453 F. Supp.2d. 633, 657.'
p7
aS"Feb 9, 2010 - ... determine effects of drilling-related discharges at Chevron U.S.A. Inc.'s platform Hidalgo in the ... activities in the basin until 1986 when drilling started at Unocal Corp. ..... International news for oil and gas professionals ... Chevron Corp. has signed a nonbinding heads of agreement with China Huadian Green Energy Co."
p8
aS"Feb 9, 2010 - Automated Logic: Leading supplier of building automation systems, energy ... DDC retrofit of Chevron's 1.2 million sqft downtown, 50-story, LEED certified office building. ... Recent News ... Copyright  2000-2016 Automated Logic Corporation."
p9
aS'Feb 9, 2010 - This exercise is revealing a lot of useful information for energy investors. ... Of the 65 comment letters the SEC received from folks like Chevron (NYSE: CVX) .... Estimates Rising by Double Dividend Stocks; Prospect Capital Corporation: A ... Can by Doug Eberhardt; Weighing The Week Ahead: Time To Sell The News? by ...'
p10
a.