(lp0
S'Mar 15, 2010 - Chevron Corp. is an integrated energy company, which provides administrative, financial, management and technology support to U.S. and international ...'
p1
aS'Mar 15, 2010 - 2010 Chevron Corporation. ... Tim Veale, Manager, Renewable Energy Services ... test facility that Chevron has installed to test and evaluate different solar ...'
p2
aS'Mar 15, 2010 - Julia Baggs, Chevron Energy Technology Company. Hi, my name is Julia Baggs and I work at Chevron on a team that explores the earth for oil and natural gas.'
p3
aS'Mar 15, 2010 - CHEVRON USA PRODUCTION CO; LA BARGE, WYOMING 83123; 307-386-2274 ... DEVON ENERGY CORP; RIVERTON, WYOMING 82501; 307-856-8111.'
p4
aS'Mar 15, 2010 - Independent energy company Petrohawk Energy Corp. has entered into a definitive ... +0.00. Chevron. 101.69. +0.00. +0.00. ConocoPhillips. 47.08. +0.00. +0.00 .... Get All the Oil & Gas Financial Journal News Delivered to Your Inbox for free.'
p5
aS'Mar 16, 2010 - BB:SNEY - News) has formed a strategic alliance with a Global Petroleum trader ... Our partner is a privately operated international energy trading firm focusing on ... including but not limited to the following companies, Chevron Corp., TOTSA ...'
p6
aS'Mar 15, 2010 - TECO Energy Inc. 77. National Grid. 78. Masco Corp. 79. Syngenta AG. 80. Marathon Oil Corp. 81. Berkshire Hathaway. 82. Chevron Corp. 83. Lubrizol Corp.'
p7
aS'Mar 16, 2010 - DOW JONES, A NEWS CORP COMPANY ..... For example, shares of Exxon Mobil Corp. and Chevron Corp. historically tend to trade in similar directions, since ...'
p8
aS'Mar 15, 2010 - As recession has driven down global energy demand, not least for natural gas, .... In September, Gorgon joint-venture partners Chevron Corp., ExxonMobil Corp., and .... News reports earlier this year, however, cited analysts in saying that cost ...'
p9
aS"Mar 15, 2010 - Top Biz News ... China National Offshore Oil Corporation's (CNOOC) oil refinery is seen in ... owns a 40 percent stake in Pan American Energy LLC, the country's largest crude oil ... The company was subsequently bought by Chevron Corp."
p10
a.