(lp0
S"Mar 22, 2010 - U.S. energy giant Chevron Corp is set to announce on Monday the ... Solar panels sit on the roof of SunPower Corporation in Richmond, California March 18, 2010. ... Thomson Reuters is the world's largest international multimedia news ..."
p1
aS'Mar 22, 2010 - BAKERSFIELD, Calif., March 22, 2010  Chevron Corporation (NYSE: CVX) today announced the start of Project Brightfield, a demonstration of next-generation solar energy technologies in Bakersfield, California. The project, created on the site of a former Chevron refinery, will ...'
p2
aS'Mar 22, 2010 - At Greentech Media, we put our energy reporters and analysts to the task of picking .... It is working with Procter and Gamble on green chemicals and Chevron on fuel. ... including Coca Cola, News Corp., Akamai, Intuit, Brocade and Safeway.'
p3
aS'Mar 23, 2010 - RIGZONE News - leading source for the latest news and information for the oil and ... Kairiki Energy and Philippines National Oil Company Exploration Corp. engaged in ... Construction Manager (Filipino ONLY), Philippines, Apr 19. Chevron'
p4
aS'Mar 23, 2010 - London, March 23, 2010  Silixa Ltd. today announced that Lime Rock Partners, a leading global energy-focused private equity firm, has committed to a ... LLC, the venture capital arm of Chevron Technology Ventures LLC, to accelerate the ... advantage and superior financial returns for Chevron Corporation. Back to News.'
p5
aS'Mar 22, 2010 - With so many executives and dignitaries on the guest list, Chevron might have taken some time over the weekend to wipe down solar panels that were ... Home  News ... Cheron unveils solar energy demonstration project on a former refinery.'
p6
aS'Mar 23, 2010 - Chevron and Stone & Webster Engineering Corp. have been working as a team since 1991, as the ... by awarding the Port Arthur Plant the 1997 Energy Efficiency Award in November 1998. ... International news for oil and gas professionals ...'
p7
aS"Mar 24, 2010 - A Weibull reliability analysis of a repeated pump problem at Chevron Corp.'s Pascagoula ... 02/15/2016. International news for oil and gas professionals ... This report will provide an overview of the state-of-the-market in the energy sector."
p8
aS"Mar 22, 2010 - Chevron will test the technologies for three years and decide which might merit use at the company's facilities, or by Chevron Energy Solutions, which builds ..."
p9
aS'Mar 22, 2010 - Arrow Energy agreed to sell the bulk of its Australian assets to Shell and ... NEWS CORP .... Shell also has a 25% stake in the proposed Chevron Corp.-operated ...'
p10
a.