(lp0
S'Mar 24, 2010 - At the same time, state oil firms are keeping the best energy resources for themselves, shutting international oil companies out. ... (XOM) and Chevron Corp.'
p1
aS'Mar 24, 2010 - By Leslie Berliant, InsideClimate News ... money to suspend the law, however, has come in the form of $500,000 from Texas-based Valero Energy Corporation.'
p2
aS'Mar 24, 2010 - Keep up with the future of natural gas with the latest LNG news articles and information.'
p3
aS"Mar 25, 2010 - Energy News ... Keppel Corp. ... The semi will return to its deployment in Perth Australia for Apache Corporation, .... Chevron Signs Up Australia's Alinta To ."
p4
aS'Mar 25, 2010 - Nigerian National Petroleum Corporation, NNPC, Energy, Nigeria ... These include the Chevron Onshore Gas Plant of the Escravos Gas Project Phase 1 where ...'
p5
aS'Mar 24, 2010 - Home / News / Central Gulf of Mexico oil and gas lease sale results show ... Shell Offshore; Chevron; Mariner Energy; Hess Corp; BHP Billiton Petroleum; Nexen ...'
p6
aS'Mar 24, 2010 - News ... Broron offers professional services in the area of energy infrastructural ... Nigeria, Chevron Nigeria Ltd. and also the Nigerian National Petroleum Corp.'
p7
aS'Mar 24, 2010 - RBS Morgans senior analyst, oil, gas and energy, Nik Burns, said the deal ... biggest trade deal between two entities was Chevron Corporation agreeing to sell ...'
p8
aS'Mar 25, 2010 - MISTRAS Services Receives Chevron Safety Award. ... In the News ... to evaluate the structural integrity of critical energy, industrial and public infrastructure.'
p9
aS'Mar 24, 2010 - K150 - CHEVRON RING , Kasta,Hydrolic Pneumatic Sealing Elements and Technical Rubber Parts producing ve ... News & Media .... Energy Saving Sealing .'
p10
a.