(lp0
S'Mar 29, 2010 - ... Smith was chief financial officer at Valero Energy Corp., a larger San Antonio ... third-largest U.S. oil company behind Exxon Mobil Corp. and Chevron Corp.'
p1
aS"Mar 30, 2010 - One of the most frustrating chapters in Chevron Corp.'s more ... Pennzoil Exploration & Production Co., Oryx Energy Co., Koch Industries Inc., Oxbow Energy Inc., and Whiting Petroleum Co. .... International news for oil and gas professionals ..."
p2
aS"Mar 30, 2010 - DOW JONES, A NEWS CORP COMPANY. News Corp is a .... Firm Sticks to Strategy of Relying on Internal Growth for Energy-Services Unit. By. Paul Glader ... The unit's major customers are oil companies such as Chevron Corp. CVX 1.62 ..."
p3
aS'Mar 29, 2010 - Dan L. Duncan, long time oilman, co-founder of midstream energy company ... Get All the Oil & Gas Financial Journal News Delivered to Your Inbox for free ... of Chevron Alberta Gas Storage ULC (CAGS) from Chevron Canada Properties Ltd. CAGS owns a 43% . .... Copyright  2007-2016 Pennwell Corporation, Tulsa, OK.'
p4
aS'Mar 29, 2010 - Tampa Bay, FL News - View Daily Local Business News, Resources & more in Tampa Bay, Florida. ... TAMPA The Hiller Group, an energy firm that supplies aviation fuel, is now spreading its wings. ... based Air Petro Corp. ... Hiller Group currently is a major distributor of Chevron branded aviation fuels in the eastern ...'
p5
aS'Mar 30, 2010 - Horn River Basin News ... Apache Canada, Chevron Canada Announce Joint Venture For Kitimat LNG Project  more ... Devon Energy Corporation  more ...'
p6
aS'Mar 30, 2010 - This seminar, which will be jointly held by SWA Energy and Petromindo.Com will ... Suwito Anggoro, President Commissioner, Chevron Pacific Indonesia'
p7
aS'Mar 30, 2010 - News  Photo Gallery  Education Program  CiSoft Academy ... USC/Chevron Frontiers of Energy Resources - Summer Camp. Overview  Summer Camp 2012'
p8
aS'Mar 30, 2010 - Energy News ... BP and China National Petroleum Corp. -- that both signed ... ITF JIP Enters Trial Phase with Support from Total, BP, Shell, Chevron (Apr 20)'
p9
aS'Mar 29, 2010 - NASA says it studied several renewable energy sources, including solar and .... including oil refiners BP Plc and Chevron Corp., oppose the auction plan, which ...'
p10
a.