(lp0
S"Mar 31, 2010 - Chevron provides jobs for approximately 2700 employees and 850 contractors in ... Chevron.com  NEWS  SUPPLIERS  CONTACT ... Chevron's Energy Technology Company (ETC) provides technology ... 2001 - 2016 Chevron Corporation."
p1
aS"Mar 31, 2010 - Chevron Corporation (NYSE:CVX) today announced that Senator Charles ... Policy Board and the Secretary of Energy's Blue Ribbon Commission on America's ..."
p2
aS"Mar 31, 2010 - Chevron Corporation (NYSE: CVX) announced today that the Perdido deepwater ... Chevron is one of the world's leading integrated energy companies, with ..."
p3
aS"Mar 31, 2010 - Obama has made energy security and reducing U.S. reliance on foreign oil a key policy ... Shell and Chevron Corp, according to the U.S. Minerals Management Service. .... Thomson Reuters is the world's largest international multimedia news ..."
p4
aS'Mar 31, 2010 - The other interest owners are Chevron USA Inc. 37.5% and BP Exploration & Production Inc. 27.5%. ... International news for oil and gas professionals ... Chevron Corp. plans a $26.6-billion capital and exploratory investment program for 2016 ... Customer Experience Management for Energy Companies: The Path to Happy ...'
p5
aS'Mar 31, 2010 - Koch Industries, a sprawling private corporation based in Wichita, Kan., and run by two ... to advancing clean energy and climate policy in the U.S.," Greenpeace says. ... million on lobbyists in 2009, ranking it fifth behind Exxon, Chevron Corp., ...'
p6
aS'Mar 31, 2010 - ... with Exxon Mobil Corp. to buy 2.25 million tons of LNG with Chevron Corp. ... China National Petroleum Corp (CNPC) is filling its commercial oil reserve ... But before rejoicing check this news too: In the search for unconventional energy ...'
p7
aS"Mar 31, 2010 - News Analysis ... support for climate and energy legislation while increasing production of domestic oil. .... We don't have a good understanding of what the true potential is, said Bobby Ryan, Chevron's vice president for global exploration."
p8
aS'Mar 31, 2010 - Source: Shell, Chevron ... US federal lands and waters are opened to responsible energy exploration and production. ... Get All the Energy Industry News Delivered to Your Inbox .... Copyright  2007-2016 PennWell Corporation, Tulsa, OK.'
p9
aS"Mar 30, 2010 - DOW JONES, A NEWS CORP COMPANY. News Corp is a .... Firm Sticks to Strategy of Relying on Internal Growth for Energy-Services Unit. By. Paul Glader ... The unit's major customers are oil companies such as Chevron Corp. CVX 1.62 ..."
p10
a.