(lp0
S"Apr 15, 2010 - Energy News  Most Popular ... M-I SWACO to Service Chevron's Rigs Offshore Angola. Smith International, Inc. ... Company: Chevron Corporation, more info."
p1
aS"Apr 15, 2010 - Exxon's renewed focus on North America follows nationalist energy policies in ... They've filed a lawsuit against Exxon and Chevron Corp., which pumps oil and ..... Qatar's Energy Minister Mohammed Al Sada said at a news conference after ..."
p2
aS'Apr 14, 2010 - A few months ago, Chevron turned to The Audit, the business-news desk of the ... of Ecuador, the Minister of Energy and Mines, the president of Petroecuador ...'
p3
aS'Apr 15, 2010 - Riviera-Ensley Energy Advisors and NuTech Energy Alliance ... Energy Corporation and the transaction-advisory services of Ensley Properties, Inc. .... of California, H. L. Brown, Jr., Penwell Energy, Inc., Chevron Corporation and David.'
p4
aS'Apr 15, 2010 - The ending of the reliance JV deal is the nail in the coffin Put Chevron in for Atlas ... fully transferred to Chevron in whole....http://www.rigzone.com/news/oil_gas/a/ ... Energy entered into a joint venture transaction with a wholly owned affiliate of ...'
p5
aS'Apr 15, 2010 - Industry News Energy ... California-based Chevron Corp. ... The next highest-ranked Houston-based company was Marathon Oil Corp., which slid 18 spots to No ...'
p6
aS'Apr 15, 2010 - ... and gas exploration and production company Apache Corp. and Mariner Energy have ... Chevron. 101.40. -0.29%. -0.29. ConocoPhillips. 46.23. -1.81%. -0.85 .... Get All the Oil & Gas Financial Journal News Delivered to Your Inbox for free.'
p7
aS"Apr 15, 2010 - A meter measuring barrels of oil sold is seen aboard Chevron's Petronius oil platform, ... On Monday, Apache said it planned to buy Devon Energy Corp's (DVN. .... Thomson Reuters is the world's largest international multimedia news agency, ..."
p8
aS'Apr 15, 2010 - Praxair Develops Innovative Supply System for Chevron and Total Gas and Power ... Supplies of LNG with energy content greater than the allowable maximum can be ... Sign up to receive the latest Praxair news, SEC filings and stock alerts.'
p9
aS"Apr 14, 2010 - The Company's principal investors include Energy Ventures; Chevron Technology Ventures, a unit of Chevron Corporation; Altira Group; Nomura Clean Technology Ventures, a unit of Nomura ... The news you need, when you need it."
p10
a.