(lp0
S'Apr 19, 2010 - Enhanced Oil Recovery news and technical articles from Oil & Gas Journal. ... Besides Chevron, Aera Energy LLC, a venture of ExxonMobil Corp. and Shell Inc., ...'
p1
aS"Apr 19, 2010 - PDVSA expects to take a 60% stake in the JV, while Chevron will own 34%. Mitsubishi ... Colombia's Ecopetrol SA and Pacific Rubiales Energy Corp. expect to commence the .... Get All the Oil and Gas Journal News Delivered to Your Inbox."
p2
aS"Apr 18, 2010 - Shell, with partners Chevron Corp. and BP, has done the equivalent of moving ... The honest answer about whether we're running out of oil, said Goldstein, with Energy Policy Research Foundation, ... Why stocks need more really bad news."
p3
aS"Apr 19, 2010 - From power plants to deep sea drillers, the energy industry's deal-making engine has kicked into high ... Photo: Bloomberg News ... I'm not looking for an Exxon/Chevron deal or a Schlumberger/Halliburton, Pickering said, referring to the ..."
p4
aS"Apr 20, 2010 - Hess Corporation is a large American-based integrated oil company headquartered in ... Chevron is one of the world's leading integrated energy companies."
p5
aS'Apr 19, 2010 - Mr. Werbach points to Chevron\'s five-year-old "Will You Join Us" campaign that ... In this article: News .... Much as we all wish it was as simple as putting out a press release that says "we are an energy efficient company, so buy from us," it isn\'t.'
p6
aS'Apr 19, 2010 - REGIONAL NEWS ... African Petroleum Corporation Limited has entered into an agreement with Buried Hill Africa ... Image: Chevron (For illustration purposes).'
p7
aS'Apr 20, 2010 - Contact Us  Practice News ... Chevron Corporation  CITGO Corporation  ConocoPhillips  Compass Minerals. Devon Energy Corporation. E.I. DuPont de ...'
p8
aS"Apr 18, 2010 - Good news for you is that Oil & Gas recruitment has now become .... making Chevron an equally important part of Nigeria's energy picture and economy. ... Across the corporation, we reduced the days-away-from-work injury rate to a level ..."
p9
aS'Apr 18, 2010 - Learn about working at PTT Philippines Corporation. ... Join LinkedIn to get the latest news, insights, and opportunities from over 3 million ... Oil & Energy ... Phoenix Petroleum Philippines Inc. Total  San Miguel Corporation  Shell  Chevron ...'
p10
a.