(lp0
S'Apr 19, 2010 - Enhanced Oil Recovery news and technical articles from Oil & Gas Journal. ... Besides Chevron, Aera Energy LLC, a venture of ExxonMobil Corp. and Shell Inc., ...'
p1
aS'Apr 20, 2010 - UC Berkeley News View of Campanile and Golden Gate Bridge ... Expertise: Henshaw worked for Chevron Corp. for 29 years as a geologist, managing both ... and alternative marine renewable energy from tidal current and ocean waves.'
p2
aS"Apr 20, 2010 - News & Info. Headlines  Press ... Chevron Corporation (CVX). Watchlist ... Analyzing Chevron's Segmental Outlook before Its 1Q16 Earnings. Market Realist ..."
p3
aS"Apr 19, 2010 - From power plants to deep sea drillers, the energy industry's deal-making engine has kicked into high ... Photo: Bloomberg News ... I'm not looking for an Exxon/Chevron deal or a Schlumberger/Halliburton, Pickering said, referring to the ..."
p4
aS'Apr 19, 2010 - Mr. Werbach points to Chevron\'s five-year-old "Will You Join Us" campaign that ... In this article: News .... Much as we all wish it was as simple as putting out a press release that says "we are an energy efficient company, so buy from us," it isn\'t.'
p5
aS"Apr 20, 2010 - Hess Corporation is a large American-based integrated oil company headquartered in ... Chevron is one of the world's leading integrated energy companies."
p6
aS'Apr 19, 2010 - REGIONAL NEWS ... African Petroleum Corporation Limited has entered into an agreement with Buried Hill Africa ... Image: Chevron (For illustration purposes).'
p7
aS'Apr 20, 2010 - Contact Us  Practice News ... Chevron Corporation  CITGO Corporation  ConocoPhillips  Compass Minerals. Devon Energy Corporation. E.I. DuPont de ...'
p8
aS'Apr 19, 2010 - Chevron Corporation. Graduate Student. Research Support. Awarded to a graduate student who wishes to pursue a career in an energy-related industry.'
p9
aS'Apr 20, 2010 - Manager, Legislative, Regulatory and Political Affairs, Chevron Corp. ... Republican staff director of the House Energy and Commerce Committee (20072008), ...'
p10
a.