(lp0
S'Apr 22, 2010 - Jeet has a distinguished track record in the energy industry and has a keen strategic understanding ... He joined Chevron Corp. in 1977 as a research engineer and served in many leadership ... More News RSS feed for Edison International.'
p1
aS'Apr 21, 2010 - Energy News  Most Popular  Headlines ... Map: Ganal, Rapak PSC, Chevron ... Image Description: Ganal and Rapak Concessions, Chevron. Keywords: Ganal ...'
p2
aS'Apr 22, 2010 - COOEC (600583) made a new breakthrough in overseas market development. Recently, the Company signed a contract with Chevron Australia on the ...'
p3
aS'Apr 21, 2010 - Kevin Ricketts, Project Manager, Chevron. Jim Raney, Director of Engineering & Technology, Anadarko Petroleum Corp. ... Membership includes a subscription to our weekly newspaper providing in-depth news from the energy industry, plus ...'
p4
aS"Apr 22, 2010 - BP, along with U.S. companies such as Chevron Corp., has announced ... The oil markets didn't react strongly to the news, falling 17 cents in futures trading to close ... That accounts for about 8% of global production, according to PFC Energy, ..."
p5
aS"Apr 22, 2010 - Gupta hasn't been formally accused of any wrongdoing, the newspaper said, adding .... Mariner Energy Inc., the oil and gas explorer being bought by Apache Corp. for .... ConocoPhillips and Chevron Corp. have already abandoned some Gulf ..."
p6
aS'Apr 22, 2010 - Speaking to the Canadian Energy Research Institute oil conference in Calgary, Chairman of the Energy Resources Conserva- ...... and chief executive officer, in a news release. .... from Chevron Corp. for work off Angola that could lead to $800.'
p7
aS'Apr 21, 2010 - energy-pedia general news ... Two other large projects with tax stability clauses are Chevron-led Tengiz and Karachaganak, which is developed by Eni, BG, ...'
p8
aS'Apr 22, 2010 - In its second century, GE remains one of the dominant forces in energy. .... Oracle, SAP (software, rampant acquirers), Chevron (oil, solar) Suntech, SunPower, ...'
p9
aS'Apr 21, 2010 - Geothermal Power Investing News ... Kalinga bids to be geothermal energy producer ... worlds leading geothermal energy producers once a ground steam project supported by Chevron Corp. in three towns here begins to generate electricity.'
p10
a.