(lp0
S"Apr 27, 2010 - The California State Court of Appeal has ruled that the Environmental Impact Report (EIR) for the expansion of the Chevron Corporation's refinery in Richmond, ..."
p1
aS'Apr 28, 2010 - Chevron Corp. and Marathon Oil Corp. each own 20 per cent of AOSP - one of several ... scarring the landscape and using large quantities of water and energy. ... News. Justin Trudeau to apologize in Commons for Komagata Maru incident ...'
p2
aS'Apr 27, 2010 - Call for Burma Energy Data ... We the undersigned ... urge Total, Chevron, and PTTEP to commit to practice full revenue transparency in .... RSS News Feeds'
p3
aS'News Update: Valero Energy Corp. ... Valero Energy Corp. is trading up 2.64% at $20.42. ... Animation of ...'
p4
aS'Apr 28, 2010 - DOW JONES, A NEWS CORP COMPANY ..... The Met also asked oil company Chevron Corp., which merged with Texaco in 2001, for access to a restricted $7 ...'
p5
aS"Apr 27, 2010 - Weatherford is one of the largest international oil and natural gas service companies. ... In 1972, the separate company of Energy Ventures, Inc. was founded as an ... Precision Drilling Corporation's Precision Energy Services and International ... In July 2007, the company was featured in news media reports questioning ..."
p6
aS'Apr 28, 2010 - by BlockShopper News Service, published April 28, 2010 ShareThis ... Mr. Pottenger has been a technical manager at Chevron, an energy and technology ...'
p7
aS'Apr 28, 2010 - Renewable Energy News. Pellets over petroleum. 04/28/2010. Timothy Van Epps is president of Sandri Cos., an 80-year-old fuel oil company that is on a ...'
p8
aS"Apr 27, 2010 - But news that ratings agency Standard & Poor's had cut Greece and Portugal's debt ratings overshadowed everything else, giving investors a reason to ... Sliding oil prices dragged on energy stocks, including Dow components Exxon Mobil (XOM, Fortune 500) and Chevron (CVX, Fortune 500). .... Bank of America Corp."
p9
aS'Apr 27, 2010 - News / Blogs  WCNY News ... Chevron/Texaco Chicago Title/Trust ... NRG Energy Bell Atlantic New York Telephone Osmonics Olin Corp. Pennwalt Corp.'
p10
a.