(lp0
S'Apr 28, 2010 - Chevron Corp. and Marathon Oil Corp. each own 20 per cent of AOSP - one of several ... scarring the landscape and using large quantities of water and energy. ... News. Justin Trudeau to apologize in Commons for Komagata Maru incident ...'
p1
aS'Apr 29, 2010 - climate change  wildlife  energy ... Chevron oil demands Crude filmmaker hand over unseen footage ... The oil giant Chevron is trying to force a filmmaker to hand over hundreds of hours of documentary footage about pollution ... More news ...'
p2
aS'Apr 29, 2010 - News & Analysis ... Nonetheless, business associations, health interests, energy companies and Wall Street firms all still invested more than ... Chevron Corp.'
p3
aS'Apr 30, 2010 - Find Energy Companies and a complete list of ...'
p4
aS'Apr 29, 2010 - Oil Spill in Gulf, Energy Policy, Effects of Gas Prices on Economy Prompt Request for Oil Heads ... Oil profits are also up for the top five oil companies  Exxon Mobil, BP, ConocoPhillips, Shell and Chevron. ... Part of HuffPost on HPMG News.'
p5
aS'News Update: Valero Energy Corp. ... Valero Energy Corp. is trading up 2.64% at $20.42. ... Animation of ...'
p6
aS'Apr 28, 2010 - DOW JONES, A NEWS CORP COMPANY ..... The Met also asked oil company Chevron Corp., which merged with Texaco in 2001, for access to a restricted $7 ...'
p7
aS'Apr 29, 2010 - Source: Chevron Australia Pty Ltd. ... remote island off northwest Australia, where oil companies led by Chevron Corp. are poised to inject pollutants 2 kilometers ...'
p8
aS"Apr 29, 2010 - House Majority Whip Steve Scalise listens during a news conference at the U.S. Capitol in ... Congressman Steve Scalise leaned over the railing of the Chevron Corp. oil ... Energy interests have helped fund Scalise's legislative career, with the ..."
p9
aS'Apr 28, 2010 - Renewable Energy News. Pellets over petroleum. 04/28/2010. Timothy Van Epps is president of Sandri Cos., an 80-year-old fuel oil company that is on a ...'
p10
a.