(lp0
S'May 19, 2010 - Upstream oil and gas news for exploration and production professionals. Daily Newsletter ... energy-pedia seismic. United Kingdom flag United ... United Kingdom. UK: Chevron awards Rosebank field node survey West of Shetland to Seabird ...'
p1
aS'May 20, 2010 - A subsidiary of energy colossus Chevron, Chevron Mining owns and operates coal mines in Alabama (North River), New Mexico (McKinley), and Wyoming ...'
p2
aS'May 18, 2010 - DOW JONES, A NEWS CORP COMPANY .... In 2008, Chevron was plagued with accidents while using the Discoverer Deep Seas rig in more than 7,000 feet of ...'
p3
aS"May 18, 2010 - More than 20 defendants, including Chevron Corp (CVX. ... on July 22, 2008, in the wake of $3.2 billion of losses on energy futures and derivatives trades. .... Thomson Reuters is the world's largest international multimedia news agency, ..."
p4
aS"May 19, 2010 - Giants George Kontos to DL; more bad bullpen news - Photo .... The True Cost of Chevron: An Alternative Annual Report was written by contributors from 16 ... but did you know that Chevron is the 5th largest corporation on the planet? ... All the while, Chevron continues to promote itself as a 'green' energy company ..."
p5
aS'May 20, 2010 - CSPnet.com - Convenience Store News .... Ray Grace, 90, founder of Grace Energy Corp., passed away earlier this week ... Chevron convenience store hawaii.'
p6
aS'May 18, 2010 - Dallas-based Foundation Energy Management LLC, a manager of oil and gas ... Chevron. 102.64. +0.94%. +0.95. ConocoPhillips. 47.08. +0.00. +0.00 .... Get All the Oil & Gas Financial Journal News Delivered to Your Inbox for free ... Sanchez Energy Corp., an independent oil and gas company targeting onshore US Gulf ...'
p7
aS'May 18, 2010 - CB&I has served the oil & gas industry since the early 20th century, when we began building storage tanks for the young but flourishing oil business.'
p8
aS'May 18, 2010 - Some of the best known names in the industry rely on CB&I to design and build their downstream oil and gas processing facilities.'
p9
aS"May 18, 2010 - CB&I designs, engineers and constructs some of the world's largest energy infrastructure projects, providing EPC solutions and proven technologies."
p10
a.