(lp0
S'May 23, 2010 - GUNTHER Portfolio  Photovoltaics, Solar Energy, and Energy Policy ... Chevron Corporation (NYSE:CVX), the lone photo of the event is in The Taos News ...'
p1
aS"May 23, 2010 - LA Daily News ... The district's intention had been that Chevron Energy Solutions would own the solar ... When DWP declared that a third party could not sell electricity to the college, Chevron wanted the district to pay its construction bills."
p2
aS'May 24, 2010 - A Chesapeake Energy Corp. natural gas rig .... Chevron Corp., ConocoPhillips and Exxon purchased drilling licenses in Poland. Companies .... Bloomberg is the founder and majority owner of Bloomberg LP, the parent of Bloomberg News.'
p3
aS"May 24, 2010 - ConocoPhillips's earnings surged to $2.1 billion from $800 million, and Chevron Corp. posted $4.55 ... Devon Energy Corp. turned in a $1.19 billion profit in the recent quarter. .... Get All the Oil and Gas Journal News Delivered to Your Inbox."
p4
aS'May 24, 2010 - 53, Chevron Corporation, 3, 2.30%. 54, Diageo, N.A. ... 82, U.S. Department of Energy, N.A., 1.32%. 83, Teach for ... 2016 Cable News Network. A Time Warner ...'
p5
aS'May 24, 2010 - Texaco makes news when it becomes the first oil company whose products and ... joins with Chevron to become the 2nd largest U.S. based energy corporation ...'
p6
aS"May 24, 2010 - No, I've always been an advocate of a more direct energy play: specifically, using futures contracts to invest in the energy markets. .... The Cards by David Alton Clark; Prospect Capital Corporation: A Free $.46 ... Enjoy The Gold Bull While You Can by Doug Eberhardt; Weighing The Week Ahead: Time To Sell The News? by ..."
p7
aS'May 25, 2010 - Five Native Hawaiian Organizations Announce Support of Proposed Merger of NextEra Energy and Hawaiian Electric Industries - 03/28 12:00 PM.'
p8
aS'May 25, 2010 - Chevron. 96.33. +0.00. +0.00. ConocoPhillips. 41.23. +0.00. +0.00 .... Get All the Oil & Gas Financial Journal News Delivered to Your Inbox for free ... A subsidiary of ENGlobal Corp., a provider of energy-related project delivery solutions, has ...'
p9
aS'May 24, 2010 - The suit contends that a broad array of defendants including hotelier La Quinta Corp. and energy giant Chevron USA Inc., as well as Aetna Health Inc., ...'
p10
a.