(lp0
S'May 3, 2010 - REGIONAL NEWS ... Follow Offshore Energy Today .... Chevron Corporation announced that it has contributed $1.5 million to the American Red Cross to ...'
p1
aS"May 3, 2010 - Ship traffic isn't restricted at the Port of Pascagoula, which serves Chevron's refinery, ... Valero Energy Corp., the largest U.S. independent refiner, operates five ..."
p2
aS'May 2, 2010 - climate change  wildlife  energy  pollution ... Breaking news ... As the Chevron Corporation writes on its website, "Navigating uncertain weather conditions, ... In the words of Micky Driver, a Chevron spokesman: "It\'s lots of money, it\'s lots of ...'
p3
aS'May 2, 2010 - ... general national news, politics, business, energy, sports, entertainment, ... and production companies and the Nigerian National Petroleum Corporation .... in Nigeria include Shell, ExxonMobil, Chevron, ConocoPhillips, Total, ENI/Agip, and ...'
p4
aS'May 3, 2010 - Energy News  Most Popular  Headlines ... ITF JIP Enters Trial Phase with Support from Total, BP, Shell, Chevron (Apr 20) - Seadrill Plans to Lay Off More Than ...'
p5
aS"May 3, 2010 - Nigerian National Petroleum Corporation, NNPC, Energy, Nigeria. You are here: NNPC Business ... Vendor Registration. NNPC FAQ's. NNPC News. Oil & Gas ..."
p6
aS'May 3, 2010 - National Fuel Corporation Logo. Home  About Us ... Energy Information Administration (EIA)  Kids Energy Facts (EIA) ... Bloomberg Energy News. Industry ...'
p7
aS"May 2, 2010 - The UAL Corporation, United's parent company, would issue 1.05 shares for each ... a former oil executive who ran the Texaco Corporation until it was acquired by Chevron. ... (While the first news reports of a possible merger appeared on April 16, .... DealBook  Economy  Energy  Markets  Media  Entrepreneurship  Your ..."
p8
aS"May 3, 2010 - The U.S. government's approval of the Cape Wind renewable energy project last week cleared ... David Rolfe Comments on LKQ Corp .... but investors' positive reaction to the news was obscured by worries surrounding Greece's solvency. .... Chevron CEO Says LNG Demand To Increase 35% Over Next 20 Years  Alcoa ..."
p9
aS'May 3, 2010 - CHEVRON CORP, 733,584.00, 69,983,913.60, 4.04. CISCO SYSTEMS INC, 2,119,164.00, 60,332,599.08, 3.48. COCA-COLA CO/THE, 120,437.00 ...'
p10
a.