(lp0
S'May 5, 2010 - This is viewer supported news. Donate. We speak with Antonia .... BP has since cut its alternative energy investments significantly. It even closed its alternative ...'
p1
aS'May 5, 2010 - Cairn Energy Plc is betting $400 million this year on striking oil off Greenland, ... such as Exxon Mobil Corp. and Chevron Corp. that hold rights off the island.'
p2
aS'May 5, 2010 - Renewable Energy Emerging Energy Chevron is a world leader in .... values of The providing energy  is necessary Chevron Way throughout our corporation, ...'
p3
aS'May 6, 2010 - Tatham said Texaco and Chevron likely wouldnt have attempted the 17,976 ft Gemini wildcat without VCS data. ... International news for oil and gas professionals ... Chevron Corp. plans a $26.6-billion capital and exploratory investment program for ... Customer Experience Management for Energy Companies: The Path to ...'
p4
aS'May 6, 2010 - Other partners include Newfield (23.3%) and Mariner Energy (12.5%). ... Company: Murphy Oil Corporation, more info ... Chevron Moves Ahead with Big Foot .'
p5
aS'May 5, 2010 - However, if Chevron\'s Lona O-55 well off Newfoundland were to rupture, industry ... have the capability of going down to that depth," said Mr. Doig, an energy analyst in Calgary. .... News. Woman pleads not guilty to live-streaming friend\'s rape ...'
p6
aS'May 6, 2010 - Also, Geo-mapping for Energy and Minerals (GEM) is in its second year of a five ..... Canada Energy Company, Chevron Canada Limited and MGM Energy Corp.'
p7
aS'May 5, 2010 - Advisory Subcommittee on Offshore Energy Exploration ..... 4 Press Release, March 31, 2010: http://www.doi.gov/news/pressreleases/2010_03_31_release.cfm. 9 ... Chevron. Corporation estimated that there was a 7% chance of finding ...'
p8
aS'May 6, 2010 - energy infrastructure projects through our CB&I Lummus business sector ... New Awards. Gas Plant - Cabinda Gulf Oil Company Ltd. (Chevron Corporation).'
p9
aS'May 5, 2010 - Join over 100,000 investors who get the latest news from Dividend.com. Yield History ... $47.39 +$1.16 +2.5%. CVX - Chevron Corp; $101.69 +$0.29 +0.3%.'
p10
a.