(lp0
S"May 7, 2010 - Chevron, once part of the Standard Oil empire, has grown over the past ... According to the Anchorage Daily News, the agency was investigating .... International Federation of Chemical, Energy, Mine and General Workers' Unions (ICEM)."
p1
aS'May 7, 2010 - Chevron has ordered two 160,000cbm membrane-type LNG carriers to be built at Samsung Heavy Industries ... Follow LNG World News .... Chevron filed comments requesting that the Federal Energy Regulatory Commission (FERC) ...'
p2
aS"May 7, 2010 - Chevron Corporation has named Jeffrey K. Lehrmann as President of Chevron ... Chevron is one of the world's leading integrated energy companies, with ..."
p3
aS"May 8, 2010 - He also sued Chevron Corporation for damages associated with that ... 2007 LLC; Cameron International Corporation; Halliburton Energy Services, Inc.; and .... The story of oilfield radiation made headlines in America's newspaper of record."
p4
aS'May 6, 2010 - Tatham said Texaco and Chevron likely wouldnt have attempted the 17,976 ft Gemini wildcat without VCS data. ... International news for oil and gas professionals ... Chevron Corp. plans a $26.6-billion capital and exploratory investment program for ... Customer Experience Management for Energy Companies: The Path to ...'
p5
aS'May 8, 2010 - Stuart H. Smith (born September 15, 1960) is a practicing plaintiff attorney licensed in Louisiana. He is a founding partner of the New Orleans-based law firm SmithStag, LLC. Smith has practiced law for nearly 25 years, litigating against oil companies and other energy-related ... Chevron pitted the family owners of a pipe-yard located in rural southeastern ...'
p6
aS'May 6, 2010 - Other partners include Newfield (23.3%) and Mariner Energy (12.5%). ... Company: Murphy Oil Corporation, more info ... Chevron Moves Ahead with Big Foot .'
p7
aS"May 7, 2010 - Chevron wins access to film-maker's Amazon pollution footage. US court rules in .... 2016 Guardian News and Media Limited or its affiliated companies. All rights ..."
p8
aS'May 6, 2010 - energy infrastructure projects through our CB&I Lummus business sector ... New Awards. Gas Plant - Cabinda Gulf Oil Company Ltd. (Chevron Corporation).'
p9
aS'May 7, 2010 - Under Delaware law (Chevron is a Delaware corporation), a shareholder seeking to ... In affirming judgment for Chevron, the Court of Appeal noted that the decision ... Corporate & Securities Law Blog is designed to provide breaking news, ... Covering Your Ads Blog  Energy Law News  Executive Compensation Law Blog ...'
p10
a.