(lp0
S"Jun 10, 2010 - The Power of Human Energy. Toggle. Home  About ... Chevron In the News. Chevron Signs Wheatstone Domestic Gas Agreement  Chevron Celebrates a New Chapter in Australia's Resource History ... 2001 - 2016 Chevron Corporation."
p1
aS"Jun 10, 2010 - Chevron Canada's parent company, the California-based Chevron Corp., is the second-largest integrated energy company in the U.S. and the biggest operator ..."
p2
aS'Jun 10, 2010 - Chevron Corp. and its partners expect the Platong Gas II natural gas project in ... Helix Producer I, was built by Helix Energy Solution Group in Ingleside, Texas.'
p3
aS'Jun 10, 2010 - Energy News  Industry News  New Products  Product Recalls  Webcast Center ... Awards and Recognition  Community Involvement  Conserving Energy.'
p4
aS'Jun 9, 2010 - climate change  wildlife  energy  pollution ... Setback for Chevron in attempts to seize Crude outtakes from Joe Berlinger ... Chevron Corporation is being sued in for $27bn (18.5bn) in a class-action lawsuit brought by 30,000 Ecuadorians living in the ... 2016 Guardian News and Media Limited or its affiliated companies.'
p5
aS'Jun 9, 2010 - Chevron. 102.38. +1.87%. +1.88. ConocoPhillips. 47.55. +1.04%. +0.49 ... can contribute significantly to development of the energy infrastructure in the Caspian, ... Get All the Oil & Gas Financial Journal News Delivered to Your Inbox for free ... the necessary approvals from Nigerian National Petroleum Corporation to awar.'
p6
aS"Jun 10, 2010 - Oilfield services company Greene's Energy Group, has named Frank ... Chevron. 101.69. +0.00. +0.00. ConocoPhillips. 47.08. +0.00. +0.00 .... Get All the Oil & Gas Financial Journal News Delivered to Your Inbox for free ... Following its latest unsuccessful attempt at recapitalization plan, Goodrich Petroleum Corp. filed for ..."
p7
aS"Jun 10, 2010 - House Majority Whip Steve Scalise listens during a news conference at the U.S. Capitol in ... Congressman Steve Scalise leaned over the railing of the Chevron Corp. oil ... Energy interests have helped fund Scalise's legislative career, with the ..."
p8
aS"Jun 10, 2010 - BP is responsible for all the damages, Mr Salazar told the Senate's energy and natural resources committee, in one of five ... World News  ... A worker of Gujarat State Petroleum Corporation checks oil flow of well PK-2 during ..... But, they are making BP an attractive take-over target for the likes of Chevron and others."
p9
aS'Jun 10, 2010 - In 2009, the DOE announced INEOS New Planet Energy LLC would receive a ... South Dakota-based KL Energy Corp. employs a proprietary thermal-mechanical ... supply agreement with Chevron Technology Ventures, a division of Chevron ...'
p10
a.