(lp0
S"Jun 10, 2010 - The Power of Human Energy. Toggle. Home  About ... Chevron In the News. Chevron Signs Wheatstone Domestic Gas Agreement  Chevron Celebrates a New Chapter in Australia's Resource History ... 2001 - 2016 Chevron Corporation."
p1
aS"Jun 10, 2010 - Chevron Canada's parent company, the California-based Chevron Corp., is the second-largest integrated energy company in the U.S. and the biggest operator ..."
p2
aS'Jun 11, 2010 - By By Daniel Grossman in Ecuador, for National Geographic News ... protect a portion of the biologically diverse rainforest from further energy development, for a price. ... Chevron admits dumping drilling fluids, but it says it practiced methods ...'
p3
aS"Jun 10, 2010 - BP is responsible for all the damages, Mr Salazar told the Senate's energy and natural resources committee, in one of five ... World News  ... A worker of Gujarat State Petroleum Corporation checks oil flow of well PK-2 during ..... But, they are making BP an attractive take-over target for the likes of Chevron and others."
p4
aS"Jun 10, 2010 - House Majority Whip Steve Scalise listens during a news conference at the U.S. Capitol in ... Congressman Steve Scalise leaned over the railing of the Chevron Corp. oil ... Energy interests have helped fund Scalise's legislative career, with the ..."
p5
aS'Jun 10, 2010 - In 2009, the DOE announced INEOS New Planet Energy LLC would receive a ... South Dakota-based KL Energy Corp. employs a proprietary thermal-mechanical ... supply agreement with Chevron Technology Ventures, a division of Chevron ...'
p6
aS'Jun 11, 2010 - In March, BP entered the Brazilian deepwater market with its acquisition from Devon Energy Corp. of interests in 10 exploration blocks offshore Brazil.'
p7
aS'Jun 11, 2010 - Excerpts of the book would fit right into a Fox news piece. ... University colleague Thomas Gold), former Chevron employee Cathles has close .... Energy Linkers.'
p8
aS'Jun 10, 2010 - Courthouse News said the derivative suit was filed in Harris County Court in Texas. .... Jack Grynberg: "I have been pursuing fraud in the energy industry for the past 15 ..... and KBR\'s officers and directors -- including former Chevron Corp.'
p9
aS"Jun 10, 2010 - Oilfield services company Greene's Energy Group, has named Frank ... Chevron. 101.69. +0.00. +0.00. ConocoPhillips. 47.08. +0.00. +0.00 .... Get All the Oil & Gas Financial Journal News Delivered to Your Inbox for free ... Following its latest unsuccessful attempt at recapitalization plan, Goodrich Petroleum Corp. filed for ..."
p10
a.