(lp0
S"Jun 15, 2010 - Get premium, high resolution news photos at Getty Images. ... the topic of 'Drilling Down On America's Energy Future: Safety, Security And Clean Energy. ... Exxon Mobil Corp., ConocoPhillips, Chevron Corp. and Royal Dutch Shell Plc are as ..."
p1
aS'Jun 15, 2010 - Several E&P companies, including Canada\'s Encana Corp. are moving forward ... Chevron. 97.98. +0.39%. +0.38. ConocoPhillips. 44.22. +1.47%. +0.64 .... Atlas Energy has acreage in the region in what it calls the "Collingwood Utica Shale. .... of ExxonMobil, said this conclusion of the agreement is good news for the US.'
p2
aS'Jun 16, 2010 - Production in the NWBU had peaked at around 5,500 barrels a day back in the mid-1970s after then-operator Chevron Corporation implemented secondary ...'
p3
aS"Jun 16, 2010 - Chevron, like other energy companies and various interests in the gulf, wants the ... San Ramon's Chevron Corp. is the largest leaseholder in the Gulf of Mexico."
p4
aS'Jun 15, 2010 - Chevron Corporation. Statement Before the United States House of Representatives Committee on Energy and Commerce, Subcommittee on Energy and ...'
p5
aS"Jun 16, 2010 - ... told the House energy and commerce sub-committee Exxon-Mobil, Chevron, ... one of the world's biggest and deepest off-shore fields, join BBC World News ..."
p6
aS'Jun 15, 2010 - From left, ExxonMobile Chairman and CEO Rex Tillerson, Chevron Chairman ... Tuesday, June 15, 2010, prior to testifying before the House Energy and Environment ... and BP, reports CBS News investigative correspondent Sharyl Attkisson.'
p7
aS'Jun 15, 2010 - News and information on Royal Dutch Shell Plc. Skip to Content . Home  Contact ... one filed by Exxon Mobil Corp. He said Exxon Mobil, Chevron Corp. .... ARGUS FSU ENERGY ARTICLE: Shell weights its options: 27 Oct 2006  INTERFAX ...'
p8
aS'Jun 15, 2010 - By Abby Schultz, InsideClimate News ... Over the weekend a Chevron Corp. pipeline in Utah broke, sending an estimated ... and according to J. Brian Duggan, an energy officer in the State Department, a final decision is expected in the Fall.'
p9
aS'Jun 17, 2010 - An early contender was American Mobile Satellite Corp. offering service for North ..... By this time, two US government agencies, Departments of Defense and Energy, signed on. ... Also connected for the test were Chevron Corp. and Sandia National ... Get All the Offshore Magazine News Delivered to Your Inbox for free.'
p10
a.