(lp0
S'Jun 20, 2010 - It will also be the first energy project that allows a share, 20%, of state royalties to be ... alone, along with the recent dismantling of four Chevron Corp. platforms in state waters (OGJ, Sept. 2, p. ... International news for oil and gas professionals ...'
p1
aS"Jun 21, 2010 - The gas from Harald will enter DONG Energy's gas pipeline to the Tyra platform and onwards ... Get All the Oil and Gas Journal News Delivered to Your Inbox ... A joint venture of China Natural Petroleum Corp. and Chevron Corp. has started ..."
p2
aS'Jun 20, 2010 - Early this month Chevron Corp. christened a 132000 dwt crude carrier, Neste ON, took delivery ... Get All the Oil and Gas Journal News Delivered to Your Inbox ... Customer Experience Management for Energy Companies: The Path to Happy ...'
p3
aS'Jun 21, 2010 - ... general national news, politics, business, energy, sports, entertainment, fashion ... Following the delay, with each passing day, Chevron Nigeria Limited risks ... a subsidiary of the Nigerian National Petroleum Corporation, NNPC, that this ...'
p4
aS'Jun 20, 2010 - After less than a month in his new post as general manager of Chevron Corp. ... Integrating the new facilities into the existing refinery ... in an energy efficient way ...'
p5
aS'Jun 21, 2010 - BioFuel Energy gets a B grade in Portfolio Grader overall, and highest marks for its ... Magellan Petroleum Corporation ( MPET ) is a more conventional energy ... Chevron CEO Says LNG Demand To Increase 35% Over Next 20 Years ... NASDAQ.com  Company News /; Annual Report /; Contact /; Advertise on Nasdaq.com.'
p6
aS"Jun 21, 2010 - BP plc is a British-based global energy company which is the third largest energy ... As a multinational oil company, BP is Great Britain's largest corporation...... ... loyalty reputations for gasoline in the US, comparable only to Chevron and Shell."
p7
aS"Jun 21, 2010 - Sanders' news release says, Over the last decade, the five largest oil companies (Exxon Mobil, Chevron, ConocoPhillips, BP and Shell) made ... compared to only $12 billion for wind, solar, geothermal, biomass, and other renewable energy."
p8
aS'Jun 21, 2010 - It\'s people, families and their livelihoods versus a negligent corporation. ..... is not identical to the response if this had been an "American" oil company like Chevron. ... and get the whole country behind alternative energy strategies, where America leads, the rest of the world will follow. ..... RECOMMENDED IN NEWS BLOGS.'
p9
aS"Jun 20, 2010 - Idemitsu Apollo Corp., the U.S. affiliate of Idemitsu Kosan Co. ... Japan's shrinking population and shift toward greener energy have caused oil product ... as the demand is expected to grow overseas in the future, the news release states. ... Gil Moore Oil operates five Chevron and Shell gas stations in Northern California, ..."
p10
a.