(lp0
S'Jun 25, 2010 - Hazen and Sawyer, in association with Chevron Energy Solutions (CES), has ... Osmosis Biofouling at a Groundwater Treatment Plant Mar 01, 2016 | News ...'
p1
aS'Jun 25, 2010 - Home; Report on Business; Industry News; Energy & Resources ... do the same, instead allowing Chevron Corp. to begin drilling just 20 days after the Gulf of ...'
p2
aS'Jun 25, 2010 - Home  oilprimer blog  Prime Sleep / Eat  Oil in the News  Top Company News  Oil Co. ... BADGER OIL CORP; LAFAYETTE, LOUISIANA 70503; 337-233-9200 ... CHEVRON USA PRODUCTION CO; NEW ORLEANS, LOUISIANA 70112; 504-592-6000 ... CODY ENERGY; ABBEVILLE, LOUISIANA 70510; 337-893-7360.'
p3
aS"Jun 24, 2010 - More News From Greenwire ... A blog about energy, the environment and the bottom line. ... At the time of the spill, BP was a finalist for the agency's SAFE award, along with Eni US Operating Co. and Exxon Mobil Corp. ... From 2004 to 2008, Chevron's Gulf of Mexico average spill volume rate was seven times lower than the ..."
p4
aS'Jun 25, 2010 - (For late-breaking news developments on this story, see this issue\'s Newsletter.) ... "The next question is whether Mobil Corp., Chevron Corp., ARCO, and Texaco ... Cyrus Tahmassebi, of Energy Trends Inc., Bethesda, Md., contends that the ...'
p5
aS'Jun 25, 2010 - Ltd., Chevron Corp., and Conoco Inc. These were relinquished, after disappointing results, in 1992. ... International news for oil and gas professionals ...'
p6
aS"Jun 26, 2010 - The Official News Magazine of Chevron Richmond. Measuring ... but here I'd like to discuss the division I lead, Chevron Energy Solutions (CES). Many people ..."
p7
aS"Jun 24, 2010 - Chevron Corporation ... Chevron's top three producing fields in the UK are the Captain field which is 68 miles north of ... making it the third-largest integrated energy company in the US and the fifth-largest refiner and the ..... News Centre."
p8
aS'Jun 25, 2010 - DOW JONES, A NEWS CORP COMPANY .... They have already pressured Chevron and ConocoPhillips to relinquish their ... Whether more exploration on federal lands would make the U.S. energy ... Did you see it on the nightly news?'
p9
aS"Jun 24, 2010 - DOW JONES, A NEWS CORP COMPANY .... Owen Kratz, chief executive officer of Helix Energy Solutions, one of the company's working to contain the spill for ..."
p10
a.