(lp0
S'Jun 28, 2010 - DealBook - A Financial News Service of The New York Times ... While other oil giants like Exxon Mobil and Chevron shy away from big market wagers, BP ...'
p1
aS'Jun 28, 2010 - ... with our national interests," said Energy and Mineral Resources Minister Darwin Zahedy Saleh. ... Get All the Oil and Gas Journal News Delivered to Your Inbox ... Chevron Corp. has started LNG and condensate production at the Gorgon ...'
p2
aS'Jun 28, 2010 - RIGZONE News - leading source for the latest news and information for the oil and gas ... With its insatiable appetite for energy resources, the United States is the ... Chevron Company Owned, Company Operated (COCO) Compliance Lead ...'
p3
aS"Jun 28, 2010 - Energy News ... Collectively we view the news between Noble, Frontier, and Shell as quite constructive and bullish for long-term dayrates. ... Noble Corp to Spin Off Older Drilling Rigs into New Company (Sep 25) ... to Reach Pre-Sanctions Level by June  Chevron Signs Up Australia's Alinta To Buy Gas From Wheatstone."
p4
aS"Jun 28, 2010 - The U.S. oil giant ExxonMobil Corp. ... The new organization will retain its identity as XTO Energy Inc. and will keep its head office in Fort Worth, Texas. ... Moreover, the merger undoubtedly brings good news for Americans as it is a step forward in the ... Analyzing Chevron's Segmental Outlook before Its 1Q16 Earnings."
p5
aS"Jun 28, 2010 - 94 in the nation in a U.S. News & World Report 2010 survey. .... biggest oil majors -- Exxon Mobil Corp., Royal Dutch Shell Plc, Chevron Corp., Total SA and ... but it's also very prolific, said Philipp Chladek, a London-based energy analyst with ..."
p6
aS"Jun 28, 2010 - Three of the world's largest energy companies had their credit ratings ... Chevron Corp. and Royal Dutch Shell Plc had their ratings reduced by one level, while ..."
p7
aS'Jun 28, 2010 - Chevron\'s "Will You Join Us" ad campaign, for example, apparently tries to convey the ... The corporation at the center of the Gulf oil disaster, BP, promoted itself as being ... going "beyond petroleum" by investing (modestly) in renewable energy sources. .... Common Dreams has been providing breaking news & views for the ...'
p8
aS'Jun 28, 2010 - "The world does need the oil and the energy that is going to have to come from ... for corporate business development at California-based oil company Chevron.'
p9
aS"Jun 28, 2010 - The company's shares closed up 1pc at 308.25p on news that the storm, ... thought to include Chevron, ConocoPhillips, ExxonMobil and Royal Dutch ... according to Geoffrey Maitland, professor of energy engineering at Imperial College. ... A worker of Gujarat State Petroleum Corporation checks oil flow of well PK-2 during ..."
p10
a.