(lp0
S'Jun 3, 2010 - Owner: Angola LNG Limited (Sonangol Gas Natural, 36.4%; Chevron, 36.4%; BP, ... LNG Project will be transported to the Gulf LNG Clean Energy re-gasification plant in ... Dec 09, 2010 - Chevron Corp. on Thursday announced a $26.0 billion ...'
p1
aS'Jun 3, 2010 - Walter Oil & Gas Corp. executives were within 9000 feet of finding out if they would hit ... Chevron Corp., Royal Dutch Shell PLC and BHP Billiton have all announced .... For more news on energy and the environment, visit www.greenwire.com.'
p2
aS'Jun 4, 2010 - The most important company is Kuwait Petroleum Corporation. Log on to ... The oil and gas sector (Energy) is the most important economic sector in Kuwait.'
p3
aS'Jun 4, 2010 - VANCOUVER--(BUSINESS WIRE)--IFP and Dynamotive Energy Systems Corporation (Dynamotive) signed a Memorandum of Understanding to cooperate in ...'
p4
aS'Jun 4, 2010 - New fields normally pay 30 percent corporation tax plus 20 percent ... that again hamper investment will jeopardize future energy security," said Oil & Gas UK. ... Chevron Signs Up Australia\'s Alinta To Buy Gas From Wheatstone  Kuwait Oil ...'
p5
aS"Jun 3, 2010 - Chevron has denied accommodation to Louisiana National Guard helicopters battling the Gulf oil spill? ... Chevron Corporation's media team also told us that: Chevron is providing both ... Wildlife experts who work for Chevron Energy Technology Company. ... News: 'Star Trek' actor Leonard Nimoy has passed away at the ."
p6
aS'Jun 3, 2010 - 100mn cf/y = 100 million cubic feet per year. MEMBERSHIP. NEWS. 3. UPSTREAM. 6 ...... Corporation (IFC) is to give technical and ... Petroleum and Chevron.'
p7
aS'Jun 3, 2010 - News Room .... Istana Karang Laut (IKL) and Daewoo Corporation. ... Conoco-Phillips and Star Energy are also exporting gas via this pipeline, which is .... natural gas, has KUFPEC with Apache Australian Company Chevron signed an ...'
p8
aS'Jun 3, 2010 - However, the price of oil subsided afterward, and although the 1979 energy crisis caused oil ... In 2006, Chevron Canada Limited acquired oil sands leases in the Athabasca region. ... Limited (20 percent) and Marathon Oil Canada Corporation (20 percent). ... newsdesk dot org is a member of the Institute for Nonprofit News.'
p9
aS'Jun 4, 2010 - In exploring for more energy sources to meet the requisites of the new energy future, the story ..... Pilipinas Shell Petroleum Corporation Chairman and President Edgar Chua and Team. Energy .... Philippines Exploration B.V. (SPEX), Chevron.'
p10
a.