(lp0
S'Jun 7, 2010 - They have organized to demand that Chevron clean up the environment, end gas flaring, and respect their own human ... Support independent news DONATE.'
p1
aS"Jun 6, 2010 - Amazon Crude - 60 Minutes - CBS News To watch this program click on the link above. Transcripts (CBS) Chevron is America's third largest company behind ..."
p2
aS'Jun 7, 2010 - Or roll into the Texaco or Chevron station (Chevron bought Texaco in 2001). ... million gallons of petroleum per week, according to the Energy Information Agency. ... ownersfor it is they, not the corporation, who own stationssay the boycott has ... to view 10 fascinating and frustrating videos of the Gulf Oil Spill Fox News.'
p3
aS'Jun 7, 2010 - The Chevron in the 2900 block of Hikes Lane will be out of service, but stay open as an independent station. In downtown a Chevron on East Broadway ...'
p4
aS'Jun 7, 2010 - LEADING COMPANIES Figure 12: Chevron Corporation: assets & liabilities Source: ..... Due to the fact that oil and gas operations are highly energy and labor ..... We also maintain extensive in-house databases of news, analyst commentary, ...'
p5
aS'Jun 6, 2010 - Houston, TX News - View Daily Local Business News, Resources & more in Houston, Texas. ... Home  Classified and Legal Advertising  Sign up for Energy Inc. HBJ Media ... leased through March 2010 to Chevron Corp. and sublessor Fluor Corp. Chevron took over the lease several years ago when it purchased Unocal.'
p6
aS"Jun 6, 2010 - Exxon Mobil and Chevron deny they are involved in anti-BP lobbying but analysts point out they have much to gain if BP's ... Business Latest News  ... Andrew Critchlow: Age of $100 oil will return as energy industry cuts too deep  A worker of Gujarat State Petroleum Corporation checks oil flow of well PK-2 during ..."
p7
aS'Jun 7, 2010 - Donald I. Wallace is president and CEO of M2M Data Corporation, Englewood, ... Xcel Energy, Williams Pipeline, Saudi Aramco, Amoco, Conoco and Chevron.'
p8
aS'Jun 7, 2010 - Get All the Oil and Gas Journal News Delivered to Your Inbox ... Chevron Corp. has started LNG and condensate production at the Gorgon project on Barrow ... Customer Experience Management for Energy Companies: The Path to Happy ...'
p9
aS'Jun 7, 2010 - Liba Rubenstein, Director, Global Energy Initiative, News Corporation. David Constable, VP ... John W. McDonald, VP and Chief Technology Officer, Chevron.'
p10
a.