(lp0
S'Jul 15, 2010 - Chevron PE Ratio (TTM) (CVX) charts, historical data, comparisons and ... CVX News ... Stocks Mixed as IBM Weighs on Tech While Oil Rally Boosts Energy'
p1
aS'Jul 15, 2010 - Chevron Dividend Yield (TTM) (CVX) charts, historical data, comparisons ... CVX News ... Stocks Mixed as IBM Weighs on Tech While Oil Rally Boosts Energy'
p2
aS'Jul 15, 2010 - Chevron has a Market Cap of 192.08B. Chevron Market Cap (CVX) charts, historical data, comparisons and more. ... defraud Chevron SA Breaking News 04/21 18:37 ET ... Stocks Mixed as IBM Weighs on Tech While Oil Rally Boosts Energy'
p3
aS'Jul 15, 2010 - Chevron has a Enterprise Value of 214.27B. Chevron Enterprise Value (CVX) charts, historical data, ... CVX News ... Sector Update: Energy Stocks Higher After Crude Oil Reverses Steep Decline; Chevron Said Selling Myanmar Assets'
p4
aS"Jul 15, 2010 - A filmmaker must turn over to Chevron Corp parts of raw footage from a documentary he made ... Currencies  Comm & Energy  Futures  Funds ... The appeals court judges ruled that Chevron would only get select footage directly concerning ... Thomson Reuters is the world's largest international multimedia news agency, ..."
p5
aS'Jul 15, 2010 - Senior Process Engineer at Chevron ... Current. Chevron. Previous. Analytic Energy Systems,; Nanjing University of Aeronautics and ... Gas to Liquids news ...'
p6
aS'Jul 14, 2010 - To create a culture that reflects the values of Communispace Corporation, (client dedication, excellence, integrity, respect, adventure, energy, and ownership), ... Chevron CorporationThe Chevron Way: Engineering Opportunities for Women ... Media Announcements  Media Toolkit  Catalyst In the News  Catalyst App ...'
p7
aS'Jul 15, 2010 - The director of the MIT Energy Initiative explains why blending big-company culture ... from ENI [S.p.A., the Italian-based oil and gas company], to Chevron Corp.'
p8
aS'Jul 14, 2010 - July 14th, 2010 Author amphora no comments News. Amphora, Inc., the foremost developer of global energy trading and risk ... to crude oil trading, noted Vlad Zeman, chief information officer at Noble Americas Corp. ... to clients such as Chevron, Koch Supply & Trading, China Oil, ENI SA, Enel, ERG, PMI and many others.'
p9
aS"Jul 15, 2010 - The Official News Magazine of Chevron Richmond. Addressing ... for energy has become increasingly difficult. ... energy in the production of steam. Chevron's ..."
p10
a.