(lp0
S'Jul 15, 2010 - Chevron Dividend Yield (TTM) (CVX) charts, historical data, comparisons ... CVX News ... Stocks Mixed as IBM Weighs on Tech While Oil Rally Boosts Energy'
p1
aS'Jul 15, 2010 - Chevron has a Enterprise Value of 214.27B. Chevron Enterprise Value (CVX) charts, historical data, ... CVX News ... Sector Update: Energy Stocks Higher After Crude Oil Reverses Steep Decline; Chevron Said Selling Myanmar Assets'
p2
aS'Jul 17, 2010 - Haynesville shale oil production and exploration news, resources and oil company ... Chevron. 101.69. +0.00. +0.00. ConocoPhillips. 47.08. +0.00. +0.00 ... EP Energy Corp. has entered into a purchase and sale agreement to sell all its assets ...'
p3
aS'Jul 16, 2010 - U.S. Secretary of Energy Steven Chu has appointed John Harju, Associate ... Chairman of the Board and Chief Executive Officer for Chevron Corporation.'
p4
aS"Jul 15, 2010 - A filmmaker must turn over to Chevron Corp parts of raw footage from a documentary he made ... Currencies  Comm & Energy  Futures  Funds ... The appeals court judges ruled that Chevron would only get select footage directly concerning ... Thomson Reuters is the world's largest international multimedia news agency, ..."
p5
aS'Jul 16, 2010 - Hertfordshire Oil Storage Limited (HOSL), which is 60%-owned by French energy giant Total and 40% by Chevron, ... BP shares rise on news of oil-well capping.'
p6
aS'Jul 15, 2010 - The director of the MIT Energy Initiative explains why blending big-company culture ... from ENI [S.p.A., the Italian-based oil and gas company], to Chevron Corp.'
p7
aS"Jul 16, 2010 - Total, the French energy giant, and four other companies must pay 9m in fines for safety ... Hertfordshire Oil Storage, Total's joint venture with Chevron that controlled the depot, was separately fined 2.45m. ... Business Latest News  ... A worker of Gujarat State Petroleum Corporation checks oil flow of well PK-2 during ..."
p8
aS"Jul 16, 2010 - BW Offshore has signed a contract with Kangean Energy Indonesia for a gas FPSO to operate on the ... Persada (50.0%), Mitsubishi Corporation (25.0%) and Japan Petroleum Exploration (25.0%). ... Chevron Signs Up Australia's Alinta To ."
p9
aS"Jul 15, 2010 - The Official News Magazine of Chevron Richmond. Addressing ... for energy has become increasingly difficult. ... energy in the production of steam. Chevron's ..."
p10
a.