(lp0
S'Jul 19, 2010 - Industries & Tags: Retailing & Restaurants,  Energy ... A decision by Chevron Corp. to leave the Kentucky market has opened the door for ... The news took Charlie Miller, the owner of Miller Oil Co., 4504 Bells Lane, completely by surprise.'
p1
aS'Jul 18, 2010 - GE Energy (formerly Chevron Texaco) Gasifier ... pilot plant at Aoio, Japan, currently operated by Ishikawajima-Harima Heavy Industries Corporation, Ltd (IHI).'
p2
aS'Jul 19, 2010 - Kairiki Energy and Nido Petroleum, partners in SC 54B, are reported to be in talks with Shell and Chevron regarding a farm-in to the Gindara Prospect, close to Malampaya, which has the potential to contain ... energy-pedia general news.'
p3
aS"Jul 18, 2010 - China has passed the U.S. to become the world's biggest energy consumer, according to new data from the ... DOW JONES, A NEWS CORP COMPANY. News ..."
p4
aS'Jul 20, 2010 - Woodford shale oil production and exploration news, resources and oil company stocks ... Chevron. 101.40. -0.29%. -0.29. ConocoPhillips. 46.23. -1.81%. -0.85 ... Devon Energy Corp. has agreement to sell its non-core Mississippian assets in ...'
p5
aS'Jul 18, 2010 - portion of these make the front page or evening news. This report provides a ... energy development and remove ... Exxon Mobil, Chevron Corp, and Royal.'
p6
aS'Jul 19, 2010 - ExxonMobil Corp. indicated production from the 45-tcf Natuna D-Alpha field may ... the large Husky Energy Inc. gas discoveries such as Liwan that contains 4-6 .... Chevron Corp. ... Get All the Oil and Gas Journal News Delivered to Your Inbox.'
p7
aS"Jul 18, 2010 - ... Horizon oil spill has been with us nearly three months, and the news just isn't getting better. ... BP, Chevron -- but they have full access to 6 percent of worldwide oil reserves. ... Strides in renewable energy aren't happening quickly enough to ..."
p8
aS'Jul 19, 2010 - Chevron Oil Refinery, El Segundo, Calif. Decades of leaking .... Global Business and Financial News, Stock Quotes, and Market Data and Analysis. Data also ...'
p9
aS'Jul 20, 2010 - Mr. Williams joined DevX Energy, Inc. on October 6, 2000. He served as the President and Chief Executive Officer of MCN Investment Corp., from July 1998 to ...'
p10
a.