(lp0
S"Jul 1, 2010 - The US Marine Corps Logistics Base (MCLB) at Albany, Georgia, and Chevron Energy Solutions are to develop the Department of Navy's first landfill gas ..."
p1
aS'Jul 1, 2010 - Chevron. 101.69. +1.18%. +1.19. ConocoPhillips. 47.08. +0.04%. +0.02 ... Walter Oil & Gas Corp. and LLOG Exploration Co. each inched up one spot to rest at No. ... 4-ranked Hilcorp Energy Co. has partnered with Kohlberg Kravis Roberts & Co ... Get All the Oil & Gas Financial Journal News Delivered to Your Inbox for free.'
p2
aS'Jul 1, 2010 - Tristream Energy Announces Acquisition of East Texas Processing Assets ..... (BUSINESS WIRE)--The Board of Directors of Chevron Corporation (NYSE:CVX) ...'
p3
aS'Jul 1, 2010 - ... Statoil ASA and Chevron Corp., which all produce in Campos, the basin that ... over storage facilities with BP Plc, which agreed to buy Devon Energy Corp.'
p4
aS"Jul 1, 2010 - Launched in 2007, the KPMG Global Energy Institute (GEI) has been ... Corporation, presented his company's outlook for energy to 2030. As in years past, we ..."
p5
aS'Jul 1, 2010 - ESP Petrochemicals will assist McFreeport in the procurement of business opportunities within companies like Exxon Mobil Corporation, Chevron Corporation ...'
p6
aS"Jul 1, 2010 - ... on Bramlett's rig, which is owned by Hercules Offshore and is drilling a well for Chevron. ... workers out of a job and the country even more dependent on imported energy. ... Intel Corp, 32.00, 0.40, 1.27% ... 2016 Cable News Network."
p7
aS'Jul 1, 2010 - JX Nippon Oil & Energy website. ... you with the information on Corporate Profile, CSR report, and Products of JX Nippon Oil & Energy. ... News Release.'
p8
aS"Jun 30, 2010 - By ABC News. June 30 .... Across the globe, Shell, Chevron, Exxon and smaller adversaries were holding similar .... BP could not commission any trials unless a rival corporation agreed to share the expenditure. ..... For those govern- ments, local politics and world prices were more important than America's energy needs."
p9
aS'Jun 30, 2010 - Current News. Technology, Relationships Deliver Success at the Beta Project (a.k.a. Coelacanth) 04.08.2016; Walter Oil & Gas Announces Successful ...'
p10
a.