(lp0
S"Jul 21, 2010 - The duty will for the first time levy exports from Chevron Corp. ... Total SA, is the world's fifth-largest field, according to the U.S. Energy Information Administration."
p1
aS"Jul 21, 2010 - ... Gulf of Mexico was announced today by Chevron, ConocoPhillips, ExxonMobil and Shell. ... with the public's confidence that the energy we need will be produced safely and reliably, said John Watson, ... 2001  2016 Chevron Corporation."
p2
aS'Jul 21, 2010 - And the news clearly troubled Chinese authorities, who quickly questioned the credibility of ... Valero Energy Corp (NYSE: VLO)Buy @ 20, Stop @ 14.95 ..... Chevron has most exposure to oil; Royal Dutch Shell and ConocoPhillips (NYSE: ...'
p3
aS"Jul 20, 2010 - Read Chevron Australia's statements to the media and latest news. ... PERTH, Western Australia, July 20, 2010  Chevron Corporation (NYSE: CVX) ... Chevron is one of the world's leading integrated energy companies and through its ..."
p4
aS'Jul 20, 2010 - Granite Wash oil production and exploration news, resources and oil company ... Chevron. 101.69. +0.00. +0.00. ConocoPhillips. 47.08. +0.00. +0.00 ... Linn Energy, Forest Oil, Apache Corp., BNK Petroleum, Devon Energy, and Cordillera ...'
p5
aS'Jul 20, 2010 - Tight Gas news, resources and oil company stocks covering tight gas. ... Chevron. 101.69. +1.18%. +1.19. ConocoPhillips. 47.08. +0.04%. +0.02 ... EP Energy Corp. has entered into a purchase and sale agreement to sell all its assets in the ...'
p6
aS'Jul 20, 2010 - Trans Energy Inc. has sold Republic Energy Ventures LLC a 50% interest in ... Chevron. 101.69. +0.00. +0.00. ConocoPhillips. 47.08. +0.00. +0.00 ... John G. Corp, president of Trans Energy, said, "The entry of the joint venture into both Marion ... Get All the Oil & Gas Financial Journal News Delivered to Your Inbox for free.'
p7
aS'Jul 20, 2010 - Eric Taylor Craig J. Tester Cronus Development Corp. ... One such field, Crystal field in Montcalm County, is the focus of a U. S. Department of Energy (DOE) Class 2 Reservoir .... He was previously a senior research associate with Chevron Oil Field Research Co., where he ... International news for oil and gas professionals ...'
p8
aS'Jul 21, 2010 - Latest JX Nippon Oil & Gas Exploration Corporation (NOEX) News ... the following update on drilling operations as advised by the operator of the Roc-1 well, Quadrant Energy. ... Cox Oil Offshore acquires Gulf of Mexico assets from Chevron.'
p9
aS'Jul 21, 2010 - Network News ... Exxon Mobil, Royal Dutch Shell, ConocoPhillips and Chevron announced Wednesday a ... The joint response plan is in part a response to recent hearings of the House Energy and Commerce Committee, whose members ...'
p10
a.