(lp0
S'Jul 22, 2010 - Exxon Mobil, Chevron, Royal Dutch Shell and ConocoPhillips are creating a strike force to stanch oil spills in the ... DOW JONES, A NEWS CORP COMPANY.'
p1
aS'Jul 22, 2010 - Vienna-based consultancy JBC Energy forecasts that refineries handling 3.4 million ... refinery in the U.K. and its Gothenburg plant in Sweden, Chevron Corp.'
p2
aS'Jul 22, 2010 - MAXUS ENERGY Corp. ..... International news for oil and gas professionals ... Chevron Corp. has signed a nonbinding heads of agreement with China Huadian ...'
p3
aS'Jul 23, 2010 - Yukon adopts new energy efficiency standards for buildings 7 ... Dwarfed by Mount Corp, a giant fuel storage tank and fuel drums were left behind when the ...'
p4
aS'Jul 23, 2010 - News Releases. Douglas W. Shorenstein ... Ms. Yarrington is vice president and CFO of energy company Chevron Corporation. Ms. Yarrington joined Chevron ...'
p5
aS'Jul 24, 2010 - Pan Ocean Oil Corp. ... 6001 Bollinger Canyon Road San Ramon, CA 94583, USA Telephone: +1 925.842.1000 Email:comment@chevron.com ... Energy News.'
p6
aS'Jul 22, 2010 - The plan -- which was put together by Exxon Mobil, Chevron, ConocoPhillips and ... The entity, modeled in part after the Marine Spill Response Corporation, ... Bureau of Ocean Energy Management Regulation and Enforcement, said in a statement. ... (PHOTOGRAPH BY DERICK E. HINGLE/BLOOMBERG NEWS) (B9).'
p7
aS'Jul 22, 2010 - Horn River Basin news and technical articles from Oil & Gas Financial Journal. Search ... Energy Players ... Chevron. 101.40. -0.29%. -0.29. ConocoPhillips. 46.23. -1.81%. -0.85 .... Copyright  2007-2016 Pennwell Corporation, Tulsa, OK.'
p8
aS"Jul 23, 2010 - ... Libya's state-owned National Oil Corporation, aims to award an engineering contract ... Jansz-Io gas compressor on agenda for Chevron Supermajor eyes design ... to our weekly newspaper providing in-depth news from the energy industry, ..."
p9
aS'Jul 22, 2010 - "The project will increase Chevron\'s daily production of natural gas to 1.2 billion." ... In an agreement with the Ministry of Energy of Thailand, Chevron agreed to ...'
p10
a.