(lp0
S"Jul 26, 2010 - Marcellus shale oil production and exploration news, resources and oil company ... Chevron. 101.40. -0.29%. -0.29. ConocoPhillips. 46.23. -1.81%. -0.85 ... Norway's Statoil has signed a joint venture with Chesapeake Energy to work together in ... The New York Stock Exchange has notified Eclipse Resources Corp. that the ..."
p1
aS'Jul 27, 2010 - CNX Gas Corporation LLC CNX Center 1000 CONSOL Energy Drive Canonsburg, PA 15317-6506. Phone: 724-485-4000. Dale Property Services Penn, LLC'
p2
aS"Jul 26, 2010 - Husky Energy Inc. is Western Canada's largest supplier, producing just over ... Other major western asphalt makers include Imperial Oil Ltd., Chevron Corp. and Gibson Energy. ... News. These birds of prey help keep you safe at Toronto airport ..."
p3
aS'Jul 26, 2010 - WASHINGTON, July 26 /PRNewswire/ -- GeoGlobal Energy Makes Key Additions to Technical Team. ... Prior to Thermasource, he worked for 16 years at Unocal and Chevron. He has managed ... The news you need, when you need it.'
p4
aS'Jul 27, 2010 - News. Governor signs bill banning second-trimester abortion ... He was working for Chevron in 1981 when the company drilled 22,000 feet down, found gas ... are unable to assist, Energy Drilling Company Drilling Manager Jody Helbling said.'
p5
aS"Jul 27, 2010 - A Concordia Parish jury in 2008 said Chevron polluted the landowner's property, ... For the energy industry, anyway, Act 312 has been perceived as a saving grace. .... Here's a FEMA map that actually delivers good news for New Orleans."
p6
aS'Jul 28, 2010 - Evaluate Energy is a leading provider of oil & gas information including an M&A ... Anadarko Petroleum Corp. ... Chevron Corporation (Hess), 65%, 30%, -54%.'
p7
aS'Jul 27, 2010 - BPA levels higher than those in canned foods, baby bottles and infant formula were detected on at least one of several receipts from Chevron, McDonalds, CVS, ...'
p8
aS'Jul 27, 2010 - ENERGY SECTOR.  ... As of 2:00 AM 04/15/16 All times are local (Market data is delayed by at least 15 minutes). Snapshot  News ... Pengrowth Corporation.'
p9
aS'Jul 27, 2010 - Under the deal, state-owned Power Grid Corporation of India Ltd. will invest and ... continue in implementing the project," Bangladesh\'s Daily Star newspaper reports. ... Bangladesh aims to have nuclear energy account for 10 percent of its total ... PERTH, Australia, April 19 (UPI) -- The Australian subsidiary of Chevron said it ...'
p10
a.