(lp0
S"Jul 28, 2010 - Read Chevron Australia's statements to the media and latest news. ... Chevron is one of the world's leading integrated energy companies and through its ... This press release of Chevron Corporation contains forward-looking statements ..."
p1
aS'Jul 28, 2010 - The IOCs include: NORTH AMERICA: Chevron Corp.; ConocoPhillips; ExxonMobil Corp.; Marathon Oil Corp.; Valero Energy Corp.; Occidental Petroleum Corp.; ...'
p2
aS'Jul 28, 2010 - News in Focus .... Jul 28, 2010, 10:01 ET from Marathon Oil Corporation ... Beginning in 1984, he joined Chevron where he worked for approximately 25 years ...'
p3
aS'Jul 28, 2010 - DOW JONES, A NEWS CORP COMPANY. News Corp is a network of leading .... A host of companiesincluding Agco Corp. AGCO 0.14 % , Chevron Corp.'
p4
aS'Jul 28, 2010 - Resources Daily | US oil major Chevron has cemented the credentials of its $25 ... Enjoy unlimited access to business news and market insights across desktop, ...'
p5
aS"Jul 27, 2010 - A Concordia Parish jury in 2008 said Chevron polluted the landowner's property, ... For the energy industry, anyway, Act 312 has been perceived as a saving grace. .... Here's a FEMA map that actually delivers good news for New Orleans."
p6
aS'Jul 27, 2010 - BPA levels higher than those in canned foods, baby bottles and infant formula were detected on at least one of several receipts from Chevron, McDonalds, CVS, ...'
p7
aS'Jul 27, 2010 - Home; Business / Economics; Energy / Environment; Politics / World News ... The two wells are tied back to the Chevron VK 900 host facility via the alrea flowline ...'
p8
aS'Jul 28, 2010 - Breaking News ... Wells Fargo Misjudged the Risks of Energy Financing ... Exxon Mobil Corp. of Irving, Texas, is scheduled to announce its results tomorrow, and San Ramon, California-based Chevron Corp. plans to report earnings July 30.'
p9
aS'Jul 27, 2010 - Under the deal, state-owned Power Grid Corporation of India Ltd. will invest and ... continue in implementing the project," Bangladesh\'s Daily Star newspaper reports. ... Bangladesh aims to have nuclear energy account for 10 percent of its total ... PERTH, Australia, April 19 (UPI) -- The Australian subsidiary of Chevron said it ...'
p10
a.