(lp0
S'Jul 29, 2010 - Chevron Energy Solutions, along with the city of Brea, has started ... Home ; News ; Updated: Chevron and City of Brea begin construction on 1.8 MW solar ...'
p1
aS"Jul 30, 2010 - Chevron's (CVX) second-quarter earnings easily topped Wall Street forecasts, helped by higher oil prices and production increases, but revenue came in lower ..."
p2
aS"Jul 29, 2010 - Exxon Mobil Corp. reported quarterly earnings Thursday that easily beat analysts' expectations as ... The world's largest public energy company reported net income of $7.56 billion, or $1.60 a ... Chevron Corp. .... 2016 Cable News Network."
p3
aS"Jul 30, 2010 - He solicited sponsors including Chevron Corp. and Occidental Petroleum Corp., ... In the ensuing days, news media called the BP spill America's largest ever."
p4
aS'Jul 29, 2010 - Tags: energy prices, environment, taxes ... as executives from Chevron, Covanta Energy Corp., AES North America Pacific, Shell Oil, Calpine Corp., RRI Energy, ...'
p5
aS'Jul 30, 2010 - Energy News ... A preliminary development plan has already been submitted to the Egyptian General Petroleum Corporation (EGPC) for agreement.'
p6
aS'Jul 29, 2010 - Last week, Ellora Energy announced that the company had reached an ... post items I find interesting, but I will not maintain the data or keep the news current.'
p7
aS'Jul 31, 2010 - Chevron Corp. has started up a new waste water treatment plant at its Port Arthur, Tex., refinery. Although the ... International news for oil and gas professionals ...'
p8
aS'Jul 30, 2010 - Senate Energy committee chairman Jeff Bingaman says that it appeared that the ... on the spill, sees shares gain on news of the progress in containing the leak but ... June 15  Lawmakers summon top executives from Exxon Mobil , Chevron .... in assets to Apache Corp as it raises money to cover costs related to the spill.'
p9
aS'Jul 29, 2010 - ConocoPhillips, the third-largest U.S. oil company, and Murphy Oil Corp. plan to sell refineries ... News  Markets  Insights  Video. Now Reading: Search. Americas; Europe; Asia .... Chevron Kapolei Operations may be 54 Hawaii reduced, company ... *JX Holdings Inc. is the parent company of JX Nippon Oil & Energy Corp., ...'
p10
a.