(lp0
S'Jul 6, 2010 - To the list of Big Oil companies with p.r. problems add two more: Chevron and French energy giant Total. In a report published on Monday, the NGO EarthRights ...'
p1
aS'Jul 5, 2010 - ... are using gas revenue from US and French energy giants Chevron and Total ... the Norwegian-based news group Democratic Voice of Burma said Myanmar ...'
p2
aS"Jul 7, 2010 - Given the high entry costs relating to many oil and gas industry operations, many of the world's largest oil and gas companies, like Chevron Corporation and ..."
p3
aS'Jul 6, 2010 - Corporate Controller at SND Energy Company, Inc. .... Caltex Petroleum Corporation ... Caltex had been a joint venture of Chevron and Texaco but is now a wholly-owned sub of Chevron ... Evening Co-Anchor/Reporter -Black HIls Fox News.'
p4
aS'Jul 5, 2010 - ... Anadarko Petroleum Corp. and Chevron Corp. four each, and ATP Oil & Gas Corp., Eni ... Oil Corp., Newfield Exploration, Petrobras, Stone Energy, and Walter Oil & Gas Corp. ... Get All the Oil and Gas Journal News Delivered to Your Inbox.'
p5
aS'Jul 5, 2010 - During a gas-supply constraint, optimization of energy efficiency has a large impact on ..... Get All the Oil and Gas Journal News Delivered to Your Inbox ... Chevron Corp. has started LNG and condensate production at the Gorgon project on ...'
p6
aS'Jul 6, 2010 - Interview with Clyde Michael Bandy, Chairman and CEO, Chemoil Corporation ... For the energy business, the years 2008 and 2009 were remarkable in terms of market ... With my previous experience at Chevron-Texaco, I understand what impact such ... The good news for Chemoil is that the new growth markets under ...'
p7
aS'Jul 6, 2010 - Energy News ... Company: Hess Corporation, more info ... from Total, BP, Shell, Chevron  Saudi Arabia Said To Pick JPMorgan, Banker Klein For Aramco IPO ...'
p8
aS'Jul 6, 2010 - Among them, the Oakland-based Peralta Community College District, which has been criticized for signing an $8.1 million contract with Chevron Energy ...'
p9
aS'Jul 5, 2010 - MailOnline - news, sport, celebrity, science and health stories ... part of all of its 60 per cent stake in Latin American oil and gas group Pan American Energy. ..... COM ARTICLE: Chevron A Safer Bet Than Shell: 13 April 2015 ..... positions in the Presidency, the Nigerian National Petroleum Corporation (NNPC), and the ...'
p10
a.