(lp0
S'Aug 12, 2010 - Indonesia may approve the development plan for the Chevron-operated North Duri ... Upstream oil and gas news for exploration and production professionals ... Field Area 13 oil project this year, an official at energy watchdog BPMIGAS said.'
p1
aS'Aug 12, 2010 - Australia: Chevron announces gas discovery in frontier Exmouth Plateau area ... Dana Petroleum said takeover talks had stalled after Korea National Oil Corp ...'
p2
aS'Aug 12, 2010 - Chevron has announced a natural gas discovery in the Exmouth Plateau area of the Carnarvon Basin offshore Western Australia. ... Upstream oil and gas news for exploration and production professionals ... energy-pedia exploration.'
p3
aS'Aug 11, 2010 - On the Gulf of Mexico\'s shelf, Chevron is reaping a "second harvest" in mature fields ... A harvest field, explains Chevron Asset Manager Phil Durrett, is one a major feels has .... Get All the Offshore Magazine News Delivered to Your Inbox for free ... Stirling Group has partnered with the EU Iraq Energy Centre to provide risk ...'
p4
aS'Aug 12, 2010 - U.S. producers Chevron Corp. and ConocoPhillips said profit more than tripled. ... energy consultant and former Petrobras exploration and production manager, ...'
p5
aS"Aug 11, 2010 - Nigerian joint ventures (Nigerian National Petroleum Corp. and foreign oil companies) have .... Chevron's Ewan field at 32 gravity will be the most likely field development to change a blend. ... International news for oil and gas professionals ... Customer Experience Management for Energy Companies: The Path to Happy ..."
p6
aS'Aug 11, 2010 - BP Plc Exxon Mobil ConocoPhilips Royal Dutch Shell and Chevron Strength in Q2 ... By way of comparison, Evaluate Energy estimates that ExxonMobil could currently ... As per our Terms of Use, Stockopedia is a financial news & data site, ...'
p7
aS"Aug 12, 2010 - Energy News .... ITF JIP Enters Trial Phase with Support from Total, BP, Shell, Chevron  'Lower For Longer' Environment Keeps Dealmakers on Sidelines of US ..."
p8
aS"Aug 11, 2010 - Valero Energy Corp. and Tesoro Corp. have contributed more than $4.5 million to Proposition 23, ... Chevron called, they support your boycott of the other oil companies. .... HOT Off The Press: 29 Photos Of TV's Sexiest Female News Anchors."
p9
aS'Aug 11, 2010 - By Dr. Kent Moors, Global Energy Strategist, Oil & Energy Investor  @KentMoors_OEI .... Dr. Kent Moors News Stories; Money Morning Special News Report:'
p10
a.