(lp0
S"Aug 26, 2010 - Learn what Chevron is doing to meet the world's growing demand for oil and ... Investors  News  Careers  Worldwide  Contact ... According to the U.S. Department of Energy, global energy demand is .... 2001 - 2016 Chevron Corporation."
p1
aS'Aug 26, 2010 - Read the latest articles and commentary on energy policy and climate change at US News.'
p2
aS'Aug 25, 2010 - Aviation and Energy Have Boosted the Bayou City During the Downturn, but ... Brookfield Properties Corp., says he expects both Chevron and Continental to move ... "There\'s no question there is going to be some bad news with regard to that," ...'
p3
aS"Aug 25, 2010 - After only a few months as general manager of Chevron Corp. ... including Pascagoula's Gulf LNG Energy liquefied natural gas storage facility and Moss Point's ..."
p4
aS'Aug 26, 2010 - Presenting political news, and the actual political positions of the parties and ... Trial Lawyer Embraces Approach of Energy Tycoons to Influence Elections In ...'
p5
aS'Aug 26, 2010 - ... Winnie Pipeline Co., then subsidiary of Mitchell Energy & Development Corp., The Woodlands, ..... The pipeline began storing some of its own affiliate gas, and Chevron leased 250 MMcf of ... International news for oil and gas professionals ...'
p6
aS"Aug 26, 2010 - Alberta's Energy Resources Conservation Board has tightened its regulations ... Its partners are Chevron Corp and Marathon Oil Co Corp with 20 percent each. ... Thomson Reuters is the world's largest international multimedia news agency, ..."
p7
aS'Aug 26, 2010 - Mercer will serve as vice president of LNG and integration for Arrow Energy, ... the A$43 billion Gorgon LNG project led by Chevron Corp. and plans to become ...'
p8
aS'Aug 26, 2010 - "We can kind of bolt them onto our $40 billion energy business," he says. ... ConocoPhillips and Chevron Corp. have already abandoned some Gulf prospects ...'
p9
aS'Aug 26, 2010 - The company just bought out the 5.63% interest held by Devon Energy (NYSE:DVN) in this field development, ... Other operators with interests in this field include Chevron (NYSE:CHV), Statoil (NYSE:STO), Exxon Mobile and Hess Corporation (NYSE:HES) ... Subscribe to News To Use for the latest insights and analysis ...'
p10
a.