(lp0
S'Aug 4, 2010 - Chevron to sell Hawaii refinery to private equity group .... Independence Energy Corporation holds three properties Warner, Taber and Diamond in Southern ...'
p1
aS'Aug 2, 2010 - "Gas Rush" is an occasional series about the biggest U.S. energy boom in ... Chevron and Exxon shareholder activists lose \'fracking\' proposal but stir debate.'
p2
aS'Aug 2, 2010 - An Assessment of the Energy Return on Investment (EROI) of Oil Shale ... Findings show oil shale is, at best, a marginal energy source. ... E-News Signup.'
p3
aS'Aug 2, 2010 - CGG and Spectrum Geophysical Corp. have requested preliminary authorizations to ... International news for oil and gas professionals ... Chevron Corp. has signed a nonbinding heads of agreement with China Huadian Green Energy Co. ... This report will provide an overview of the state-of-the-market in the energy sector.'
p4
aS'Aug 2, 2010 - Subsequently, the DSS drilled a well for Exxon Corp. in 5,838 ft of water. .... 02/15/2016. International news for oil and gas professionals ... Chevron Corp. has signed a nonbinding heads of agreement with China Huadian Green Energy Co. ... This report will provide an overview of the state-of-the-market in the energy sector.'
p5
aS"Aug 2, 2010 - Cleanup of work areas requires additional time and energy. ... Benetech Inc. installed a coke dust-suppression system at Chevron's Pascagoula, Miss., refinery, .... International news for oil and gas professionals ... Chevron Corp. has signed a nonbinding heads of agreement with China Huadian Green Energy Co. Ltd. for ..."
p6
aS'Aug 4, 2010 - Energy and the Environment in the 21st Century. September ... Chevron, however, has profoundly changed over the past ... corporation . . . in both its operations and its workforce. A simple ... in the news . . . and in our respective pocketbooks .'
p7
aS"Aug 3, 2010 - ... and processes to Exxon's, says Deutsche Bank energy analyst Paul Sankey. .... In July, Exxon, Royal Dutch Shell, Chevron and ConocoPhillips announced a $1 ... consideration in the newspaper, send comments to letters@usatoday.com."
p8
aS'Aug 2, 2010 - Fuel Fix Headlines & Alerts (oil & gas, energy). Auto News & Listings. Real Estate News & Listings. Career News & Job Listings. SUBSCRIBER NEWSLETTERS.'
p9
aS"Aug 2, 2010 - Iran is an energy superpower and the Petroleum industry in Iran plays an important part in it. In 2004 Iran produced 5.1 percent of the world's total crude oil (3.9 ..."
p10
a.