(lp0
S'Aug 5, 2010 - Mr. MacInnis said Chevron would be "at the table" as the National Energy Board conducts its review, ... Nellie Cournoyea, chief executive officer of the Inuvialuit Regional Corp. ... News. Woman pleads not guilty to live-streaming friend\'s rape ...'
p1
aS'Aug 6, 2010 - Lou Ann Hammond has a work history in the energy and transportation field. Starting with Chevron Corp. in finance and accounting from 1978 to 1986.'
p2
aS"Aug 5, 2010 - NEW YORK, Aug 5 (Reuters) - Chevron Corp (CVX.N: Quote) urged a federal appeals court not to force it into Ecuador's courts to defend a $27.4 billion lawsuit ..."
p3
aS'Aug 5, 2010 - Get detailed financial information on Flyers Energy, LLC () including real-time stock quotes, ... The company is also a wholesale distributor to retail and wholesale customers for Valero, Chevron, and Shell. ... PILOT CORPORATION, Private ...'
p4
aS'Aug 5, 2010 - The first event was bad news for future U.S. Arctic development (and perhaps for ... by other Arctic nations), while the second was good news for energy development. ... The fact that ExxonMobil, Chevron, Shell and ConocoPhillips are putting ...'
p5
aS'Aug 4, 2010 - Then, I was recruited by Chevron Corporation to plan, create and execute ... energy industry by visiting Chevron facilities, attending petroleum seminars, ... Advise senior station leadership on news strategy, future planning and staffing issues.'
p6
aS"Aug 6, 2010 - Chevron.com  News ... Global Technology Centre  Chevron's Energy Technology Company  Energy Industry ... In 2011, the Chevron-operated Wheatstone Project welcomed environmental approval ... Chevron Australia is committed to seeing the Wheatstone Project developed in an .... 2001 - 2016 Chevron Corporation."
p7
aS'Aug 5, 2010 - Swift Energy (NYSE: SFY) released its 2Q10 financial statements, and with that, results of the Houston-based ... Chevron. 101.69. +0.00. +0.00. ConocoPhillips. 47.08. +0.00. +0.00 .... Get All the Oil & Gas Financial Journal News Delivered to Your Inbox for free .... Copyright  2007-2016 Pennwell Corporation, Tulsa, OK.'
p8
aS'Aug 5, 2010 - News, Law, And Analysis For High Performance Construction. August 4 ... For more on the contract recently awarded to Chevron Energy Solutions by the Peralta ...'
p9
aS'Aug 5, 2010 - Home / News / Major oil companies announce oil spill containment system ... Mexico was announced in late July by Chevron, ConocoPhillips, ExxonMobil and Shell. .... Federal Reserve Bank of Kansas City releases 1st quarter energy survey.'
p10
a.