(lp0
S'Sep 9, 2010 - An Idaho gas wholesaler has filed suit against Chevron USA Inc., alleging that the oil giant violated antitrust laws and interfered with contracts by giving ...'
p1
aS"Sep 10, 2010 - REGIONAL NEWS ... UK: RBG Removes Fairlead form Chevron's Captain FPSO ... Pingback: Dana Flanders  Part 1 of 2 | Energy Alternatives New Zealand .... Chevron Corporation announced that it has contributed $1.5 million to the ..."
p2
aS'Sep 9, 2010 - More Details for Gross Energy Corporation ... Chevron Corporation ... With the latest News & Advice from Manta, you can stay ahead of the trends and ...'
p3
aS'Sep 10, 2010 - News CVX Refinery Status: Motiva Port Arthur Unit Shut After New York Stock ... CVX Stock Chart  Chevron Corp. ... CVX Company Information  Chevron Corp. ... Valero Energy (VLO) said Thursday that a diesel hydrotreater and a crude ...'
p4
aS"Sep 9, 2010 - Home / News / Chevron to expand West Africa presence with entry to Liberian ... We are very pleased to participate in Liberia's emerging energy sector, said ..."
p5
aS'Sep 10, 2010 - To be sure, while the U.S. energy company is among direct sponsors of the ... of independent reporters and human rights monitors trying to get out the news.'
p6
aS'Sep 9, 2010 - Department of Energy an application for blanket authorization to export LNG for a ... Chevron is a Pennsylvania corporation with its principal place of business in ...'
p7
aS'Sep 10, 2010 - News & Updates ... Currently, he is Counselor for International Strategy at Chevron Corporation and ... the US Department of Commerce and White House Ombudsman for Energy and Commercial Relations with the New Independent States.'
p8
aS'Sep 9, 2010 - She told the France24 news site: I am going into politics because I ... like Siemens, BAE, Daimler, KBR, ABB, Baker Hughes, Willbros, Chevron, and so on.'
p9
aS'Sep 10, 2010 - This is viewer supported news .... members for ACE was simultaneously, until earlier this year, the vice president of regulatory affairs for BP Alternative Energy.'
p10
a.