(lp0
S"Sep 14, 2010 - Energy News  Most Popular ... Company: Chevron Corporation, more info ... Chevron Signs Up Australia's Alinta To Buy Gas From Wheatstone (Apr 19)"
p1
aS'Sep 14, 2010 - Upstream oil and gas news for exploration and production professionals ... China: BP and Chevron acquire interest in Block 42/05 South China Sea from Devon Energy ... BP has acquired a 40.82 per cent interest in the block from Devon Energy. ... sharing contract with China National Offshore Oil Corporation (CNOOC).'
p2
aS'Sep 14, 2010 - Chevron continues to ramp up production from its first offshore oil field in Brazil, ... Upstream oil and gas news for exploration and production professionals ... majors producing crude in Brazil, where state-run energy giant Petrobras dominates.'
p3
aS'Sep 13, 2010 - BP has acquired a 40.82 per cent interest in the block from Devon Energy China, ... Regulatory news service and filings  Socially responsible investment  Investor ..... sharing contract with China National Offshore Oil Corporation (CNOOC). ... We look forward to working with CNOOC and Chevron on this new block, said ...'
p4
aS'Sep 13, 2010 - The lowest dissolved oxygen measured was 3.5 mg/l., a NOAA news release said. ... Talisman Energy Inc., Calgary, increased its exploration holdings in Papua ... Chevron Corp. will begin a 3-year exploratory program in the fourth quarter of ...'
p5
aS'Sep 13, 2010 - Get All the Oil and Gas Journal News Delivered to Your Inbox ... Chevron Corp. has started LNG and condensate production at the Gorgon project on Barrow ... Customer Experience Management for Energy Companies: The Path to Happy ...'
p6
aS'For more information on geothermal energy, please visit: ... free geothermal energy of 100 Gigawatts! http ...'
p7
aS'Sep 13, 2010 - ConocoPhillips and Chevron Corp. have already abandoned some Gulf ... An analysis conducted by consulting firms Quest Offshore and Blade Energy Partners ...'
p8
aS'Sep 13, 2010 - Chevron. 101.40. -0.29%. -0.29. ConocoPhillips. 46.23. -1.81%. -0.85 .... Three forecasters (Raymond James, Energy Directions and Bloomberg) are estimating average gas prices this ... Get All the Oil & Gas Financial Journal News Delivered to Your Inbox for free .... Copyright  2007-2016 Pennwell Corporation, Tulsa, OK.'
p9
aS"Sep 14, 2010 - The surge in energy company drilling for deep-rock natural gas has generated a ... coal company memo obtained by Kentucky's Lexington Herald newspaper."
p10
a.