(lp0
S"Sep 15, 2010 - Chevron is close to an initial deal with China National Petroleum to import natural ... in the worlds of diversified media, news, education, and information services. .... Petroleum Corp. to import natural gas from Australia, in the energy industry's ..."
p1
aS'Sep 15, 2010 - CHEVRON CORPORATION ... MARATHON OIL CORPORATION. MORGAN ... consulting firm specializing in Middle East energy sector news and analysis.'
p2
aS"Sep 15, 2010 - News Update. The word 'Frontier' is a ... We're entering a new era of energy in Australia, embracing new frontiers in .... Electric and Nippon Oil Corporation."
p3
aS'Sep 16, 2010 - The proposed $6 billion-plus Blythe, Calif., plant, originally proposed by Chevron and Solar Millennium, won clearance to build from the California Energy ...'
p4
aS'Sep 15, 2010 - Delivering Energy and Helping Neighbors Learn, Earn and Live Better. 29 ... In other news, Chevron Bangladesh has already received five Zero is Attainable (ZiA) awards in ..... corporation whose subsidiaries conduct business world- wide.'
p5
aS'Sep 15, 2010 - oil and gas news and contracts for contractors and engineers in the engineering ... Aker Solutions Gets Subsea Umbilical Award from Noble Energy ... TNK-BP enters into long-term contract with state corporation PetroVietnam, to supply of .... Mustang Awarded Detail Design for Chevron Jack & St. Malo Deepwater Facility.'
p6
aS'Sep 16, 2010 - Chevron, Occidental, Exxon Mobil, Petrochina and Murphy Oil all score poorly in industry risk ranking. By Michael Keller, InsideClimate News ... on more riskin emerging markets, alternative energy and in other placesthat are positioned to ...'
p7
aS'Sep 16, 2010 - Central Louisiana Electric Company; Central Louisiana Energy Corporation; Cleco ... BP Amoco Louisiana; British Petroleum; Brown & Root; Chevron Chemical .... However, there are those patients who receive the news that no one wants or ...'
p8
aS'Sep 15, 2010 - Nelia Daniel Dias is a Senior Counsel working for Chevron in Angola and is registered with the Portuguese and Angolan Bar Association ... News & Events.'
p9
aS"Sep 16, 2010 - Disney, Chevron and Monsanto Contracted with Blackwater for Intelligence, Training and .... Monsanto was hardly the only powerful corporation to enlist the services of Blackwater's .... Watch: Ben Carson Wants Harriet Tubman on the $2 Bill, Befuddling Even Fox News ... Forcing our energy mistakes on the rest of the world."
p10
a.