(lp0
S'Sep 17, 2010 - Transportation & Storage - Latest Industry News, Company Profiles and Market ... Chevron has agreed to supply natural gas to energy retailer Alinta Energy from ...'
p1
aS'Sep 17, 2010 - Oil & Gas - Latest Industry News, Company Profiles and Market Analysis Reports from ... World Bank Group member International Finance Corporation (IFC) and ...'
p2
aS'Sep 16, 2010 - The proposed $6 billion-plus Blythe, Calif., plant, originally proposed by Chevron and Solar Millennium, won clearance to build from the California Energy ...'
p3
aS'Sep 17, 2010 - DOW JONES, A NEWS CORP COMPANY .... Refiners Valero Energy Corp. and Tesoro Corp., both of San Antonio, have given about $4 million and $1.5 million ...'
p4
aS"Sep 16, 2010 - Disney, Chevron and Monsanto Contracted with Blackwater for Intelligence, Training and .... Monsanto was hardly the only powerful corporation to enlist the services of Blackwater's .... Watch: Ben Carson Wants Harriet Tubman on the $2 Bill, Befuddling Even Fox News ... Forcing our energy mistakes on the rest of the world."
p5
aS'Sep 16, 2010 - Central Louisiana Electric Company; Central Louisiana Energy Corporation; Cleco ... BP Amoco Louisiana; British Petroleum; Brown & Root; Chevron Chemical .... However, there are those patients who receive the news that no one wants or ...'
p6
aS'Sep 16, 2010 - Of the $8.2 million raised so far, $1 million came from the Koch firm, $4 million from the Valero Energy Corporation and $1.5 million from the Tesoro Corporation; ...'
p7
aS'Sep 17, 2010 - The plant was originally proposed by Chevron Corp. and Solar Millennium AG, although, according to ... With this technology, arrays of parabolic mirrors collect heat energy from the sun and refocus the radiation on a ... Carbon Offset News'
p8
aS'Sep 16, 2010 - (now Chevron-Phillips Corp.) .... International news for oil and gas professionals ... Customer Experience Management for Energy Companies: The Path to Happy ...'
p9
aS"Sep 16, 2010 - James Schlesinger, President Carter's Energy Secretary, wrote the foreword to a book ... at Exxon, a senior staff member at the RAND Corporation, and director of the US research program on nuclear fusion energy. ... In The Impending World Energy Mess (*), Robert Hirsch tries to make people listen to ..... Bear Market News."
p10
a.