(lp0
S'Sep 21, 2010 - Home  News  Feature Stories; Activists stop Chevron deepwater drilling ship off the ... The ship is operated by oil giant Chevron and was due to sail for a site 200km north ... deep water drilling rig operated by Edinburgh-based Cairn Energy.'
p1
aS'Sep 21, 2010 - Back to News & Media. Greenpeacers Climb Giant Oil Rig off Scotland to Stop Chevron Drilling Project, while Gulf Expedition ... Operated by US energy giant Chevron, the Stena Carron is due to sail for a site in the Lagavulin oil field where it ...'
p2
aS'Sep 21, 2010 - Details: Category: News: Published: 21 September 2010 ... Additionally to Cairn Energy, Exxon Mobil Corp and Chevron Corp also own rights in Greenland.'
p3
aS"Sep 21, 2010 - Greenpeace activists lock down anchor chain of Chevron drill ship.  Will Rose / Greenpeace ... Greenpeace climber on Cairn Energy's Stena Don oil rig.  Greenpeace. This is as much ... Inc. All rights reserved. Part of HuffPost on HPMG News."
p4
aS'Sep 22, 2010 - CAMAC Energy named Byron A. Dunn as President and CEO. ... and as the Chairman of its joint venture with China National Offshore Oil Corporation (CNOOC).'
p5
aS'Sep 22, 2010 - FPL is a subsidiary of Juno Beach, Fla.-based NextEra Energy, Inc. The conference is sponsored by Chevron Corporation and the Shepard Broad Foundation, ...'
p6
aS'Sep 21, 2010 - Brian T. Moynihan, CEO of Bank of America Corp. Brian T. Moynihan, president and .... best people from the old Fleet. *T For Related News and Information: *T.'
p7
aS"Sep 21, 2010 - That's the news for our energy future and for the future of great-power politics on ... of California, became Chevron - today, the third richest American corporation."
p8
aS"Sep 22, 2010 - Environmental activists aiming to prevent Chevron's deepwater drilling have ... British drilling rig owned by Edinburgh-based Cairn Energy in the Arctic last month. ..... Anything to get up the nose of a multi-national global corporation must be good news. .... 2016 Guardian News and Media Limited or its affiliated companies."
p9
aS'Sep 22, 2010 - Energy News  Most Popular .... FirstEnergy Capital Corp. and RBC Rundle have acted as exclusive advisors to Enerplus on these divestment packages.'
p10
a.