(lp0
S'Sep 23, 2010 - The Chevron-UT Enhanced Oil Recovery Alliance pays for students and faculty to ... Center that included comments from Chevron Energy Technology Company ...'
p1
aS'Sep 23, 2010 - Company News. EZ-Shop Logo Horizon Store .... Brabham Main Logo  Locations  Careers  Promotions  Distribution  About Us  Company News  Contact.'
p2
aS'Sep 22, 2010 - CAMAC Energy named Byron A. Dunn as President and CEO. ... and as the Chairman of its joint venture with China National Offshore Oil Corporation (CNOOC).'
p3
aS'Sep 22, 2010 - FPL is a subsidiary of Juno Beach, Fla.-based NextEra Energy, Inc. The conference is sponsored by Chevron Corporation and the Shepard Broad Foundation, ...'
p4
aS"Sep 22, 2010 - Home  News  Blogs  Making Waves; Going Beyond Oil ... two Greenpeace activists locked down the anchor chain of Chevron's drill ship the Stena Carron, which was scheduled to ... Greenpeace climber on Cairn Energy's Stena Don oil rig"
p5
aS'Sep 22, 2010 - Boston Strategies International (BSI) has awarded Chevron a 2010 Award ... Chevron Corporation (USA) won for its effective in extending its internal Lean Six Sigma ... energy spectrum  producing and transporting crude oil and natural gas; ...'
p6
aS'Sep 23, 2010 - Subscribe to News Alerts ... Our 17th Africa Oil Week 2010, welcomes its new sponsors: Chevron, and African Petroleum Corp and New Exhibitors including: ... Supported By inter alia- Ministry of Mines, Energy, Petroleum Resources Hydraulics (Gabon), ... James Phillips Vice President, Exploration, Africa Oil Corporation.'
p7
aS'Sep 23, 2010 - Greenpeace activists who have interfered with the launch of a Chevron oil drilling ship in the North Sea say that they ... Greenpeace International  Chevron Corporation ... They boarded an oil drilling rig operated by British company Cairn Energy in Arctic waters off Greenland in August. ... Explore the news with NewsPulse '
p8
aS"Sep 23, 2010 - Before joining PSO, his last assignment was with Chevron Corporation as ... and downstream petroleum sectors as well as New and Renewable Energy Resources. .... Thomson Reuters is the world's largest international multimedia news ..."
p9
aS'Sep 23, 2010 - News Jun 10, 2011, 6:00AM EDT Pittsburgh Business Times ... Ltd. of South Korea. November 2010: Chevron Corp. announces a $4.3 billion bid for'
p10
a.