(lp0
S'Sep 27, 2010 - Chevron Corp., ConocoPhillips, ExxonMobil Corp., and Royal Dutch Shell PLC pooled $1 .... Gran Tierra Energy Inc. will pay $22.6 million to Alvorada Petroleo SA to receive a .... Get All the Oil and Gas Journal News Delivered to Your Inbox.'
p1
aS'Sep 27, 2010 - See full data on how much energy companies and trade associations spent on oil ... ConocoPhillips (2), Chevron (3), BP (5), Koch Industries (6), and Shell (7).'
p2
aS'Sep 28, 2010 - US oil giant Chevron wins injunction ordering protest group to stop direct action preventing ... Then four Greenpeace climbers scaled a Cairn Energy drilling platform and ... 2016 Guardian News and Media Limited or its affiliated companies.'
p3
aS'Sep 27, 2010 - Chevron first in line to explore two north Atlantic prospects, with BP to follow. ... The environmental group fears the Department of Energy and Climate Change (Decc) could make a decision as early as tomorrow for the first wells ... More news ...'
p4
aS'Sep 28, 2010 - Get All the Oil & Gas Financial Journal News Delivered to Your Inbox for free ... Swift Energy Co. and Petrohawk Energy Corp. will jointly develop and operate an ... Chevron Australia starts gas production from $2.1B onshore LNG facility.'
p5
aS'Sep 27, 2010 - Energy News ... "Chevron North Sea appeals to Greenpeace to end its new protest at the Stena Carron while it is going about its lawful ... Newcastle Port Corp. estimated that Newcastle\'s coal exports would reach 10 million tons for this month.'
p6
aS"Sep 27, 2010 - Posted by ENS in Latest News on September 27, 2010 5:24 am / no comments ... Chevron's lawyers argued successfully that the pod hanging on the Stena Carron's ... and the world needs to move beyond oil to cleaner sources of energy."
p7
aS'Sep 28, 2010 - Punj Lloyd (India); Italian-Thai Development (Thailand); Excelerate Energy (US); ... Mitsui & Co/JGC Corporation (Japan); Chevron (US); IHI Corporation (Japan)'
p8
aS"Sep 28, 2010 - Activists seeking to condemn Chevron Corp. ... far  from mainstream media and wire stories to ad industry and energy outlets to political blogs. ... News' The Upshot: 'New Chevron 'We Agree' ad campaign hijacked by anti-corporate tricksters'"
p9
aS"Sep 28, 2010 - Sharp Electronic Corporation is growing it's presence in the U.S. solar market. ... Together with Eurus Energy America and NRG Solar, we are turning land that once ..... Posted in Biodiesel, bioenergy, biofuels, Cellulosic, Ethanol, News, Opinion ... ConocoPhillips (2), Chevron (3), BP (5), Koch Industries (6), and Shell (7)."
p10
a.