(lp0
S"Sep 7, 2010 - Chevron is also a partner with China National Petroleum Corporation in an onshore ... Chevron is one of the world's leading integrated energy companies, with ..."
p1
aS'Sep 7, 2010 - Oil company Chevron Corp. has invested in Solazyme. And Exxon Mobil Corp. last year announced a $600 million algae program with Synthetic Genomics Inc., ...'
p2
aS"Sep 8, 2010 - Chevron has been granted approval by the Liberian government to acquire a 70 ... Upstream oil and gas news for exploration and production professionals ... 'We are very pleased to participate in Liberia's emerging energy sector,' said ..."
p3
aS'Sep 8, 2010 - The News  Contact Us ... The Claimant Parties brought their Energy Charter Treaty claim after Kazakhstan seized .... such as ExxonMobil, Royal Dutch Shell, BP, Chevron Corporation, ConocoPhillips and Total S.A., operating in Kazakhstan.'
p4
aS'Sep 7, 2010 - Project description. Bayou Casotte Energy LLC, a wholly owned Chevron subsidiary, filed for regulatory approval with FERC for the Casotte Landing Project in ...'
p5
aS'Sep 7, 2010 - Chevron persuaded a U.S. federal judge last month to grant a subpoena of ... Health  Education  Video  News Blogs  Sponsored: CA Clean Energy .... Pablo Fajardo before a news conference in San Francisco, Calif. on Tuesday, April 24, 2007. ... Mired in a $27 billion environmental lawsuit in Ecuador, Chevron Corp. has ...'
p6
aS'Sep 7, 2010 - Chevron Corp. selected Mustang, a Wood Group company, for doing the detail design ... Get All the Oil and Gas Journal News Delivered to Your Inbox ... The US Bureau of Ocean Energy Management proposed new air-quality requirements ...'
p7
aS'Sep 7, 2010 - ... with Chevron China (Chevron), BP China (BP) and Devon Energy Corporation (Devon) for deepwater blocks 42/05, ... Pingback: World Wide News Flash.'
p8
aS"Sep 8, 2010 - News in Focus .... of Ascom's investments in Kazakhstan, in direct contravention of the international Energy Charter Treaty. .... such as ExxonMobil, Royal Dutch Shell, BP, Chevron Corporation, ConocoPhillips and Total S.A., all of which have ..."
p9
aS'Sep 9, 2010 - Venture Executive at Chevron Technology Ventures ... Unocal Corp ... Finance Plus: Private Equity, Venture Capital and M&A news  Energy Professionals ...'
p10
a.