(lp0
S"Oct 14, 2015 - A new campaign is attacking Chipotle's carefully crafted healthy image. (ChubbyChipotle.com). Chipotle Mexican Grill, viewed by millions of loyal customers as ..."
p1
aS"Oct 13, 2015 - Police in Montgomery County are investigating a robbery at a Chipotle ... NEWS. John Kasich on Refusing Service to LGBT People: 'What the Hell Are We Doing ..."
p2
aS'Oct 13, 2015 - Your morning dose of need-to-know news, weather and more. ... The robbers struck the Chipotle on Moreland Road in Willow Grove, Pennsylvania after 11 p.m. ...'
p3
aS'Oct 13, 2015 - Chipotle Mexican Grill, Inc. (CMG) appointed Curt Garner as its first chief information officer who held the same ... Zacks News for ( PNRA, CMG, SBUX, RRGB ) ...'
p4
aS'Oct 13, 2015 - Now you can, for free, if you eat at Chipotle. . Live-updated Colorado news, weather forecasts for Denver and the state, metro-area traffic and Denver sports ...'
p5
aS'Oct 14, 2015 - How Chipotle Can Hit $825 On Carnitas Return, Coupons And BOGO. Zoheb Sait , Editor Vetr News ... Goldman Downgrades Chipotle On Near-Term Risk.'
p6
aS'Oct 14, 2015 - Legal News Line ... Chipotle faces lawsuit over allegedly false non-GMO claims ... Gallagher alleges that Chipotle, priding themselves as serving Food with ...'
p7
aS'Oct 13, 2015 - Police in Montgomery County are investigating a robbery at a Chipotle Mexican Grill in Willow Grove.'
p8
aS'Oct 14, 2015 - JPMorgan, Intel earnings weigh on Dow; Chipotle drops despite higher revision .... Get the Latest Market Data and News with the Yahoo Finance App. Chipotle.'
p9
aS'Oct 14, 2015 - Qdoba banks on the Quentessa to combat Chipotle. By. Restaurant Business Staff on Oct. 14, 2015 ... Latest News. Miss. restaurant industry takes a stand ...'
p10
a.