(lp0
S'Oct 21, 2015 - Shares of Chipotle Mexican Grill (CMG) tumbled nearly 6% Wednesday after the casual restaurant chain reported earnings that disappointed Wall Street.'
p1
aS'Oct 21, 2015 - See the latest news from NRN ... Chipotle took a 2-percent hit to same-store sales in the second quarter this year after pulling pork carnitas from the menu at ...'
p2
aS'Oct 21, 2015 - The Ormond Beach Chipotle will be open seven days a week, from 11 a.m. to 10 ... "It\'s more continuing good news for the city of Ormond Beach and Granada ...'
p3
aS'Oct 22, 2015 - Cincinnati police are searching for two gunmen who robbed a Chipotle in Corryville. ... WLWT.com is your top source for Cincinnati breaking news, weather and ...'
p4
aS"Oct 21, 2015 - Despite Chipotle's earnings miss, an analyst says that there is still hope for the ... Telsey Advisors, lowered his price target for the stock off the earnings news."
p5
aS"Oct 21, 2015 - Jim Cramer knows that buying Chipotle isn't the popular move right now .... Global Business and Financial News, Stock Quotes, and Market Data and Analysis."
p6
aS'Oct 22, 2015 - Cincinnati Police are seeking the identity of the two suspects who allegedly robbed a Corryville Chipotle restaurant on Oct. 10.'
p7
aS"Oct 21, 2015 - DENVER  Citing choppy traffic and tough comparisons to last year's strong results, Chipotle Mexican Grill, Inc. is just kind of holding our own, said Jack ..."
p8
aS'Oct 22, 2015 - Cincinnati Police need help identifying two individuals who were captured on video robbing a Chipotle in Corryville .'
p9
aS'Oct 21, 2015 - Comp sales at Chipotle Mexican Grill grew 2.6 percent year over year during the third quarter, the result of increasing ... chipotle burrito bowl ... Latest News.'
p10
a.