(lp0
S"Oct 28, 2015 - One of Chipotle Mexican Grill's (NYSE:CMG) feistiest rivals is going in a different ... According to Nation's Restaurant News, the chain also updated its logo on ..."
p1
aS'Oct 29, 2015 - Thanks to the World Health Organization, Chipotle has wrapped itself into a giant GMO-free pickle.'
p2
aS'Oct 28, 2015 - Chipotle Mexican Grill will celebrate the opening of its Oak Ridge location Thursday at 433 S. Illinois Ave.'
p3
aS"Oct 28, 2015 - Plans announced for Downriver's first Chipotle Mexican Grill in Woodhaven ... The News Herald, local news, sports and weather serving Southgate, MI."
p4
aS'Oct 28, 2015 - Food News 10/28/2015 ... For the 5th year in a row, Chipotle is having a Halloween promotion where they sell their hefty burritos ... Who: Chipotle Mexican Grill.'
p5
aS'Oct 29, 2015 - Chipotle will be holding another Boorito Halloween promotion wherein their ... Illinois Avenue, open from 11 a.m. to 10 p.m. every day, according to KNOX News.'
p6
aS"Oct 28, 2015 - Home  News  Sports  Things to Do  Opinion  Obituaries  Classifieds; Editors' Picks1 ... News  Minnesota salmonella outbreak linked to Chipotle restaurants ..."
p7
aS'Oct 28, 2015 - News  Chipotle sponsors second annual free music, food fest in Minneapolis ... Chipotle sponsors second annual free music, food fest in Minneapolis. By Ross ...'
p8
aS"Oct 28, 2015 - New Oak Ridge Chipotle opens Thursday, Oct. 29. ... Chipotle Mexican Grill will hold it's annual Boorito fundraiser from 5 p.m. to closing on Halloween, Oct. 31."
p9
aS"Oct 29, 2015 - Restaurant Inspections: Chipotle Mexican Grill, Carmello's Ristorante Italiano, ... Search for Relisha Rudd, Home Burglary Caught on Video: News Nearby."
p10
a.