(lp0
S'Oct 21, 2015 - Shares of Chipotle Mexican Grill (CMG) tumbled nearly 6% Wednesday after the casual restaurant chain reported earnings that disappointed Wall Street.'
p1
aS'Oct 20, 2015 - Chipotle said Tuesday it expects same restaurant sales to increase by ... Venessa Wong is a business reporter for BuzzFeed News and is based in New York.'
p2
aS'Oct 20, 2015 - DENVER --(BUSINESS WIRE)--Oct. 20, 2015-- Chipotle Mexican Grill, Inc. (NYSE: CMG) today reported financial results for its third quarter ended September 30 ...'
p3
aS'Oct 21, 2015 - See the latest news from NRN ... Chipotle took a 2-percent hit to same-store sales in the second quarter this year after pulling pork carnitas from the menu at ...'
p4
aS'Oct 20, 2015 - Chipotle Mexican Grill fell short of earnings estimates but met revenue .... Global Business and Financial News, Stock Quotes, and Market Data and Analysis.'
p5
aS'Oct 20, 2015 - Chipotle sales growth continued to slow in the third quarter, as the company also ... in the worlds of diversified media, news, education, and information services.'
p6
aS'Oct 20, 2015 - Chipotle Mexican Grill Inc. shares fell the most in six months after third-quarter profit missed estimates, renewing concerns about escalating costs and slowing ...'
p7
aS"Oct 20, 2015 - Long the star of fast casual, Chipotle's same-store sales rose just 2.6% during the quarter, down sharply from 20% a year ago."
p8
aS'Oct 20, 2015 - Chipotle reported its worst sales growth figure in over two years on Tuesday. Its stock fell 4% in after ... 2016 Cable News Network. A Time Warner Company.'
p9
aS'Oct 21, 2015 - The Ormond Beach Chipotle will be open seven days a week, from 11 a.m. to 10 ... "It\'s more continuing good news for the city of Ormond Beach and Granada ...'
p10
a.