(lp0
S"Oct 30, 2015 - It's the chain's 5 annual Boo-rrito event where customers in costume can cop a $3 meal with all the fixings. But this year, Chipotle is changing things up a bit to ..."
p1
aS'Oct 30, 2015 - News/. Here\'s How to Snag Your $3 Chipotle "Boorito" This Halloween ... According to Chipotle, "unnecessary additives in fast food are creepy," and to shed light ...'
p2
aS'Oct 30, 2015 - Typically, Chipotle asks customers to come in wearing their costumes on Halloween for the $3 deal. But this year customers will have do something else that ...'
p3
aS'Oct 29, 2015 - Thanks to the World Health Organization, Chipotle has wrapped itself into a giant GMO-free pickle.'
p4
aS'Oct 30, 2015 - Replay: PIX11 News PIX11 TV Schedule ... Chipotle will be offering $3 booritos on Halloween to customers wearing costumes with an added unnecessary ...'
p5
aS'Oct 30, 2015 - But this year, Chipotle is changing things up a bit to support their latest campaign, which highlights the its stance against using ... Read More @ FOX News ...'
p6
aS"Oct 30, 2015 - Good news for Chipotle-loving Chicagoans: The company's Asian concept will be opening up in the Windy City this fall. ShopHouse Southeast Asian Kitchen will ..."
p7
aS'Oct 30, 2015 - Chipotle is offering $3 burritos on Halloween only. The catch ... For up-to-the-minute news and weather, be sure to follow us on Twitter and like us on Facebook.'
p8
aS"Oct 29, 2015 - Plans announced for Downriver's first Chipotle Mexican Grill in Woodhaven. Published: Thursday, October 29, 2015. 14 Comments. By Ashley Sword The News- ..."
p9
aS"Oct 30, 2015 - ... around $600.. Chipotle Mexican Grill Inc(CMG) ... Access to Jim Cramer's daily blog; Intraday commentary and news; Real-time trading forums. Only $49.95."
p10
a.