(lp0
S'Oct 8, 2015 - Goldman Sachs recommends betting on Chipotle ahead of earnings, but one technician says this burrito-like pattern ... Bad news: Bond defaults are on the rise.'
p1
aS'Oct 8, 2015 - The lines may not be any longer at Chipotle Mexican Grill (NYSE:CMG) than they were a week ago, but at least one Wall Street pro sees some more lettuce in ...'
p2
aS'Oct 8, 2015 - ... :mobile_leaderboard ). News  Eater Today  Chipotle ... Chipotle is getting in the Halloween spirit with a fundraiser and $3 burritos. On October 31, from 5 p.m. ...'
p3
aS'Oct 9, 2015 - 5 Hot Stocks Join Chipotle, Starbucks Near Buy Point .... You will find the latest news, market analysis, and education to help you become a more successful ...'
p4
aS'Oct 8, 2015 - For its annual Halloween fundraiser, Chipotle will be selling $3 burritos (i.e. boo-ritos), ... Sign up for NYC news plus the scoop on things to do, see and eat.'
p5
aS"Oct 9, 2015 - Chipotle's Halloween Boorito deal is back this year, and the proceeds from your cheap carnitas .... How Fox News Unwittingly Destroyed the Republican Party ..."
p6
aS"Oct 8, 2015 - fairwindslogo Falls Church's own Casey Jones and his brewery, Fair Winds Brewing Company, were big winners at the Great American Beer Festival in Denver ..."
p7
aS"Oct 8, 2015 - ... with KLG and Hoda to demonstrate a tasty chipotle chicken pasta casserole. ... evacuations grow News  Pope Francis' document on family life: Pro sex ed, ..."
p8
aS'Oct 8, 2015 - Food World News ... Chipotle Halloween: You Can Get A $3 Burrito - Just Dress in Costume! [PHOTOS + VIDEOS]. Oct 08, 2015 10:40 ... Restaurant Chain Chipotle Warns Climate Change Could Force Guacamole Off The Menu. (Photo : Getty ...'
p9
aS"Oct 8, 2015 - Financial News. October 8, 2015. Staff Blogger. FJT aims to be the information hub that empowers Black wealth creation. We are behind FJT's fresh & insightful ..."
p10
a.