(lp0
S'Nov 16, 2015 - Chipotle temporarily closed dozens of stores spanning across Oregon and ... Fox News stated that Chipotle has spent countless hours trying to track the main ...'
p1
aS'Nov 16, 2015 - Industry News Retailing & Restaurants. Downtown Birmingham Chipotle sets opening date ... Chipotle Mexican Grill should open at 20 Midtown on Dec. 14.'
p2
aS"Nov 16, 2015 - Bernstein expects Chipotle Mexican Grill, Inc.\\'s (NYSE:CMG) comps to face a downfall in two upcoming quarters. ... Quantcast. Sector News. Technology."
p3
aS'Nov 16, 2015 - Susquehanna Township will get its first Chipotle Mexican Grill, with approval ... restaurant, possibly Chipotle, according to a shopping center representative. ... The Patriot-News  Manage your Patriot-News Subscription  e-Newsletters  Blogs ...'
p4
aS'Nov 16, 2015 - SEATTLE | As Chipotle prepares to reopen its restaurants in the Pacific Northwest this .... FRIDAY NEWS IN A RUSH: 10 things in 60 seconds and A-TownTV ...'
p5
aS"Nov 15, 2015 - ... Get Report) or your shredded pork burritos at Chipotle (CMG - Get Report) looks trivial, ... Access to Jim Cramer's daily blog; Intraday commentary and news ..."
p6
aS"Nov 16, 2015 - For starters, Chipotle's human resources department has been replying to new job applicants using the domain .... Yeah, I saw that on the news the other day!"
p7
aS'Nov 15, 2015 - It was a good week for Chipotle. Almost. Thursday it reopened all 43 stores in two Washington and Oregon markets it voluntarily closed over Halloween due to ...'
p8
aS'Nov 16, 2015 - News. November 16, 2015  Chipotle Fundraiser Event ... Chipotle at 919 Pearl St. will be hosting a percentage fundraiser for the HOLA Foundation on Saturday, ...'
p9
aS'News & Politics ... Chipotle Closes 43 Stores After E.Coli Outbreak ft. ... CDC INVESTIGATION OF CHIPOTLE ...'
p10
a.