(lp0
S"Nov 17, 2015 - News  Sports  Entertainment  Classifieds  Cloudy. 56 ... E. coli case in Whatcom County not linked to Chipotle outbreak. Dustin Kelley, left, and Tyler ... The Chipotle in Bellingham wasn't one of the restaurants named. Also, the Whatcom ..."
p1
aS'Nov 17, 2015 - At long last, Covington has its new Chipotle. ... awaiting its opening since The River City News broke the news of its forthcoming arrival back in August, 2014.'
p2
aS'Nov 18, 2015 - The number of cases in the E.coli outbreak linked to Chipotle restaurants in ... Fox News Denver is reporting that Colorado may be added to the list of states in ...'
p3
aS'Nov 16, 2015 - Chipotle temporarily closed dozens of stores spanning across Oregon and ... Fox News stated that Chipotle has spent countless hours trying to track the main ...'
p4
aS'Nov 17, 2015 - I am terrified of failing the Chipotle guy. ... I understand that you, Chipotle Worker, are in a hurry, and I am here to help! .... Part of HuffPost on HPMG News.'
p5
aS'Nov 17, 2015 - The E. coli news has sent the stock down below its moving averages and is now considered cheap by some.Despite a still high valuation relative to comps and ...'
p6
aS'Nov 16, 2015 - Industry News Retailing & Restaurants. Downtown Birmingham Chipotle sets opening date ... Chipotle Mexican Grill should open at 20 Midtown on Dec. 14.'
p7
aS'Nov 17, 2015 - More than 40 Chipotle restaurants remain closed in Washington state and the ... News. Sports. Biz. A&E. Email. Life. Roseville man stumbles from garage ...'
p8
aS'Nov 17, 2015 - On November 12, the CDC reported fifty ill people from Washington (31) and Oregon (19) from Shiga toxin-producing Escherichia coli O26 (STEC O26) ...'
p9
aS"Nov 16, 2015 - Bernstein expects Chipotle Mexican Grill, Inc.\\'s (NYSE:CMG) comps to face a downfall in two upcoming quarters. ... Quantcast. Sector News. Technology."
p10
a.