(lp0
S"Nov 12, 2015 - If you've seen some disturbing Chipotle news floating around Twitter, never fear: Chipotle is not closing all of its locations within the next year. Twitter account ..."
p1
aS'Nov 12, 2015 - Customers returned to Pacific Northwest Chipotle restaurants on Wednesday as the chain reopened after an E. coli outbreak that sickened about 45 people in ...'
p2
aS'Nov 11, 2015 - Chipotle Mexican Grill Inc said it would reopen all 43 restaurants in Seattle and Portland after health officials found no evidence of E. coli bacteria at those ...'
p3
aS'Nov 11, 2015 - SEATTLE (AP)  Customers returned to Pacific Northwest Chipotle restaurants on Wednesday as the chain reopened after an E. coli outbreak that sickened ...'
p4
aS'Nov 12, 2015 - The fast casual Mexican chain just got more bad news. ... Chipotle recently reopened 43 restaurants in the Seattle and Portland areas after some customers ...'
p5
aS'Nov 12, 2015 - A Twitter post spreads false rumor that Chipotle was going out of business ... Fox and Ex Brian Austin Green Spotted Grabbing Lunch Day After Baby News ...'
p6
aS'Nov 11, 2015 - KRQE reports on news, weather, traffic, investigations and sports for New ... 2, 2015, file photo, a pedestrian walks past a closed Chipotle restaurant in Seattle.'
p7
aS'Nov 11, 2015 - Chipotle said Tuesday it will reopen all of the 43 outlets it closed in Washington and Oregon last month, although no one has been able to find the source of the ...'
p8
aS'Nov 11, 2015 - Chipotle Hid A Fourth Outbreak from the Public ... Chipotle has been having a rough go of it lately. ... Great nothing news about an outbreak that is OVER.'
p9
aS'Nov 11, 2015 - As Chipotle prepares to reopen its restaurants in the Portland area and in Washington state, the case count has continued to rise. ... Your Regional News Pages.'
p10
a.