(lp0
S'Nov 10, 2015 - Officials believe E. coli outbreak likely linked to Chipotle restaurants. ... People who eat A get sick and people eat B do not," Schaffner explained to ABC News.'
p1
aS'Nov 11, 2015 - Chipotle said Tuesday it will reopen all of the 43 outlets it closed in Washington and Oregon last month, although no one has been able to find the source of the ...'
p2
aS'Nov 10, 2015 - As 43 shuttered Chipotle restaurants in Washington and Oregon prepared to reopen on ... Email Newsletter Signup Custom-curated news highlights, delivered ...'
p3
aS'Nov 11, 2015 - Chipotle Mexican Grill Inc said it would reopen all 43 restaurants in Seattle and Portland after health officials found no evidence of E. coli bacteria at those ...'
p4
aS'Nov 11, 2015 - SEATTLE (AP)  Customers returned to Pacific Northwest Chipotle restaurants on Wednesday as the chain reopened after an E. coli outbreak that sickened ...'
p5
aS'Nov 10, 2015 - (Reuters) - Chipotle Mexican Grill Inc said it would reopen all 43 restaurants in Seattle and Portland after health officials found no evidence of E. coli bacteria at ...'
p6
aS'Nov 10, 2015 - All test results negative for E. Coli; no ongoing threat. DENVER --(BUSINESS WIRE)--Nov. 10, 2015-- Chipotle Mexican Grill (NYSE: CMG) will reopen all 43 ...'
p7
aS"Nov 10, 2015 - Nation's Restaurant News ... Chipotle Mexican Grill Inc. said Tuesday that the 43 restaurants in the Pacific Northwest that were ... Chipotle said it voluntarily closed all 43 units throughout the region on Oct. 31 in an overabundance of caution."
p8
aS'Nov 10, 2015 - Chipotle Mexican Grill said it would reopen 43 restaurants it had closed in two ... in the worlds of diversified media, news, education, and information services.'
p9
aS'Nov 11, 2015 - KRQE reports on news, weather, traffic, investigations and sports for New ... 2, 2015, file photo, a pedestrian walks past a closed Chipotle restaurant in Seattle.'
p10
a.