(lp0
S'Nov 27, 2015 - Costco Wholesale Corp. shares COST, +0.03% rose Friday, as investors shrugged off the latest news on the E.coli outbreak that has sickened 19 people in ...'
p1
aS'Nov 27, 2015 - An E. coli outbreak linked to Chipotle Mexican Grill has spread to states .... Get free daily newsletters and real-time news alerts from the Abington Patch. Join 1.2 ...'
p2
aS'Nov 27, 2015 - LOS ANGELES  Investigators looking into the E. coli outbreak at Chipotle Mexican ... The Dispatch app features breaking news, sports, weather, videos, movie ...'
p3
aS'Nov 26, 2015 - Chipotle continues to have more than its share of troubles. Last month, people were sickened by a strain of E. coli called O26 (STEC O26) in western ...'
p4
aS'Nov 27, 2015 - CMG stock has perpetually headed southward ever since news broke of the E. coli outbreak. The massive slump is, however, unwarranted, given that Chipotle ...'
p5
aS"Nov 27, 2015 - Although Costco stock seems to have survived the E. Coli outbreak, Chipotle stock isn't doing as well. Shares ... CBS News (@CBSNews) November 27, 2015."
p6
aS"Nov 26, 2015 - However, as CNBC reports, the fast-casual restaurant's shares will survive, as the following Monday after the latest Chipotle outbreak news, its shares were up 5 ..."
p7
aS'Nov 26, 2015 - The illnesses are not related to a recent E. coli outbreak tied to Chipotle that sickened more than 40 people. ... Download the FOX 2 Detroit News App now. false.'
p8
aS'Nov 27, 2015 - Is Chipotle Mexican Grill, Inc. (NYSE:CMG) a good equity to bet on right now? ... on November 27, 2015 at 4:57 am by Maja Joveli in Hedge Funds,News.'
p9
aS'Nov 26, 2015 - This is not related to the outbreak that happened recently that forced certain branches of Chipotle to close in some states in the Northwest, the news outlet added ...'
p10
a.