(lp0
S'Nov 20, 2015 - A sign is seen at a Chipotle Mexican Grill restaurant in San Francisco, .... US Air Force deploys B-52 bombers in Middle East to combat Islamic State. Fox News.'
p1
aS'Nov 21, 2015 - An outbreak of E. coli linked to Chipotle has expanded to six states. ... Late in October, Chipotle Mexican Grill closed 43 restaurants in Oregon and Washington after health officials discovered most of the ... Topics Health news, U.S. news.'
p2
aS'Nov 20, 2015 - An outbreak of E. coli linked to Chipotle that originated in the Pacific Northwest ... On news Friday that the outbreak had spread, shares of Chipotle plunged more ...'
p3
aS"Nov 20, 2015 - Chipotle stock dropped after a CDC post about an E. coli outbreak listed three more states reporting people being infected by E. coli. The fast-casual chain's ..."
p4
aS'Nov 20, 2015 - An outbreak of E. coli linked to Chipotle that originated in the Pacific Northwest ... On news Friday that the outbreak had spread, shares of Chipotle plunged more ...'
p5
aS"Nov 20, 2015 - Three additional states reported E. coli infections linked to various Chipotle chain ... Campbell's wife: He 'cannot play guitar anymore' Fox News Entertainment ..."
p6
aS'Nov 20, 2015 - Shares in Chipotle slump almost 10% after US health authorities reported more cases of E. coli linked to the Mexican restaurant chain.'
p7
aS'Nov 20, 2015 - An E. coli outbreak linked to Chipotle Mexican Grill Inc. has spread to six states, including California and New York, underscoring that the food-poisoning crisis ...'
p8
aS'Nov 20, 2015 - We tell local San Francisco news & weather stories, and we do what we do to make the Bay Area a better place to live.'
p9
aS'Nov 20, 2015 - Chipotle E. coli outbreak now linked to illness in 6 states ... The E. coli outbreak linked to Chipotle restaurants has now caused 45 cases of ... Filed in: News.'
p10
a.