(lp0
S'Nov 30, 2015 - But Barton did note a tiny piece of positive news for Chipotle on FOX Business. There have been no new outbreaks in the states where the first breakouts were ...'
p1
aS'Nov 30, 2015 - Shares of Chipotle Mexican Grill (NYSE:CMG) have been pummeled by an ... Which is why the news that Costco (NASDAQ:COST) is having to deal with an E.'
p2
aS'Nov 29, 2015 - An E. coli outbreak linked to Chipotle Mexican Grill has spread to states .... Get free daily newsletters and real-time news alerts from the West Chester Patch.'
p3
aS"Nov 30, 2015 - Chipotle Mexican Grill currently operates less than 2000 restaurants, most of which are in the U.S., a minuscule number compared to the 35000+ McDonald's ..."
p4
aS'Nov 30, 2015 - Holzer investigates Chipotle. ... The price of Chipotle stock dropped dramatically on the news. If you purchased Chipotle common stock between October 21, ...'
p5
aS'Nov 30, 2015 - ... to print this article. Industry News Commercial Real Estate ... A new Chipotle Mexican Grill is coming to Sidney, the first location in Shelby County. A Chipotle ...'
p6
aS'Nov 30, 2015 - The price of Chipotle stock dropped dramatically on the news. .... All the news releases provided by Business Wire are copyrighted. Any forms of copying other ...'
p7
aS'Nov 30, 2015 - Posted in News. The beloved burrito chain Chipotle Mexican Grill has taken a blow after an outbreak of E. Coli. The bacteria plagued restaurants in Washington, ...'
p8
aS"Nov 29, 2015 - First things first, the breaking news of 45 people being sickened with E.coli's contamination linked to Chipotle's offerings sent share price of CMG down over 8% ..."
p9
aS"Nov 30, 2015 - The CDC's latest update on the food safety problems at Chipotle says whatever food or ingredient caused 45 people to become ill with E. coli is still unknown."
p10
a.