(lp0
S'Nov 6, 2015 - A pedestrian walks past a closed Chipotle restaurant Monday, Nov. ... Email Newsletter Signup Custom-curated news highlights, delivered weekday mornings.'
p1
aS'Nov 6, 2015 - The number of confirmed E. coli food poisoning cases linked to Chipotle ... to help fund medical bills for man with inoperable brain tumor Fox News Health.'
p2
aS'Nov 5, 2015 - Thirty-nine people in Washington and Oregon have fallen ill with E. coli in an outbreak connected to Chipotle Mexican restaurants. A total of 14 ill people have ...'
p3
aS'Nov 5, 2015 - As the E. coli outbreak believed to be linked to West Coast Chipotle restaurants grows, the U.S. Centers for Disease Control and Prevention announced it is using cutting-edge DNA technology to assist with the investigation. ... CDC officials said they are trying "to determine the DNA ...'
p4
aS'Nov 5, 2015 - Most reported eating at several Chipotle locations before falling ill. ... With a pinch of skepticism and a dash of fun, The Salt covers food news from the farm to the ...'
p5
aS'Nov 6, 2015 - Chipotle voluntarily closed down 43 of its locations in Washington and the ... his experience after reading comments in the news media and social media and ...'
p6
aS'Nov 6, 2015 - First Test Results Fail To Link Chipotle To E. Coli Outbreak ... Those results could help determine when and how Chipotle may start to reopen ... More News.'
p7
aS"Nov 5, 2015 - Chipotle E. coli victim says he will never go back: 'It doesn't seem to make sense to take that risk again' ... He said he respected Chipotle for its food integrity and animal welfare policies. But a week after being .... News Video. U.S. postage ..."
p8
aS'Nov 5, 2015 - Chipotle Responds To The E. Coli Scandal ... In the last three months Chipotle has caused three major outbreaks of foodborne illness, first ... Food News.'
p9
aS'Nov 5, 2015 - Chipotle closed 43 of its Pacific Northwest locations in response to an E. coli outbreak that health officials ... No comments have been posted to this News Article.'
p10
a.