(lp0
S"Nov 9, 2015 - Washington state health officials say they have found no source for the E. coli outbreak related to Chipotle and the chain's Pacific Northwest restaurants could ..."
p1
aS'Nov 9, 2015 - By Eric M. Johnson SEATTLE (Reuters) - Chipotle Mexican Grill Inc could reopen locations in Washington state and Oregon as soon as Wednesday after a batch ...'
p2
aS'Nov 9, 2015 - Chipotle restaurants in Washington could reopen as soon as Wednesday after tests ... Email Newsletter Signup Custom-curated news highlights, delivered ...'
p3
aS'Nov 9, 2015 - All tests of food from Chipotle stores in Washington and Oregon came back ... down food, call your doctor," said CBS News medical contributor Dr. Tara Narula.'
p4
aS'Nov 9, 2015 - Chipotle sued by Washington woman, Oregon man who contracted E. coli from .... 25 News Anchors That Are The Most Beautiful In The WorldMy Daily Viral.'
p5
aS'Nov 9, 2015 - Chipotle is preparing to reopen its stores in the Portland area and in Washington state following an E. coli outbreak that has ... Your Regional News Pages.'
p6
aS'Nov 8, 2015 - SEATTLE (AP)  A second Washington woman and an Oregon man who contracted E. coli after eating at a Chipotle franchise are suing the Mexican restaurant ...'
p7
aS'Nov 9, 2015 - Chipotle Mexican Grill Inc could reopen locations in Washington state and Oregon as soon as Wednesday after a batch ... Our top news photography this week.'
p8
aS"Nov 9, 2015 - The scare is the latest food concern at Chipotle, which is seen as a leader in fresh, sustainably grown and ethically raised food. ... What's news to what's next."
p9
aS"Nov 9, 2015 - The bad news for Chipotle just keeps on coming: Two more customers affected by the chain's E. coli outbreak are now suing. Per the New York Daily News, ..."
p10
a.