(lp0
S"Dec 18, 2015 - Chipotle Mexican Grill (ticker: CMG) can't seem to escape headlines that would shake .... U.S. News has analyzed over 4,500 stocks to help investors reach their ..."
p1
aS"Dec 17, 2015 - Chipotle shuttered dozens of restaurants after an E. coli outbreak that began in October. Steve Dykes/Getty ... See the latest news from NRN. It's uncertain ..."
p2
aS"Dec 17, 2015 - The decline in reputation is bad news for Chipotle. The Denver-based chain's sales had been slowing due to tough comparisons this year, growing just 2.6 ..."
p3
aS'Dec 18, 2015 - The mother of a 16-year-old suburban Boston boy who got sick after eating at a Chipotle Mexican Grill has filed a negligence lawsuit against the Denver-based ...'
p4
aS'Dec 17, 2015 - Two recent food-borne illness outbreaks later, Chipotle has another problem on its ... through advertising, news or word of mouth, was it positive or negative?'
p5
aS'Dec 18, 2015 - A lawsuit is filed Thursday against Chipotle after more than 140 people became ill with ... Home; / Local News ... BC students sickened after eating at Chipotle.'
p6
aS"Dec 17, 2015 - *laughs at Chipotle* so much for food with integrity #norovirus #bastards ... As Nation's Restaurant News points out, the Chipotle incident isn't in the same ..."
p7
aS'Dec 18, 2015 - Massachusetts mom sues Chipotle after 16-year-old son contracts norovirus. BY Laurie Hanna. NEW YORK DAILY NEWS. Updated: Friday, December 18, 2015 ...'
p8
aS"Dec 18, 2015 - Chipotle Mexican Grill (ticker: CMG) can't seem to escape headlines that would shake any food company. Then, in early December, more than 140 students at ..."
p9
aS'Dec 18, 2015 - The wave of people getting sick after eating at Chipotle restaurants may be getting a lot of attention, but such outbreaks of foodborne illness are unfortunately ...'
p10
a.