(lp0
S'Dec 16, 2015 - An E. coli outbreak linked to the Chipotle restaurant chain has already led to ... these enhanced standards," a Chipotle spokesman told ABC News last week.'
p1
aS'Dec 16, 2015 - The first report of illness at the Chipotle Mexican Grill at 1263 Simi Town Center Way came .... (To sign up for a free subscription to Food Safety News, click here.).'
p2
aS'Dec 16, 2015 - For the food safety community, however, Chipotle management has already gone public ... (To sign up for a free subscription to Food Safety News, click here.).'
p3
aS"Dec 15, 2015 - If you've been keeping up with the news in recent weeks, you've probably crossed Chipotle Mexican Grill off your list of grab-and-go dinner spots. The popular ..."
p4
aS"Dec 16, 2015 - Chipotle customers will not shoulder the costs of the company's lofty new food-safety goals."
p5
aS'Dec 17, 2015 - SEATTLE-- Perfect food safety is not possible, but Chipotle is trying to get as close to that ideal as it can with new ... Filed in: Health, News. Topics: chipotle ecoli.'
p6
aS'Dec 15, 2015 - DOW JONES, A NEWS CORP COMPANY .... Chipotle expects to lower its use of locally sourced ingredients and is centralizing the preparation of some ...'
p7
aS'Dec 16, 2015 - Jim Cramer speaks to the CEOs of Chipotle in the wake of recent E. coli and ... Global Business and Financial News, Stock Quotes, and Market Data and ...'
p8
aS"Dec 15, 2015 - 2015 Was Easily the Most Depressing Year in Chipotle's History ... or even care too much, though  a strangely unexpected bit of hopeful news for the chain."
p9
aS"Dec 15, 2015 - Fast food failures in 2015: Restaurant brawls, Dairy Queen disasters, meth milkshakes and Chipotle's double outbreak. BY Meg Wagner. NEW YORK DAILY ..."
p10
a.