(lp0
S"Dec 15, 2015 - The multistate E. coli outbreak linked to Chipotle that began in October has garnered extensive national coverage, but it's just one of five outbreaks the fast ..."
p1
aS"Dec 15, 2015 - If you've been keeping up with the news in recent weeks, you've probably crossed Chipotle Mexican Grill off your list of grab-and-go dinner spots. The popular ..."
p2
aS'Dec 14, 2015 - The norovirus outbreak in the east follows news that Chipotle was lowering its financial forecast for 2016, as it works to rebound after E. Coli contamination ...'
p3
aS'Dec 15, 2015 - DOW JONES, A NEWS CORP COMPANY .... Chipotle expects to lower its use of locally sourced ingredients and is centralizing the preparation of some ...'
p4
aS"Dec 14, 2015 - Chipotle Mexican Grill's reputation suffered a major blow when the company had to close 43 of its restaurants in the greater Seattle and Portland areas for nearly ..."
p5
aS'Dec 15, 2015 - SEATTLE (AP)  Perfect food safety is not possible, but Chipotle is trying to get as close to that ideal as they can with new procedures and testing inside and ...'
p6
aS"Dec 14, 2015 - Here's the real problem for Chipotle, says crisis-management expert Eric Dezenhall. ... Oil spills fall out of the news when ocean floor leaks are plugged; retailers ..."
p7
aS"Dec 15, 2015 - 2015 Was Easily the Most Depressing Year in Chipotle's History ... or even care too much, though  a strangely unexpected bit of hopeful news for the chain."
p8
aS"Dec 14, 2015 - What's particularly bad for Chipotle is that the news strikes at the heart of the company's brand and marketing. Chipotle's motto is Food with Integrity, and for ..."
p9
aS"Dec 15, 2015 - Fast food failures in 2015: Restaurant brawls, Dairy Queen disasters, meth milkshakes and Chipotle's double outbreak. BY Meg Wagner. NEW YORK DAILY ..."
p10
a.