(lp0
S"Dec 9, 2015 - What's more, the avalanche of unfortunate news has yet to subside: On Monday, 30 students at Boston College fell ill after eating at a local Chipotle, leading the ..."
p1
aS'Dec 9, 2015 - The norovirus outbreak at a Boston-area Chipotle that left at least 120 ... "You only need a handful; two, three, four [virus particles]," Edwards told ABC News.'
p2
aS'Dec 9, 2015 - At least 120 Boston College students and others from the surrounding community who ate at a local Chipotle have been sickened by norovirus, a fast-spreading bug that causes violent stomach illness. ... Health officials initially suspected E. coli for the Boston outbreak due to similar ...'
p3
aS'Dec 9, 2015 - The number students ill with norovirus hits triple digits as Chipotle scrubs down location in Boston. ... popular painkillers. CBS News December 9, 2015, 2:28 PM ...'
p4
aS'Dec 10, 2015 - Last Updated Dec 10, 2015 6:12 PM EST. NEW YORK -- Chipotle Mexican Grill (CMG) founder and co-CEO Steve Ells apologized for the outbreak of E. coli that ...'
p5
aS'Dec 9, 2015 - Outbreaks of foodborne illness are ruining the holiday spirit for Chipotle. ... With a pinch of skepticism and a dash of fun, The Salt covers food news from the farm ...'
p6
aS'Dec 9, 2015 - Chipotle Mexican Grill was still closed after at least 80 students have fallen ill after eating there. ... Bay State inspectors set to grill Chipotle .... 1336 shares News ...'
p7
aS'Dec 10, 2015 - Chipotle Mexican Grill has long promoted what it calls its food with integrity: fresh food without artificial flavors and genuine raw ... National & International News.'
p8
aS'Dec 10, 2015 - The founder and CEO of Mexican fast-food chain Chipotle told the "TODAY" show Thursday morning he\'s "deeply sorry" for the ... National & International News.'
p9
aS'Dec 10, 2015 - Chipotle founder and co-CEO Steve Ells apologized to those who have been ... Global Business and Financial News, Stock Quotes, and Market Data and ...'
p10
a.