(lp0
S'Dec 16, 2015 - An E. coli outbreak linked to the Chipotle restaurant chain has already led to ... these enhanced standards," a Chipotle spokesman told ABC News last week.'
p1
aS"Dec 17, 2015 - Chipotle shuttered dozens of restaurants after an E. coli outbreak that began in October. Steve Dykes/Getty ... See the latest news from NRN. It's uncertain ..."
p2
aS"Dec 17, 2015 - The decline in reputation is bad news for Chipotle. The Denver-based chain's sales had been slowing due to tough comparisons this year, growing just 2.6 ..."
p3
aS'Dec 16, 2015 - The first report of illness at the Chipotle Mexican Grill at 1263 Simi Town Center Way came .... (To sign up for a free subscription to Food Safety News, click here.).'
p4
aS'Dec 17, 2015 - Two recent food-borne illness outbreaks later, Chipotle has another problem on its ... through advertising, news or word of mouth, was it positive or negative?'
p5
aS"Dec 17, 2015 - *laughs at Chipotle* so much for food with integrity #norovirus #bastards ... As Nation's Restaurant News points out, the Chipotle incident isn't in the same ..."
p6
aS"Dec 16, 2015 - Chipotle customers will not shoulder the costs of the company's lofty new food-safety goals."
p7
aS"Dec 16, 2015 - From Yahoo Finance: Chipotle customers will not shoulder the costs of the company's lofty new food-safety goals. CEO..."
p8
aS'Dec 17, 2015 - SEATTLE-- Perfect food safety is not possible, but Chipotle is trying to get as close to that ideal as it can with new ... Filed in: Health, News. Topics: chipotle ecoli.'
p9
aS'Dec 16, 2015 - Chipotle founder Steve Ells took out a full-page advertisement in The Boston Globe on Wednesday morning to apologize for the recent ... TOPICS: Local News.'
p10
a.