(lp0
S"Dec 22, 2015 - Just when it looked like it might be safe once again to eat at Chipotle, a new spate of ... Chipotle's troubles now because they've already been in the news once."
p1
aS'Dec 23, 2015 - A Chipotle restaurant worker prepares a dish on April 27, 2015 in Miami. The company says it is changing its food prep procedures following an E. coli outbreak ...'
p2
aS'Dec 23, 2015 - Chipotle is changing its cooking methods in an effort to address food safety concerns sparked by an E. coli outbreak at ... News navigation ... Chipotle food prep ...'
p3
aS"Dec 23, 2015 - And clearly it was that CDC report that dropped Chipotle's stock at closing on Tuesday to ... (To sign up for a free subscription to Food Safety News, click here.)."
p4
aS'Dec 22, 2015 - Sales growth was already starting to slow at Chipotle before the E. coli news. But the company warned earlier this month that it now expects sales to fall sharply ...'
p5
aS'Dec 23, 2015 - Tags: Chipotle e.coli outbreak, corporate sabotage, biotech bioterrorism ... Get breaking news alerts on GMOs, fluoride, superfoods, natural cures and more.'
p6
aS'Dec 22, 2015 - A second E. coli incident linked to Chipotle restaurants has highlighted the ... is now reporting some additional cases," Arnold told ABC News today via email.'
p7
aS"Dec 22, 2015 - Chipotle's reputation has taken hits in recent weeks and the fast-food chain may have a long road ahead in winning back customers. The Centers for Disease ..."
p8
aS'Dec 23, 2015 - Amid an ongoing E. coli outbreak investigation at Chipotle Mexican Grill, the Food and Drug ... OK, panicnewly evolved ransomware is bad news for everyone.'
p9
aS'Dec 22, 2015 - The bad news keeps coming for Chipotle (CMG - Get Report) , with news of another investigation of cases of E.Coli linked to eating at its restaurants sending ...'
p10
a.