(lp0
S"Dec 29, 2015 - Chipotle is still trying to put the recent E. coli and norovirus outbreaks behind it. ... Chipotle shares have plunged and it's the butt of jokes - can it recover in 2016? by Ahiza Garcia @ahiza_garcia ..... 2016 Cable News Network. A Time Warner ..."
p1
aS'Dec 29, 2015 - "It is important to note that noroviruses are very common, in part because they are so easily transmitted," Chipotle spokesman Chris Arnold told ABC News this ...'
p2
aS'Dec 28, 2015 - CHICAGO  Chipotle Mexican Grill said on Thursday it may never pinpoint what caused an E. coli outbreak last month linked to two restaurants in Kansas and ...'
p3
aS'Dec 28, 2015 - Chipotle Mexican Grill Inc said it reopened its Boston restaurant, which was linked ... New LVMH sales miss, same old problems for luxury sector. News.Markets.'
p4
aS'Dec 28, 2015 - A sign showing that the Chipotle Mexican Grill in the Cleveland Circle area of ... BOSTON -- A Chipotle restaurant near Boston College has reopened several .... and tablet, download the FREE redesigned app, featuring CBSN, live 24/7 news.'
p5
aS"Dec 29, 2015 - Boston College students can once again eat Chipotle burritos without fear, according to the head of Boston's restaurant inspection ... Breaking News newsletter."
p6
aS'Dec 29, 2015 - The bad news for those who wish to assess the value of Chipotle is that each of those numbers is a complete mystery. When Chipotle updated shareholders ...'
p7
aS'Dec 28, 2015 - A Chipotle near Boston College has reopened weeks after 136 students and other ... Global Business and Financial News, Stock Quotes, and Market Data and ...'
p8
aS'Dec 28, 2015 - (Reuters) - Chipotle Mexican Grill Inc said it reopened its Boston restaurant, which was linked to a norovirus outbreak that sickened more than 130 people earlier ...'
p9
aS'Dec 29, 2015 - In The Wall Street Journal, Holman W. Jenkins, Jr., writes that Chipotle means ... in the worlds of diversified media, news, education, and information services.'
p10
a.