(lp0
S'Dec 23, 2015 - A Chipotle restaurant worker prepares a dish on April 27, 2015 in Miami. The company says it is changing its food prep procedures following an E. coli outbreak ...'
p1
aS'Dec 23, 2015 - Chipotle is changing its cooking methods in an effort to address food safety concerns sparked by an E. coli outbreak at ... News navigation ... Chipotle food prep ...'
p2
aS'Dec 23, 2015 - Chipotle is expected to be cleared to reopen its Cleveland Circle location after ... Home; / Local News ... Chipotle to reopen Thursday after norovirus outbreak.'
p3
aS'Dec 23, 2015 - Chipotle spokesperson Chris Arnold told ABC News today that the Boston restaurant will be "resupplied and reopened quickly." How Chipotle Can Recover ...'
p4
aS'Dec 24, 2015 - Chipotle Mexican Grill said on Thursday it may never pinpoint what caused an E. coli outbreak last month linked to two ... Our top news photography this week.'
p5
aS'Dec 23, 2015 - Amid an ongoing E. coli outbreak investigation at Chipotle Mexican Grill, the Food and Drug ... OK, panicnewly evolved ransomware is bad news for everyone.'
p6
aS"Dec 24, 2015 - Has bad press taken a bite of Chipotle's sales? ... Chipotle did not immediately respond to CNBC's request for comment. ... Anita BalakrishnanNews Associate ..."
p7
aS'Dec 23, 2015 - A steak burrito with a drink and bags of chips at a Chipotle Mexican Grill Inc. Patrick T. Fallon .... That is their differentiator." Anita BalakrishnanNews Associate ...'
p8
aS'Dec 24, 2015 - Chipotle Mexican Grill restaurants announced plans to modify its sanitation procedures in a bid to shore up food safety and win back ... Home / Business News ...'
p9
aS'Dec 23, 2015 - Chipotle Mexican Grill expands on food safety efforts in wake of outbreaks. ... Chipotle outlines new cooking methods after foodborne illness outbreaks. Chain expands on food safety efforts in ... See the latest news from NRN. In an interview ...'
p10
a.