(lp0
S'Dec 28, 2015 - CHICAGO  Chipotle Mexican Grill said on Thursday it may never pinpoint what caused an E. coli outbreak last month linked to two restaurants in Kansas and ...'
p1
aS'Dec 28, 2015 - A sign showing that the Chipotle Mexican Grill in the Cleveland Circle area of ... BOSTON -- A Chipotle restaurant near Boston College has reopened several .... and tablet, download the FREE redesigned app, featuring CBSN, live 24/7 news.'
p2
aS'Dec 27, 2015 - Chipotle\'s sales and stock price are getting hammered in the midst of E. coli ... "The new news flow shows the impact continuing and more importantly a ...'
p3
aS'Dec 28, 2015 - Chipotle Mexican Grill Inc said it reopened its Boston restaurant, which was linked ... New LVMH sales miss, same old problems for luxury sector. News.Markets.'
p4
aS'Dec 27, 2015 - The Chipotle restaurant connected with a norovirus outbreak at Boston College ... Home; / Local News ... The Chipotle restaurant had been closed since Dec.'
p5
aS'Dec 28, 2015 - (Reuters) - Chipotle Mexican Grill Inc said it reopened its Boston restaurant, which was linked to a norovirus outbreak that sickened more than 130 people earlier ...'
p6
aS'Dec 27, 2015 - Chelsea Schilling is a news and commentary editor for WND and a proud U.S. Army ... Can Chipotle survive its foodborne illness outbreaks as once-loyal ...'
p7
aS'Dec 28, 2015 - A Chipotle near Boston College has reopened weeks after 136 students and other ... Global Business and Financial News, Stock Quotes, and Market Data and ...'
p8
aS'Dec 28, 2015 - After an E. coli outbreak that sickened more than 50 people, Chipotle is tweaking its ... Claims Journal - Insurance news and resources for claims adjusters ...'
p9
aS"Dec 28, 2015 - We've now seen Chipotle close lower in nine of the past 11 weeks, and the ... was closed on Friday, given the way they were pelted with negative news on a ..."
p10
a.