(lp0
S'Dec 30, 2015 - A Chipotle Mexican Grill employee prepares food in a Seattle location. (AP File Photo). After an E. coli outbreak that has sickened more than 50 people across ...'
p1
aS'Dec 30, 2015 - An article claimed Chipotle was "sabotaged" by pro-GMO activists but ... (The incidents also reinvigorated fake news rumors about Chipotle\'s using dog or cat ...'
p2
aS"Dec 31, 2015 - Here's why you should ignore the Pollyannaish arguments that Chipotle can turn things around. ... And then came the sudden (and rather appalling) news."
p3
aS'Dec 31, 2015 - "Chipotle\'s E. coli outbreaks are not random chance," reads an article published on the website Natural News that has been shared widely on social media.'
p4
aS'Dec 31, 2015 - Chipotle: E. Coli Problem Has Gone from Bad to Worse (Watch). Dec 31, 15 by Brainuser1 2 ... Got A News Tip or Video You Want to Share? Contact us HERE.'
p5
aS'Dec 31, 2015 - Chipotle Mexican Grill Inc., pummeled by E. coli and norovirus outbreaks this ... public information like news articles -- dropped 21 percent year over year as of ...'
p6
aS'Dec 31, 2015 - Lower commodity prices, problems at Chipotle cause Colorado stock index to underperform. By Aldo Svaldi .... Submit a news tip or photo. Email or call ...'
p7
aS'Dec 31, 2015 - Chipotle Mexican Grill will be changing its cooking methods and recipes amid the recent E. coli outbreak. ... News Everyday  Home  News  World  Politics ...'
p8
aS"Dec 31, 2015 - Chipotle Mexican Grill, Inc. (CMG) was once the apple of every investor's eye with revenues exhibiting a phenomenal CAGR of more than 23%, since going ..."
p9
aS'Dec 30, 2015 - New trendy flavors Sriracha Mango and Chipotle Pineapple ring in the New Year ... for the success of our Flip platform, Gonda said, according to Times-News.'
p10
a.