(lp0
S'Dec 4, 2015 - A widening U.S. E. coli outbreak has slammed sales at Chipotle Mexican Grill Inc, the company said on Friday, hours ... Our top news photography this week.'
p1
aS'Dec 4, 2015 - An outbreak of E. coli linked to Chipotle restaurants has sickened seven more people and expanded to three additional states.'
p2
aS'Dec 4, 2015 - Pedestrians walk past a closed Chipotle restaurant Nov. 9, 2015, in Seattle. The Mexican Grill shuttered over 40 Pacific Northwest locations in the wake of an ...'
p3
aS'Dec 4, 2015 - Chipotle says it is tightening its food safety standards after its restaurants were linked to dozens of cases of E. coli.'
p4
aS'Dec 4, 2015 - Shares are sliding on the news. Chipotle warned investors that if sales woes stemming from a E. coli outbreak continue, the Mexican restaurant chain will report ...'
p5
aS'Dec 4, 2015 - A widening U.S. E. coli outbreak has slammed sales at Chipotle Mexican Grill Inc, the company said on Friday, hours after federal authorities reported that ...'
p6
aS'Dec 4, 2015 - FILE - This Tuesday, Jan. 28, 2014, file photo, shows the door at a Chipotle Mexican Grill in Robinson Township, Pa. Chipotle says it is tightening its food safety ...'
p7
aS'Dec 4, 2015 - Earlier Friday, Chipotle investors received even more bad news, with the CDC reporting that the E. coli strain had spread to three more states. A total of 52 ...'
p8
aS'Dec 4, 2015 - Reporting on these cases can take time, and what we are seeing now is that reporting lag, Chipotle spokesman Chris Arnold told BuzzFeed News. That kind of ...'
p9
aS'Dec 4, 2015 - E. Coli Outbreak Linked to Chipotle Widens, With 52 Sickened in 9 States ... who eat A get sick and people eat B do not," Schaffner explained to ABC News.'
p10
a.