(lp0
S'Dec 7, 2015 - A Chipotle restaurant has been shut down due to an outbreak of illness among ... The Boston College office of communications provided CBS News with a ...'
p1
aS"Dec 7, 2015 - Chipotle's meteoric sales growth moderated even before its E. coli problems surfaced. ... The news surprised many Wall Street analysts, prompting a wave of ..."
p2
aS'Dec 7, 2015 - Chipotle Mexican Grill Inc., struggling to contain the damage from an E. coli outbreak at its restaurants, fell in New York trading after rescinding its 2016 forecast ...'
p3
aS"Dec 7, 2015 - BOSTON  More than 20 Boston College students, including at least eight members of the men's basketball team, complained of gastrointestinal symptoms ..."
p4
aS'Dec 6, 2015 - Chipotle Increases Its Safety Measures as E. Coli Outbreak Spreads to Nine States ... The news follows a rough couple of months for the Denver-based company ...'
p5
aS'Dec 7, 2015 - Chipotle said Monday that it temporarily closed a restaurant in Boston after several students at Boston College, including members ... Breaking News newsletter.'
p6
aS'Dec 7, 2015 - UPDATE: A spokesman for Chipotle Mexican Grill says that the ... The latest bad news for the Denver-based fast-casual restaurant chain began after several ...'
p7
aS'Dec 7, 2015 - Chipotle said late Monday that it closed the restaurant after several students at Boston .... The information contained in the AP News report may not be published, ...'
p8
aS"Dec 7, 2015 - Chipotle's E. coli problem may have spread to Boston. Reports on Monday from SB Nation's Boston College blog and local Boston news stations indicate that a ..."
p9
aS'Dec 7, 2015 - IN THE NEWS ... Cleveland Circle Chipotle Closes After Several BC Students Sickened ... People stand inside a closed Chipotle restaurant on Monday in the ...'
p10
a.