(lp0
S'Dec 8, 2015 - 80 Students Sickened in Latest Chipotle Outbreak 0:21 ... consistent with the pattern, in our estimation," Chipotle spokesman Chris Arnold told NBC News.'
p1
aS'Dec 8, 2015 - Boston College said Tuesday the number of students complaining of gastrointestinal symptoms after eating at a Chipotle this weekend has climbed to 80, ...'
p2
aS'Dec 8, 2015 - An E.coli outbreak linked to Chipotle was thought to have ended in November. ... here," Chipotle spokesman Chris Arnold told ABC News in a statement today.'
p3
aS'Dec 8, 2015 - Advertisement. Chipotle Mexican Grill Inc. plans to become the best in the world at food safety, company officials said Tuesday. ... See the latest news from NRN.'
p4
aS'Dec 8, 2015 - Chipotle Mexican Grill temporarily closed a Boston outlet following reports that ... in the worlds of diversified media, news, education, and information services.'
p5
aS'Dec 7, 2015 - A Chipotle restaurant has been shut down due to an outbreak of illness among ... The Boston College office of communications provided CBS News with a ...'
p6
aS"Dec 7, 2015 - Chipotle's meteoric sales growth moderated even before its E. coli problems surfaced. ... The news surprised many Wall Street analysts, prompting a wave of ..."
p7
aS'Dec 7, 2015 - Chipotle Mexican Grill Inc., struggling to contain the damage from an E. coli outbreak at its restaurants, fell in New York trading after rescinding its 2016 forecast ...'
p8
aS'Dec 9, 2015 - Home; / Local News. 80 BC students report getting sick after eating at Chipotle ... of illnesses among Boston College students," Chipotle said in a statement.'
p9
aS'Dec 8, 2015 - Boston College says students sick after eating at Chipotle ...... The news comes amid an E. coli outbreak linked to other Chipotle Mexican restaurants that has ...'
p10
a.