(lp0
S"Dec 9, 2015 - What's more, the avalanche of unfortunate news has yet to subside: On Monday, 30 students at Boston College fell ill after eating at a local Chipotle, leading the ..."
p1
aS'Dec 9, 2015 - The norovirus outbreak at a Boston-area Chipotle that left at least 120 ... "You only need a handful; two, three, four [virus particles]," Edwards told ABC News.'
p2
aS'Dec 8, 2015 - 80 Students Sickened in Latest Chipotle Outbreak 0:21 ... consistent with the pattern, in our estimation," Chipotle spokesman Chris Arnold told NBC News.'
p3
aS'Dec 9, 2015 - At least 120 Boston College students and others from the surrounding community who ate at a local Chipotle have been sickened by norovirus, a fast-spreading ...'
p4
aS'Dec 8, 2015 - Advertisement. Chipotle Mexican Grill Inc. plans to become the best in the world at food safety, company officials said Tuesday. ... See the latest news from NRN.'
p5
aS'Dec 8, 2015 - Chipotle Mexican Grill temporarily closed a Boston outlet following reports that ... in the worlds of diversified media, news, education, and information services.'
p6
aS'Dec 9, 2015 - The number students ill with norovirus hits triple digits as Chipotle scrubs down location in Boston. ... popular painkillers. CBS News December 9, 2015, 2:28 PM ...'
p7
aS'Dec 9, 2015 - Outbreaks of foodborne illness are ruining the holiday spirit for Chipotle. ... With a pinch of skepticism and a dash of fun, The Salt covers food news from the farm ...'
p8
aS'Dec 9, 2015 - Health officials across the Bay State are inspecting their Chipotle restaurants after a massive ... Bay State inspectors set to grill Chipotle .... 3077 shares News ...'
p9
aS'Dec 9, 2015 - Chipotle Mexican Grill was still closed after at least 80 students have fallen ill after eating there. ... Bay State inspectors set to grill Chipotle .... 1336 shares News ...'
p10
a.