(lp0
S'Jan 13, 2015 - NEW YORK - Chipotle (CMG) says it stopped serving pork at about a third of its restaurants after suspending a supplier that violated its standards. Chris Arnold ...'
p1
aS'Jan 13, 2015 - Chipotle says it stopped serving pork at hundreds of its restaurants after suspending a supplier that violated its standards.'
p2
aS'Jan 13, 2015 - Chipotle Mexican Grill Inc. suspended sales of pork at about a third of its more ... in the worlds of diversified media, news, education, and information services.'
p3
aS'Jan 13, 2015 - Chipotle says it stopped serving pork at about a third of its restaurants after suspending a supplier that violated its standards.. Live-updated Colorado news, ...'
p4
aS'Jan 13, 2015 - From Yahoo Finance: Chipotle says it stopped serving pork at hundreds of its ... The information contained in the AP News report may not be published, ...'
p5
aS'Jan 13, 2015 - Chipotle restaurants nationwide are introducing a new product called Sofritas, which is chunks of organic, vegan tofu intended to be added to burritos, tacos and ...'
p6
aS'Jan 13, 2015 - Good news for Chipotle fans: The chain recently announced it is giving away free burritos, bowls, tacos, and salads at all US locations starting Tuesday, January ...'
p7
aS'Jan 14, 2015 - Chipotle Mexican Grill Inc said it would suspend pork sales at about a third of its U.S. restaurants, following a ... The most reliable source for Las Vegas news.'
p8
aS"Jan 13, 2015 - Chipotle Mexican Grill Inc saidit would suspend pork sales at about a third of its ... Thomson Reuters is the world's largest international multimedia news agency, ..."
p9
aS'Jan 13, 2015 - Denver-based Chipotle drops carnitas from the menu at a third of its fast-casual Mexican ... WATCH: Watch the latest news updates on DPTV with Molly Hughes ...'
p10
a.