(lp0
S'Jan 26, 2015 - Chipotle is basically offering a two-for-the-price-of-one deal on Monday. Photo: Getty Images, Chipotle. Originally Published By: logo-fox-news. Chipotle really ...'
p1
aS'Jan 26, 2015 - This Monday, Jan 26. all Chipotle restaurants in the U.S. and Canada are offering a free burrito bowl, burrito, salad or tacoswith any protein of your choiceto ...'
p2
aS"Jan 27, 2015 - Best-selling Author Jonathan Safran Foer Returns as Curator, with 10 New and Notable Writers Creating Original Stories to be Featured on Chipotle's Packaging."
p3
aS"Jan 26, 2015 - Chipotle will dish out free burritos in the coming days  but there's a catch."
p4
aS"Jan 26, 2015 - Looking to score some free Chipotle on Monday? OK, here's ... Go to your local Chipotle restaurant and order the Mexican grill's new vegan-and ... MORE NEWS."
p5
aS"Jan 26, 2015 - Chipotle will dish out free burritos in the coming days  but there's a catch. ... 15 to score the free meal. Copyright 2015 WXIX. All rights reserved. IN THE NEWS ..."
p6
aS"Jan 26, 2015 - Chipotle offers up free entrees in Monday promotion ... On Monday only, anyone who orders Chipotle's Sofritas  described as organic, ... Latest News."
p7
aS"Jan 26, 2015 - Chipotle is promoting it's new tofu Sofritas today. Find out how to ... Home  News .... Chipotle is located on Staples and McArdle, across from La Palmera mall."
p8
aS'Jan 26, 2015 - If you go to any Chipotle and order a sofrita, you can bring back your receipt and get a free burrito, ... 28.. Local News, Weather Sports | Baltimore, MD | WMAR-TV.'
p9
aS'Jan 26, 2015 - Chipotle Mexican Grill Inc. is scheduled to release earnings data on July 18. ... News  A nighttime exterior image of the Chipotle Mexican Grill located in the ...'
p10
a.