(lp0
S"Jan 5, 2015 - Rubio's Fresh Mexican Grill beat out Chipotle in a recent Consumer Reports ... She writes breaking news about all things food and drink, and could live off of ..."
p1
aS"Jan 5, 2015 - Though there aren't as many locations as Chipotle with 1,700 restaurants across the country, the California-based chain ... Connect With Franchise News."
p2
aS"Jan 5, 2015 - Rubio's Fresh Mexican Grill tastes better than Chipotle, according to a recent Consumer Reports survey. Rubio's won the Mexican category with a score of 84, ..."
p3
aS'Jan 4, 2015 - The building will host a Chipotle Mexican Grill, Potbelly Sandwich Shop and two other ... News. Sports. Biz. A&E. Email. Life. Macomb Township teen reported ...'
p4
aS"Jan 5, 2015 - A Consumer Reports survey's surprising results show that Chipotle is not America's best Mexican fast food chain. See who is..."
p5
aS"Jan 5, 2015 - According to a new survey from YouGov, Jimmy John's, Chipotle, Chick-Fil-A, and Whataburger, respectively, have the highest current millennial customer ..."
p6
aS"Jan 4, 2015 - Chipotle has established itself as a favorite in the world of casual Mexican food dining, but apparently, there's ... Joe Raedle/Getty Images News/Getty Images."
p7
aS'Jan 4, 2015 - Since the opening of its first restaurant in Denver, Colorado in 1993, Chipotle has set ..... from http://www.fastcasual.com/news/chipotle-launches-farmed-and- ...'
p8
aS'Jan 4, 2015 - Discover thousands of images about Chipotle Restaurant Recipes on Pinterest, a visual bookmarking tool ... Chipotle Guacamole Recipe | Recipe - ABC News.'
p9
aS"Jan 5, 2015 - The student news site of Cinnaminson High School. ... Recently, Mexican food chains, such as Chipotle, Qdoba, Moe's, and Pancheros, have become more and ..."
p10
a.