(lp0
S'Jan 8, 2015 - Chipotle Will Give You Free Food, but You Have to Try Their Tofu. Food News 1/8/2015. Isai Rocha. MeatlessMonday. Not sure if Chipotle is trying to convert us ...'
p1
aS"Jan 9, 2015 - Chipotle is offering free burritos, bowls, and tacos on January 26th. ... Filed in: News. Suggest a ... Here's how to get your free Chipotle burrito 'raincheck'  News ..."
p2
aS'Jan 9, 2015 - Chipotle really loves their fairly new vegan protein option, Sofritas, and they want you to love it, too. So, carnivores, we have some good news for you: if you ...'
p3
aS'Jan 9, 2015 - Folks could be in a hurry to get some Chipotle on Monday, Jan. ... Get free daily newsletters and real-time news alerts from the Lake Elsinore-Wildomar Patch.'
p4
aS'Jan 9, 2015 - Greenwich, CT - The nearest Chipotle is on Greenwich Avenue in Greenwich. Buy the ... To sign up for Greenwich breaking news alerts and more, click here.'
p5
aS'Jan 8, 2015 - Dixon, CA - Chipotle is located at 1620 E Monte Vista Ave. in Vacaville and 227 E. ... Get free daily newsletters and real-time news alerts from the Dixon Patch.'
p6
aS'Jan 9, 2015 - Tiverton-Little Compton, RI - Head to your closest Chipotle to claim your free burrito. ... Show Comments. News from Across Rhode Island. 17 RI Illegal Gambling ...'
p7
aS'Jan 8, 2015 - Filed Under: chipotle, Free. (Photo by Joe Raedle/Getty Images). MIAMI, FL - MARCH 05: A Chipotle restaurant is seen on March 5, 2014 in ... MORE NEWS.'
p8
aS"Jan 8, 2015 - Read our lips: free Chipotle. But there's a catch. If, that is, you think of meat-free eating as a catch. See also: Vegans Rejoice! Chipotle Presents..."
p9
aS'Jan 9, 2015 - A New York federal court has granted Chipotle Mexican Grill Inc. an additional three weeks to produce attorney-client communications in a collective action ...'
p10
a.