(lp0
S'Feb 17, 2015 - How healthy are the meals people actually order for themselves at Chipotle? We decided to try to find out.'
p1
aS'Feb 17, 2015 - Chipotle somehow feels healthier than other fast food. The meat is grilled, not fried! There are vegetables! Guac is green! Unfortunately, a new study in The New ...'
p2
aS"Feb 17, 2015 - That's not all the bad news: The data suggests that most Chipotle orders also come with a full day's recommended amount of of sodium, plus 75 percent of the ..."
p3
aS'Feb 17, 2015 - The New York Times found that the typical Chipotle order has about 1000 calories. 1 in every 10 meals has more than 1600 calories -- but with the right ...'
p4
aS'Feb 17, 2015 - NEWS: Chipotle has a carnitas shortage, so it\'s probably the end of the world. Of course, restaurant-goers aren\'t always eating the "typical" order. There\'s not a ...'
p5
aS"Feb 16, 2015 - Chipotle Mexican Grill says it's bringing dozens of new jobs to the Omaha area with a new restaurant opening in Papillion in March."
p6
aS"Feb 17, 2015 - One order at Chipotle has been exposed as half a day's calories wrapped inside ... Sean Levinson is a Senior News Writer for Elite Daily, first joining as an editor ..."
p7
aS"Feb 17, 2015 - I can generally get two meals out of a Chipotle burrito. Many do, of course, but that can't be sussed out of the data they used. In addition, the chips sides are ..."
p8
aS'Feb 17, 2015 - Chipotle might advertise better quality ingredients than its fast food rivals, but that ... The news comes as Chipotle has been deemed a business powerhouse in ...'
p9
aS'Feb 17, 2015 - Chipotle burritos may not be made from deconstructed yoga mats, but that ... Get the tastiest food news, restaurant openings and more every Friday with the ...'
p10
a.