(lp0
S"Feb 4, 2015 - The burrito chain's shares got hit on its earnings report, but Chipotle is hell bent on winning the fast-food war. Here's how company executives say they will do it."
p1
aS"Feb 4, 2015 - Chipotle stock dropped following a Q4 earnings report that didn't meet Wall ... Follow him on Twitter for the latest news and commentary on the airline industry!"
p2
aS"Feb 4, 2015 - Chipotle's 2014 fourth quarter report was good, but it just wasn't perfect. ... See: Chipotle shares tumble after earnings report ... More News from MarketWatch."
p3
aS'Feb 4, 2015 - While Chipotle Mexican Grill faces short-term headwinds, investors need to be wary of overreacting ... An immersive hub for financial news, analysis, market data.'
p4
aS'Feb 4, 2015 - News, Markets and Analysis for the Food Processing Industry. ... In January, Chipotle pulled pork carnitas from a third of restaurants following a supplier issue.'
p5
aS'Feb 5, 2015 - Feeling poetic? Like burritos? At 10 a.m. Thursday the Chipotle Burrito Love Haiku Contest started. It is open to U.S. residents age 14 or older and ends on Feb.'
p6
aS'Feb 4, 2015 - Chipotle Mexican Grill Inc. does not plan to raise menu prices across the board ... You can access more in-depth stories and analysis, as well as news not found ...'
p7
aS"Feb 4, 2015 - Chipotle CEO called McDonald's chicken farm in Arkansas 'absolutely the most disgusting thing' ... News This Second (@NewsThisSecond) February 4, 2015."
p8
aS"Feb 4, 2015 - McDonald's $50 million investment in Chipotle in 1998 was a bit of a mixed blessing for the burrito giant."
p9
aS"Feb 4, 2015 - It's been less than a year since Chipotle increased prices. Will another beef ... Global Business and Financial News, Stock Quotes, and Market Data and Analysis."
p10
a.