(lp0
S'Feb 5, 2015 - Feeling poetic? Like burritos? At 10 a.m. Thursday the Chipotle Burrito Love Haiku Contest started. It is open to U.S. residents age 14 or older and ends on Feb.'
p1
aS"Feb 6, 2015 - The two biggest inspirations: burrito giant Chipotle, launched almost 22 years ... I think it's great news that other people are applying different kinds of cuisines to ..."
p2
aS'Feb 6, 2015 - Want more Chipotles in America? You\'ll have to give up your seat. News broke last July that Chipotle was thinking of building "really small" versions that nixed ...'
p3
aS"Feb 5, 2015 - Chipotle wants to add thousands more stores in the US, and many could be 'mini ... If Chipotle goes small, other chains may soon follow. ... Latest News ..."
p4
aS"Feb 6, 2015 - The quick-service operator played an important role in Chipotle's success. ... You can access more in-depth stories and analysis, as well as news not found on ..."
p5
aS'Feb 6, 2015 - Chipotle has been a pioneer in making fast food healthier. Next it plans to remove all GMOs from its food, improve the genetics of the chicken it sources and ...'
p6
aS'Feb 5, 2015 - <p>TORIN HALSEY/TIMES RECORD NEWS Chipotle Mexican Grill Area Manager Jim Austin, left, and Tony Hughes, general manager for the new Wichita Falls ...'
p7
aS"Feb 6, 2015 - Argus analyst John Staszak explains why he thinks investors overreacted to Chipotle Mexican Grill's (CMG) earnings: Bloomberg News Although the shares of ..."
p8
aS'Feb 6, 2015 - We end up going to Chipotle. People are two things: really busy and really strapped for cash. Affordable options are really hard to come by .... News of the Weird ...'
p9
aS'Feb 5, 2015 - Chipotle Mexican Grill #517 1144 Elden Street 22-Jan-2015 2 Critical Violations ... School Bus Camera Traffic Tickets, Search for Relisha Rudd: News Nearby.'
p10
a.