(lp0
S'Mar 11, 2015 - Rubio\'s Fresh Mexican Grill tastes better than Chipotle, according to a recent Consumer ... that\'s what our customers want," Rubio told Nation\'s Restaurant News.'
p1
aS"Mar 11, 2015 - Shares of Chipotle Mexican Grill (CMG) are up after Credit Suisse initiated coverage on the ... Access to Jim Cramer's daily blog; Intraday commentary and news ..."
p2
aS'Mar 10, 2015 - Chipotle Mexican Grill (NYSE:CMG) has generously rewarded shareholders in recent years, with its stock climbing more than 492% over the past five years.'
p3
aS"Mar 11, 2015 - First Look: Chapati Indian Grill, the Latest 'Chipotle Version of' Posted By Douglas .... Subscribe now to get the latest news delivered right to your inbox."
p4
aS'Mar 10, 2015 - Chipotle Mexican Grill ( CMG ), the leader in the fast-casual segment, is one of the fastest growing restaurant brands in the U.S. The burrito maker.'
p5
aS"Mar 11, 2015 - Chipotle Challenger Qdoba has named Pereira & O'Dell its new lead ... Chipotle Challenger Qdoba Taps Pereira & O'Dell as Lead Agency ... What's news"
p6
aS"Mar 10, 2015 - An interesting news item from today's quarterly Fort Bragg town hall (see that story HERE) is the possible addition of a Chipotle Mexican Grill to the installation's ..."
p7
aS"Mar 11, 2015 - Can Zoe's Kitchen And Habit Restaurant Be The Next Chipotle? ... Chipotle Shares Lower As Wedbush Downgrades To Underperform ... Trending News."
p8
aS'Mar 11, 2015 - Chipotle Seen As A Star In The Restaurant Industry ... Chipotle: The Next Starbucks? .... Obama Leaves Republicans Whimpering After Conquering Fox News.'
p9
aS'Mar 11, 2015 - GPB News Presents ... Visit our new News website at GPBNews.org. Wednesday ... From Ancient Sumeria To Chipotle Tacos, Cumin Has Spiced Up The World.'
p10
a.