(lp0
S'Mar 13, 2015 - Pass the hot sauce; Chipotle co-CEOs get served ... Chipotle Mexican Grill CMG co-CEOs Steve Ells and Monty Moran have made headlines in ... Related News.'
p1
aS"Mar 13, 2015 - Chipotle Mexican Grill Chief Executives Steve Ells and Monty Moran's 2014 ... in the worlds of diversified media, news, education, and information services."
p2
aS"Mar 12, 2015 - Jim Cramer speaks with the co-CEO of Chipotle on the company's ... Global Business and Financial News, Stock Quotes, and Market Data and Analysis."
p3
aS'Mar 12, 2015 - Monty Moran, Chipotle Mexican Grill co-CEO, is focused on the sustainability and ... Global Business and Financial News, Stock Quotes, and Market Data and ...'
p4
aS'Mar 13, 2015 - Chipotle Mexican Grill Inc. raised U.S. menu prices an average of more than 6 percent late in the third quarter to help cope with more expensive dairy, beef and ...'
p5
aS"Mar 12, 2015 - El Pollo Loco's shares are soaring on news that the company had another successful ... Fast-casual restaurants like Chipotle, Panera Bread, and Five Guys are ..."
p6
aS'Mar 12, 2015 - Brands (YUM), Chipotle (CMG) Active; Levy Acquisition to Acquire Del Taco, Aims for Nasdaq Listing ... FREE Breaking News Alerts from StreetInsider.com!'
p7
aS"Mar 13, 2015 - Jim Cramer's Top Takeaways: Boeing, Chipotle Mexican Grill, Apple ... Access to Jim Cramer's daily blog; Intraday commentary and news; Real-time trading ..."
p8
aS'Mar 12, 2015 - Subscribe to Northeast Valley News Follow us on Facebook ... The Chipotle Cultivate Music Festival will return for its fifth consecutive year in three select cities: ...'
p9
aS'Mar 13, 2015 - Search. News; Popular; Videos; Fortune 500 ... The Habit Burger Grill was founded in 1969, well before the first Chipotle starting selling burritos in 1993.'
p10
a.