(lp0
S"Mar 16, 2015 - Please recall last summer, when Ansel Elgort revealed what happens when a non-fan dares to interrupt him while he's eating Chipotle: If you don't know my ..."
p1
aS"Mar 16, 2015 - Panera Bread would occupy a standalone building and Chipotle would share ... The town's economic development specialist, Tim Ryan, said it's good news big ..."
p2
aS'Mar 16, 2015 - E! News caught up with the duo\'s fellow co-star Ansel Elgort and chatted with the ... "I had a birthday party with all my family and friends at a house and Chipotle ...'
p3
aS"Mar 16, 2015 - Steve Ells and Monty Moran, the co-CEOs of Denver's Chipotle Mexican Grill, both received a 15 percent bump in their pay last year. Business Insider reports the ..."
p4
aS"Mar 16, 2015 - Chipotle's CEOs made a combined $57 million in 2014. ... NOW WATCH: 9 things you didn't know about Chipotle ... Get updates in your Facebook news feed."
p5
aS"Mar 16, 2015 - PEOPLE News; Great Ideas; StyleWatch ... At Chipotle Mexican Grill. Salad Shock: Salad with Chicken and Toppings You're at Chipotle and eating a SALAD?"
p6
aS"Mar 16, 2015 - Chipotle's co-CEOs took home a combined $57 million in compensation in 2014, according to a recent SEC filing. ... News; Popular; Videos; Fortune 500 ..."
p7
aS'Mar 16, 2015 - Andrew Schwartz/For New York Daily News ... chicken salad sandwiches with curry and raisins ($9), catfish tacos with coleslaw and chipotle cream sauce ($12), ...'
p8
aS"Mar 16, 2015 - DNAinfo.com New York: New York's leading neighborhood news ... A Chipotle spokesman said the restaurant is interested in coming to Portage Park, but's not a ..."
p9
aS'Mar 16, 2015 - Chipotle has navigated this sea through the creation of conceptually pitch-perfect ... Good news for West, bad news for brands attempting to co-opt the very same ...'
p10
a.