(lp0
S"Mar 23, 2015 - Chipotle Explains Why It Doesn't Share Sales Data With Its Agencies. ... Well, that's what the other food chains do, explained Mark Crumpacker, Chipotle's chief marketing and development officer, today at the 4A's Transformation conference in Austin, Texas. ... Crumpacker added that ..."
p1
aS'Mar 23, 2015 - While no restaurant chain has ever seen a meteoric rise quite like Chipotle, a select few are .... How Fox News Unwittingly Destroyed the Republican Party ...'
p2
aS"Mar 23, 2015 - From Yahoo Finance: Chipotle Mexican Grill, Inc. (NYSE: CMG ) shares are overvalued while Yum! ... Last Week's Restaurant News Flipped Over Burgers."
p3
aS'Mar 23, 2015 - News, views and things to do in Arlington, Virginia. Joined January 2010 .... HUGE RT @ARLnowDOTcom: A Chipotle may be coming to Columbia Pike ...'
p4
aS'Mar 23, 2015 - Chipotle Mexican Grill is one of the casual dining restaurants on the rise that ... Chipotle, on the other hand, has adhered to its core product. ... Breaking News.'
p5
aS'Mar 23, 2015 - Could Tocabe American Indian Eatery, which just opened a second outpost in the Denver suburbs, become the next Chipotle? One reader thinks so.'
p6
aS'Mar 22, 2015 - Recent news from Park Slope, Brooklyn. ... This Week On The Stoop: Chipotle, Big BID Theft, Fare Hike. 0. By Mary ... Coming soon to 7th Avenue: Chipotle.'
p7
aS'Mar 23, 2015 - However, this pop seems to be a case of investors thinking that any news is good ... Not only is its food competing very closely with the offerings of Chipotle, but ...'
p8
aS"Mar 23, 2015 - Chipotle's stock has struggled to keep up with the broader market in 2015, ... Will this lead to a Chipotle stock top? ... EMAIL SIGN UP FOR NEWS & ALERTS ..."
p9
aS"Mar 23, 2015 - Creative Leader Spearheaded Talent Firm's Celebrated Efforts for Chipotle. By Ann-Christine Diaz. Published ... What's news to what's next. Facebook  Twitter ..."
p10
a.