(lp0
S'Mar 3, 2015 - Chipotle CEO Monty Moran must personally address allegations that his ... in News. 81,584. Chipotle CEO to address charges of stiffing workers on wages ...'
p1
aS'Mar 3, 2015 - Chipotle is finally coming to SE Texas ... 28, 2014 file photo, shows the door on a Chipotle Mexican Grill in Robinson Township, Pa. .... Latest News Videos.'
p2
aS"Mar 3, 2015 - GREEN TOWNSHIP, Ohio (WKRC)  An employee at the Chipotle on Glenway ... Cincinnati NewsBelgians find elusive 'man in the hat' from airport video ..."
p3
aS'Mar 3, 2015 - Source: Chipotle Mexican Grill. The New York Times published an interesting article analyzing the calories consumed by the average customer at Chipotle ...'
p4
aS'Mar 3, 2015 - Authorities are investigating a reported abduction overnight of a Chipotle worker at ... month for a local gay rights activist and Chipotle worker accused of faking his own .... News Minute: Here is the latest Ohio news from The Associated Press.'
p5
aS'Mar 3, 2015 - Traders are exiting bets against Chipotle Mexican Grill Inc. amid speculation losses ... Janet Yellen, chair of the U.S. Federal Reserve, speaks during a news ...'
p6
aS'Mar 3, 2015 - Chipotle Mexican Grill (CMG) provided two different chart examples in 2010-11. .... You will find the latest news, market analysis, and education to help you ...'
p7
aS'Mar 3, 2015 - "A lot of the food options at Chipotle are actually pretty healthy," she says. That is the good news. But Chipotle "likes to go big," and monumental portions are not ...'
p8
aS'Mar 3, 2015 - Chipotle Mexican Grill, Panda Express and Firehouse Subs will soon open shop in ... Chipotle Mexican Grill and another store are building a small strip center in ...'
p9
aS"Mar 3, 2015 - The good news is that analysts were actually holding out for net income of just 13 ... Investors can contrast Chuy's performance to that of Chipotle Mexican Grill ..."
p10
a.