(lp0
S'Apr 13, 2015 - "She got great food, the manager told ABC News. Everybody loves Chipotle. This was just the second Clinton sighting in as many days. On Sunday night, the ...'
p1
aS'Apr 13, 2015 - Hillary Clinton is on the road  in a van  on the way to Iowa. And she made a very-low key stop Monday at a Chipotle in Maumee, Ohio. The 2016 presidential ...'
p2
aS"Apr 13, 2015 - A day after throwing her hat in the 2016 presidential ring, Hillary Clinton was seen ordering a chicken bowl with guacamole at a Chipotle's restaurant in Maumee ..."
p3
aS'Apr 13, 2015 - A photo taken of surveillance camera recordings and provided by an employee shows Hillary Rodham Clinton at a Chipotle in Maumee, Ohio, on Monday.'
p4
aS'Apr 13, 2015 - According to ABC news, Clinton also ordered guacamole, which costs extra. ... Hillary Clinton goes unnoticed in an Ohio Chipotle http://t.co/oAAx4v2n8e ...'
p5
aS"Apr 13, 2015 - Today's breaking news from the Hillary Clinton campaign is that she went to Chipotle because it's never to early to scrape the bottom of the barrel."
p6
aS'Apr 13, 2015 - Another Politician Exploits America\'s Love of Chipotle for Votes. By Jaime Fuller ... "She got great food," the restaurant\'s manager told ABC News. "Everybody ...'
p7
aS'Apr 13, 2015 - Hillary Clinton stays at Chipotle for 45 minutes and ordered the chicken bowl with ... Kyle Blaine is the deputy politics editor for BuzzFeed News and is based in ...'
p8
aS'Apr 12, 2015 - Chipotle says that there\'s no "quick fix" to the current pork shortage, which has forced ... TV News Reporter Fed Up With Bad News Makes a Radical Change.'
p9
aS'Apr 13, 2015 - Hillary Clinton continued her Carmen Sandiego-esque road trip to Iowa on Monday afternoon with a surprise stop at Chipotle in northwestern Ohio.'
p10
a.