(lp0
S'Apr 16, 2015 - But somehow, abruptly, Charles Wright has become the most influential guy in Ohio politics. Wright, the 29-year-old manager of the Maumee, Ohio, Chipotle where Hillary Clinton made an incognito pit stop earlier this week, didnt realize his staff was serving a presidential ...'
p1
aS"Apr 15, 2015 - Chipotle; Getty Images. Stop the presses: Hillary Clinton went to Chipotle. And if you've been going about your week thinking that the biggest news stories are ..."
p2
aS'Apr 15, 2015 - Fox News host Andrea Tantaros wondered Tuesday whether Democratic presidential hopeful Hillary Clinton recently stopped at a Chipotle outside Toledo, Ohio ...'
p3
aS'Apr 15, 2015 - The manager of an Ohio Chipotle restaurant on Wednesday said Hillary Clinton  Hillary ..... Both front-runners have double-digit leads in a new Fox News poll.'
p4
aS'Apr 16, 2015 - Hillary Clinton skips tip jar during visit to Ohio Chipotle location. BY Celeste Katz. NEW YORK DAILY NEWS. Updated: Thursday, April 16, 2015, 9:33 PM. A; A; A.'
p5
aS"Apr 16, 2015 - This morning your humble scribe performed a TVEyes search of the last 24 hours* of cable news coverage, fully expecting to discover that the news networks'"
p6
aS'Apr 15, 2015 - "We get a bunch of tips," said Wright, who only realized that the customer had been the presidential candidate after news organizations began calling the ...'
p7
aS'Apr 15, 2015 - The head of the Republican Party says Hillary Clinton\'s Chipotle trip ... In a Fox News interview Tuesday night, Priebus said the media is missing "the big thing" ...'
p8
aS"Apr 16, 2015 - On Monday, Hillary Clinton popped into a Chipotle in Ohio, sending ... Hillary's Chipotle campaign: How the press is subsisting on scraps [Fox News] Jon ..."
p9
aS'Apr 15, 2015 - The Daily Show host Jon Stewart got handed quite a comedic gift when video emerged showing Hillary Clinton ordering a burrito bowl at Chipotle. Because ...'
p10
a.