(lp0
S"Apr 17, 2015 - 2016's Chipotle Primary has begun. Here's why the presidential candidates are sweating about salsa."
p1
aS'Apr 16, 2015 - How Hillary Clinton Made an Ohio Chipotle Manager Famous.'
p2
aS'Apr 16, 2015 - Hillary Clinton skips tip jar during visit to Ohio Chipotle location. BY Celeste Katz. NEW YORK DAILY NEWS. Updated: Thursday, April 16, 2015, 9:33 PM. A; A; A.'
p3
aS"Apr 16, 2015 - This morning your humble scribe performed a TVEyes search of the last 24 hours* of cable news coverage, fully expecting to discover that the news networks'"
p4
aS'Apr 17, 2015 - Hillary Clinton visits a Chipotle in Maumee, Ohio, as recorded by a security camera. ... The Wall Street Journal, Bloomberg, Fox News (online), Politico and The ...'
p5
aS"Apr 16, 2015 - On Monday, Hillary Clinton popped into a Chipotle in Ohio, sending ... Hillary's Chipotle campaign: How the press is subsisting on scraps [Fox News] Jon ..."
p6
aS'Apr 17, 2015 - After news broke that Clinton, en route to Iowa to meet with voters, stopped in at an Ohio Chipotle for lunch and that the order was captured on film, the press ...'
p7
aS"Apr 16, 2015 - Fox News Host Andrea Tantaros, of torture is okay because America is awesome fame, asked a group of cackling cohorts whether or not Hillary Clinton's stop ..."
p8
aS'Apr 17, 2015 - Today in "Why are we even talking about this?" news, Jeb Bush recently felt the need to make fun of Hillary Clinton for stopping by a Chipotle in Ohio the other ...'
p9
aS'Apr 16, 2015 - Her world-famous stop at Chipotle is a metaphor for utter absurdity of the coverage as she rolled to Iowa in a van, which was treated as the most ingenuous form ...'
p10
a.