(lp0
S"Apr 21, 2015 - Chipotle Mexican Grill Inc.'s supply shortages, which led to rolling blackouts ... The Trieste, Italy-based company told Bloomberg News it might theoretically be ..."
p1
aS"Apr 21, 2015 - From Yahoo Finance: Bad news for die-hard carnitas fans: Chipotle said it doesn't expect its pork shortage to fully recover until closer to the end of the year."
p2
aS'Apr 21, 2015 - Chipotle reported lukewarm earnings Tuesday afternoon. ... Chipotle said the pork won\'t be back in all stores until the fall. "We are ... 2016 Cable News Network.'
p3
aS'Apr 21, 2015 - Industry News Retailing & Restaurants ... Pork lovers, rejoice: Carnitas should return to Chipotle Mexican Grill restaurants nationwide by the end of this year.'
p4
aS"Apr 21, 2015 - Earlier this year, Chipotle stopped serving pork at hundreds of locations after the company found that suppliers weren't meeting its standards. The brand says ..."
p5
aS'Apr 22, 2015 - Chipotle spokesman Chris Arnold told The Huffington Post the company expects to see carnitas .... How Fox News Unwittingly Destroyed the Republican Party ...'
p6
aS'Apr 21, 2015 - DENVER --(BUSINESS WIRE)--Apr. 21, 2015-- Chipotle Mexican Grill, Inc. (NYSE: CMG) today reported financial results for its first quarter ended March 31, ...'
p7
aS'Apr 21, 2015 - Pizzeria Locale, a fast-casual Italian restaurant backed by Chipotle, is opening in Cincinnati this fall.'
p8
aS'Apr 21, 2015 - After the closing bell Tuesday, shares of Chipotle Mexican Grill Inc. dropped more than 5 percent as the fast-casual restaurant chain took a hit last quarter for ...'
p9
aS"Apr 21, 2015 - Chipotle's shares got walloped in after-hours trading Tuesday after the high-flying fast-casual chain reported slower sales growth and same-store sales growth ..."
p10
a.