(lp0
S"Apr 22, 2015 - Well, Chipotle fans, we've got some good news and some bad news. The good news is that the compa..."
p1
aS'Apr 22, 2015 - Shares of Chipotle Mexican Grill Inc. fell $36.52, or 5.3 percent, to $656 in premarket .... The information contained in the AP News report may not be published, ...'
p2
aS"Apr 21, 2015 - From Yahoo Finance: Bad news for die-hard carnitas fans: Chipotle said it doesn't expect its pork shortage to fully recover until closer to the end of the year."
p3
aS'Apr 22, 2015 - Chipotle Mexican Grill Inc. has begun offering delivery for online and mobile orders in ... You can access more in-depth stories and analysis, as well as news not ...'
p4
aS"Apr 21, 2015 - Chipotle Mexican Grill Inc.'s supply shortages, which led to rolling blackouts ... The Trieste, Italy-based company told Bloomberg News it might theoretically be ..."
p5
aS'Apr 22, 2015 - News, Markets and Analysis for the Food Processing Industry. ... Chipotle said it has begun delivery of on-line and mobile order in more than 60 cities . DENVER ...'
p6
aS"Apr 22, 2015 - Pining for carnitas? Chipotle has some good news and some bad news for you. First, the good: Whereas the fear before was that pork probably wouldn't return ..."
p7
aS'Apr 21, 2015 - Industry News Retailing & Restaurants ... Pork lovers, rejoice: Carnitas should return to Chipotle Mexican Grill restaurants nationwide by the end of this year.'
p8
aS'Apr 21, 2015 - Chipotle reported lukewarm earnings Tuesday afternoon. ... Chipotle said the pork won\'t be back in all stores until the fall. "We are ... 2016 Cable News Network.'
p9
aS"Apr 21, 2015 - Earlier this year, Chipotle stopped serving pork at hundreds of locations after the company found that suppliers weren't meeting its standards. The brand says ..."
p10
a.