(lp0
S'Apr 23, 2015 - We just got the best news of 2015: Chipotle is going to start offering delivery service. Are you ...'
p1
aS"Apr 22, 2015 - Well, Chipotle fans, we've got some good news and some bad news. The good news is that the compa..."
p2
aS'Apr 22, 2015 - Chipotle Mexican Grill Inc. has begun offering delivery for online and mobile orders in ... You can access more in-depth stories and analysis, as well as news not ...'
p3
aS'Apr 22, 2015 - Shares of Chipotle Mexican Grill Inc. fell $36.52, or 5.3 percent, to $656 in premarket .... The information contained in the AP News report may not be published, ...'
p4
aS'Apr 22, 2015 - News, Markets and Analysis for the Food Processing Industry. ... Chipotle said it has begun delivery of on-line and mobile order in more than 60 cities . DENVER ...'
p5
aS"Apr 23, 2015 - Chipotle has teamed up with the Postmates app to begin offering delivery for ... and mobile orders in 67 cities, according to a report in Nation's Restaurant News."
p6
aS"Apr 23, 2015 - Nation's Restaurant News reports that Chipotle is delivering in 67 cities using the app Postmates, which Starbucks is also using for its upcoming delivery service."
p7
aS"Apr 22, 2015 - Pining for carnitas? Chipotle has some good news and some bad news for you. First, the good: Whereas the fear before was that pork probably wouldn't return ..."
p8
aS'Apr 23, 2015 - Chipotle is now offering delivery through the startup app Postmates, making burrito lovers ... United Press International is a leading provider of news, photos and ...'
p9
aS'Apr 23, 2015 - Chipotle has announced it will now offer delivery. The restaurant chain has agreed to a deal with a delivery start-up company, Postmates. The service.'
p10
a.