(lp0
S'Apr 30, 2015 - The move makes Chipotle Mexican Grill the first fast-food chain to go GMO-free, but the uncharted territory comes with potential consequences. ... Apparently, Chipotle Mexican Grill (NYSE:CMG) never read it. On the quest to use "great ingredients," Chipotle Mexican Grill removed from ...'
p1
aS"Apr 29, 2015 - Chipotle burritos can run more than 1000 calories. CNNMoney's Cristina Alesci asked Chipotle Founder Steve Ells how the ... 2016 Cable News Network."
p2
aS'Apr 30, 2015 - Chipotle says providing "food with integrity" means dropping genetically ... With a pinch of skepticism and a dash of fun, The Salt covers food news from the farm ...'
p3
aS'Apr 29, 2015 - Chipotle says it has completed phasing out genetically modified ingredients ... Concerned residents rally to oppose moving Metro police headquarters. News ...'
p4
aS'Apr 30, 2015 - Chipotle Mexican Grill on Monday became the first large U.S. restaurant chain to declare it would not use any genetically engineered ingredients in its menu ...'
p5
aS'Apr 30, 2015 - Get detailed financial information on Chipotle Mexican Grill, Inc. (NYSE:CMG) including real-time stock quotes, historical charts & financial news, all for free!'
p6
aS'Apr 30, 2015 - Now Chipotle is back in the news for a very different reason. ... Chipotle informs customers about calorie counts on menu items, but they can can range from 400 ...'
p7
aS"Apr 29, 2015 - Not everyone is happy about Chipotle's recent decision to ditch GMOs, or genetically modified ingredients, in most of its food. The company's move runs contrary ..."
p8
aS'Apr 30, 2015 - When fast-food chain Chipotle announced yesterday that it had ditched ingredients containing genetically modified organisms (GMOs), you may have looked at ...'
p9
aS'Apr 30, 2015 - ... quickly and accurately delivers business and financial information, news and insight .... And Chipotle, the booming "fast casual" Mexican grill, declared it would stop ... Chipotle, in contrast, has done nothing for the public good, and has only ...'
p10
a.