(lp0
S'Apr 9, 2015 - Chipotle is still struggling to fulfill demand for the popular pork item at many of its restaurants across the country, reports Bloomberg. This January, the chain ...'
p1
aS'Apr 8, 2015 - Chipotle says there\'s no "quick fix" its "carnitas" shortage, partly because is it takes six ... menu option today, Chipotle spokesman Chris Arnold told ABC News.'
p2
aS'Apr 9, 2015 - For those who haven\'t made peace with Chipotle\'s "Sorry No Carnitas" signs at hundreds of stores, this isn\'t good news: "We don\'t know for sure when we\'ll be ...'
p3
aS'Apr 8, 2015 - Americans have turned to Chipotle Mexican Grill (CMG) to fill up on humanely raised meat and premium ingredients, fueling its fast growth. The only problem?'
p4
aS"Apr 8, 2015 - Visit Crain's Chicago Business for complete business news and analysis ... (Bloomberg)  Chipotle Mexican Grill is still struggling to keep popular menu items ..."
p5
aS'Apr 8, 2015 - Chipotle continues to suffer carnitas shortages at many locations around the U.S. after it ... Reuters Signs a News Deal with Red Bull, But Is That a Good Thing?'
p6
aS'Apr 9, 2015 - Remember when it looked like the Great Chipotle Carnitas Famine of 2015 was going to come to an end? Turns out that was just some wishful thinking.'
p7
aS"Apr 9, 2015 - Tracking the latest business news in Tarrant County and beyond. ... put out a call for new employees, including Fresh Market, Dave & Buster's and Chipotle."
p8
aS'Apr 9, 2015 - Fast-casual Mexican food chain Chipotle says that it does not know when it will have enough ... MailOnline US - news, sport, celebrity, science and health stories.'
p9
aS"Apr 8, 2015 - ADVERTISEMENT. Chipotle Co-CEO Monty Moran on the factors driving the restaurant chain's success. ... 2016 FOX News Network, LLC. All rights reserved."
p10
a.