(lp0
S'May 11, 2015 - Sporting News ... Cincinnati uses close proximity to Chipotle as recruiting pitch ... which involves a player snatching a burrito out of the air with Chipotle lurking in ...'
p1
aS'May 12, 2015 - The mayor of Lakeville, Minn. is demanding that their city gets what it deserves, a Chipotle restaurant. Last week, Mayor Matt Little tweeted, Want a Chipotle in ...'
p2
aS"May 12, 2015 - A year ago, Chipotle Mexican Grill shareholders shocked the business world when they rejected the ... But greedy CEO's make the news - generous ones do not."
p3
aS"May 12, 2015 - Reality: The facts don't back up Chipotle's latest GMO-free move. Posted on May 12, 2015; By Tim Albrecht; In News. Chipotle has been a pioneering leader in ..."
p4
aS'May 11, 2015 - Chipotle draws shareholder activism. May 11, 2015. The comptroller of New York City has targeted Chipotle Mexican Grill as one of about 75 ... Latest News.'
p5
aS"May 11, 2015 - Today's real-time CMG ETF quote Chipotle Mexican Grill Inc Class A ticker symbol CMG price, news, holdings, asset allocations, sectors, distributions."
p6
aS"May 11, 2015 - MailOnline US - news, sport, celebrity, science and health stories ... What Bill Clinton said when he saw Hillary in Chipotle: 'What are she and Huma doing?"
p7
aS'May 12, 2015 - Cincinnati Bearcats football uses Chipotle to recruit players ... One Chipotle is less than two blocks from Nippert, the letter said. Shh .... National & World News.'
p8
aS"May 12, 2015 - Cincinnati Bearcats send custom Chipotle photo to recruit. ... Ducks, Beavers and local recruiting news from The Oregonian's Andrew Nemec ..."
p9
aS"May 11, 2015 - Chipotle has done a pretty good job ignoring Mexican culture. ... Immigration News 2016 Today: GOP Senators Challenge Obama's Immigration Executive ..."
p10
a.