(lp0
S'May 14, 2015 - Chipotle announced it was going to eliminate GMO ingredients in its corn ... Kenneth Artz (iamkenartz@hotmail.com) is managing editor of Health Care News.'
p1
aS'May 14, 2015 - Employees at the 4S Ranch Chipotle said they do not feel safe at work, and they are worried the roof will collapse on them.'
p2
aS'May 13, 2015 - Chipotle stock is down after the company reported disappointing earnings guidance. Time to run or buying opportunity?'
p3
aS"May 14, 2015 - Chipotle supply chain workers protested in downtown Denver on ... Dozens of protesters gathered outside Chipotle's annual shareholders ... MORE NEWS."
p4
aS'May 13, 2015 - The city of Burnsville has a Chipotle Mexican Grill. Apple Valley has a Chipotle. Eagan has two. Lakeville has zero, though Lakeville Mayor and apparent ...'
p5
aS"May 13, 2015 - Chipotle's CEOs made a combined $57 million in 2014. ... Follow Retail Select and never miss an update! Get updates in your Facebook news feed."
p6
aS"May 13, 2015 - At 7 p.m., police reported that a person's wallet was stolen from Chipotle on Walt ... U.S. News Ranks Garden City High School as Best HS on Long Island. 0 ..."
p7
aS"May 13, 2015 - Workers for Huhtamaki, which supplies the bowls for Chipotle's signature ... http://www.theguardian.com/us-news/2015/jan/14/chipotle-takes-pork-off-the-menu."
p8
aS'May 13, 2015 - Activists called on Chipotle shareholders to hold Huhtamaki accountable for its bad ... Radio Labour  Walking the Line  Workers Independent News (Live) ...'
p9
aS"May 13, 2015 - News / Publications ... Chipotle says it holds itself to a higher standard  this is a company that prides itself on creating 'Food with Integrity,'  said Duane ..."
p10
a.