(lp0
S'May 14, 2015 - Chipotle announced it was going to eliminate GMO ingredients in its corn ... Kenneth Artz (iamkenartz@hotmail.com) is managing editor of Health Care News.'
p1
aS'May 14, 2015 - Employees at the 4S Ranch Chipotle said they do not feel safe at work, and they are worried the roof will collapse on them.'
p2
aS'May 14, 2015 - Pass any Chipotle these days  and it is my gastronomic preference to pass rather than enter  and you will see signs claiming credit for removing ingredients ...'
p3
aS'May 16, 2015 - ChipsAndGuac  A Node API for Chipotle orders (github.com). 12 points by JQ- 236 days ago | past | web  Guidelines | FAQ | Support | API | Security | Lists ...'
p4
aS'May 14, 2015 - Despite their recent GMO controversy, Chipotle knows how to do fast food right. Everything is delicious ... Curated Beer And Spirits News From Around The Web ...'
p5
aS"May 15, 2015 - Without the chopped bacon, it doesn't seem so different from what one might request in a Chipotle order. It can also be barbecued and eaten on skewers, which ..."
p6
aS'May 14, 2015 - The taco and burrito fast food chain Chipotle has been in the news a lot in recent years for what can only be described as an attack on modern agriculture.'
p7
aS'May 15, 2015 - The news site of Verona High School. ... Chipotle Goes Au Naturel ... Consequently, companies such as Chipotle have decided to go GMO free, along with ...'
p8
aS"May 15, 2015 - Chipotle manager Ryan O'Toole piles on the ingredients on a chicken burrito at a ... Business reporter Kevin Tampone brings you the latest retail news from ..."
p9
aS"May 14, 2015 - Chipotle supply chain As Chipotle's nation-wide gastronomic success has propelled their brand into the fast-casual limelight, so followed the news of their ..."
p10
a.