(lp0
S'May 17, 2015 - Since when do the mainstream news media, in a country that worships at the altar of capitalism and the free market, launch a coordinated attack against a ...'
p1
aS'May 18, 2015 - Pinkies Out: El Vez Burrito in Battery Park City boasts Chipotle-like fast casual Tex-Mex. BY Jeanette Settembre. NEW YORK DAILY NEWS. Updated: Monday ...'
p2
aS'May 18, 2015 - by Jonathan Latham, PhD The decision of the Chipotle restaurant chain to make ... Independent Science News | Food, Health and Agriculture Bioscience News.'
p3
aS'May 18, 2015 - As noted by Independent Science News (ISN), Chipotle has come under fire as being irrational, anti-science and irresponsible from the likes of The Washington ...'
p4
aS"May 18, 2015 - Chipotle has been the most beneficial in this trend. As you can see in the above chart, Chipotle's same-store sales reached a high of 19% in 4Q14. This also ..."
p5
aS'May 18, 2015 - Chipotle has gone "GMO-free," but what does that and other labels really mean? ... The good news for consumers who are troubled by genetic engineering is ...'
p6
aS'May 17, 2015 - Judging from the popularity of Chipotle on Greenwich Avenue, in Riverside, the new location will ... Email news tips to Greenwich Free Press editor Leslie.'
p7
aS"May 18, 2015 - By: Will Coggin Outlet: InsideSources.com Customers at 600 Chipotle locations ... By: Will Coggin News Outlet: The Oklahoman Two of Oklahoma City's newest ..."
p8
aS"May 17, 2015 - If you've been perusing the internet lately, I'm sure you've come across some pretty big news- Chipotle Mexican Grill released their treasured guac recipe."
p9
aS'May 17, 2015 - Naked Food News ... In a first for a major restaurant chain, Chipotle Mexican Grill will be preparing only food that is free of genetically engineered ingredients.'
p10
a.