(lp0
S'May 18, 2015 - Pinkies Out: El Vez Burrito in Battery Park City boasts Chipotle-like fast casual Tex-Mex. BY Jeanette Settembre. NEW YORK DAILY NEWS. Updated: Monday ...'
p1
aS"May 19, 2015 - There's some bad news coming for Chipotle Mexican Grill fans: Prices for some of its signature items will probably be inching higher this summer."
p2
aS"May 19, 2015 - Chipotle is a place where your choices are limited only by your imagination (provided your imagination doesn't stretch too far beyond Mexican food staples)."
p3
aS"May 19, 2015 - Chipotle's Southeast-Asian fast-casual dining chain has made its way to ... Download one of the NBCChicago mobile apps and have the news come to you."
p4
aS'May 18, 2015 - As noted by Independent Science News (ISN), Chipotle has come under fire as being irrational, anti-science and irresponsible from the likes of The Washington ...'
p5
aS"May 19, 2015 - Visit Crain's Chicago Business for complete business news and analysis including ... ShopHouse, an Asian-inspired Chipotle offshoot, coming to the Loop."
p6
aS"May 18, 2015 - Chipotle has been the most beneficial in this trend. As you can see in the above chart, Chipotle's same-store sales reached a high of 19% in 4Q14. This also ..."
p7
aS'May 19, 2015 - The decision of the Chipotle restaurant chain to make its product lines GMO-free is not .... Jonathan Latham edits Independent Science News, where this article ...'
p8
aS'May 19, 2015 - Chipotle Steak Rice Bowls (05.19.15) ... Serve with chipotle hot sauce. ... The latest headlines, breaking news updates and information on new contests, right to ...'
p9
aS'May 18, 2015 - Chipotle has gone "GMO-free," but what does that and other labels really mean? ... The good news for consumers who are troubled by genetic engineering is ...'
p10
a.