(lp0
S'Apr 30, 2015 - The move makes Chipotle Mexican Grill the first fast-food chain to go GMO-free, but the uncharted territory comes with potential consequences. ... Apparently, Chipotle Mexican Grill (NYSE:CMG) never read it. On the quest to use "great ingredients," Chipotle Mexican Grill removed from ...'
p1
aS'Apr 30, 2015 - Chipotle says providing "food with integrity" means dropping genetically ... With a pinch of skepticism and a dash of fun, The Salt covers food news from the farm ...'
p2
aS'Apr 30, 2015 - Chipotle Mexican Grill on Monday became the first large U.S. restaurant chain to declare it would not use any genetically engineered ingredients in its menu ...'
p3
aS'May 1, 2015 - DOW JONES, A NEWS CORP COMPANY. News Corp is a network .... ENLARGE. Chipotle restaurant workers fill orders for customers in Miami, Fla. Photo: Joe ...'
p4
aS'Apr 30, 2015 - Get detailed financial information on Chipotle Mexican Grill, Inc. (NYSE:CMG) including real-time stock quotes, historical charts & financial news, all for free!'
p5
aS'Apr 30, 2015 - Now Chipotle is back in the news for a very different reason. ... Chipotle informs customers about calorie counts on menu items, but they can can range from 400 ...'
p6
aS'May 1, 2015 - Get the latest healthy food and nutrition news from Food Network. ... Nutrition News: Chipotle Goes GMO-Free, Diet Pepsi Ditches Aspartame, and The Reason ...'
p7
aS'Apr 30, 2015 - When fast-food chain Chipotle announced yesterday that it had ditched ingredients containing genetically modified organisms (GMOs), you may have looked at ...'
p8
aS'May 1, 2015 - On CNBC\'s "Mad Dash" segment, TheStreet\'s Jim Cramer said he believes investors should get long Chipotle once the negative news for the stock has been ...'
p9
aS"May 1, 2015 - At Chipotle, Hot Stock Price Insulates Executives From Anger Over High Salaries .... Access to Jim Cramer's daily blog; Intraday commentary and news ..."
p10
a.