(lp0
S"May 20, 2015 - Next to McDonalds, Burger King and KFC, Chipotle's Mexican Grill is a minnow, writes Jonathan ... Dr Jonathan Latham is editor of Independent Science News."
p1
aS'May 20, 2015 - Chipotle Mexican Grill made news recently when the fast casual restaurant chain announced that it was serving only foods made with non-GMO ingredients.'
p2
aS'May 21, 2015 - Non-GMO News Briefs on Chipotle, Dr. Oz, Glyphosate, & More. By Melissa Diane Smith. The last few months there has been so much news about genetically ...'
p3
aS'May 20, 2015 - 28, 2014 file photo shows the door of a Chipotle Mexican Grill in Robinson ... None of them passed, the Chipotle filings said. ... Submit a news tip or photo.'
p4
aS'May 20, 2015 - The mainstream news media has launch a coordinated attack against Chipotle for going GMO free because the biotech industry led by Monsanto has attacked ...'
p5
aS'May 20, 2015 - Colorado Chipotle Employees Allege Unfair Payment Practices ... across the country, U.S. Department of Labor investigation records obtained by I-News show.'
p6
aS'May 20, 2015 - Chipotle Mexican Grill is sounding serious about coming to Sioux Falls.'
p7
aS"May 20, 2015 - Chipotle is a popular spot for catching a quick and tasty meal, but it's also an employer looking to fill ... South Bend Indiana | WNDU 16 | News, Weather, Sports."
p8
aS"May 21, 2015 - Chipotle's decision may compel other food brands to follow suit. ... This article was originally published in Independent Science Newsunder a Creative ..."
p9
aS"May 20, 2015 - Chipotle is doing far better than McDonald's, but the Golden Arches look more attractively valued. Which one is a better buy at current prices?"
p10
a.