(lp0
S"May 25, 2015 - With the motto Food With Integrity, Chipotle Mexican Grill's brand is based on ... U.S. Department of Labor investigation records obtained by I-News show."
p1
aS'May 25, 2015 - Former Chipotle worker Brittany Swa has joined a lawsuit against the restaurant chain seeking unpaid overtime. Joe Mahoney / Rocky Mountain PBS I-News ...'
p2
aS'May 26, 2015 - Chipotle is open at Fashion Fair, a new ramen restaurant is here and Pieology ... Fresno and Clovis now have 5 Chipotle restaurants ... Weekend food news.'
p3
aS'May 26, 2015 - Amazon, Apple and Chipotle Too Pricey for Your Portfolio? ... The good news is that there are plenty of exchange-traded funds with solid exposure to these ...'
p4
aS'May 26, 2015 - Chipotle has several locations, including Wellington, Palm Beach Gardens, West ... MORE NEWS ONLINE: Get more news every day about Greenacres and ...'
p5
aS"May 26, 2015 - GREENACRES  Do you like Mexican food? Well, you're in luck. A new Chipotle is in the works for the River Bridge Centre on Forest Hill Boulevard and Jog ..."
p6
aS'May 25, 2015 - Food Business News logo ... Chipotle Mexican Grill is working on a new system that will allow the dough to rise slowly in tortillas, eliminating the need for dough ...'
p7
aS"May 26, 2015 - Does Chipotle's branding strategy on genetically engineered ingredients ... An opening paragraph from the New York Times's news report illustrates a sort of ..."
p8
aS"May 26, 2015 - This will certainly raise a lot more questions if Chipotle's peers such as Qdoba and the US economy continue to do well. Currently, Chipotle has more than 1,800 ..."
p9
aS'May 26, 2015 - First Chipotle decided to cut out GMOs, and now Taco Bell and Pizza Hut are stepping in line to ruin our ... NEWS: The 13 most clich hangover cures, ranked.'
p10
a.