(lp0
S'May 29, 2015 - ... from the Mexican food chain. . Chipotle Mexican Grill Inc(CMG) ... Chipotle Customers -- and Investors -- Get Some Good News. By Brian Sozzi Follow ...'
p1
aS"May 28, 2015 - Chipotle (CMG) stock is trading in the green after Miller Tabak raised its rating to 'buy' from ... Access to Jim Cramer's daily blog; Intraday commentary and news ..."
p2
aS"May 28, 2015 - Incredible: Chipotle Is Paying For This Couple's Wedding, And All They Expect ... Chipotle has really done something special for Trevor and Ashley. .... Can You Make Bruce Springsteen Sick Enough To Cancel A Concert? April 7, 2016. News ..."
p3
aS'May 29, 2015 - Wooten did confirm that Chipotle will be moving in to the location where the ... This location is good news for Lauderhill and Tamarac residents who will make ...'
p4
aS'May 29, 2015 - Chipotle Mexican Grill, Inc. (NYSE: CMG) loyalists could breathe a sigh of relief ... Sozzi quoted Chris Arnold, a Chipotle spokesperson who confirmed the news.'
p5
aS'May 29, 2015 - Critical Alerts For Skyworks Solutions, Splunk, Chipotle Mexican Grill, Whole Foods ... While many other market reports only provide stock news and opinion, we ...'
p6
aS'May 28, 2015 - There is a lot of debate about genetically modified foods, Chipotle founder and ... Of course, Chipotle is only one restaurant, but the news was significant, said ...'
p7
aS'May 28, 2015 - The Greene Turtle, Chipotle, Panda Express, Kiku Steak House coming to Westown.'
p8
aS'May 29, 2015 - Miller Tabak has upgraded Chipotle Mexican Grill, Inc. (NYSE:CMG) stock ... Sector News ... 32 Wall Street analysts have provided ratings for Chipotle stock.'
p9
aS'May 28, 2015 - From Yahoo Finance: Zacks Industry Outlook Highlights: Starbucks, Chipotle Mexican ... Increase in demand for a commodity is always good news for producers.'
p10
a.