(lp0
S'May 4, 2015 - In addition to the recipe, Chipotle also revealed they use a staggering 48 avocados per batch-- just in case fans were looking to feed a small army guacamole ...'
p1
aS'May 4, 2015 - NEWS: Chipotle might actually be healthy nowfind out why! Chipotle also made a cheeky nod to their incredibly archaic pricing structure in the blog post.'
p2
aS'May 4, 2015 - Chipotle finally unveils recipe for its famous guacamole ... NEW YORK DAILY NEWS. Monday ... Chipotle finally unveiled the recipe to its delicious guacamole.'
p3
aS'May 4, 2015 - Peter Coclanis: Last week, Chipotle sanctimoniously announced that its menus would be Genetically Modified ... The News & Observer | NewsObserver.com.'
p4
aS'May 4, 2015 - This is not a drill. For all you guacamole lovers out there, Chipotle has revealed its recipe. Now you can make it at home yourself and eat as much as you want ...'
p5
aS'May 4, 2015 - Chipotle has released the recipe for its guacomole so "guac" lovers can make their own batch at home. CBSN\'s Elaine Quijano has the delicious details.'
p6
aS'May 5, 2015 - Lisa Wortman, who operates Wortman Property Inc. with her husband John, presented details of a proposal to locate a Chipotle Mexican Grill in Effingham.'
p7
aS"May 4, 2015 - Thank you Chipotle! The restaurant reveals its ... Listen up Chipotle fans! The popular restaurant ... Filed in: News, What's Trending. Suggest a correction.  ..."
p8
aS'May 4, 2015 - You can stop paying Chipotle extra for its perfect guacamole. The food chain recently unveiled its .... Inc. All rights reserved. Part of HuffPost on HPMG News.'
p9
aS'May 4, 2015 - Authors Jonathan Safran Foer , Laura Esquivel to judge Cultivating Thought Essay Contest for middle and high school students, offering each of 10 winners a ...'
p10
a.