(lp0
S'May 8, 2015 - A Chipotle customer was burned and rushed to the hospital when workers at the restaurant dropped gallons of ... Woman badly burned at Chipotle ... More News ...'
p1
aS'May 8, 2015 - On Sunday morning, Chipotle released their top secret Guacamole recipe on their website. The recipe from .... All rights reserved. Part of HuffPost on HPMG News.'
p2
aS'May 8, 2015 - Battle over CEO pay begins anew for Chipotle, which will face a proxy proposal at its annual meeting next week that could allows ... Submit a news tip or photo.'
p3
aS'May 8, 2015 - Chipotle Mexican Grill is scheduled to open at 11 a.m. Sunday on Mundy Street in Wilkes-Barre Township, one of three upcoming new restaurant openings.'
p4
aS"May 7, 2015 - DERBY, Kan.  Fast casual restaurant Chipotle Mexican Grill is opening in Derby. The restaurant, which is opening in the city's Marketplace, will create 25 to 30 ..."
p5
aS"May 7, 2015 - Chipotle Mexican Grill (NYSE:CMG) made big news on Monday. In fact, it's a move that could help propel Chipotle stock to new highs in the coming years."
p6
aS'May 7, 2015 - Last week, Chipotle made major news again by setting a new benchmark for quality-focused restaurants to target: the elimination of genetically modified ...'
p7
aS"May 7, 2015 - Listen to the full conversation: Thorn: Nancy, I want to talk to you about what's probably the most popular topic among Nation's Restaurant News readers: the ..."
p8
aS'May 7, 2015 - A 25-year old Charlotte woman is recovering in the burn unit of a Wake Forest hospital after suffering a severe burn at a Charlotte restaurant.'
p9
aS'May 7, 2015 - Woman Treated at Burn Center After Slip at Charlotte Chipotle. By TWC News Web Staff Thursday, May 7, 2015 at 07:03 AM EDT. CHARLOTTE -- A woman is ...'
p10
a.