(lp0
S'Jun 9, 2015 - Our news partners at Wicked Local reported Valedictorian Vivian Ling issued an apology via her public Twitter account, which was later quoted in a release sent ...'
p1
aS"Jun 9, 2015 - Chipotle is following in some fast food restaurants footsteps and offering expanded ... recruitment strategy manager at Chipotle, told Nation's Restaurant News."
p2
aS"Jun 9, 2015 - NEWS NOW. Walpole Historical Society and Recreation Department to sponsor Walpole ... Walpole High valedictorian plagiarized 'Chipotle' graduation speech ..."
p3
aS'Jun 9, 2015 - Hoping to lift recruitment, Chipotle Mexican Grill said it will offer new benefits ... Global Business and Financial News, Stock Quotes, and Market Data and ...'
p4
aS"Jun 9, 2015 - So, I was thrilled to read Chipotle's big news that it will be expanding benefits  including sick pay, paid vacations, and tuition reimbursement  to all of its ..."
p5
aS"Jun 10, 2015 - Working at Chipotle is about to get a whole lot better for its hourly workers. ... and fees, up to the IRS's limit of $5,250 per year, Nation's Restaurant News said."
p6
aS"Jun 9, 2015 - Chipotle Mexican Grill is set to give all employees, including part-time workers, ... up to the IRS's limit of $5,250 per year, according to Nation's Restaurant News."
p7
aS"Jun 9, 2015 - Chipotle recently said they' plan to expand worker benefits like paid sick leave ... The news was first reported by industry publication Nation's Restaurant News."
p8
aS'Jun 10, 2015 - News came down from Chipotle headquarters recently that the company would be making a monumental policy shift, expanding its benefits packages to all ...'
p9
aS'Jun 9, 2015 - Chipotle Mexican Grill is set to give all employees, including part-time workers, paid ... As Danielle Kurtzleben explained at Vox after the Wal-Mart news, ...'
p10
a.