(lp0
S'Jun 11, 2015 - Chipotle has signed a 2400-square-foot lease and will open at 20 Midtown. ... on page print button to print this article. Industry News Retailing & Restaurants ...'
p1
aS"Jun 11, 2015 - Dream Chaser, Chipotle, BJ's Restaurant & Brewhouse in AL.com business news. 1 / 5 ... Chipotle coming to downtown Birmingham in 20 Midtown. --."
p2
aS'Jun 11, 2015 - From Yahoo Finance: A Chipotle-style pizza chain endorsed by LeBron James is taking over America. Rick Wetzel, Blaze...'
p3
aS'Jun 10, 2015 - News came down from Chipotle headquarters recently that the company would be making a monumental policy shift, expanding its benefits packages to all ...'
p4
aS"Jun 10, 2015 - Chipotle Mexican Grill had previously only offered those benefits to salaried ... Chipotle recruitment strategy manager, told Nation's Restaurant News. Cummings ..."
p5
aS'Jun 11, 2015 - Chipotle is extending its worker benefits to part-time employees by giving them sick pay, paid vacation time, and ... Benefit Your Friends by Sharing the News'
p6
aS'Jun 10, 2015 - Chipotle has chosen Kansas City, Mo., as the test market for its newest menu item: chorizo. After breaking the news that Kansas Citians would be the ones...'
p7
aS'Jun 11, 2015 - For the pickles: 30 ounces sliced pickles; For the beer batter; 2 cups flour; 2 cups beer; 1 teaspoon salt; 1/2 gallon of vegetable oil; For the chipotle mayo: 1 clove ...'
p8
aS'Jun 11, 2015 - There are CVS stores with the addresses 20 University Place, 116 University Drive and 12290 College Boulevard. You may not have noticed, but you probably ...'
p9
aS"Jun 11, 2015 - High School Valedictorian Plagiarized 2006 'Chipotle Speech'. Walpole .... Get free daily newsletters and real-time news alerts from the Walpole Patch. Join 1.2 ..."
p10
a.