(lp0
S'Jun 22, 2015 - Remember Chipotle\'s "Cultivating Thought" packaging, the paper cups and bags adorned with short essays from major celebrities? Well, the marketing stunt is ...'
p1
aS'Jun 22, 2015 - Recently, Chipotle Mexican Grill announced a new partnership with (RED), an organization founded by Bono and Bobby Shriver to help fight AIDS. Throughout ...'
p2
aS'Jun 23, 2015 - A creamy chipotle reduction simmers while the ears roast, adding a mix of creamy, smoky sweetness to the corn, with a topping of nutty grated parmesan.'
p3
aS'Jun 23, 2015 - Home ; News ; Local News. Chipotle requests permit to open in Ukiah. Chipotle is looking to build a restaurant on this vacant lot at the corner of Orchard ...'
p4
aS"Jun 22, 2015 - Chipotle Mexican Grill and Panda Express have signed leases to open restaurants at the .... We're always interested in hearing about news in our community."
p5
aS'Jun 22, 2015 - Find out how some big improvements at this fast food chain will change the Chipotle burritos and help you lose weight fast!'
p6
aS"Jun 24, 2015 - The Big Macs' side of the bed has been replaced with Chipotle, Five Guys, Freshii and fast casual restaurants promising better ingredients, customizable meals ..."
p7
aS'Jun 24, 2015 - Del Taco Is Throwing Bacon And Chipotle Salsa On Their Cheese Fries. Food News 6/23/2015. Isai Rocha. cheddarfries. Del Taco is not only spicing up their ...'
p8
aS'Jun 22, 2015 - 10 Salt Lake City Burrito Joints That Are Better Than Chipotle. By brookekbk 06/22/2015. Salt Lake City News. embed this story. <div class="nc_embed" ...'
p9
aS'Jun 23, 2015 - A California appeals court on Tuesday tentatively rejected an appeal filed by Chipotle Mexican Grill Inc. employees who alleged the company should have paid ...'
p10
a.