(lp0
S'Jun 29, 2015 - Chipotle has been handing out some provocative coupons at gay pride parades around the ... News Anchors Who Will Make Your Jaw DropMy Daily Viral. Undo.'
p1
aS'Jun 29, 2015 - WSU helps Chipotle restaurant develop healthier tortilla ... Washington State University campus here, is a tortilla press, a gift from Chipotle Mexican Grill. ... Subscribe to Enewsletter  News Release Styles  Hometown News Form  About Us ...'
p2
aS'Jun 29, 2015 - Chipotle Mexican Grill opened on Sunday June 28 in the Compo Acres ... Lion Sighting; CT Restaurant Receives Coveted N.Y. Times Rating: Nearby News.'
p3
aS"Jun 29, 2015 - Chipotle. Be careful about what you put in your Burrito Bowl or salad, ... Fast Food Menu Items at Starbucks, McDonald's, Chipotle, Wendy's | Fox News Insider, ..."
p4
aS'Jun 28, 2015 - Is Chipotle Guilty of Racist and Homophobic Slurs? ... They would be the subject of countless news reports, opinion pieces and water cooler discussions. How is ...'
p5
aS"Jun 29, 2015 - Although this news gives investor a glimmer of hope, it has been over-shadowed by McDonald's plans to close more restaurants in the U.S. than it opens this ..."
p6
aS'Jun 28, 2015 - Pospisil And Sock Dine At Chipotle. Jun282015. This article contains: Wimbledon  Vasek Pospisil  Jack Sock  Player Features  2015  Off Court News ...'
p7
aS'Jun 28, 2015 - News  API  Login  Contact  f  l  i  Vibes. Meet Vibes  Meet Vibes  Mobile Relationship management  Our People  Our History  Our Partners  Our office ...'
p8
aS'Jun 29, 2015 - #1: Chipotle https://twitter.com/ChipotleTweets/status/595647883740753920 ... companies in the world of diversified media, news, and information services.'
p9
aS'Jun 29, 2015 - By Craig Giammona - Bloomberg News ... After high-profile moves by Chipotle Mexican Grill Inc. and Panera Bread Co. to purify their menus, restaurant chains ...'
p10
a.