(lp0
S'Jun 2, 2015 - Chipotle announced this week that it is adding a new meat option, chorizo, to the ..... NY Daily News Claims FDR Unfit to Be President: "No Concrete Plans, Only ...'
p1
aS'Jun 2, 2015 - In a relatively a rare move for Chipotle Mexican Grill, Chipotle began testing a new ... Global Business and Financial News, Stock Quotes, and Market Data and ...'
p2
aS"Jun 2, 2015 - Here's the Big Facebook News We Expect This Week ... Chipotle will begin offering chorizo as a protein option in Kansas City on Tuesday, as a test run for the ..."
p3
aS"Jun 3, 2015 - Chipotle's chorizo is a hearty and flavorful option, but it is higher in sodium than the ... After breaking the news that Kansas Citians would be the ones to give it a ..."
p4
aS"Jun 2, 2015 - Beginning Tuesday, Kansas City's 33 Chipotle locations will be rolling out the new ingredient, and let's hope it tests well. ... Abby Johnston. June 2, 2015 News."
p5
aS'Jun 3, 2015 - Chipotle Mexican Grill will reportedly test a new menu item at one of its ... Download one of the NBCChicago mobile apps and have the news come to you.'
p6
aS'Jun 2, 2015 - Chipotle Mexican Grill Inc. began a test Tuesday of a new chorizo protein ... You can access more in-depth stories and analysis, as well as news not found on ...'
p7
aS"Jun 3, 2015 - Kansas City was chosen as the only test market for something new on Chipotle's menu: chorizo. The Now KC's Justin Wilfon went to the restaurant to get some ..."
p8
aS'Jun 2, 2015 - Chipotle rarely makes any changes to its menu. But if you live in Kansas City, you can start shaking up your burrito bowls now. The Kansas City Star reports the ...'
p9
aS'Jun 4, 2015 - ... New Orleans, New York, Newark, Newport Beach, Newport News, Norcross, Norfolk, North Canton .... Chipotle Mexican Grill also appeared on these lists:.'
p10
a.