(lp0
S'Jul 10, 2015 - Chipotle has secured a new carnitas supplier that meets its standards. ... increases, that story belongs more in the Fiction section, or over at Weekly World News.'
p1
aS'Jul 11, 2015 - As of mid-November, 2015 carnitas is available in all Chipotle restaurants. We appreciate the patience of our loyal fans as we worked to return carnitas to the ...'
p2
aS'Jul 10, 2015 - Which is probably why this news about Chipotle is making waves: The chain\'s most recent hike, originally tied to "undershooting" the cost of beef, can be pinned ...'
p3
aS'Jul 10, 2015 - Chipotle Mexican Grill Inc. has added a British pork supplier, helping ease a monthslong ... to the median estimate of six analysts surveyed by Bloomberg News.'
p4
aS'Jul 11, 2015 - Carnitas Are Coming Back to Chipotle. ... Chipotle has finally named a carnitas supplier that meets its standards: Karro Food in the United ... Filed in: News.'
p5
aS'Jul 10, 2015 - It is already being dubbed the "next Chipotle." ... The company has a lot of similarities to "fast causal" chains like Chipotle. ... Filed in: National and World News.'
p6
aS"Jul 10, 2015 - Chipotle, America's favorite fast-casual burrito chain, is asking customers to pay for a minimum wage increase. The company's San Francisco locations have ..."
p7
aS'Jul 9, 2015 - Read our Privacy and Cookies policies to find out more. Lifestyle  Food and Drink  News. Chipotle guacamole recipe: How to make their addictive guac at home.'
p8
aS'Jul 9, 2015 - A new Chipotle Mexican Grill is opening in Bend. The fast-casual ... Oregon Just Good News. National News ... Image courtesy of Chipotle Mexican Grill. Source: ...'
p9
aS'Jul 9, 2015 - ... the new Bacon Chipotle Cheddar Fries just in time for National French Fries Day, ... News and information presented in this release has not been corroborated ...'
p10
a.