(lp0
S"Jul 13, 2015 - The second-half of 2015 is looking up for lovers of Chipotle's carnitas style pork."
p1
aS"Jul 13, 2015 - Great news for people screaming for the return of Chipotle's carnitas: The chain's gotten crafty, found an unlikely supplier, and promises things will be back to ..."
p2
aS"Jul 12, 2015 - Have a hankering for a sofritas burrito or taco trio from Chipotle? If you head to one of the chain's restaurants in the San Francisco Bay Area, those items are ..."
p3
aS'Jul 13, 2015 - Their support will be tested as companies respond by raising the price of food. posted on Jul. 13, 2015, at 9:53 a.m.. Venessa Wong. BuzzFeed News Reporter.'
p4
aS"Jul 12, 2015 - I've even gone so far as sitting down at Chipotle restaurants during lunch hours to record traffic counts and test the ... Bad news for your credit card company."
p5
aS'Jul 13, 2015 - In trading on Monday, shares of Chipotle Mexican Grill Inc (Symbol: CMG) crossed above their 200 day moving average of $654.84, ... Market News, Investing.'
p6
aS'Jul 12, 2015 - \'Sweetgreen,\' the Restaurant Being Called the \'Next Chipotle\' ... The company has a lot of similarities to "fast causal" chains like Chipotle. ... Filed in: News.'
p7
aS"Jul 13, 2015 - Chipotle's Carnitas Shortage Has Finally Come to a Close .... that Chipolte is, http://www.meatingplace.com/Industry/News/Details/59705?allowguest=true."
p8
aS"Jul 12, 2015 - Some People Never Listen  Here's What Chipotle is Doing in the Face of $15 Minimum Wage Law ... Internet marketing nerd, political junkie and news addict."
p9
aS"Jul 13, 2015 - Chipotle has signed up a new pork supplier to fill a gap that, at one time, affected about a third of the chain's ... 17 facts about FOX News anchor Megyn Kelly."
p10
a.