(lp0
S'Jul 15, 2015 - Friend or Faux reinforces the beauty of simplicity in food by contrasting Chipotle ingredients with fast food. DENVER --(BUSINESS WIRE)--Jul. 15, 2015-- On ...'
p1
aS'Jul 17, 2015 - KRQE reports on news, weather, traffic, investigations and sports for New Mexico. ... Chipotle tried to find a domestic pork supplier that met its standards, and will ...'
p2
aS'Jul 15, 2015 - If you answered yes to any or all of these questions, do I have some exciting news for you! On July 21, Chipotle will be launching a new interactive experience ...'
p3
aS"Jul 15, 2015 - Chipotle game to compare ingredients with brand's competitors ... You can access more in-depth stories and analysis, as well as news not found on any other ..."
p4
aS"Jul 16, 2015 - Orem's new Chipotle, slated to open in August, photographed on Monday, July 13, .... Interact: Gas prices  Which states have the most fluoridated water? News ..."
p5
aS'Jul 15, 2015 - Starting July 21, Chipotle will be giving out buy one, get one free coupons for a ... CHIPOTLE. Chipotle. Like this story? Like us on Facebook. RELATED NEWS:.'
p6
aS"Jul 15, 2015 - The sweepstakes are a part of Chipotle's new Friend or Faux campaign, which launches July 21. Friend or Faux is an online ... Part of HuffPost on HPMG News."
p7
aS"Jul 16, 2015 - Chipotle is (again) playing fast and loose with its definition of food with integrity at the expense of America's pork producers."
p8
aS'Jul 15, 2015 - You Could Win Free Chipotle Burritos for a Year If You Can Correctly Guess Scary Fast Food Ingredients. You Could Win ... See More Chipotle News. Chipotle is ...'
p9
aS'Jul 16, 2015 - You have a chance to win free Chipotle for a year. Find out how.'
p10
a.