(lp0
S'Jul 1, 2015 - Tags: Chipotle tortillas, sourdough culture, traditional preservatives .... (NaturalNews) Chipotle made waves earlier this year when they announced that they ... Get breaking news alerts on GMOs, fluoride, superfoods, natural cures and more.'
p1
aS'Jun 30, 2015 - The orders kept coming Monday as Chipotle workers prepared an array of tacos and burritos for customers at the new Post Road East restaurant of the ...'
p2
aS'Jun 30, 2015 - Fast food Mexican restaurant Chipotle distributed "Which way do you sway? coupons to capitalize on the recent decision by the Supreme Court to uphold ...'
p3
aS'Jun 30, 2015 - (Breitbart)  Fast food Mexican restaurant Chipotle distributed Which way do ... offended college students are, Fox News contributor Jesse Watters traveled to ...'
p4
aS"Jun 30, 2015 - Chipotle Mexican Grill is the nation's second-most beloved limited-service restaurant chain, according to a new report. The American Customer Satisfaction ..."
p5
aS'Chipotle has been handing out some provocative coupons at gay pride parades around the country. The ...'
p6
aS'Jul 1, 2015 - The quest for the Chipotle of salad continues... ... Sweetgreen co-founder and co-CEO Jonathan Neman told BuzzFeed News that the money will be used to ...'
p7
aS"Jun 30, 2015 - Wings and beer, or burritos and chips? I'm not asking about your dinner plans so much as your investment preference. Chipotle (NYSE:CMG) and Buffalo Wild ..."
p8
aS"Jun 30, 2015 - Working for Hawaii - News, Weather, and Sports. ... Chipotle Mexican Grill also made its introduction in this year's survey, and took home second place."
p9
aS'Jul 1, 2015 - Police in Bowie have responded to a fight that broke out in the Chipotle at Bowie TC. ... Alexis Simpson Arrested For Stabbing Bowie State Student | News.'
p10
a.