(lp0
S'Jul 23, 2015 - Eating Chipotle every day might not be recommended by the average nutritionist but one lean, mean guacamole-eating machine is proving that its still possible to get ripped while eating at the Mexican grill every day. If you thought Chipotle fanatic Mark Rantal --who chowed down on ...'
p1
aS'Jul 23, 2015 - Reached by Fusion, Hawryluk also admitted he has never eaten a Chipotle burrito, whose tortillas alone contain 300 calories and 690 mg .... ABC News Network.'
p2
aS"Jul 23, 2015 - A Los Angeles man has eaten at Chipotle for 155 days straight, which an expert says is not advisable despite Chipotle's healthy offerings. ... News Feed."
p3
aS'Jul 24, 2015 - Chipotle Mexican Grill says traditional loyalty programs not worth the cost and looks for other ways to engage guests.'
p4
aS"Jul 23, 2015 - Chipotle started out as a single burrito shop in Denver before it stole the fast-food stage from McDonald's. The Mexican chain is the face of the so-called fast ..."
p5
aS"Jul 24, 2015 - ... News, Payments >> Article: Chipotle says mobile payments, not loyalty, will drive ... If Chipotle's goal is to gain customer insight, then this may not be the best ..."
p6
aS'Jul 24, 2015 - Earlier this week, Chipotle Mexican Grill (NYSE:CMG) reported second-quarter earnings showing net income rose 27%, revenue rose 14.1% and same-store ...'
p7
aS'Jul 23, 2015 - Chipotle is offering buy one get one free coupons to customers that play an online game comparing the ... By WACH Fox News Center Thursday, July 23rd 2015.'
p8
aS'Jul 24, 2015 - News & Politics .... On Monday, I decided to get Chipotle and on Tuesday, I made the same decision, then got lunch with my friend there on Wednesday.'
p9
aS"Jul 23, 2015 - Q: Should I invest in Chipotle or McDonald's? A: Investors can't get ... The ultimate war for investors is between giants Chipotle and McDonald's. ... Related News."
p10
a.