(lp0
S'Jul 27, 2015 - Chipotle (CMG) continues to be a dominant growth brand on Main Street and Wall Street. ... Restaurant Industry Insight, News and Analysis. Sections About Us.'
p1
aS'Jul 27, 2015 - That perception of health has led to a 20.4 percent spike in first-quarter sales for Chipotle. Subway, by comparison, saw sales fall by 3 percent last year, the ...'
p2
aS"Jul 26, 2015 - A building permit was issued for Chipotle Mexican Grill restaurant at 305 W. ... Watch for news on Pinot's Palette and a hookah lounge on Fourth Street, ..."
p3
aS'Jul 26, 2015 - Froyo and Chipotle received some smoke damage, Munster Fire Department Battalion ... Sarah covers crime, federal courts and breaking news for The Times.'
p4
aS"Jul 27, 2015 - U.S. restaurant companies that use cilantro said they don't expect to be affected by the partial ban. Chipotle Mexican Grill Inc., the fast-casual burrito chain that ..."
p5
aS'Jul 26, 2015 - Chipotle has unseated Subway as the healthy fast food of choice, with people across the internet heralding the positive effects of eating at the burrito chain.'
p6
aS'Jul 27, 2015 - Chipotle Mexican Grill continues to impress investors with yet another strong quarter, as the company reported a net revenue growth of 14.1% year-over-year ...'
p7
aS"Jul 27, 2015 - When she started at Chipotle, she was a manager of the company's second restaurant. Today she is one of the top executives in the company and the only ..."
p8
aS'Jul 27, 2015 - Home Warrior Trading News Articles Chipotle (CMG) Stock | Short Sellers Keep Eating ... Chipotle Mexican Grill, Inc. (CMG) went up significantly after reporting ...'
p9
aS'Jul 27, 2015 - Chipotle workers have joined a national trend of filing class-action lawsuits against an employer for unpaid ... Joe Mahoney/Rocky Mountain PBS I-News.'
p10
a.