(lp0
S'Jul 2, 2015 - ... being built in New Dorp by the Savo Brothers -- will house a Chipotle, Retro Fitness, ... Chipotle Mexican Grill coming to New Dorp ..... More community news  ...'
p1
aS'Jul 2, 2015 - Certiphi > Blogs > INDUSTRY NEWS > Lawsuit filed against Chipotle for FCRA ... a copy of his background investigation report, Chipotle was in violation of the ...'
p2
aS'Jul 2, 2015 - The only thing Big Sean likes more than not fg with Naya Rivera: Chipotle. ... Sunday, the Detroit rapper shockingly revealed that he eats Chipotle every day.'
p3
aS'Jul 2, 2015 - A California appeals court has revived a putative class action accusing Chipotle Mexican Grill Inc. of improperly using indirect employee payments to lower its ...'
p4
aS"Jul 2, 2015 - Chick-fil-A, Chipotle among America's favorite fast-food chains ... more impressive given that both Chick-fil-A and Chipotle make their debut on the list this year."
p5
aS'Jul 1, 2015 - The quest for the Chipotle of salad continues... ... Sweetgreen co-founder and co-CEO Jonathan Neman told BuzzFeed News that the money will be used to ...'
p6
aS"Jul 2, 2015 - Earlier this week before the BET Awards, Big Sean took over GQ's Twitter account and hit us with a dietary revelation that rippled through the cosmos."
p7
aS'Jul 1, 2015 - Police in Bowie have responded to a fight that broke out in the Chipotle at Bowie TC. ... Alexis Simpson Arrested For Stabbing Bowie State Student | News.'
p8
aS'Jul 2, 2015 - Photo via Chipotle ... The Chipotle will be only the fifth airport location in the world for the .... Subscribe now to get the latest news delivered right to your inbox.'
p9
aS'Jul 1, 2015 - 2016 Time Inc. All rights reserved. Search. News; Popular; Videos; Fortune 500  Del Taco: Meet the burrito that sits between Chipotle and Taco Bell July 1, 2015 ...'
p10
a.