(lp0
S"Jul 8, 2015 - Looking at business news and consumer issues from every angle ... It's simple really, find CoGo's avocado-themed Chipotle bike and you are dangerously close ..."
p1
aS'Jul 8, 2015 - EconomyNews. Thanks to Minimum Wage Hike, San Francisco Chipotle Customers Paying $1 More for Burrito Bowls. Chelsea Scism / @chescismlsea / July 08, ...'
p2
aS"Jul 8, 2015 - Chipotle Mexican Grill is more than a popular dining chain in the U.S. It's a $20 billion burrito empire. In the U.K., many of us don't even know how to say ..."
p3
aS'Jul 8, 2015 - Chipotle, Starbucks, Other Business Coming to University Town Center. Written by Andrew Havranek. Last updated on July 08, 2015 @ 7:21PM. Created on July ...'
p4
aS"Jul 9, 2015 - Highly Popular Chipotle National Restaurant Chain Coming to Morgantown's ... WDTV is repoting that among the businesses coming are a Chipotle and a ..."
p5
aS"Jul 8, 2015 - Chipotle is offering a number of opportunities for free giveaways in conjunction with Georgia Organics and The Giving Kitchen. As part of Georgia Organics' My ..."
p6
aS'Jul 9, 2015 - Chipotle, like Shark Week or Sriracha, has something of a cult following. The Subway of Mexican food lets you build burritos or burrito bowls (for the gluten free ...'
p7
aS'Jul 9, 2015 - Read our Privacy and Cookies policies to find out more. Lifestyle  Food and Drink  News. Chipotle guacamole recipe: How to make their addictive guac at home.'
p8
aS"Jul 8, 2015 - Jim Cramer's Top Takeaways: ViaSat, Chipotle, Sonic, Tesla, Shake Shack ... Access to Jim Cramer's daily blog; Intraday commentary and news; Real-time ..."
p9
aS'Jul 8, 2015 - Chipotle, a chain of Mexican eateries, will add a Brick location in the coming months, company officials confirmed. ... Brick Shorebeat Breaking News Updates.'
p10
a.