(lp0
S'Aug 17, 2015 - Origins: In August 2015, social media users shared what looked like a news article claiming Chipotle (a hugely popular casual dining chain) would be abruptly ...'
p1
aS"Aug 17, 2015 - There's a million places you can get a burrito, but at Chipotle, it's the experience, says Mary Chapman, a fast-casual restaurant analyst with Technomic, ..."
p2
aS'Aug 17, 2015 - The next time you order a Chipotle burrito, you may want to consider these ways to increase the size of your meal. Dylan Grosz, a writer at Apartment List, ...'
p3
aS'Aug 18, 2015 - WASHINGTON WJLA ShopHouse is partnering with Chipotle to offer yet another ... Two incredibly easy ways to get free Chipotle ... (Photo: ABC News). 0shares.'
p4
aS"Aug 18, 2015 - Chipotle Will Give You Free Chips & Guac for Playing Photo Hunt Online. Hotness Level: ... Chipotle's Slump Likely Means More Free Burritos for You. Hotness ..."
p5
aS"Aug 17, 2015 - It's known as the Scarecrow, an advertising campaign from Chipotle that features a ... Home > News > TriMark Blog > August 2015 > The Chipotle Effect: Food ..."
p6
aS"Aug 18, 2015 - What's coming to Delco: Cracker Barrel, Chipotle, Painting With a Twist, Auto Zone ... When you work at a newspaper, people just assume you're news central ..."
p7
aS'Aug 18, 2015 - 18, 2015 /PRNewswire/ -- Critical Alerts For Exelixis, Opko Health, Chipotle ... While many other market reports only provide stock news and opinion, we offer ...'
p8
aS'... Huckabee Jokes About Clinton Murder Claims, Hillary Leaving Nuke Codes At Chipotle ... RWW News ...'
p9
aS'Aug 18, 2015 - DC News You Can (Maybe) Use. kaylee | Aug 18, 2015 ... (via Facing Addiction); Did you know that you can get free Chipotle today? Because you can get free ...'
p10
a.