(lp0
S"Aug 19, 2015 - Why Shake Shack won't be the next Chipotle .... To give you a comparison, Chipotle (CMG) had over 500 stores before going .... Sidekick More Market News."
p1
aS'Aug 19, 2015 - News  Sports  Business  Go! ... Build-A-Pizza: How the successful Chipotle business model is spreading ... a website for restaurant professionals, more and more pizza parlors are being built on the Chipotle-style, build-your-own-pizza model.'
p2
aS'Aug 19, 2015 - A free, all-day event in Loring Park this Saturday brings live music, family activities and celebrity chefs together to highlight and celebrate food.'
p3
aS'Aug 20, 2015 - El Pollo Loco (LOCO): "Step up to the big time and go with Chipotle Mexican Grill (CMG)." ... Access to Jim Cramer\'s daily blog; Intraday commentary and news ...'
p4
aS"Aug 19, 2015 - What's coming to Delco: Cracker Barrel, Chipotle, Painting With a Twist, Auto Zone ... When you work at a newspaper, people just assume you're news central ..."
p5
aS'Aug 19, 2015 - People who attended the Chipotle Cultivate Festival in Kansas City, Mo., on July .... With a pinch of skepticism and a dash of fun, The Salt covers food news from ...'
p6
aS"Aug 20, 2015 - News. Log in ... I love Chipotle  both as a stock and a restaurant  but it's pretty clear that ship has already sailed. If I wanted to invest in Chipotle, I needed to ..."
p7
aS"Aug 20, 2015 - My relationship with Chipotle is strained right now because my bae, the cashier ... Fox News viewers take to Facebook to say 'Bomb Hamtramck' Read More ..."
p8
aS"Aug 20, 2015 - Chipotle's Cultivate Festival is returning for a second year to Minneapolis' Loring Park ... WCCO 4 News Live Stream: Click Here To Watch WCCO 4 News At 5 ..."
p9
aS"Aug 20, 2015 - ... Us or Send News  Daily Wrestling News ... They all agreed that Chipotle is a favorite place to eat on the road. ... Rollins: Yeah, Chipotle's the universal one."
p10
a.