(lp0
S'Aug 24, 2015 - Chipotle Mexican Grill Inc. has pledged to hire 4,000 people in one day during ... You can access more in-depth stories and analysis, as well as news not found ...'
p1
aS'Aug 25, 2015 - At least 60 customers reported feeling sick after eating at a Chipotle restaurant in Simi ... Gadi Schwartz reports for the NBC4 News at 11 p.m. on Monday, Aug.'
p2
aS'Aug 24, 2015 - Chipotle wants to bring on 4000 new staff members in a single day next ... Chipotle CEO: We have the power to raise prices .... 2016 Cable News Network.'
p3
aS'Aug 24, 2015 - Chipotle Mexican Grill Inc. plans to hire thousands of employees in one day ... and follows news that Chipotle would expand benefits to all employees, including ...'
p4
aS'Aug 24, 2015 - Job interviews will take place at all U.S. restaurants; applicants are invited to register online for an interview. DENVER --(BUSINESS WIRE)--Aug. 24, 2015-- ...'
p5
aS'Aug 25, 2015 - The Chipotle fast-food chain is planning a one-day hiring blitz next month to fill 4000 jobs, and is dangling the possibility of a six-figure salary.'
p6
aS'Aug 24, 2015 - The Colorado-based burrito chain Chipotle announced it is hiring 4000 people in ... Live-updated Colorado news, weather forecasts for Denver and the state, ...'
p7
aS'Aug 24, 2015 - Chipotle to host nationwide Career Day, seeking to hire 4,000 new employees  all in one single day. BY Robert Dominguez. NEW YORK DAILY NEWS.'
p8
aS'Aug 24, 2015 - Chipotle to hire 4,000 employees in one-day hiring spree ... DENVER  Chipotle Mexican Grill just announced its plan to hire 4,000 new ... Filed in: News.'
p9
aS'Aug 25, 2015 - California Chipotle customers may not be feeling in the mood for a burrito any time soon. At least 60 customers were sickened last week after eating at a ...'
p10
a.