(lp0
S'Aug 26, 2015 - As of Tuesday night, 99 people were reported sick after eating at a Chipotle ... Ventura County Public Health tells Food Safety News that 82 customers and 17 ...'
p1
aS'Aug 25, 2015 - The Chipotle fast-food chain is planning a one-day hiring blitz next month to fill 4000 jobs, and is dangling the possibility of a six-figure salary.'
p2
aS'Aug 25, 2015 - California Chipotle customers may not be feeling in the mood for a burrito any time soon. At least 60 customers were sickened last week after eating at a ...'
p3
aS'Aug 26, 2015 - We tell local San Francisco news & weather stories, and we do what we do to ... after dozens of customers who ate at a Chipotle complained of getting sick.'
p4
aS'Aug 25, 2015 - At least 60 customers reported feeling sick after eating at a Chipotle restaurant in Simi ... Gadi Schwartz reports for the NBC4 News at 11 p.m. on Monday, Aug.'
p5
aS'Aug 25, 2015 - Officials investigate illness outbreak at Ventura County Chipotle. Simi Valley Chipotle ... For breaking news in California, follow @VeronicaRochaLA. ALSO:.'
p6
aS'Aug 26, 2015 - ... health officials are investigating after dozens of customers complained of illness after eating at a Chipotle Mexican Grill in Simi Valley. ... LA Daily News ...'
p7
aS'Aug 25, 2015 - Industry News Retailing & Restaurants. Chipotle ramps up hiring plans for Charlotte ... Chipotle Mexican Grill (NYSE:CMG) is hiring in Charlotte as part of its ...'
p8
aS'Aug 25, 2015 - The burrito chain recently announced plans to hire thousands of new workers this month, as competition for workers in low-wage jobs heats up.'
p9
aS'Aug 25, 2015 - The door at a Chipotle Mexican Grill. ... Fast-food chain Chipotle Mexican Grill is looking to hire 4,000 new employees ... Executive Producer, News and Digital.'
p10
a.