(lp0
S'Aug 27, 2015 - At Least 99 People Are Sick After Eating at a Chipotle ... Chipotle says that the store, which is now back in business, threw out all of its food ... [Food Safety News] ...'
p1
aS'Aug 28, 2015 - Chipotle plans to hire 4000 on its first career day | chipotle, company, locations, applicants, hire, orange, new, county, employees, hires. ... MORE FOOD NEWS.'
p2
aS'Aug 28, 2015 - This Chipotle Location Made 100 People Sick In A Single Day. Food News 8/28/2015. Peter Pham. chipot. Customers at a Californian Chipotle are paying a high ...'
p3
aS'Aug 28, 2015 - Check out the 13 qualities Chipotle looks for when hiring. ... based Chipotle Mexican Grill Inc. "We would love to hire Staten Islanders, ... More community news  ...'
p4
aS'Aug 27, 2015 - Food Poisoning News ... Changes Made Following Five Chipotle Outbreaks. The Simi Chipotle, located in Simi Valley at 1263 Simi Town Center Way, Simi ...'
p5
aS"Aug 27, 2015 - According to Danielle Winslow, Chipotle's public relations and communications manager, the restaurant may be open before students leave for Winter Recess."
p6
aS'Aug 28, 2015 - BACK IN BUSINESS&mdash; Chipotle Mexican Grill in Simi Valley passed an environmental health inspection Monday BACK IN BUSINESS Chipotle ...'
p7
aS'Aug 28, 2015 - Chipotle Plans 3 Major Changes to Win Your Love ... While Chipotle is at the top of its game for the time being, the brand knows that could all ... Food News.'
p8
aS'Aug 28, 2015 - Search for this case: Gallagher v. Chipotle Mexican Grill, Inc. Search News, [ Google News | Marketwatch | Wall Street Journal | Financial Times | New York ...'
p9
aS'Aug 27, 2015 - Dylan Grosz ordered 35 different burritos at his local Chipotle over several days and measured each one back at his ... The Week in Food News: August 24 - 30.'
p10
a.