(lp0
S"Aug 5, 2015 - We've heard a lot about artists and their outlandish requests, including being given only the green M&M's and all white trailers. But a strict Chipotle diet? Yes ..."
p1
aS"Aug 4, 2015 - Millennials wants McDonald's to adapt Chipotle's food policies and menu items. (AP File Photos). It's no secret that McDonald's has been scrambling to win back ..."
p2
aS'Aug 5, 2015 - PHOTOS: According to the fans at chipotle, Big Sean bought them all Chipotle. pic.twitter.com/CVoErz8s7l ... Big Sean News (@BigSeanNews1) August 4, 2015 ...'
p3
aS"Aug 5, 2015 - Trade-Ideas LLC identified Chipotle Mexican Grill (CMG) as a new lifetime high candidate. ... Access to Jim Cramer's daily blog; Intraday commentary and news ..."
p4
aS"Aug 4, 2015 - Chipotle's reigning supreme, with Subway trailing behind. ... Food World News ... Chipotle has overtaken Subway as the people's choice for healthy fast food."
p5
aS"Aug 5, 2015 - Restaurant Inspections: Chipotle, King Donuts, Enchanted Forest. 7:46 a.m. ... CHIPOTLE MEXICAN GRILL #1213 .... News quiz: This week's top 10 hot topics."
p6
aS'Aug 5, 2015 - ... Aid, Salesforce.com, El Pollo Loco, Whiting Petroleum and Chipotle Mexican Grill ... While many other market reports only provide stock news and opinion, we ...'
p7
aS"Aug 5, 2015 - Don't start feeling guilty about your next Tapas brunch or Chipotle run just ... 23 Celebs Who've Had Hilarious Responses To Inaccurate News Stories 13h ago."
p8
aS'Aug 4, 2015 - The D-town native shared the love, and wealth, at a Chipotle restaurant in the Big Apple ... News. Camille Augustin @JadoreCamille | August 4, 2015 - 8:54 pm.'
p9
aS'Aug 5, 2015 - Call-out brands include the usual suspects like Apple and Amazon, Samsung and Google, but Chipotle (#3), a brand that was made by Millennials, Target (#4) ...'
p10
a.