(lp0
S'Aug 6, 2015 - Chipotle is giving away buy one get one free coupons to anyone who plays ... Download one of the NBCChicago mobile apps and have the news come to you.'
p1
aS"Aug 5, 2015 - We've heard a lot about artists and their outlandish requests, including being given only the green M&M's and all white trailers. But a strict Chipotle diet? Yes ..."
p2
aS'Aug 5, 2015 - PHOTOS: According to the fans at chipotle, Big Sean bought them all Chipotle. pic.twitter.com/CVoErz8s7l ... Big Sean News (@BigSeanNews1) August 4, 2015 ...'
p3
aS"Aug 5, 2015 - Trade-Ideas LLC identified Chipotle Mexican Grill (CMG) as a new lifetime high candidate. ... Access to Jim Cramer's daily blog; Intraday commentary and news ..."
p4
aS'Aug 6, 2015 - News and sports coverage from Akron, Cuyahoga Falls, Stow, Copley, Fairlawn, Green, Hudson, Tallmadge, Bath Township, Summit County, Portage County, ...'
p5
aS'Aug 6, 2015 - Nine CEOs including David Zaslav of media company Discovery Communications (DISCA), Chipotle (CMG) co-CEOs Steven Ells and Montgomery Moran and ...'
p6
aS"Aug 6, 2015 - Big Sean News (@BigSeanNews1) August 4, 2015. The only thing we don't get is that, according to GQ, Big Sean never orders guacamole at Chipotle because ..."
p7
aS'Aug 5, 2015 - ... Aid, Salesforce.com, El Pollo Loco, Whiting Petroleum and Chipotle Mexican Grill ... While many other market reports only provide stock news and opinion, we ...'
p8
aS"Aug 6, 2015 - A chipotle pepper is merely a smoked, dried jalapeo. That's it. More commonly made from red ... Inc. All rights reserved. Part of HuffPost on HPMG News."
p9
aS"Aug 5, 2015 - Don't start feeling guilty about your next Tapas brunch or Chipotle run just ... 23 Celebs Who've Had Hilarious Responses To Inaccurate News Stories 13h ago."
p10
a.