(lp0
S'Sep 10, 2015 - MINNEAPOLIS (KMSP) - State health officials are investigating an outbreak of Salmonella cases associated with eating at Chipotle restaurants in Minnesota, the ...'
p1
aS'Sep 10, 2015 - State health and agriculture officials are investigating an outbreak of salmonellosis associated with eating at Chipotle restaurants in Minnesota. Forty-five (45) ...'
p2
aS'Sep 10, 2015 - MN Health Officials Investigating 45 Salmonella Infections Linked to Chipotle ... told Food Safety News, adding that the Minnesota Department of Agriculture is ...'
p3
aS'Sep 11, 2015 - A recent Salmonella outbreak was linked to Chipotle restaurants throughout Minnesota. State health ... Breaking News Feed (@PzFeed) September 10, 2015.'
p4
aS'Sep 10, 2015 - State health officials say 45 cases of salmonella have been reported this month.'
p5
aS"Sep 9, 2015 - Chipotle Mexican Grill has a message for job seekers: we're on a hiring spree. ... Global Business and Financial News, Stock Quotes, and Market Data and ..."
p6
aS'Sep 9, 2015 - Chipotle Mexican Grill has more than 1,800 locations nationwide. (Gene J. ... Chipotle is hiring. ... The latest Syracuse and CNY commercial and retail news.'
p7
aS'Sep 9, 2015 - To find 4,000 suitable hires, Chipotle will need to interview at least five times as ... News of the one-day hiring binge came out more than two weeks before the ...'
p8
aS"Sep 9, 2015 - Today is Chipotle's first ever National Career Day, during which the company plans to hire 4000 new workers. ... Search. News; Popular; Videos; Fortune 500 ..."
p9
aS'Sep 9, 2015 - The Colorado-based burrito chain Chipotle plans to hire 4000 people during a national hiring event Wednesday morning. . Live-updated Colorado news, ...'
p10
a.