(lp0
S'Sep 13, 2015 - Chipotle might be one of our delicious favorites, but the chain has had a rough run lately. After being linked to a break out of norovirus in Southern California ...'
p1
aS'Sep 14, 2015 - Masked, armed man robs Park Ridge Chipotle, police say ... Police said a masked gunman robbed a Chipotle restaurant in northwest suburban ... More News ...'
p2
aS'Sep 14, 2015 - Popular restaurant chain Chipotle is said to be the source of a salmonella outbreak in ... WKBN 27 First News provides commenting to allow for constructive ...'
p3
aS"Sep 14, 2015 - Participants invited to summarize the essays on Chipotle's packaging for a chance to win one of 500 Amazon Kindle Paperwhite e-readers. DENVER ..."
p4
aS'Sep 14, 2015 - The creators of a scathing new attack ad against Chipotle (CMG) are now themselves under attack. Continue .... 2016 FOX News Network, LLC. All rights ...'
p5
aS'Sep 14, 2015 - Suburbs Park Ridge Herald-Advocate Park Ridge News ... A masked man with a gun robbed a Chipotle restaurant in Uptown Park Ridge Monday morning, ...'
p6
aS'Sep 13, 2015 - Chipotle Mexican Grill (NYSE:CMG) is the golden standard in fast casual. Everything seems to be growing at a heady clip, and that was on display in its most ...'
p7
aS'Sep 14, 2015 - Health officials are investigating a salmonella outbreak linked to Chipotle restaurants. ... The good news is health officials believe the outbreak has ended.'
p8
aS"Sep 14, 2015 - Juliet Litman and David Jacoby discuss a Chipotle salmonella outbreak and Google's grocery store game, then taste-test Canadian Lay's Do Us a Flavor chips."
p9
aS'Sep 14, 2015 - What has caused Salmonella outbreak at Chipotle restaurants in MN, Fig & Olive in Washington DC, and imported cucumbers? ... latest+news. Legionnaires ...'
p10
a.