(lp0
S'Sep 15, 2015 - Fast food chains and companies are pledging to rid their meat supplies of antibioticsand with good reason. ... According to Time, 90 percent of the meat Chipotle sources is free of antibiotics. Panera says 100 percent of its chicken and pork and a third of its turkey, is raised ...'
p1
aS'Sep 14, 2015 - Masked, armed man robs Park Ridge Chipotle, police say ... Police said a masked gunman robbed a Chipotle restaurant in northwest suburban ... More News ...'
p2
aS'Sep 15, 2015 - MAPLEWOOD, Minn. (KMSP) - A second lawsuit has been filed in Minnesota against Chipotle in connection with a statewide salmonella outbreak. The first ...'
p3
aS'Sep 15, 2015 - By Ashley Welch CBS News September 15, 2015, 6:20 PM ... Only two companies -- Panera and Chipotle -- earned an "A." Chick-fil-A, McDonald\'s and Dunkin ...'
p4
aS"Sep 15, 2015 - Panera and Chipotle get an 'A.' Most big chains failing on antibiotics policy, report says."
p5
aS"Sep 14, 2015 - Participants invited to summarize the essays on Chipotle's packaging for a chance to win one of 500 Amazon Kindle Paperwhite e-readers. DENVER ..."
p6
aS'Sep 14, 2015 - Popular restaurant chain Chipotle is said to be the source of a salmonella outbreak in ... WKBN 27 First News provides commenting to allow for constructive ...'
p7
aS'Sep 14, 2015 - The creators of a scathing new attack ad against Chipotle (CMG) are now themselves under attack. Continue .... 2016 FOX News Network, LLC. All rights ...'
p8
aS'Sep 15, 2015 - A Chipotle Mexican Grill next door to Pie Five is set to open in late October, said Teresa Grashof, a spokeswoman for The Ferber ... clayton.park@news-jrnl.com ...'
p9
aS'Sep 14, 2015 - Suburbs Park Ridge Herald-Advocate Park Ridge News ... A masked man with a gun robbed a Chipotle restaurant in Uptown Park Ridge Monday morning, ...'
p10
a.