(lp0
S'Sep 16, 2015 - Tomatoes identified as source of Salmonella outbreak at Chipotle in Minnesota ... customers who ate at Chipotle restaurants in Minnesota since late August.'
p1
aS'Sep 17, 2015 - Tomatoes served at 22 Chipotle Mexican Grill locations in Minnesota were the source of the ... (To sign up for a free subscription to Food Safety News, click here.).'
p2
aS'Sep 16, 2015 - Tomatoes source of Chipotle salmonella outbreak in Minnesota ... of a salmonella outbreak that has sickened dozens of people who ate at Chipotle restaurants in the state since August. ... The news on your schedule from MPR News Update.'
p3
aS'Sep 16, 2015 - News Release ... of the Salmonella Newport outbreak that has sickened dozens of people who ate at Chipotle restaurants in Minnesota since late August.'
p4
aS'Sep 17, 2015 - Chipotle said it switched produce suppliers for its Minnesota restaurants last week, when the Salmonella Newport outbreak was ... 2016 Cable News Network.'
p5
aS'Sep 17, 2015 - A man is behind bars on fraud charges after authorities said he perpetrated a scam on at least one customer at a local Chipotle. . Local News, National News, ...'
p6
aS'Sep 17, 2015 - A new Chipotle Mexican Grill is scheduled to open in Beavercreek, near ... Sign up for free newsletters to get more of Dayton Daily News delivered to your inbox.'
p7
aS'Sep 16, 2015 - Yum! Brands is going upscale with Taco Bell, and it could be a game changer.'
p8
aS"Sep 16, 2015 - A former Chipotle employee has been charged with robbing the company's Park Ridge restaurant on ... Suburbs Park Ridge Herald-Advocate Park Ridge News ..."
p9
aS'Sep 16, 2015 - A total of 64 cases and 22 locations now have been linked to the outbreak. Nine people have been hospitalized; all are recovering.'
p10
a.