(lp0
S'Sep 17, 2015 - Tomatoes served at 22 Chipotle Mexican Grill locations in Minnesota were the source of the ... (To sign up for a free subscription to Food Safety News, click here.).'
p1
aS'Sep 17, 2015 - Chipotle said it switched produce suppliers for its Minnesota restaurants last week, when the Salmonella Newport outbreak was ... 2016 Cable News Network.'
p2
aS'Sep 17, 2015 - A man is behind bars on fraud charges after authorities said he perpetrated a scam on at least one customer at a local Chipotle. . Local News, National News, ...'
p3
aS'Sep 17, 2015 - A new Chipotle Mexican Grill is scheduled to open in Beavercreek, near ... Sign up for free newsletters to get more of Dayton Daily News delivered to your inbox.'
p4
aS'Sep 17, 2015 - Employees prepare orders for customers at a Chipotle Mexican Grill Inc. restaurant in Hollywood,. Skip the tomato ... Latest News from Grub Street. 5:15 p.m. ...'
p5
aS'Sep 18, 2015 - Take a look at how the influential fast-casual Chipotle chain has developed its stance ... You can access more in-depth stories and analysis, as well as news not ...'
p6
aS"Sep 17, 2015 - Mobile commerce app Tapingo is partnering with Chipotle to deliver food to Arizona college students. . Arizona's source for breaking news, weather, traffic, ..."
p7
aS'Sep 17, 2015 - A burrito-craving "spy" for New York magazine\'s The Cut had the pleasure of bumping into Kendall Jenner at Chipotle on Tuesday night  so never say that ...'
p8
aS'Sep 17, 2015 - 17) Tomatoes have been identified as the source of the Salmonella newport outbreak that has sickened dozens who ate at Chipotle restaurants in Minnesota ...'
p9
aS'Sep 17, 2015 - Kendall Jenner Walks Into Chipotle, People Lose Their Freaking Minds. By Jessica Roy ... Photo: Gachie / Splash News/Corbis. Kendall "the One Who Doesn\'t ...'
p10
a.