(lp0
S'Sep 21, 2015 - CBS Evening News ... CBS News September 21, 2015, 6:47 AM ... A newspaper ad shows an overweight man claiming that eating two Chipotle burritos a week ...'
p1
aS"Sep 21, 2015 - Non-profit organization Center for Consumer Freedom plans a new round of ads this week attacking Chipotle restaurants. The campaign follows Chipotle's ..."
p2
aS'Sep 21, 2015 - Berman told investigative reporter Anna Werner of CBS News that no client specifically asked him to run this new ad campaign against Chipotle. As the Center ...'
p3
aS'Sep 20, 2015 - Chipotle shares have risen 130% since the beginning of October 2012, while ... Follow him on Twitter for the latest news and commentary on the airline industry!'
p4
aS'Sep 21, 2015 - Chipotle Mexican Chain Starts GMO-Free Food Campaign: Gets Attacked by Competitors. September 21, 2015 ... For more on this story, visit CBS News. SHARE.'
p5
aS'Sep 21, 2015 - This is a new Food Safety News feature debuting today. ... Chipotle-Linked Outbreak: The culprit in an outbreak of Salmonella linked to a Chipotle restaurant in ...'
p6
aS"Sep 21, 2015 - That is great news, but with the distributing farm still a mystery, there may still be Salmonella tomatoes in homes or restaurants across the state. Shouldn't all ..."
p7
aS"Sep 21, 2015 - 'Freakonomics' Author Stephen J. Dubner Talks About His Chipotle Bag Story. 'I spent an embarrassingly long time thinking about what might make a good ..."
p8
aS"Sep 21, 2015 - Here's the problem: At Chipotle and other fast-casual Tex-Mex chains, it's scarily easy to order a ... Sign up for the latest scoop on food newsplus clean recipes."
p9
aS"Sep 21, 2015 - A spokesman for Chipotle Mexican Grill Inc. said that all of its cilantro comes from ... LIKE 11Alive's Facebook page to get the latest breaking news and weather ..."
p10
a.