(lp0
S'Sep 24, 2015 - DENVER --(BUSINESS WIRE)--Sep. 24, 2015-- Chipotle Mexican Grill, Inc. (NYSE: CMG) today announced that it will host a conference call to discuss third ...'
p1
aS'Sep 24, 2015 - ST. PETERSBURG  The demand for burritos must be high on Fourth Street. A Chipotle Mexican Grill is opening at 3540 Fourth St. N next to El Cap Restaurant.'
p2
aS'Sep 25, 2015 - Good news for Southwest valley residents who are starved for choices for good quick meals: A Chipotle location will open soon at 3815 Blue Diamond Road, ...'
p3
aS"Sep 24, 2015 - Franco Origlia / Getty Images News / chipotle.co.uk ... First off, let's talk about how Chipotle burrito artists (or whatever they're called) grill you on the spot like ..."
p4
aS'Sep 25, 2015 - In case you needed further evidence that viral fake news is often little more than ... Dozens of angry tweeters are boycotting Chipotle this week after seeing an ad ...'
p5
aS'Sep 25, 2015 - Business: DINING: Carnitas makes a comeback at Chipotle | carnitas, shortage, chipotle, ... GILMAN SPRINGS ROAD: A crash a week  but getting better. News ...'
p6
aS"Sep 25, 2015 - Chipotle is again targeting artificial ingredients with its new Taste Invaders online ... Chipotle 'fights' against additives with 'Taste Invaders'. By ... Latest News."
p7
aS"Sep 24, 2015 - Chipotle Just Launched An Amazing Burrito Game Modeled After 'Space Invaders' ... Chipotle (@ChipotleTweets) September 24, 2015. While the ... Food News."
p8
aS'Sep 25, 2015 - Business Finance News analyzes Chipotle Mexican Grill (NYSE: CMG) stock price performance for t2015 and the reasons behind major swings.'
p9
aS'Sep 24, 2015 - As of September 24, 2015, Hopkins resident Christine Bento has filed a lawsuit against Chipotle Mexican Grill Inc., for damages related to Salmonella poisoning ...'
p10
a.