(lp0
S'Jan 8, 2016 - Business News ... Chipotle Sued For Allegedly Misleading Investors About Food Safety ... Chipotle Mexican Grill, under scrutiny for months over outbreaks of ...'
p1
aS'Jan 8, 2016 - Chipotle Mexican Grill is facing another lawsuit connected to an outbreak of E. coli in ... News navigation ... Chipotle faces investor lawsuit over E. coli outbreak.'
p2
aS"Jan 8, 2016 - The lawsuit seeks damages on behalf of investors who acquired Chipotle shares from ... Thomson Reuters is the world's largest international multimedia news ..."
p3
aS'The fast-casual chain was at the center of a norovirus outbreak in California that led to at least 234 people being ...'
p4
aS"Jan 8, 2016 - By Sarah N. Lynch WASHINGTON (Reuters) - The U.S. Justice Department's consumer protection unit is looking into a norovirus outbreak at a Chipotle ..."
p5
aS"Jan 8, 2016 - The U.S. Justice Department's consumer protection unit is looking into a norovirus outbreak at a Chipotle restaurant in California, in a sign that a recent probe ..."
p6
aS'Jan 8, 2016 - A federal lawsuit argues that Chipotle Mexican Grill deceived shareholders when it came to its food safety practices. ... Chipotle sued over alleged misleading food safety statements. Federal lawsuit ... See the latest news from NRN. Chipotle ...'
p7
aS"Criminal investigation under way at Chipotle. Jan. 07, 2016 - 2:19 ... 'Fox News Reporting: Rising Threats ..."
p8
aS'Jan 9, 2016 - Chipotle, the burrito chain defamed by the recent E. coli outbreak, is facing a legal battle with one of its investors over its ... Download the application RT News.'
p9
aS"Jan 8, 2016 - The Mexican chain's claim of using organic and fresh food is under scrutiny. The contamination crisis has since compelled Chipotle, in acts of self-preservation, ..."
p10
a.