(lp0
S'Feb 26, 2016 - Bob Derrington, a Telsey Advisory Group restaurant analyst, says Chipotle will need ... by news of a norovirus incident in Boston, which sickened 136 students.'
p1
aS'Feb 25, 2016 - Like Chipotle, Mast Brothers has been offering free food to customers during the ... In the case of Taco Bell, the commenters on news and food websites (such as ...'
p2
aS"Feb 26, 2016 - Chipotle Mexican Grill's (CMG) share prices, which were battered by the recent E. coli outbreak, have begun to rise over the last few days. As of February 23, ..."
p3
aS"Feb 26, 2016 - Chipotle shares barely registered the analyst's steep downgrade. ... Barring any surprise news -- like another food-borne illness outbreak -- the company should ..."
p4
aS"Feb 25, 2016 - Chipotle stock is primed for a rebound now that it's operations are back to ... and it's going to catch Wall Street analysts off-guard -- which is great news for us."
p5
aS"Feb 26, 2016 - After the E.Coli issue on Chipotle's food, the company is hoping to win back its customers. But is using the ... Parenting, Education, Family Lifestyle News & Tips ..."
p6
aS'Feb 25, 2016 - Chipotle Mexican Grill traffic will likely improve in February, but its free-food giveaway weakened average check. ... See the latest news from NRN. Chipotle finds ...'
p7
aS"Feb 26, 2016 - (Before It's News) ... You may remember that last year Chipotle [] The post Federal investigation underway for Chipotle sabotage appeared first on Golden Age ..."
p8
aS"Feb 26, 2016 - Chipotle is working on a fourth straight decline and will soon test solid support. ... Access to Jim Cramer's daily blog; Intraday commentary and news; Real-time ..."
p9
aS"Feb 26, 2016 - On Monday, February 8, 2016, Chipotle's two thousand restaurants closed their .... According to Reuters news service, an unidentified senior Chipotle executive ..."
p10
a.