(lp0
S"Feb 29, 2016 - Jim Cramer likes shares of Chipotle Mexican Grill (CMG). ... Access to Jim Cramer's daily blog; Intraday commentary and news; Real-time trading forums."
p1
aS'Feb 29, 2016 - Chipotle Mexican Grill (CMG) PT Raised to $590 at Piper Jaffray. Article Stock Quotes ... For more ratings news on Chipotle Mexican Grill click here. Shares of ...'
p2
aS'Feb 28, 2016 - Car crashes into window of Chipotle restaurant in W. Wichita. POSTED: 07:36 PM CST Feb 28, 2016 ... News On Facebook Like  Follow  Submit a news tip ...'
p3
aS'Feb 29, 2016 - Chipotle and Panera Bread have been announced as two of the businesses going into ... In that interview, Armel told the Lebanon Daily News that he and his ...'
p4
aS"Feb 29, 2016 - Here's Why Chipotle Mexican Grill, Inc Stock Has Rallied Higher Today ... In addition, ever since the outbreak hit the news, there has been a significant drop off ..."
p5
aS'Feb 29, 2016 - To communicate its food safety enhancement procedures and win back its customers, Chipotle Mexican Grill (CMG) is conducting aggressive marketing and ...'
p6
aS'Feb 29, 2016 - Covered Call Alerts For Freeport-McMoRan, Chipotle Mexican Grill, The ... While many other market reports only provide stock news and opinion, we offer ...'
p7
aS'Feb 29, 2016 - To help, supporters can eat at Chipotle and tell the cashier they are support Denton High LULAC. Chipotle will donate 50 percent of the total ticket to DHS ...'
p8
aS"Feb 28, 2016 - Popular Restaurant Temporarily Closed; Police Arrest Logs; Chipotle Eyes Opening: Branford's Top News. Branford boat launch to close and impact the boating ..."
p9
aS'Feb 29, 2016 - Piper Jaffray lifts its price target on Chipotle (CMG) to $590 from $479 on its view that the ... 14,221 people get CMG breaking news and analysis by email alert.'
p10
a.