(lp0
S'Feb 3, 2016 - The E. coli outbreak that was linked to Chipotle restaurants may be over, but the ... As Chipotle reported continuing sales declines on Tuesday, the embattled ...'
p1
aS"Feb 2, 2016 - Steve Ells, Chipotle's co-chief executive officer, recently told Bloomberg News that the norovirus outbreaks in California and Boston involved breaches of ..."
p2
aS"Feb 2, 2016 - Chipotle's first decade was nothing short of spectacular. Since it ... when the end of a three-month period rolled around, Chipotle had only good news for investors."
p3
aS'Feb 2, 2016 - View source version on businesswire.com: http://www.businesswire.com/news/home/20160202006613/en/. Source: Chipotle Mexican Grill, Inc. Chipotle ...'
p4
aS"Feb 3, 2016 - Ells' co-CEO Montgomery Moran revealed more bad news yesterday during the ... The civil suit claims Chipotle allowed a kitchen manager to work for two days ..."
p5
aS'Feb 2, 2016 - Feb 2- Chipotle Mexican Grill Inc reported its first fall in quarterly sales at established restaurants since it went public as the burrito chain operator lost customers ...'
p6
aS"Feb 3, 2016 - Tempering the forward-looking plans was news that a federal criminal investigation of Chipotle's food-safety practices at one restaurant in California was ..."
p7
aS'Feb 2, 2016 - CDC investigation of Chipotle further supports corporate sabotage (bioterrorism) as likely source of E. coli ... Learn more at MonsantoMafia.com and GMO.news.'
p8
aS'Feb 3, 2016 - A weak earnings report prompted a 6 percent decline in stocks of Chipotle Mexican Grill, ... United Press International is a leading provider of news, photos and ...'
p9
aS"Feb 3, 2016 - Chipotle's fourth-quarter earnings report, issued after the market closed Tuesday, had ... However, investors need to weigh that against the recent news that the ..."
p10
a.