(lp0
S'Mar 8, 2016 - A Chipotle restaurant in Billerica voluntarily closes its doors Tuesday after an ... Home; / Local News ... Chipotle connected to norovirus outbreak reopened.'
p1
aS'Mar 7, 2016 - Credit Suisse revealed on Monday that it is lowering its forecasts Chipotle, ... Global Business and Financial News, Stock Quotes, and Market Data and Analysis.'
p2
aS'Mar 8, 2016 - A Massachusetts Chipotle restaurant has voluntarily shut down after four ... Mass. was closed for a full sanitization," a Chipotle spokesman told ABC News.'
p3
aS"Mar 8, 2016 - A Chipotle store in Massachusetts has been closed down for 'full sanitation' amid norovirus fears. ... chipotle portland meat boxes .... 2016 Cable News Network."
p4
aS'Mar 8, 2016 - A Chipotle Mexican Grill restaurant in Massachusetts closed today because an employee ... (To sign up for a free subscription to Food Safety News, click here.).'
p5
aS"Mar 8, 2016 - A Chipotle in Billerica has been shut down temporarily after an employee was ... Julie Loncich is a general assignment reporter for CBS Boston's WBZ-TV News."
p6
aS'Mar 8, 2016 - Chipotle Mexican Grill Inc., still trying to recover from a series of foodborne-illness outbreaks, temporarily shut a restaurant in Massachusetts after four ...'
p7
aS'Mar 8, 2016 - A Chipotle Mexican Grill in Billerica has closed voluntarily because an employee was diagnosed with norovirus, town health officials said. ... 1423 shares News ...'
p8
aS'Mar 8, 2016 - (Reuters) - Chipotle Mexican Grill Inc, which is trying to recover from a series of food-borne illness outbreaks, temporarily shut a Massachusetts restaurant after ...'
p9
aS'Mar 8, 2016 - Illness strikes again at Chipotle. ... News; Popular; Videos; Fortune 500 ... By Melissa Chan/TIME  A Chipotle restaurant in Massachusetts temporarily shut ...'
p10
a.