(lp0
S'Investors are prepared for a lousy earnings season. But the hardest hits to swallow are going to come from ...'
p1
aS'Apr 12, 2016 - Despite their recent breakout attracting attention from national news sources, everything seems to be moving smoothly at Chipotle again. Most people have ...'
p2
aS'Apr 10, 2016 - Chipotle is going back to its roots with new beverages, including sangria and agua fresca. Could the move help its turnaround?'
p3
aS"Apr 10, 2016 - Chipotle is trading around 40 percent off its 52-week high. With phenomenal growth prospects ahead of it, we can't miss this opportunity.The share price will mo."
p4
aS'Apr 10, 2016 - Chipotle Mexican Grill has filed for a trademark on the "Better Burger" name. ... You will find the latest news, market analysis, and education to help you become ...'
p5
aS"Apr 11, 2016 - It's Very Difficult To Have Conviction On Chipotle Right Now, Says Stephens ... Goldman Downgrades Chipotle On Near-Term Risk .... Trending News. Benzinga ..."
p6
aS'Apr 11, 2016 - It may not be the freshest investment idea on Wall Street these days, but Chipotle Mexican Grill, Inc. (CMG) stock is looking more and more inviting as a limited ...'
p7
aS'Apr 11, 2016 - Find out the latest news headlines for Chipotle Mexican Grill, Inc. Co (CMG).'
p8
aS'Apr 11, 2016 - The Story: For the second year, Chipotle is bringing its Cultivate Festival to metro Phoenix. The company puts on the event in select cities with the purpose of ...'
p9
aS'Apr 11, 2016 - On Apr 6 @Jassiel_Macias tweeted: "Nice fellow #Chipotle https://t.co/nO.." - read what others are saying and join the conversation.'
p10
a.