(lp0
S'However, those loyal customers were 50% more likely to avoid Chipotle since news of the health scandals ...'
p1
aS"Apr 12, 2016 - Chipotle Mexican Grill (NYSE:CMG) has become a serial promoter, and this weekend it's turning its attention to soccer kids. The turnaround-hungry restaurant ..."
p2
aS"Apr 12, 2016 - Home; >; Stocks Market News - Articles & Analysis; >; Stock Market Update ... Why It's Too Early To Start Scaling Into The Chipotle Mexican Grill, Inc. Stock."
p3
aS"Apr 12, 2016 - News  Chipotle ... Foot traffic into Chipotle locations has dropped 23 percent. ... Foursquare Predicts Chipotle's Q1 Sales Down Nearly 30%; Foot Traffic Reveals ..."
p4
aS"Apr 12, 2016 - TheStreet's Jim Cramer is a firm believer in the ability of Chipotle Mexican Grill (CMG - Get ... Access to Jim Cramer's daily blog; Intraday commentary and news ..."
p5
aS"Apr 12, 2016 - Location tracker Foursquare predicts a plunge in Chipotle's first-quarter sales. ... But following news of the fresh norovirus issue at the Boston restaurant that had ..."
p6
aS'Apr 12, 2016 - At first, Levine tried to help by pointing out the problem. Once the news got out, the nature of the incoming messages developed a wide range, from sympathizers ...'
p7
aS"Apr 12, 2016 - Chipotle Mexican Grill, Inc. (NYSE:CMG)'s stock had its underweight rating reaffirmed by equities ... Chipotle Mexican Grill Inc. - Receive News & Ratings Daily ..."
p8
aS'Apr 12, 2016 - ... data for beleaguered restaurant Chipotle to try and estimate their sales. ... Global Business and Financial News, Stock Quotes, and Market Data and Analysis.'
p9
aS'Apr 12, 2016 - Legendary investor Warren Buffett advises to be fearful when others are greedy, and be greedy when others are fearful. One way we can try to measure the level ...'
p10
a.