(lp0
S"Breaking News Point - Chipotle's troubles might help ..."
p1
aS'Digital News World - Why Wall Street Is Worried About All ...'
p2
aS"Prime News Hub - Chipotle's troubles might help Panera as ..."
p3
aS'Worldwide News Hub - Why Wall Street Is Worried About All ...'
p4
aS'Shrimp Tacos With Chipotle-Cream Sauce | Oregonian ...'
p5
aS"NYC's Halal Guys want to be the Chipotle of Middle Eastern ..."
p6
aS'US Surgeon General Visits L.A., Emphasizes Importance of ...'
p7
aS'Recipes: Camarones Chipotle & Fajitas Hawaianas'
p8
aS'Get Prime News - Why Wall Street Is Worried About All ...'
p9
aS"McDonald's new CEO strategy - Business Insider"
p10
a.