(lp0
S'Chipotle stock tanks after earnings. Was it a little too hot ...'
p1
aS'Chipotle shares hit hard as food costs rise - USA Today'
p2
aS'Chipotle Mexican Grill might be a victim of its own massive ...'
p3
aS'Chipotle Raises Concerns Its Growth May Be Cooling - WSJ'
p4
aS"Chipotle CEO disgusted by McDonald's chicken farm: report ..."
p5
aS'Chipotle Mexican Grill Inc - News Release'
p6
aS'Chipotle Mexican Grill Inc. fourth-quarter net income rises ...'
p7
aS'What Does Wall Street Want From Chipotle, Anyway ...'
p8
aS'Why Chipotle Stock Will Keep Rising (Eventually) -- The ...'
p9
aS'After Hours Action: Chipotle - ABC News'
p10
a.