(lp0
S"Chipotle's healthy image under attack | Fox News"
p1
aS'Chipotle in Riverhead expected to open by spring 2016 ...'
p2
aS'Chipotle Mexican Grill, Inc. (CMG): This Could Be Huge for ...'
p3
aS'Chipotle Mexican Grill coming to Canton - Hometownlife.com'
p4
aS'Chipotle Mexican Grill, Inc. (NYSE:CMG) - How Chipotle ...'
p5
aS'Chipotle in Willow Grove robbed - Montgomery News'
p6
aS'Chipotle faces lawsuit over allegedly false non-GMO claims ...'
p7
aS'JPMorgan, Intel earnings weigh on Dow; Chipotle drops ...'
p8
aS"Whole Foods Just Bought a Stake in 'the Chipotle of ..."
p9
aS'Qdoba banks on the Quentessa to combat Chipotle ...'
p10
a.