(lp0
S'Chipotle apologizes after hacked Twitter ... - Fox News'
p1
aS'Chipotle Twitter hackers send out volley of racist and ...'
p2
aS'The Worst Mistake Chipotle Investors Could Make Right Now'
p3
aS"Racists Hack Chipotle's Twitter, Post Racist Tweets About ..."
p4
aS'Chipotle Apologizes for Racist and Profane Tweets Over ...'
p5
aS'New Chipotle restaurant model might fit Sioux Falls'
p6
aS'Chipotle Twitter feed sends racist tweets during hack ...'
p7
aS'Long Lines on Opening Day of Fargo Chipotle'
p8
aS'When will pork be back at Chipotle? | Feast Palm Beach'
p9
aS'Chipotle apologises for offensive tweets, says account was ...'
p10
a.