(lp0
S'Chipotle Adds Another Pizzeria To Its Empire - Huffington Post'
p1
aS'Chipotle opens second Joliet location | The Herald-News'
p2
aS'Chipotle Mexican Grill coming to the Rio Grande Valley ...'
p3
aS'Bed Pros To Become Chipotle - Neighborhood News'
p4
aS'Chipotle, But For Cheeseburgers? Shake Shack IPO Sets ...'
p5
aS'Chipotle-Backed Pizzeria Locale Expands to Kansas City ...'
p6
aS'Shake Shack IPO is hot but can it match Chipotle? | Reuters'
p7
aS'Will George Clooney Really Buy You A Meal At Chipotle?'
p8
aS"Chipotle's Pizzeria Locale expands from Colorado to ..."
p9
aS'Will Chipotle Mexican (CMG) Keep Earnings Streak Alive ...'
p10
a.