(lp0
S'Chipotle Mexican Grill Inc - News Release'
p1
aS'Carnitas to return to Chipotle restaurants | KRQE News 13'
p2
aS'Chipotle New Game Win Free Burritos - Refinery29'
p3
aS"Chipotle game 'Friend or Faux' to compare ingredients with ..."
p4
aS'Chipotle to open in Orem by the end of summer | Local ...'
p5
aS'Play this game, win free Chipotle - WUSA9.com'
p6
aS"Here's How You And A Friend Can Win Free Chipotle For A ..."
p7
aS'Chipotle caught in pork hypocrisy | Pork Network'
p8
aS'Chipotle Friend or Faux  Chipotle News  ALL YOU | Deals ...'
p9
aS'You Could Win Free Chipotle Burritos for a Year If You Can ...'
p10
a.