(lp0
S'Chipotle Still Feeling Pain After E. Coli Outbreak of ...'
p1
aS'Chipotle Tightens Standards Amid E. Coli Outbreak, Putting ...'
p2
aS'Chipotle Should Eventually Recover From E. Coli Scare ...'
p3
aS'Chipotle to tighten produce supplier rules after E. coli outbreak'
p4
aS'Which Chipotle Restaurants are Part of the E. coli Outbreak?'
p5
aS'E. Coli Pain Could Linger for Chipotle Shareholders'
p6
aS'Chipotle coming to Palladium development - Greensboro ...'
p7
aS'Chipotle Debunks Report That Stores Will Close Over Dog ...'
p8
aS'The Chronicle @ Kettle Run : Chipotle Tested After E.Coli ...'
p9
aS"Chipotle's Rivals Take Advantage of E. Coli Outbreak Scare"
p10
a.