(lp0
S'Chipotle Opens in Kennewick to Delight of Fresh Burrito Fans'
p1
aS'The Chipotle Mexican Grill Inc. Carnitas Shortage is Finally ...'
p2
aS"Dear Shake Shack: I Knew Chipotle, and You're No Chipotle ..."
p3
aS'Chipotle opens in Kennewick | Tri-City Herald'
p4
aS'David Lee says goodbye to Warriors, buys staff Chipotle'
p5
aS'David Lee buys Chipotle to thank Golden State Warriors ...'
p6
aS'Chipotle Makes Education a Sales Tactic | Inverse'
p7
aS'Good guy David Lee said goodbye to Warriors employees ...'
p8
aS'news/business/3807694-chipotle-arbys-development-gets ...'
p9
aS'Restaurants coming to Charlotte include Chipotle at ...'
p10
a.