(lp0
S"What's Being Done to Stop the Chipotle E. coli Outbreak ..."
p1
aS'CDC Confirms Same E. coli Strain Infected People in ...'
p2
aS'Chipotle now linked to 35 confirmed E. coli cases | Fox News'
p3
aS'Investigators closing in on source of Chipotle E. coli outbreak'
p4
aS'Chipotle E. coli cases continue to rise in Washington | The ...'
p5
aS"'I dodged a bullet,' says victim of Chipotle's E. coli outbreak ..."
p6
aS'CDC Investigating As E. Coli Outbreak Linked To Chipotle ...'
p7
aS'How CDC Is Using DNA Technology in Suspected Chipotle ...'
p8
aS"Chipotle's E. coli outbreak threatens sales, emboldens critics"
p9
aS'Why Is Chipotle Having So Many Food Safety Issues ...'
p10
a.