(lp0
S'Chipotle still facing pork shortage, no carnitas in ... - Fox News'
p1
aS"Chipotle Explains No 'Quick Fix' With Carnitas Shortage ..."
p2
aS"Chipotle Breaks the News That Carnitas Won't Return ..."
p3
aS'Chipotle customers ask: "Where\'s the pork?" - CBS News'
p4
aS'Chipotle a victim of its growth, food standards - Consumer ...'
p5
aS"Chipotle Drops Bomb That Carnitas Aren't Coming Back ..."
p6
aS'Chipotle Keeps Running Out of Carnitas Due to Ingredient ...'
p7
aS'Chipotle stops selling pork at a third of its restaurants | Daily ...'
p8
aS'Can you say burrito bowl? Chipotle to arrive in Leesburg in ...'
p9
aS"Janeka Samuels' case against Chipotle manager is ..."
p10
a.