(lp0
S"Can Chipotle ever prove it's GMO-free? - CBS News"
p1
aS'Chipotle Is Caught In The Messy Business Surrounding ...'
p2
aS"Who's behind ad campaign against Chipotle? | Fox News"
p3
aS'Norovirus suspected for Chipotle illnesses | Sacramento ...'
p4
aS'Norovirus Linked to Nearly 100 Cases of Food Poisoning at ...'
p5
aS'SoCal Chipotle Linked to Norovirus Outbreak Affecting ...'
p6
aS"Chipotle critic turns up heat with 'Chubby Chipotle' ad ..."
p7
aS"Chipotle Under Attack: Is 'Chubby Chipotle' Negative Ad ..."
p8
aS'Is Chipotle evil? This ad campaign says absolutely - The ...'
p9
aS"Chipotle (CMG) Co-CEO: I'm 'Happier Than Hell' When I ..."
p10
a.