(lp0
S"Chipotle Illnesses Have Food Safety Experts 'Scratching ..."
p1
aS'Chipotle tweaks recipes to cut E. coli risk - CBS News'
p2
aS'ANALYSIS: Chipotle is a victim of corporate sabotage ...'
p3
aS'Chipotle to change cooking methods to address safety ...'
p4
aS'Chipotle Outbreak Illness Count Hits 514 as CMG Stock ...'
p5
aS'Chipotle stock plunges again on new E. coli fears - Dec. 22 ...'
p6
aS'Second Chipotle E. Coli Outbreak Highlights Struggle to ...'
p7
aS'How Chipotle Can Recover From E.Coli Outbreak - ABC News'
p8
aS'4 Bold Moves Chipotle (CMG) Needs to Make Now as E ...'
p9
aS'FDA and CDC probe second wave of Chipotle E. coli outbreak'
p10
a.