(lp0
S"The Ms. Print : Chipotle is Closed and We're All Freaking ..."
p1
aS'Downtown Birmingham Chipotle sets opening date ...'
p2
aS'Chipotle Mexican Grill, Inc (CMG) Comps To Face A Near ...'
p3
aS'Susquehanna Twp. OKs Chipotle Mexican Grill for Union ...'
p4
aS'Rash of E. coli cases highlights foodborne illness problem ...'
p5
aS'Are Starbucks and Chipotle Feasting on Your Wallet? Visa ...'
p6
aS'Chipotle Serves Up Chips, Guac & HR Email  Krebs on ...'
p7
aS'Chipotle Fundraiser Event  HOLA Foundation'
p8
aS'The Week in PR  PR News'
p9
aS'Ecoli outbreak at Chipotle. - YouTube'
p10
a.