(lp0
S'Chipotle Is Being Sued for Allegedly Shady Hiring Practices ...'
p1
aS'Chipotle Mexican Grill Inc - News Release'
p2
aS'Chipotle opening another location on Fourth Street in St ...'
p3
aS"Chipotle Actually Isn't That Good - BuzzFeed"
p4
aS'Chipotle Just Launched An Amazing Burrito Game Modeled ...'
p5
aS'Today: Win a Kindle or year of burritos from Chipotle ...'
p6
aS'Third Lawsuit Filed Against Chipotle for Salmonella-Tainted ...'
p7
aS"Chipotle vs. Moe's review - Business Insider"
p8
aS'Why Chipotle is wrong about loyalty | Fast Casual'
p9
aS'Chipotle faces ad attack in response to its anti-GMO ...'
p10
a.