(lp0
S'How to double the size of your next Chipotle ... - Fox News'
p1
aS'Could these 6 simple steps REALLY get you an 86% bigger ...'
p2
aS'Chipotle Is Raising Beef Prices, A Report Says - Fortune'
p3
aS'Khlo Kardashian Pays for Extra Guac at Chipotle: How She ...'
p4
aS'Prices For Beef Chipotle Burritos Expected To Rise  WCCO ...'
p5
aS'Man discovers tips to maximize your Chipotle burrito | fox8 ...'
p6
aS'Khloe Kardashian, James Harden spotted at a Houston ...'
p7
aS'Chipotle and Manchego Are Leading an Alien Cat Invasion ...'
p8
aS'Chipotle raises beef prices due to market demand | www ...'
p9
aS"Khloe Kardashian Lamar Odom Fight  'KUWTK' Star Flies ..."
p10
a.