(lp0
S"Qdoba Doesn't Want to Be the Next Chipotle - The Motley Fool"
p1
aS"Chipotle's GMO Catch-22 - Pork - News | Agweb.com"
p2
aS'Chipotle Mexican Grill opens Thursday in Oak Ridge - News ...'
p3
aS"Plans announced for Downriver's first Chipotle Mexican Grill ..."
p4
aS"Here's How You Can Get $3 Chipotle Burritos For Halloween"
p5
aS'Chipotle Boorito: $3 Burritos on Halloween for an ...'
p6
aS'Annual Boorito fundraiser at Chipotle adds "unnecessary" spin'
p7
aS'Minnesota salmonella outbreak linked to Chipotle restaurants'
p8
aS'Chipotle sponsors second annual free music, food fest in ...'
p9
aS'Petition: Chipotle MUST Stop Serving Class 2A ... - Breitbart'
p10
a.