(lp0
S"Bend's Chipotle Mexican Grill ready to open | News - Home"
p1
aS'5 Stunning stats about Chipotle - Video - Business News'
p2
aS"Conquering the Office Lunch, Using Chipotle's Playbook ..."
p3
aS"This Is Why Taco Bell Can't Compete with Chipotle Mexican ..."
p4
aS'Carnitas Are Back On The Chipotle Menu - WBNS /10tv.com'
p5
aS'The Ball State Daily :: Chipotle has no plans to come to ...'
p6
aS'Carnitas comeback: Chipotle taps U.K. supplier to address ...'
p7
aS'Bruce Turkel on Fox Business News: Twitter, Chipotle and ...'
p8
aS"Chipotle's Carnitas Returns to Most Restaurants - Fast Food ..."
p9
aS'Chipotle Carnitas Comeback - Valley News Live'
p10
a.