(lp0
S'Chipotle: The Definitive Oral History - Business, Financial ...'
p1
aS"McDonald's tried to turn Chipotle into another McDonald's ..."
p2
aS'Chipotle stock tanks after earnings. Was it a little too hot ...'
p3
aS"Chipotle CEO disgusted by McDonald's chicken farm: report ..."
p4
aS'Chipotle Mexican Grill might be a victim of its own massive ...'
p5
aS'Chipotle shares hit hard as food costs rise - USA Today'
p6
aS'Chipotle Is an Expensive Burrito -- Ahead of the Tape - WSJ'
p7
aS'Chipotle Raises Concerns Its Growth May Be Cooling - WSJ'
p8
aS"Chipotle founder said McDonald's chicken farm was the ..."
p9
aS'Chipotle Mexican Grill Inc - News Release'
p10
a.