(lp0
S'Reports: Just how unhealthy is your Chipotle order? | www ...'
p1
aS"Chipotle Doesn't Really Care That Burritos Make You Fat ..."
p2
aS'Sorry guys, but we have some bummer Chipotle news'
p3
aS'Turns Out Nobody Actually Cares If Chipotle Is Unhealthy ...'
p4
aS'Taco Bell Has Less Calories, Fat Than Chipotle  But ...'
p5
aS'Chipotle Mexican Grill Stock: Overhyped or Just Getting ...'
p6
aS'Cracker Barrel, Five Guys, Chipotle approved'
p7
aS'Chipotle Meals Under 500 Calories - Cheat Sheet for ...'
p8
aS"Shocking Chipotle News: The Friday Don't Miss List | Ypulse"
p9
aS"Signage Approved for Covington Chipotle. Here's When It ..."
p10
a.