(lp0
S'SoCal Chipotle shuts down after dozens of customers get ...'
p1
aS'Update: 99 Sickened After Eating at Southern CA Chipotle ...'
p2
aS'Dozens ill after eating at Chipotle in Simi Valley'
p3
aS'At Least 99 People Are Sick After Eating at a Chipotle ...'
p4
aS'Finally, Chipotle - The Daily Athenaeum: News'
p5
aS'Orem Chipotle opening its doors Aug. 27 | Orem News ...'
p6
aS'Chipotle hiring 4,000 employees | SILive.com'
p7
aS'Chipotle to hire 4,000 at National Career Day | WREG.com'
p8
aS'Chipotle Health Code Violations in Simi Valley - Food ...'
p9
aS'Next post Chipotle Food Poisoning Lawsuit: 1-888-335-4901'
p10
a.