(lp0
S"Meet the Farmer Who's Helping Chipotle Go Organic - Yahoo"
p1
aS"Monsanto's Worst Fear May Be Coming True - Truthout"
p2
aS'No Chipotle? - Fairbanks Daily News-Miner'
p3
aS'Westmoreland, Chipotle defeat proxy-access proposals ...'
p4
aS'Chipotle Under Attack for Going GMO Free - EcoWatch'
p5
aS'Chipotle working on Sioux Falls location - Argus Leader'
p6
aS'Lawsuits Allege Chipotle Underpaid Employees, Made ...'
p7
aS'Why Your Chipotle Burrito Might Soon Cost More ...'
p8
aS'Indiana Chipotle restaurants hold open job interviews ...'
p9
aS'Chipotle Workers Fight To Keep Opt-In OT Plaintiffs - Law360'
p10
a.