(lp0
S'Chipotle CEO to address charges of stiffing workers on wages'
p1
aS'Chipotle is finally coming to SE Texas - Beaumont Enterprise'
p2
aS'The Truth About Chipotle Mexican Grill, Inc: More Calories ...'
p3
aS'Authorities investigate reported abduction of Chipotle worker'
p4
aS'Chipotle Shorts Cover After 8% Slump on Sales Optimism ...'
p5
aS'Popular chain restaurants coming to Victoria - Victoria ...'
p6
aS'How to Eat Healthy at Chipotle - Yahoo'
p7
aS'A Stock Chart Never Lies, But Sometimes It Mumbles | Stock ...'
p8
aS"McDonald's new CEO strategy - Business Insider"
p9
aS'Man charged with faking abduction from Green Township ...'
p10
a.