(lp0
S'Chipotle Reveals Its Coveted Guacamole Recipe  Food ...'
p1
aS'Sex, Money, and Chipotle: Most shared stories from US ...'
p2
aS"Chipotle's GMO ban criticisms - Business Insider"
p3
aS'Report: Customer badly burned after hot oil spills at Midtown ...'
p4
aS'Hot oil burns woman in line at Midtown Chipotle, police say'
p5
aS'Chipotle reveals recipe for guacamole | WATE 6 On Your Side'
p6
aS'Customer badly burned by hot oil at North Carolina Chipotle ...'
p7
aS'Chipotle Mexican Grill, Inc.(NYSE:CMG) Stock And The ...'
p8
aS"GMO Purge Could Create the 'Chipotle of' Supply Chain ..."
p9
aS"Behind Chipotle Mexican Grill's singular success: A discussion"
p10
a.