(lp0
S'3 Reasons to LOVE Chipotle From an RD - Health News ...'
p1
aS'Why Chipotle Is Still a Better Investment Than Panera -- The ...'
p2
aS"What's coming to Delco: Cracker Barrel, Chipotle, Painting ..."
p3
aS'A pizza chain that emulates Chipotle and counts LeBron ...'
p4
aS"Chipotle's biggest competitor isn't McDonald's - Business ..."
p5
aS'These are the American cities with the highest ... - Fusion'
p6
aS'Chipotle offers BOGO coupon - Daily Press'
p7
aS'Chipotle Mexican Grill - Anderson - Facebook'
p8
aS"McDonald's trying to drum up business by acting like Chipotle"
p9
aS'Beans & rice every day and no Chipotle? Welcome ... - News'
p10
a.