(lp0
S'Chipotle offering customers free burrito coupon if you try ...'
p1
aS'Chipotle to give away coupons for free burritos on January 26'
p2
aS'Jan. 26 is About More Than Free Burritos at Chipotle ...'
p3
aS'Chipotle announces free food promo'
p4
aS'Murphy USA and Chipotle coming to Joliet site | The Herald ...'
p5
aS"McDonald's fixes its marketing, Chipotle fixes its product ..."
p6
aS'Meatless Monday: Snag free Chipotle for Sofritas purchase ...'
p7
aS'Your Local Chipotle Might Not be Serving Carnitas Anymore'
p8
aS'Chipotle to offer free entree for those who try Sofritas'
p9
aS'Chipotle Mexican Grill Inc. founder, chairman and co-CEO ...'
p10
a.