(lp0
S'Chipotle workers are trained to give you smaller portions of ...'
p1
aS"Inside Chipotle's Kitchen: What's Really Handmade - WSJ"
p2
aS'The Chipotle of... - WSJ.com'
p3
aS'Denver-based Chipotle changes executive pay practices ...'
p4
aS"Don't Waste Your Money: Chipotle Mexican Grill secret ..."
p5
aS'Chipotle secret menu: 6 items you have to try - ABC15 Arizona'
p6
aS'Chipotle restaurant coming to West Erie Plaza - GoErie.com ...'
p7
aS'Chipotle secret menu can spice up a cold night'
p8
aS'Chipotle to Open Second Chain in Millcreek - Story | YourErie'
p9
aS'4 Ways to Invest in Millennials - US News'
p10
a.