(lp0
S'Chick-fil-A has one advantage over Chipotle - Yahoo Finance'
p1
aS'Commission approves Chipotle, Habit projects ...'
p2
aS'Chipotle Mexican Grill locating in Oak Ridge'
p3
aS'Carnitas Coming Back to Restaurants: Does This Really ...'
p4
aS"Chipotle Mexican Grill, Inc.'s Most Important Employees ..."
p5
aS'Chipotle Mexican Grill, Inc. (CMG) FY15 Earnings Estimates ...'
p6
aS'Customer Gets 20 Free Meals at Chipotle After Biting Into ...'
p7
aS'Is Chipotle Mexican Grill, Inc (CMG) Ready For A Stock Split?'
p8
aS'Chipotle Customer -- They Screwed Me ... With a Side of ...'
p9
aS'Dakota Student : Chipotle vs. Qdoba: A fair fight with no ...'
p10
a.