(lp0
S'E. Coli Outbreak Linked to Chipotle Widens, With 52 ...'
p1
aS'Chipotle Vows to Tighten Food Safety Standards in Wake of ...'
p2
aS'E. coli outbreak linked to Chipotle expands | Fox News'
p3
aS'Chipotle sales battered by widening E. coli outbreak | Reuters'
p4
aS'Chipotle Issues Investor Warning After E. Coli Outbreak ...'
p5
aS'Chipotle sales battered by widening E. coli outbreak'
p6
aS'Chipotle warns of sales slide as E. coli outbreak expands'
p7
aS'Chipotle Sales Are Tumbling, As E. Coli Outbreak Worsens ...'
p8
aS'Chipotle Offers Dim Outlook As E. Coli Outbreak Slams ...'
p9
aS'Chipotle Falls After E. Coli Cases Confirmed in New States ...'
p10
a.