(lp0
S'Chipotle Has a Pork Problem - Bloomberg'
p1
aS"Chipotle competitor Moe's wants to open more Twin Cities ..."
p2
aS'Chipotle, Supercuts among businesses headed to Liberty ...'
p3
aS'Chipotle Is an Acceptable First-Date Location -- The Cut'
p4
aS'Chipotle to open restaurant in Warner Robins | The Telegraph'
p5
aS"The secret recipe of Chipotle's success | Fox Business Video"
p6
aS"It's Official: Chipotle Is for Lovers - Esquire"
p7
aS"Reporter's Notebook: Chipotle should do fine here despite ..."
p8
aS"Modmarket's Chipotle Steak Sandwich | KDFW"
p9
aS'Is El Pollo Loco The Next Chipotle? - Seeking Alpha'
p10
a.