(lp0
S"Chipotle's latest E. coli cases may remain ... - Fox News"
p1
aS'Boston Chipotle hit by norovirus hopes for fresh start - CBS ...'
p2
aS'Chipotle reopens Boston restaurant linked to ... - Reuters'
p3
aS'Chipotle connected to norovirus outbreak reopened | Local ...'
p4
aS"Chipotle's sales decline is just beginning - Business Insider"
p5
aS'Chipotle reopens Boston restaurant linked to norovirus ...'
p6
aS'The poisoning: Will Chipotle survive health disaster?'
p7
aS'Boston Chipotle where 136 sickened with norovirus reopens'
p8
aS'Is This the Week Chipotle Starts to Bounce Back? -- The ...'
p9
aS'Chipotle Makes Food Prep Changes After E. Coli Scare'
p10
a.