(lp0
S'E. coli case in Whatcom County not linked to Chipotle ...'
p1
aS"It's Open! See Inside the New Covington Chipotle | The ..."
p2
aS'Another lawsuit filed against Chipotle in E. coli outbreak'
p3
aS'Number Of Cases In Chipotle E. Coli Outbreak Drops To 37'
p4
aS"The Ms. Print : Chipotle is Closed and We're All Freaking ..."
p5
aS'Why I Can Never Order From Chipotle Again - Huffington Post'
p6
aS'Mike Huckabee compares Syrian refugees to tainted ...'
p7
aS'Should You Buy Chipotle Right Now? - Chipotle Mexican ...'
p8
aS'Chipotle E. coli Outbreak Numbers Fall from 50 to 37 | Food ...'
p9
aS'Downtown Birmingham Chipotle sets opening date ...'
p10
a.