(lp0
S'Chipotle Reaches Awkward Age - WSJ'
p1
aS'After Rampant Growth In 2014, Chipotle Is Slowing Down ...'
p2
aS'Chipotle Mexican Grill Inc - News Release'
p3
aS'chipotle quarterly earnings - CNBC.com'
p4
aS"Chipotle's Sales Slowdown Leaves Investors Hungry For ..."
p5
aS'Chipotle has worst sales growth in over two years - Oct. 20 ...'
p6
aS"McDonald's is beating Chipotle - Oct. 20, 2015 - CNN Money"
p7
aS'Chipotle Slips as Profit Miss Raises Concerns About Growth ...'
p8
aS'Chipotle Mexican Grill Inc. sales continue to slow in third ...'
p9
aS'Chipotle Mexican Grill (CMG) Misses Q3 EPS by 4c'
p10
a.