(lp0
S'What in the world is happening to Chipotle - Washington Post'
p1
aS'Chipotle Virus Outbreak Hits 120, School Says: What You ...'
p2
aS'News Norovirus strikes 120 Boston College students who ...'
p3
aS"Chipotle CEO says he's sorry as sick count climbs - CBS News"
p4
aS'Chipotle Faces Another Foodborne Illness Outbreak, This ...'
p5
aS'Chipotle Promotes Fresh Food While Cautioning About Its ...'
p6
aS"Seattle Chipotle Closed For 'Repeated Food Safety Violations'"
p7
aS'BC: More than 120 students now sick from Chipotle outbreak'
p8
aS'UPDATE: Chipotle Sick List in Mass. Up to 140 | Patch'
p9
aS"Chipotle co-CEO speaks out after health scares: 'This will be ..."
p10
a.