(lp0
S'No pork at a third of Chipotle restaurants - CBS News'
p1
aS'Chipotle carnitas shortage - San Jose Mercury News'
p2
aS'Chipotle Suspends Pork Sales at a Third of Its Restaurants ...'
p3
aS'Chipotle stops serving carnitas at a third of its restaurants ...'
p4
aS'Chipotle: No pork at a third of restaurants - Yahoo Finance'
p5
aS'Try the tofu, and Chipotle will reward you | The Wichita Eagle'
p6
aS'Chipotle Gives Away Free Meals In Exchange for Trying Tofu'
p7
aS'Chipotle suspends pork sales at a third of its U.S. ...'
p8
aS'You might not be able to get pork at Chipotle for a while ...'
p9
aS'Chipotle: No pork at a third of restaurants - The Denver Post'
p10
a.