(lp0
S'Pass the hot sauce; Chipotle co-CEOs get served ...'
p1
aS'Chipotle CEO to Cramer: Changing food culture - CNBC.com'
p2
aS'Chipotle changing food culture: CEO - CNBC Video'
p3
aS"Chipotle Mexican Grill Co-CEOs' 2014 Compensation Up 15 ..."
p4
aS'Chipotle Co-CEOs Got Raise in 2014 Despite Shareholder ...'
p5
aS'El Pollo Loco CEO reveals success strategy - Business Insider'
p6
aS'Yum! Brands (YUM), Chipotle (CMG) Active; Levy ...'
p7
aS"Jim Cramer's Top Takeaways: Boeing (BA), Chipotle ..."
p8
aS'Northeast Valley News : Chipotle Cultivate Music Festival ...'
p9
aS'Habit Grill Burger Chain Is Growing Faster Than Chipotle ...'
p10
a.