(lp0
S"Ag Asks Chipotle, 'Who Smears Who?' - News | Agweb.com"
p1
aS'Chipotle Stock Might Rise After Panic Subsides - Forbes'
p2
aS'Why is a nonprofit shill for business interests attacking ...'
p3
aS'Better Buy Now: Chipotle Mexican Grill, Inc. or Shake Shack ...'
p4
aS"Plans announced for Downriver's first Chipotle Mexican Grill ..."
p5
aS"Meet the Farmer Who's Helping Chipotle Go Beyond Non ..."
p6
aS'Chipotle solves its pork problem - Fortune'
p7
aS'Boorito Promotion Returns to Chipotle This Halloween ...'
p8
aS'Jack in the Box Inc. - ETF Daily News'
p9
aS"Chipotle vs. McDonald's: The Rise Of Fast Casual Food In ..."
p10
a.