(lp0
S'Chipotle Mexican Grill finally opens in Amarillo | Amarillo ...'
p1
aS'West Seattle Blog | West Seattle restaurants: Chipotle ...'
p2
aS'When will pork be back at Chipotle? | Feast Palm Beach'
p3
aS"How Chipotle's hiring policies contribute to its success ..."
p4
aS"Chipotle's revenues grow 28% in 4Q14 - Yahoo Finance"
p5
aS"Why Chipotle's food policy is a double-edged sword - Yahoo ..."
p6
aS'Chipotle Mexican Grill sees massive same-store sales growth'
p7
aS'Chipotle Mexican Grill adds 60 new restaurant units in 4Q14 ...'
p8
aS'Recall: MegaMex Foods Herdez Chipotle Peppers | Price ...'
p9
aS'Chipotle Mexican Grill | South Denver | Mexican, Fast ...'
p10
a.