(lp0
S'Chipotle reveals its guacamole recipe, fans ... - Fox News'
p1
aS'Praise Avocados! Chipotle Just Gave Out their Famous ...'
p2
aS'Chipotle finally unveils recipe to its famous guacamole - NY ...'
p3
aS'Chipotle Just Revealed Their Guacamole Recipe - MTV'
p4
aS'Chipotle Reveals Guacamole Recipe So You Can Make at ...'
p5
aS'Chipotle releases its guacamole recipe - Videos - CBS News'
p6
aS'Chipotle Reveals Its Guacamole Recipe  CBS Sacramento'
p7
aS'GMO announcement shows Chipotle must be Spanish for ...'
p8
aS'Chipotle Revealed Its Guacamole Recipe So Now You Can ...'
p9
aS'Chipotle Unveils What Exactly is in Their Guacamole - Jezebel'
p10
a.