(lp0
S'Chipotle reveals its guacamole recipe, fans ... - Fox News'
p1
aS'Praise Avocados! Chipotle Just Gave Out their Famous ...'
p2
aS'Chipotle finally unveils recipe to its famous guacamole - NY ...'
p3
aS'Chipotle Reveals Guacamole Recipe So You Can Make at ...'
p4
aS'Chipotle releases its guacamole recipe - Videos - CBS News'
p5
aS'Council hears plans for Chipotle restaurant | Local News ...'
p6
aS'Thank you Chipotle! The restaurant reveals its secret ...'
p7
aS'Chipotle Revealed Its Guacamole Recipe So Now You Can ...'
p8
aS'GMO announcement shows Chipotle must be Spanish for ...'
p9
aS'Chipotle Mexican Grill Inc - News Release'
p10
a.