(lp0
S'Chipotle Will Use Central Kitchen for Some Ingredients After ...'
p1
aS'Chipotle outbreak highlights sourcing concerns for growing ...'
p2
aS"Chipotle's reputation continues to suffer after E. coli outbreak"
p3
aS"Chipotle's First Norovirus Outbreak in California was Larger ..."
p4
aS'Chipotle metric drops to lowest level ever - CNBC.com'
p5
aS'Chipotle CEO to Cramer: There is no E coli in Chipotle today'
p6
aS'After E. Coli Outbreak, Chipotle Is Making Big Promises On ...'
p7
aS'Chipotle has good news for customers after the E. Coli scare'
p8
aS'Chipotle announces what it will do differently after E.coli ...'
p9
aS'Chipotle founder apologizes for norovirus outbreak in full ...'
p10
a.