(lp0
S"Chipotle's healthy image under attack | Fox News"
p1
aS'Suspects rob Chipotle in Willow Grove, Pa. | 6abc.com'
p2
aS"Chipotle Treads Starbucks' Path, Creates CIO Position ..."
p3
aS'Suspects Rob Montgomery County Chipotle | NBC 10 ...'
p4
aS"Debbie's Deals: Eat Chipotle, get a free pizza - 7NEWS ..."
p5
aS'Chipotle faces lawsuit over allegedly false non-GMO claims ...'
p6
aS'Chipotle Mexican Grill, Inc. (NYSE:CMG) - How Chipotle ...'
p7
aS"Whole Foods Just Bought a Stake in 'the Chipotle of ..."
p8
aS'Suspects rob Chipotle in Willow Grove, Pa. - Yahoo News'
p9
aS'JPMorgan, Intel earnings weigh on Dow; Chipotle drops ...'
p10
a.