(lp0
S'Chipotle, Panera get A grade in study about ... - Fox News'
p1
aS'Masked, armed man robs Park Ridge Chipotle, police say ...'
p2
aS'Second Minnesota lawsuit filed against Chipotle after ...'
p3
aS'How Chipotle, McDonalds and other fast food and ...'
p4
aS'Most restaurant chains get failing grades on antibiotic use in ...'
p5
aS'Chipotle Fight Escalates | Fox Business'
p6
aS'Chipotle Mexican Grill Inc - News Release'
p7
aS'Chipotle said to be source of Salmonella outbreak in ...'
p8
aS'Chipotle, Pie Five to open next month in Ormond Beach ...'
p9
aS'Park Ridge Chipotle robbed at gunpoint, police say - Park ...'
p10
a.