(lp0
S'Chipotle dethrones Subway as healthy fast food ... - Fox News'
p1
aS'10-Year Snapshot: Chipotle - Restaurant Industry Insight ...'
p2
aS'Mexican Cilantro Contamination Spurs Partial US Import Ban'
p3
aS"Chipotle coming to Appleway - Coeur d'Alene Press: Business"
p4
aS'Fire in ice cream machine causes smoke damage at ...'
p5
aS'Stock Touches All-Time High, As Chipotle Fills In The Gaps ...'
p6
aS"America's favorite 'healthy' food is Chipotle - Business Insider"
p7
aS'Get That Life: How I Became the Top Female Executive at ...'
p8
aS'Colorado workers sue Chipotle, part of national trend'
p9
aS'Chipotle (CMG) Stock | Short Sellers Keep Eating This Burrito'
p10
a.