(lp0
S'Chipotle facing lawsuit in Colorado claiming employees ...'
p1
aS'Chipotle Mexican Grill Inc - News Release'
p2
aS"Chipotle-Backed 'Pizzeria Locale' Is Expanding | Here & Now"
p3
aS'Chipotle Mexican Grill restaurants host Open Interview Day ...'
p4
aS'Lawsuit alleges Chipotle employees were forced to work ...'
p5
aS'Seven ex-Chipotle workers allege work without pay, seek ...'
p6
aS'A Chipotle-style pizza chain endorsed by LeBron James is ...'
p7
aS'Chipotle presents plan for Macon restaurant - 13WMAZ.com'
p8
aS'Lawsuit: Chipotle employees worked unpaid hours - YouTube'
p9
aS'Chipotle hosts open interview day statewide Feb. 17, no ...'
p10
a.