(lp0
S'Tomatoes linked to Salmonella outbreak at Chipotle ... - KMSP'
p1
aS'Second Minnesota lawsuit filed against Chipotle after ...'
p2
aS'Chipotle, Panera get A grade in study about ... - Fox News'
p3
aS'How Chipotle, McDonalds and other fast food and ...'
p4
aS'Tomatoes source of Chipotle salmonella outbreak in ...'
p5
aS'Most restaurant chains get failing grades on antibiotic use in ...'
p6
aS'News release: UPDATE: Tomatoes identified as source of ...'
p7
aS'This Could Be the Chipotle Killer Nobody Sees -- The ...'
p8
aS'Chipotle And Panera Top Ranking Of Restaurants ...'
p9
aS'Chipotle, Pie Five to open next month in Ormond Beach ...'
p10
a.