(lp0
S'Chipotle dethrones Subway as healthy fast food ... - Fox News'
p1
aS'10-Year Snapshot: Chipotle - Restaurant Industry Insight ...'
p2
aS'Mexican Cilantro Contamination Spurs Partial US Import Ban'
p3
aS"Chipotle's Carnitas Coming Back After Shortage, Plus a ..."
p4
aS'Stock Touches All-Time High, As Chipotle Fills In The Gaps ...'
p5
aS'Why Chipotle Mexican Grill Inc. Stock Went From Zero to ...'
p6
aS'Get That Life: How I Became the Top Female Executive at ...'
p7
aS'Colorado workers sue Chipotle, part of national trend'
p8
aS'Chipotle (CMG) Stock | Short Sellers Keep Eating This Burrito'
p9
aS'FDA detains Mexican cilantro at the border, citing fecal ...'
p10
a.