(lp0
S'Chipotle Mexican Grill to open third Valley location in Weslaco'
p1
aS'Chipotle Is Working on a Serious Overhaul of Its Tortillas ...'
p2
aS"Report: Americans trust Chipotle, but not McDonald's"
p3
aS"Chipotle's Quest to Develop a Better Tortilla - The New York ..."
p4
aS"Chipotle is Considered More Trustworthy Than McDonald's ..."
p5
aS'Chipotle is considered more trustworthy than ... - Daily Mail'
p6
aS"Homo ests?: Here's how Chipotle celebrated this ..."
p7
aS"Burger chain 'growing faster than Chipotle' to open first ..."
p8
aS'Chipotle changing tortillas - Business Insider'
p9
aS"Homo ests?: Here's how Chipotle celebrated this ..."
p10
a.