(lp0
S'Chipotle stock walloped after disappointing Q3 earnings'
p1
aS'After Rampant Growth In 2014, Chipotle Is Slowing Down ...'
p2
aS'Chipotle Mexican Grill Inc - News Release'
p3
aS'Chipotle Mexican Grill to beef up mobile, online ordering ...'
p4
aS'chipotle quarterly earnings - CNBC.com'
p5
aS'Chipotle has worst sales growth in over two years - Oct. 20 ...'
p6
aS'Chipotle Slips as Profit Miss Raises Concerns About Growth ...'
p7
aS"Chipotle's Sales Slowdown Leaves Investors Hungry For ..."
p8
aS'Chipotle Profit Misses, as Sales Growth Slows - WSJ'
p9
aS'Chipotle set to open Monday in Ormond Beach | News ...'
p10
a.