(lp0
S'Chipotle to cut tortilla ingredients from 11 to just ... - Fox News'
p1
aS"Chipotle chews through $3.9B: What's wrong | America's ..."
p2
aS"Chipotle's new tortillas could be huge news for farmers | Grist"
p3
aS'How to Eat Healthy At... Chipotle - Huffington Post'
p4
aS'Chipotle Philadelphia Pride Homo Estas Merchandise'
p5
aS'Chipotle is Testing a New, Super-Simplified, All-Natural ...'
p6
aS'Chipotle Is Testing a 4-Ingredient Tortilla - SELF'
p7
aS'Chipotle, other eateries coming to Pier Park West by ...'
p8
aS'New Chipotle Tortillas With Only Four Ingredients Are On ...'
p9
aS'Chipotle Mexican Grill Inc (CMG.N) Company Profile ...'
p10
a.