(lp0
S'Chipotle master shows the world how he doubles his burritos'
p1
aS'Taco Bell Tries to Be Chipotle with New Burrito Bowls'
p2
aS'3 Ways to Double Your Chipotle Order For Free  Hacks ...'
p3
aS'Chipotle genius discovers how to get 86% more Chipotle for ...'
p4
aS'Play new Chipotle game and get a buy one, get one free ...'
p5
aS'Get More Bang For Your Buck At Chipotle By Using These ...'
p6
aS'Why Chipotle Mexican Grill Inc. Stock Soared 23% in July ...'
p7
aS"What's coming to Delco: Cracker Barrel, Chipotle, Painting ..."
p8
aS'Chipotloco.com | Adventurrito Answers, Chipotle News ...'
p9
aS"If You Had Invested Right After Chipotle's IPO (CMG, NFLX ..."
p10
a.