(lp0
S'Chipotle to cut tortilla ingredients from 11 to just ... - Fox News'
p1
aS"Chipotle chews through $3.9B: What's wrong | America's ..."
p2
aS'Chipotle Mexican Grill to open third Valley location in Weslaco'
p3
aS"Chipotle's Quest to Develop a Better Tortilla - The New York ..."
p4
aS'Chipotle Is Working on a Serious Overhaul of Its Tortillas ...'
p5
aS"Chipotle is Considered More Trustworthy Than McDonald's ..."
p6
aS'Chipotle changing tortillas - Business Insider'
p7
aS'Chipotle is Testing a New, Super-Simplified, All-Natural ...'
p8
aS'Chipotle is considered more trustworthy than ... - Daily Mail'
p9
aS'Chipotle Is Testing New Tortilla Recipe With Only 4 ...'
p10
a.