(lp0
S'Eat, drink and save lives with the Chipotle (RED) campaign ...'
p1
aS'Wordy Chipotle Packaging Is Now Part of an Ivy League ...'
p2
aS'GMO-free Chipotle is considered more trustworthy than ...'
p3
aS'Two new restaurants coming to busy I-81 corridor in ...'
p4
aS'Your Chipotle Order Is Getting Healthier | Eat This Not That'
p5
aS'10 Salt Lake City Burrito Joints That Are Better Than Chipotle'
p6
aS'Startup Spotlight: Olo Foods | News'
p7
aS'Peach Chipotle BBQ Sauce - SPE Certified'
p8
aS'General Mills to drop artificial ingredients from cereals | New ...'
p9
aS"Chipotle Supports LGBT Pride Events With Amazing 'Homo ..."
p10
a.