(lp0
S'Chipotle is replacing harmful preservatives with traditional ...'
p1
aS'Chipotle opens new restaurant at Compo Acres - Westport ...'
p2
aS'Chipotle Honors Gay Pride with "Homo Ests? Burritos'
p3
aS'WSU helps Chipotle restaurant develop healthier tortilla ...'
p4
aS"Chipotle Shock: Honors Gays with 'HOMO ESTS ..."
p5
aS"Chipotle is Being Criticized for Its Provocative 'Homo Ests ..."
p6
aS'Chipotle Opens in Westport - Westport, CT Patch'
p7
aS'Chipotle No. 2 in consumer satisfaction, says new report ...'
p8
aS"Chipotle 'Homo ests?' promotions - Business Insider"
p9
aS'How to Find Healthy Fast Food Items on Your Summer Road ...'
p10
a.