(lp0
S'Chipotle, Supercuts among businesses headed to Liberty ...'
p1
aS"Reporter's Notebook: Chipotle should do fine here despite ..."
p2
aS'Is El Pollo Loco The Next Chipotle? - Seeking Alpha'
p3
aS'In Defense of Chipotle (But Maybe Not Basic Bitches)'
p4
aS'9 things fast food is doing right - CBS News'
p5
aS"Maximum Wage! How much CEOs earn an hour | America's ..."
p6
aS'Food poisoning - Latest World & National News & Headlines ...'
p7
aS'Chipotle spices up Henrico development | Richmond ...'
p8
aS'Popular restaurant chain spices up Henrico development ...'
p9
aS'The 30 Most Popular Places To Take A First Date, According ...'
p10
a.