(lp0
S'What the E. Coli Outbreak Means for Chipotle Mexican Grill ...'
p1
aS'Search for source of Chipotle E.coli faces big ... - Fox News'
p2
aS'E. coli tied to Costco more dangerous than Chipotle ...'
p3
aS'E. coli outbreak linked to Chipotle expands to 6 states | NJ ...'
p4
aS'Chipotle restaurant in Copley Township  not by UA  is ...'
p5
aS'Costco: FDA tests point toward E. coli in salad vegetables'
p6
aS"Worried about the Chipotle E.Coli outbreak? Here's what ..."
p7
aS'Bellevue Chipotle locations receive unsatisfactory health ...'
p8
aS'Source of Chipotle-related E. coli outbreak still unknown ...'
p9
aS"Impact of E. coli on Chipotle's business - Business Insider"
p10
a.