(lp0
S'Chipotle still facing pork shortage, no carnitas in ... - Fox News'
p1
aS"Chipotle Breaks the News That Carnitas Won't Return ..."
p2
aS"Chipotle Drops Bomb That Carnitas Aren't Coming Back ..."
p3
aS"Chipotle's Carnitas Recession Has Turned Into a Carnitas ..."
p4
aS'Chipotle stops selling pork at a third of its restaurants | Daily ...'
p5
aS'CMG Stock | Chipotle Mexican Grill (CMG) Leads The Pack ...'
p6
aS'Growth prompts Chipotle Mexican Grill to host hiring day at ...'
p7
aS'Chipotle open interview day April 13; no experience ...'
p8
aS'Starbucks, Chipotle amongst most popular 1st-date spots ...'
p9
aS'Man Holds Chipotle Employees Hostage While He Eats All ...'
p10
a.