(lp0
S"Study shows that millennials want McDonald's to ... - Fox News"
p1
aS"Spread Chipotle, It's the Big Sean Way | News | BET"
p2
aS'Big Sean Walks Into Chipotle, Treats Everyone to Burritos ...'
p3
aS'Chipotle Surpasses Subway As Healthy Choice For Fast Food'
p4
aS'CMG Stock | New Lifetime High Reached: Chipotle Mexican ...'
p5
aS'Chipotle - 12300 Jefferson Ave. in Newport News, Virginia ...'
p6
aS"What's coming to Delco: Cracker Barrel, Chipotle, Painting ..."
p7
aS'Restaurant Inspections: Chipotle, King Donuts, Enchanted ...'
p8
aS'Critical Alerts For Rite Aid, Salesforce.com, El Pollo Loco ...'
p9
aS'Apple, Nike, Chipotle Emotionally Engage Millennials 08/05 ...'
p10
a.