(lp0
S'Chipotle: The Definitive Oral History - Business, Financial ...'
p1
aS'Chipotle Is an Expensive Burrito -- Ahead of the Tape - WSJ'
p2
aS"7 Quotes That Show How Much Chipotle Hates McDonald's ..."
p3
aS"Chipotle founder said McDonald's chicken farm was the ..."
p4
aS'The Chipotle effect: Why America is obsessed with fast ...'
p5
aS'Jim Cramer Previews Earnings Week Ahead, Including ...'
p6
aS"Chipotle founder on McDonald's farm - Business Insider"
p7
aS"Chipotle McDonald's - Oral History of Chipotle - Esquire"
p8
aS"Don't Blame Chipotle Mexican Grill for McDonald's Problems"
p9
aS'Couple arrested for allegedly having sex atop Chipotle store'
p10
a.