(lp0
S'Chipotle: GMOs gone from our food - USA Today'
p1
aS'Chipotle to Stop Using Genetically Altered Ingredients - The ...'
p2
aS'Chipotle becomes first major chain to go entirely ... - Fox News'
p3
aS'BAM! Chipotle goes 100% non-GMO - Natural News'
p4
aS'Chipotle now free of GMO-ingredients - TODAY.com'
p5
aS'Chipotle Might Actually Be Healthy NowFind Out Why! | E ...'
p6
aS'Chipotle Mexican Grill Inc - News Release'
p7
aS'Chipotle Completes Plan to Remove GMOs From Its Menu ...'
p8
aS'Chipotle Says It Has Finished Removing GMO Ingredients ...'
p9
aS"GMO ingredients are off Chipotle's food menu - CBS News"
p10
a.