(lp0
S'Chipotle to hire thousands of people today - CNBC.com'
p1
aS'Chipotle plans to hire 4,000 people today with job interviews ...'
p2
aS'Chipotle Will Interview 60,000 Job Seekers Todayand It ...'
p3
aS'Chipotle Hiring 4,000 New Workers Today - Fortune'
p4
aS'Chipotle to hire 4,000 workers at hiring event Wednesday ...'
p5
aS'Chipotle Career Day: Hiring 4,000 workers - Sep. 9, 2015'
p6
aS'Chicago cop praised for buying homeless man Chipotle ...'
p7
aS'Chipotle hiring 4,000 workers during National Career Day ...'
p8
aS'Some People Are Literally Sick of Chipotle -- The Motley Fool'
p9
aS'Chipotle hiring blitz Wednesday, lines expected ...'
p10
a.