(lp0
S'Chipotle Mexican Grill Inc - News Release'
p1
aS'Chipotle opening another location on Fourth Street in St ...'
p2
aS'Another Chipotle is coming to southwest Las Vegas, finally ...'
p3
aS"Chipotle Actually Isn't That Good - BuzzFeed"
p4
aS"What was fake on the Internet this week: Casey Anthony's ..."
p5
aS'DINING: Carnitas makes a comeback at Chipotle - Press ...'
p6
aS"Chipotle 'fights' against additives with 'Taste Invaders ..."
p7
aS'Chipotle Just Launched An Amazing Burrito Game Modeled ...'
p8
aS'Chipotle Mexican Grill, Inc. (CMG) Stock Update'
p9
aS'Third Lawsuit Filed Against Chipotle for Salmonella-Tainted ...'
p10
a.