(lp0
S"Dream Chaser, Chipotle, BJ's Restaurant & Brewhouse in ..."
p1
aS'Chipotle and rue21 to open in Carolina Place mall this ...'
p2
aS"The CEO of a Chipotle-style pizza chain says he'll destroy ..."
p3
aS'Chipotle to take space in Publix-anchored 20 Midtown ...'
p4
aS'Chipotle Mexican Grill to open first Valley location next week ...'
p5
aS'Chipotle Offers New Benefits to Hourly Workers, Including ...'
p6
aS'Why Chipotle May Be the Best Fast-Food Restaurant in the ...'
p7
aS'Fried Dill Pickles with Chipotle Mayo Recipe | Amy Robach ...'
p8
aS"Can Boston Market's comfort food mount a comeback in the ..."
p9
aS'How Chains Like CVS And Chipotle Are Eating Up College ...'
p10
a.