(lp0
S'No pork at a third of Chipotle restaurants | Fox News'
p1
aS"Chipotle: Why Hundreds of Restaurants Don't Have Pork on ..."
p2
aS'Chipotle goes pork-free at some restaurants - Jan. 14, 2015'
p3
aS"In 'animal welfare decision,' Chipotle quits selling pork at a ..."
p4
aS'Chipotle Takes Pork Off Menu After Animal-Welfare Audit ...'
p5
aS"Chipotle Has a Carnitas Shortage, So It's Probably the End ..."
p6
aS'Chipotle halts sales of carnitas at a third of locations | abc13 ...'
p7
aS'Chipotle halts carnitas sales after supplier violation'
p8
aS"Chipotle's No-Compromise Stand on Pork - The Epoch Times"
p9
aS'Carnitas crisis: Chipotle pulls pork from menu - Yahoo Finance'
p10
a.