(lp0
S'Chipotle debunks dog and cat meat rumor - Business Insider'
p1
aS'Chipotle Debunks Rumors That Cat and Dog Meat Is In Its ...'
p2
aS"Chipotle's tough year just got worse - CNBC.com"
p3
aS'Chipotle Reopens Most Northwest Stores After E. Coli ... - OPB'
p4
aS'CDC Update: 50 Illnesses Now Reported in E. Coli ...'
p5
aS'Chipotle E. coli Outbreak Sickens 50 - Food Poisoning Bulletin'
p6
aS'Chipotle opens; serves up Bridgeport jobs - Connecticut Post'
p7
aS"Chipotle's Perception Takes a Hit After E. Coli Scare ..."
p8
aS"Atlanta residents react to Chipotle's message in New York ..."
p9
aS'Chipotle Restaurants Closed by E. Coli Outbreak Reopen'
p10
a.