(lp0
S"Chipotle May Have Catered Ansel Elgort's Birthday"
p1
aS'Shailene Woodley & Theo James Stun at Insurgent ...'
p2
aS'Site plans submitted for Panera, Chipotle in Wallingford ...'
p3
aS'What to Order at Chipotle, Chilis, Cheesecake Factory ...'
p4
aS'Chipotle CEOs Earned a Combined $57 Million in 2014 ...'
p5
aS"Chipotle CEOs' compensation pay - Business Insider"
p6
aS'Eating Along the A Line: Eat and drink in Upper Manhattan ...'
p7
aS'Six Corners - Local Neighborhood News - DNAinfo.com ...'
p8
aS'Marketers Must Embrace the Cultural Currency Music Can ...'
p9
aS"First Days - Is This How It's Supposed To Be? : Chipotle"
p10
a.