(lp0
S'2 more sue Chipotle over E. coli outbreak | The Seattle Times'
p1
aS'Number of confirmed E. coli cases linked to Chipotle rises to ...'
p2
aS'Victim of E.coli outbreak will never go back to Chipotle | Fox ...'
p3
aS'How CDC Is Using DNA Technology in Suspected Chipotle ...'
p4
aS'CDC Investigating As E. Coli Outbreak Linked To Chipotle ...'
p5
aS'First Test Results Fail To Link Chipotle To E. Coli Outbreak ...'
p6
aS'Chipotle Does Damage Control, Hires Food Safety ...'
p7
aS'Things to Know About the E. coli Outbreak Tied to Chipotle ...'
p8
aS'Durham company aiding search of origin for Chipotle E. coli ...'
p9
aS'Two Chipotle customers sue over E. coli outbreak'
p10
a.