(lp0
S'MN Salmonella Outbreak Blamed on Tomatoes Served at ...'
p1
aS"Tomatoes the cause of Chipotle's salmonella outbreak in ..."
p2
aS'Aurora, Ind., Chipotle supervisor accused of identity theft ...'
p3
aS'A new Chipotle Mexican Grill is scheduled to open in ...'
p4
aS'Chipotle Has Reportedly Made Dozens of People Sick ...'
p5
aS"Photo Gallery: A look at Chipotle's food and marketing ..."
p6
aS"The Cause of Chipotle's Latest Salmonella Outbreak ..."
p7
aS'App partners with Chipotle to deliver to ASU students ...'
p8
aS'Tomatoes identified as culprit in Minnesota Chipotle ...'
p9
aS'Kendall Walks Into Chipotle, People Lose It -- The Cut'
p10
a.