(lp0
S'This is what happens when you eat Chipotle for ... - Fox News'
p1
aS'What happens when you eat Chipotle for 153 days straight ...'
p2
aS'Colorado Springs man eats Chipotle for 107 days straight ...'
p3
aS'Living the Chipotlife: 23-year-old man eats Chipotle for 153 ...'
p4
aS'Want free Chipotle? Play this online game - 9News'
p5
aS'Chipotlife: Man spends $1,500+ eating Chipotle 153 days in ...'
p6
aS'Another Chance for Chipotle - WSJ'
p7
aS'What happens if you eat Chipotle for 153 days straight ...'
p8
aS'Man eats Chipotle for more than 100 straight days | WGN-TV'
p9
aS'Buy-one-get-one Chipotle Burrito if you play a new online ...'
p10
a.