(lp0
S'Cincinnati uses close proximity to Chipotle as recruiting pitch'
p1
aS'Chipotle draws shareholder activism | Restaurant Business'
p2
aS'CMG Chipotle Mexican Grill Inc Class A ETF CMG Quote ...'
p3
aS'What Bill Clinton said when he saw Hillary in Chipotle'
p4
aS"10 of America's fastest growing restaurants - CNBC.com"
p5
aS'Does Chipotle Even Care About Mexicans? | Video - Latina'
p6
aS'Fast Casual Restaurant Chipotle Has Secret Recipe to Fuel ...'
p7
aS'Chipotle debuts in Wilkes-Barre Township - Times Leader ...'
p8
aS'Kitchen Fire Erupts at Midtown Chipotle, Officials Say ...'
p9
aS"Brioso's cauliflower brings diners back for more - Gusto"
p10
a.