(lp0
S'Mercedes Slams Into Chipotle Restaurant | NBC Southern ...'
p1
aS'8 injured after car hits storefront of Chipotle in Mid-City - KABC'
p2
aS'Mercedes-Benz Sedan Crashes Into Chipotle Restaurant in ...'
p3
aS'LAFD: 8 Injured After Car Crashes Into Mid-City Chipotle ...'
p4
aS"Chipotle (CMG), Dunkin' (DNKN) Should Watch Out for ..."
p5
aS'8 injured when vehicle crashes into Chipotle restaurant in ...'
p6
aS'Why Chipotle is the No. 2 fastest-growing restaurant chain in ...'
p7
aS'Chipotle Plans to Open Jackson Heights Restaurant ...'
p8
aS'Driver Crashes Into Chipotle (L.A., Mid-City), 8 Injured ...'
p9
aS'Photos: Car Crashes Into Chipotle, Injuring 8: LAist'
p10
a.