(lp0
S'Three restaurant chains to open in Massillon - News - The ...'
p1
aS"Ted Cruz: First Dem debate will be 'Hillary Clinton and the ..."
p2
aS'Chipotle Mexican Grill - Mexican - Newport News, VA ... - Yelp'
p3
aS'Ian Eats STL: Pie Five tries (key word) to be the Chipotle of ...'
p4
aS"'Mad Money' Lightning Round: Forget El Pollo Loco (LOCO ..."
p5
aS"Chipotle Says It Won't Pay Up In OT Collective Action ..."
p6
aS'Better Restaurant Stock Buy: Chipotle Mexican Grill, Inc. or ...'
p7
aS'Surly Rhubarb Farmhouse Ale at Chipotle Cultivate Festival ...'
p8
aS'Chipotle, Panera, Buffalo Cook Gains On Traffic Hopes ...'
p9
aS"Chipotle didn't exist until a year ago : MandelaEffect - Reddit"
p10
a.