(lp0
S'RED - Chipotle Investor Relations - Press Release'
p1
aS'Chipotle uses Kansas City to test market chorizo - | The ...'
p2
aS'Ranking 129 college football campuses by Chipotle proximity'
p3
aS"Ruling clears way for Chipotle's City Dock location in ..."
p4
aS"Chipotle's Lighthearted Social Media Strategy is Helping to ..."
p5
aS"Md. Appeals Court Tosses Moe's Challenge To Chipotle ..."
p6
aS"Chipotle's Marketing, Like Its Ingredients, Grows From The ..."
p7
aS'What Guacamole Can Teach Us About Content Marketing'
p8
aS"Shake Shack Inc Investors' Growth Dreams Could Be ..."
p9
aS'Shoulda Known It Was The Chipotle Curse This Whole Time ...'
p10
a.