(lp0
S'Chipotle Uses Dog and Cat Meat, Will Close All Restaurants ...'
p1
aS'Chipotle re-opens restaurants as outbreak investigation ...'
p2
aS'Chipotle E. coli outbreak widens - BBC News - BBC.com'
p3
aS"Chipotle opens quietly in Yakima; Victoria's Secret opens ..."
p4
aS'Updates on the E. coli Outbreak Linked to Chipotle ...'
p5
aS"Sacramento News & Review - Sacramento's Chipotle ..."
p6
aS'E. coli outbreak linked to Chipotle reported in California ...'
p7
aS'Chipotle Stock Is Dead Money in 2016 - Sell CMG Now ...'
p8
aS"Chipotle's Management Discusses Its Growth Crossroads ..."
p9
aS"What If This Isn't a Chipotle Buying Opportunity? -- The ..."
p10
a.