(lp0
S"Chipotle's new tortillas could be huge news for farmers | Grist"
p1
aS'How to Eat Healthy At... Chipotle - Huffington Post'
p2
aS'Chipotle Philadelphia Pride Homo Estas Merchandise'
p3
aS'Chipotle Plans to Open Jackson Heights Restaurant ...'
p4
aS'Chipotle Mexican Grill To Start Giving Hourly Employees ...'
p5
aS"McDonald's CEO has a misguided obsession with Chipotle ..."
p6
aS'Chipotle Is Testing Tortillas That Feature ONLY 4 Ingredients'
p7
aS'Chipotle, other eateries coming to Pier Park West by ...'
p8
aS'Chipotle Mexican Grill Inc (CMG.N) Company Profile ...'
p9
aS'Chipotle Is Testing a 4-Ingredient Tortilla - SELF'
p10
a.