(lp0
S'Chipotle Mexican Grill Sued Over GMO-Free Menu Claims ...'
p1
aS'Chipotle Sued for Using GMOs After Declaring Its Food ...'
p2
aS'Chipotle sued over GMO-free menu claims - Yahoo Finance'
p3
aS'Chipotle being sued over alleged use of GMO - ABC7 News'
p4
aS'Chipotle food non-GMO? No, says federal lawsuit - Denver ...'
p5
aS'Chipotle Sued In Class Action For Claiming Its Menu Is GMO ...'
p6
aS'Chipotle GMO Meat Ingredients Lawsuit - Refinery29'
p7
aS'Chipotle Customer Files Class-Action Lawsuit Over ...'
p8
aS'Chipotle Mexican Grill Inc. lawsuit contests GMO-free claim'
p9
aS'6 tricks to get 86% more Chipotle burrito  for free! | News ...'
p10
a.