(lp0
S'Chipotle stock walloped after disappointing Q3 earnings'
p1
aS'Chipotle Mexican Grill to beef up mobile, online ordering ...'
p2
aS'Chipotle set to open Monday in Ormond Beach | News ...'
p3
aS'Analyst: Reasons to be hopeful on Chipotle - CNBC.com'
p4
aS'Cramer RemixWhat no one wants to hear on Chipotle'
p5
aS'Police seek gunmen in Corryville Chipotle robbery | Local ...'
p6
aS'Video: Gunmen rob Corryville Chipotle | Local News ...'
p7
aS'Police search for Corryville Chipotle robbery gunmen ...'
p8
aS"Chipotle: 'We took our eye off the ball' | Food Business News"
p9
aS"Chipotle's Q3 comps rise on growing traffic, menu-price ..."
p10
a.