(lp0
S'Chipotle offering customers free burrito coupon if you try ...'
p1
aS'Chipotle to give away coupons for free burritos on January 26'
p2
aS'Your Chipotle Could Be Getting Carnitas Back Soon'
p3
aS'Jan. 26 is About More Than Free Burritos at Chipotle ...'
p4
aS'Murphy USA and Chipotle coming to Joliet site | The Herald ...'
p5
aS"McDonald's fixes its marketing, Chipotle fixes its product ..."
p6
aS"How Chipotle is eating McDonald's lunch | America's Markets"
p7
aS'Chipotle Pulls Pork off Menus - The Pig Site'
p8
aS'Free Chipotle for those who try the new tofu filling, Sofritas ...'
p9
aS'Apple Pay Gains Ground: Save Mart Added, Chipotle ...'
p10
a.