(lp0
S'Chipotle closes 43 stores as officials investigate E. coli ...'
p1
aS'Chipotle Closes 43 Restaurants In Washington, Oregon ...'
p2
aS'Chipotle Closes 43 Restaurants Amid E. Coli Outbreak ...'
p3
aS'Chipotle closes 43 restaurants on the West Coast amid fears ...'
p4
aS'Chipotle Closes 43 Restaurants After E. Coli Outbreak ...'
p5
aS'Chipotle temporarily closes 43 US restaurants over E. coli ...'
p6
aS'Chipotle now likely linked to 37 cases of E. coli - The ...'
p7
aS'Chipotle closes 43 restaurants after bacteria outbreak - Story'
p8
aS'E. Coli Outbreak Closes 43 Chipotle Restaurants in ... - People'
p9
aS'Chipotle shares dip on E. coli outbreak | New York Post'
p10
a.