(lp0
S'Average Chipotle customer eats over 1000 ... - Fox News'
p1
aS'At Chipotle, How Many Calories Do People Really Eat ...'
p2
aS'Guess How Many Calories Are in Your Favorite Chipotle ...'
p3
aS'Your Chipotle Habit Is Worse Than You Think -- Grub Street'
p4
aS'11 People So Over All this Talk About Chipotle and Calories!'
p5
aS'Chipotle Is Actually Unhealthy; Calories, Fat in Chipotle ...'
p6
aS'The New York Times Publishes Real Chipotle Calorie ...'
p7
aS'Most meals at Chipotle are over 1000 calories - CBS News'
p8
aS"You're Probably Eating An Insane Amount Of Calories At ..."
p9
aS'Chipotle: Eat This Keep Your Calorie Count Low - Fortune'
p10
a.