(lp0
S'Chipotle solves its carnitas crisis by going with ... - Fox News'
p1
aS"If Chipotle Won't Pay Fast Food Workers A Living Wage ..."
p2
aS'Chipotle Has Figured Out How to Solve Its Carnitas Problem ...'
p3
aS'Prices Rise At Starbucks And Chipotle As Workers Get ...'
p4
aS'Chipotle Mexican Grill Breaks Above 200-Day Moving ...'
p5
aS"Jim Cramer's Top Takeaways: Box, Netflix, Fitbit, Chipotle ..."
p6
aS'Chipotle Carnitas Shortage Resolved - Great Ideas : People ...'
p7
aS"Chipotle's carnitas crisis might be over | Chicago Sun-Times"
p8
aS'Could Chipotle Mexican Grill, Inc. Stock Fall Another 20 ...'
p9
aS'Chipotle goes across the pond for pork; allows antibiotics use'
p10
a.