(lp0
S"Dream Chaser, Chipotle, BJ's Restaurant & Brewhouse in ..."
p1
aS"The CEO of a Chipotle-style pizza chain says he'll destroy ..."
p2
aS"Another Reason You'll Want to Eat at Chipotle"
p3
aS'Chipotle to take space in Publix-anchored 20 Midtown ...'
p4
aS'Chipotle offering part-time workers tuition reimbursement ...'
p5
aS'Chipotle Offers New Benefits to Hourly Workers, Including ...'
p6
aS'Fried Dill Pickles with Chipotle Mayo Recipe | Amy Robach ...'
p7
aS"Thumbs up for Chipotle's chorizo on taste, but watch for the ..."
p8
aS'How Chains Like CVS And Chipotle Are Eating Up College ...'
p9
aS'Boulevard made a one-off beer for the Chipotle Cultivate ...'
p10
a.