(lp0
S'Council hears plans for Chipotle restaurant | Local News ...'
p1
aS"Chipotle's GMO ban criticisms - Business Insider"
p2
aS'Sex, Money, and Chipotle: Most shared stories from US ...'
p3
aS'Chipotle Reveals Its Coveted Guacamole Recipe  Food ...'
p4
aS'5 Big Drivers Behind the Chipotle Backlash  Food and ...'
p5
aS'Hot oil burns woman in line at Midtown Chipotle, police say'
p6
aS'Chipotle to open Derby location in late 2015 - DerbyInformer ...'
p7
aS'Report: Customer badly burned after hot oil spills at Midtown ...'
p8
aS'Chipotle reveals recipe for guacamole | WATE 6 On Your Side'
p9
aS"Chipotle, GMOs and Monsanto's Toxic Glyphosate | EWG"
p10
a.