(lp0
S'No pork at a third of Chipotle restaurants | Fox News'
p1
aS"Chipotle: Why Hundreds of Restaurants Don't Have Pork on ..."
p2
aS'No pork at a third of Chipotle restaurants - CBS News'
p3
aS'Chipotle goes pork-free at some restaurants - Jan. 14, 2015'
p4
aS"In 'animal welfare decision,' Chipotle quits selling pork at a ..."
p5
aS'Chipotle Takes Pork Off Menu After Animal-Welfare Audit ...'
p6
aS"Chipotle Has a Carnitas Shortage, So It's Probably the End ..."
p7
aS'Chipotle halts sales of carnitas at a third of locations | abc13 ...'
p8
aS'Chipotle Suspends Pork Sales at a Third of Its Restaurants ...'
p9
aS'Chipotle halts carnitas sales after supplier violation'
p10
a.