(lp0
S"Chipotle's great carnitas crisis of 2015 is officially ... - Fortune"
p1
aS'Chipotle Mexican Grill Inc - News Release'
p2
aS'Good news for Chipotle carnitas lovers: Your nightmare is ...'
p3
aS"The Chipotle 'carnitas crisis' is over - Sep. 28, 2015"
p4
aS'Chipotle: Carnitas back on the menu at most ... - Fox News'
p5
aS'Chipotle Has Solved Its Carnitas Crisis - Eater'
p6
aS"Chipotle's Nine-Month Carnitas Nightmare Is Almost Over ..."
p7
aS"Good news, taco fans: Chipotle's carnitas shortage just ..."
p8
aS'Carnitas returning to Chipotle | Food Business News'
p9
aS'Carnitas Back On The Menu At 90 Percent Of Chipotle ...'
p10
a.