(lp0
S'Tomatoes linked to Salmonella outbreak at Chipotle ... - KMSP'
p1
aS'MN Salmonella Outbreak Blamed on Tomatoes Served at ...'
p2
aS'Tomatoes source of Chipotle salmonella outbreak in ...'
p3
aS'News release: UPDATE: Tomatoes identified as source of ...'
p4
aS"Tomatoes the cause of Chipotle's salmonella outbreak in ..."
p5
aS'Aurora, Ind., Chipotle supervisor accused of identity theft ...'
p6
aS'This Could Be the Chipotle Killer Nobody Sees -- The ...'
p7
aS'Tomatoes source of Chipotle Salmonella outbreak - Kare 11'
p8
aS'A new Chipotle Mexican Grill is scheduled to open in ...'
p9
aS'Former employee charged with Park Ridge Chipotle robbery ...'
p10
a.