(lp0
S'At Chipotle, How Many Calories Do People Really Eat ...'
p1
aS'Guess How Many Calories Are in Your Favorite Chipotle ...'
p2
aS'Your Chipotle Habit Is Worse Than You Think -- Grub Street'
p3
aS'The New York Times Publishes Real Chipotle Calorie ...'
p4
aS'Most meals at Chipotle are over 1000 calories - CBS News'
p5
aS'New Papillion Chipotle brings 30 jobs to area | Local News ...'
p6
aS"You're Probably Eating An Insane Amount Of Calories At ..."
p7
aS'Chipotle: Eat This Keep Your Calorie Count Low - Fortune'
p8
aS'Chipotle Burritos Have More Calories Than We Want To ...'
p9
aS'At Chipotle, How Many Calories Do People Really Eat ...'
p10
a.