(lp0
S'Chipotle tweaks recipes to cut E. coli risk - CBS News'
p1
aS'Chipotle to change cooking methods to address safety ...'
p2
aS'Chipotle to reopen Thursday after norovirus outbreak | Local ...'
p3
aS'Boston Chipotle Restaurant Expected to Reopen Thursday ...'
p4
aS'Another bad number for Chipotle - CNBC.com'
p5
aS"Chipotle's latest E. coli cases may remain unsolved mystery ..."
p6
aS'FDA and CDC probe second wave of Chipotle E. coli outbreak'
p7
aS'Chipotle announces new food-safety procedures after ...'
p8
aS'Chipotle Mexican Grill outlines new cooking methods'
p9
aS"Boston's Norovirus-Stricken Chipotle Should Reopen Today ..."
p10
a.