(lp0
S'Update: 99 Sickened After Eating at Southern CA Chipotle ...'
p1
aS'Chipotle Plans One-Day Hiring Blitz to Hire 4,000 New ...'
p2
aS'Than 60 People Sickened After Eating at a California Chipotle'
p3
aS'SoCal Chipotle shuts down after dozens of customers get ...'
p4
aS'Dozens of Customers Report Feeling Sick After Eating at ...'
p5
aS'Ventura County Chipotle - Los Angeles Times'
p6
aS'Dozens ill after eating at Chipotle in Simi Valley'
p7
aS'Chipotle hiring blitz aims to hire 4,000 workers in one day ...'
p8
aS'Why Chipotle Suddenly Wants to Hire 4,000 New Workers in ...'
p9
aS'Chipotle ramps up hiring plans for Charlotte - Charlotte ...'
p10
a.