(lp0
S'Why a GMO-Free Chipotle Mexican Grill Is Terrible News ...'
p1
aS"Why We Can't Take Chipotle's GMO Announcement All That ..."
p2
aS"Chipotle's GMO message is muddled - Chicago Tribune"
p3
aS'Chipotle Mexican Grill, Inc.: NYSE:CMG quotes & news ...'
p4
aS'Chipotle vs. Science - WSJ'
p5
aS"Chipotle Says They Can't Prevent People From Overeating ..."
p6
aS'Chipotle Bans Credibility - Bloomberg View'
p7
aS'At Chipotle, Hot Stock Price Insulates Executives From ...'
p8
aS'5 Things to Know About GMOs - ABC News'
p9
aS'Chipotle Is Promoting Opportunistic Anti-Science Hysteria'
p10
a.