(lp0
S'Chipotle Joins Other Fast Food Restaurants in Expanding ...'
p1
aS"Walpole HS valedictorian says she plagiarized 'Chipotle ..."
p2
aS"Walpole High valedictorian plagiarized 'Chipotle' graduation ..."
p3
aS'Chipotle to offer tuition reimbursement to hourly workers'
p4
aS'Chipotle to offer part-time workers tuition reimbursement ...'
p5
aS'Chipotle Free Tuition, Vacation, New Benefits - Refinery29'
p6
aS'Chipotle Rolls Out Rare Perks for Hourly Workers | Money ...'
p7
aS"Your Chipotle Burrito Just Got Better, and It's Not About the ..."
p8
aS"Chipotle's expanded employee benefits matter | MSNBC"
p9
aS"Chipotle's new strategy to entice employees to stay - Yahoo ..."
p10
a.