(lp0
S'Chipotle Mexican Grill Inc - News Release'
p1
aS'Chipotle uses Kansas City to test market chorizo - | The ...'
p2
aS'Chipotle Is Testing Chorizo ... Again - Huffington Post'
p3
aS'Chipotle testing a new menu item - CNBC.com'
p4
aS'Chipotle Is Rolling Out a New Menu Item | TIME'
p5
aS"Chipotle Is Trying Out Chorizo As Part Of Its Menu & We're ..."
p6
aS'Chipotle tests chorizo in Kansas City market'
p7
aS'Ranking 129 college football campuses by Chipotle proximity'
p8
aS'Chipotle Adds Chorizo - Kansas City Chipotle Testing ...'
p9
aS'Chipotle is testing chorizo - Business Insider'
p10
a.