(lp0
S'Chipotle Mexican Grill Inc - News Release'
p1
aS'Chipotle includes 3 Latino authors in bookish branding ...'
p2
aS"Chipotle's Pizzeria Locale coming to Waldo - | The Kansas ..."
p3
aS"Read Aziz Ansari's Hilarious Words Of Wisdom On A ..."
p4
aS"The Lessons McDonald's Can Learn From Chipotle ..."
p5
aS'Long Beach Chipotle briefly closed by sewage spill'
p6
aS"Aziz Ansari Featured on Chipotle's New Takeout Bags ..."
p7
aS'Chipotle holds the pork - Current in Carmel'
p8
aS'Chipotle Finally Gets Hispanic Authors for their Stories-on-a ...'
p9
aS'Fall opening planned for retail project: Shoppes on Granada ...'
p10
a.