(lp0
S"McRevenge! McDonald's turns table on Chipotle - USA Today"
p1
aS'Police seek gunmen in Corryville Chipotle robbery | Local ...'
p2
aS'Video: Gunmen rob Corryville Chipotle | Local News ...'
p3
aS'Police search for Corryville Chipotle robbery gunmen ...'
p4
aS'News Police search for Chipotle robbery suspects Police ...'
p5
aS'Chipotle Mexican Grill, Inc. (CMG): Is The Stock A Bargain ...'
p6
aS'Covered Call Alerts For Chipotle Mexican Grill, Horizon ...'
p7
aS'Chipotle Stock Is Down $50 Overnight, Is It A Buying ...'
p8
aS'Chipotle set to open Martinsburg restaurant next month ...'
p9
aS'Chipotle Watch: Covington Location Roughly 1 Month from ...'
p10
a.