(lp0
S'Chipotle Plans to Reopen Restaurants Without Knowing E ...'
p1
aS'Chipotle to Reopen Washington, Oregon Outlets After E ...'
p2
aS'Customers head to Chipotle as outlets reopen in Northwest'
p3
aS'E. coli mystery unsolved, but Chipotle to reopen Wednesday ...'
p4
aS'Chipotle to reopen 43 restaurants after E. coli all ... - Fox News'
p5
aS'Chipotle sued by Washington woman, Oregon ... - Fox News'
p6
aS'Chipotle Mexican Grill Inc - News Release'
p7
aS'Chipotle to reopen restaurants closed after E. coli outbreak'
p8
aS'Chipotle to Reopen Northwest Restaurants After E. coli ...'
p9
aS'Outside Chipotle outbreak, foodborne illness a wider problem'
p10
a.