(lp0
S'Chipotle Stock May Still Be Undervalued -- The Motley Fool'
p1
aS'Chipotle Mexican Grill opens in Macon | News | Macon News'
p2
aS"Chipotle Can't Escape EEOC's Disability Bias Claim - Law360"
p3
aS'11 Facts About Chipotle That Defy All Odds | TIME'
p4
aS'Newport News: Chipotle #1248 - Patrick Henry Mall (757 ...'
p5
aS'Shout Out: Becky Wolf, cyclist, volunteer, Chipotle fan ...'
p6
aS'Chain Gang Roundup: Chipotle Opens at Liberty Place ...'
p7
aS'Man Tweets About Chipotle Struggles, Goes Viral [Photos ...'
p8
aS'Aiken getting Panera Bread, Starbucks and maybe Chipotle ...'
p9
aS'This Guy Went on a Massive Hilarious Twitter Rant About ...'
p10
a.