(lp0
S"Chipotle's Pizzeria Locale coming to Waldo - | The Kansas ..."
p1
aS'Chipotle opens second Joliet location | The Herald-News'
p2
aS"Read Aziz Ansari's Hilarious Words Of Wisdom On A ..."
p3
aS'Chipotle, But For Cheeseburgers? Shake Shack IPO Sets ...'
p4
aS'Shake Shack IPO is hot but can it match Chipotle? | Reuters'
p5
aS"The Lessons McDonald's Can Learn From Chipotle ..."
p6
aS"Chipotle's Pizzeria Locale expands from Colorado to ..."
p7
aS'Chocolate-Chipotle Glazed Wings Recipe | Julian Medina ...'
p8
aS"McDonald's CEO Out as Consumers Flee to Chipotle ..."
p9
aS'Fall opening planned for retail project: Shoppes on Granada ...'
p10
a.