(lp0
S'This is what happens when you eat Chipotle for ... - Fox News'
p1
aS'What happens when you eat Chipotle for 153 days straight ...'
p2
aS"Chipotle Can Still Sizzle Despite the Stock's Pullback ..."
p3
aS'Another Chance for Chipotle - WSJ'
p4
aS'Chipotle and Amazon could be the next big stock moves on ...'
p5
aS'The Key Things to Look for When Chipotle Reports Earnings ...'
p6
aS'KC architecture firm stars in Chipotle restaurant redesign ...'
p7
aS'Meet the Brave Man Who Has Eaten Chipotle Every Single ...'
p8
aS'What to look for in Chipotle earnings - MarketWatch'
p9
aS'This Guy Has Eaten Chipotle for 106 Days Straight and ...'
p10
a.