(lp0
S'Stop Everything! Chipotle Just Started Offering Delivery | E ...'
p1
aS'Chipotle delivers burritos to your door - Apr. 24, 2015'
p2
aS'Chipotle begins delivery service in some cities - NY Daily ...'
p3
aS"'Food News' Podcast: Chipotle, McDonald's, the Latest ..."
p4
aS'This is real: Chipotle now delivers - TODAY.com'
p5
aS'Charlotte will get Chipotle delivery service in mid-May'
p6
aS"Chipotle delivery is real and it's now available in Dallas ..."
p7
aS'Chipotle Is Now Delivering, so You Literally Never Need to ...'
p8
aS'Chipotle Announces Delivery in 67 Cities, Including Chicago'
p9
aS'Chipotle offers delivery through Postmates app - UPI.com'
p10
a.