(lp0
S'Chipotle Stock Might Rise After Panic Subsides - Forbes'
p1
aS'Chipotle Mexican Grill, Inc. Is Taking a New Route to ...'
p2
aS'Chipotle salmonella outbreak in Minnesota traced to tomatoes'
p3
aS'Chipotle  the sauce is still hot - NASDAQ.com'
p4
aS'Does the Emperor Have No Clothes? Chipotle Stumbles ...'
p5
aS'Susquehanna Township Planning Commission ...'
p6
aS'Another Mexican restaurant chain coming to 23rd Street ...'
p7
aS'Chipotle has two years of bad sales growth : Regions ...'
p8
aS'Almond Milk Pumpkin Spice Lattes, Halloween Pet Safety ...'
p9
aS'Post Haste: Discounted Chipotle coming for Halloween ...'
p10
a.