(lp0
S'Starbucks, Chipotle to open locations in Green Twp.'
p1
aS'GOP Reps: Chipotle Gets To Pick Its Meat, So We Get To ...'
p2
aS'Chipotle Mexican Grill coming to the West Seattle Junction ...'
p3
aS"Chipotle's pork choiceand religious freedomcommentary"
p4
aS'GOP WTF: Discriminating Against Gays Is Just Like Chipotle ...'
p5
aS'Pipe Dream - Binghamton University News, Sports and ...'
p6
aS'Chipotle Mexican Grill coming to Miller Road | March 19 ...'
p7
aS'Chipotle Mexican Grill coming to the West Seattle Junction ...'
p8
aS'Lawmakers use Chipotle to justify freedom of religion'
p9
aS'Chipotle opens in Darien I-95 service plaza - Stamford411'
p10
a.