(lp0
S'Chipotle and Starbucks coming to Plaza 15 near Lewisburg ...'
p1
aS"Chipotle May Have Catered Ansel Elgort's Birthday"
p2
aS'Site plans submitted for Panera, Chipotle in Wallingford ...'
p3
aS'Shailene Woodley & Theo James Stun at Insurgent ...'
p4
aS'Chipotle to Open Park Slope Location - DNAinfo.com'
p5
aS'What to Order at Chipotle, Chilis, Cheesecake Factory ...'
p6
aS"Chipotle CEOs' compensation pay - Business Insider"
p7
aS'Chipotle CEOs Earned a Combined $57 Million in 2014 ...'
p8
aS"Bubba Watson's recipe for winning the Masters: Burritos ..."
p9
aS'Souplantation shares spicy pasta salad recipe ...'
p10
a.