(lp0
S"Why Chipotle doesn't have seafood - Business Insider"
p1
aS'Cupertino: New stores open in Homestead Square - San ...'
p2
aS'Petsmart And Chipotle Set To Open This Week, Whole ...'
p3
aS'Chipotle Coming To Montreal A Cruel Hoax | MTL Blog'
p4
aS'Never mind - New Times SLO - Publishing Local News and ...'
p5
aS'Chipotle Mexican Grill: A Multi-Decade Growth Opportunity ...'
p6
aS'5 restaurants growing faster than Chipotle - Yahoo Finance'
p7
aS"Jan's on Beverly Double-Dips Into Both A Chipotle and ..."
p8
aS"Chipotle Fundraiser Donates Half of Proceeds to Mankato's ..."
p9
aS'Is Chipotle Breakfast Coming Soon? - Fly&Dine'
p10
a.