(lp0
S'Chipotle Is Testing Chorizo ... Again - Huffington Post'
p1
aS'Chipotle testing a new menu item - CNBC.com'
p2
aS'Chipotle Is Rolling Out a New Menu Item | TIME'
p3
aS"Thumbs up for Chipotle's chorizo on taste, but watch - | The ..."
p4
aS'Chipotle tests chorizo in Kansas City market'
p5
aS"Chipotle Is Trying Out Chorizo As Part Of Its Menu & We're ..."
p6
aS'Chipotle testing Chorizo only in Kansas City - + KSHB.com'
p7
aS'Chipotle Testing New Menu Item: Chorizo | NBC Chicago'
p8
aS'Chipotle Adds Chorizo - Kansas City Chipotle Testing ...'
p9
aS'Chipotle Mexican Grill (CMG) Stock Price, Financials and ...'
p10
a.