(lp0
S'Chipotle is finally coming to SE Texas - Beaumont Enterprise'
p1
aS'Chipotle CEO to address charges of stiffing workers on wages'
p2
aS"Hold the carnitas: Chipotle's pork shortage hits Orange County"
p3
aS'The Truth About Chipotle Mexican Grill, Inc: More Calories ...'
p4
aS'Chipotle Shorts Cover After 8% Slump on Sales Optimism ...'
p5
aS'Authorities investigate reported abduction of Chipotle worker'
p6
aS'Second national chain wants to open near planned Dairy ...'
p7
aS'Popular chain restaurants coming to Victoria - Victoria ...'
p8
aS'How to Eat Healthy at Chipotle - Yahoo'
p9
aS"Procurement: Lessons from Chipotle's Pork Shortage | CEB ..."
p10
a.