(lp0
S'Chipotle Giving Away Free Burritos to Anyone Who Plays ...'
p1
aS"Spread Chipotle, It's the Big Sean Way | News | BET"
p2
aS'CMG Stock | New Lifetime High Reached: Chipotle Mexican ...'
p3
aS'Delivery man robbed at Chipotle across from the University ...'
p4
aS'9 CEOs paid 800 times more than their workers - USA Today'
p5
aS'Big Sean Walked Into a Chipotle and Bought Burritos for ...'
p6
aS"What's coming to Delco: Cracker Barrel, Chipotle, Painting ..."
p7
aS'What The Heck Is A Chipotle, Anyway? - Huffington Post'
p8
aS'Critical Alerts For Rite Aid, Salesforce.com, El Pollo Loco ...'
p9
aS'Restaurant Inspections: Chipotle, King Donuts, Enchanted ...'
p10
a.