(lp0
S'Chipotle (CMG), Monster Beverage (MNST), Lululemon ...'
p1
aS"Forget McDonald's And Chipotle Mexican Grill, Buy This Stock"
p2
aS'Middletown gains new stores, eateries - The News Journal'
p3
aS"Incredible: Chipotle Is Paying For This Couple's ... | ClickHole"
p4
aS"Chipotle Co-CEOs Roll Out $133M in Stock Sales - Barron's"
p5
aS'New Chipotle Opening in Hudson Valley - 101.5 WPDH'
p6
aS"Monsanto's Biggest Fears Are Coming True | Off The Grid ..."
p7
aS'Chipotle Mexican Grill, Saga Japanese coming to Newburgh'
p8
aS'Chipotle Mexican Grill, Inc. (NYSE:CMG) - Bulls, Bears ...'
p9
aS'Zacks Industry Outlook Highlights: Starbucks, Chipotle ...'
p10
a.