(lp0
S'Chipotle is Coming to Yakima This Summer - 107.3 KFFM'
p1
aS'Chipotle coming to Yakima this summer | KIMA'
p2
aS'Chipotle will open in Yakima this... - KEPR Action News ...'
p3
aS"Chipotle's Success Story And The Challenges Ahead ..."
p4
aS"McDonald's sales plunge: The rise of Chipotle is the decline ..."
p5
aS"Here's what Ram Restaurant & Brewery, Melt, Chipotle and ..."
p6
aS'Great Valley After-Prom Chipotle Fundraiser Planned | Patch'
p7
aS'20 Reasons Chipotle Is Life | University Primetime'
p8
aS"1 Thing You Probably Didn't Know About McDonald's -- The ..."
p9
aS'Chef Jesse Perez opens Tex-Mex spot Oxido - NY Daily News'
p10
a.