(lp0
S'Chipotle (CMG) Customers -- and Investors -- Get Some ...'
p1
aS'Chipotle (CMG) Stock Rallying Following Higher Analyst ...'
p2
aS"Incredible: Chipotle Is Paying For This Couple's ... | ClickHole"
p3
aS'Chipotle Mexican Grill is Coming to Lauderhill - Tamarac Talk'
p4
aS'Consumers Rejoice As Chipotle Mexican Grill, Inc. (NYSE ...'
p5
aS'New Chipotle Opening in Hudson Valley - 101.5 WPDH'
p6
aS'Critical Alerts For Skyworks Solutions, Splunk, Chipotle ...'
p7
aS'Middletown gains new stores, eateries - The News Journal'
p8
aS"Monsanto's Biggest Fears Are Coming True | Off The Grid ..."
p9
aS'Chipotle Mexican Grill, Inc. (CMG) Upgraded To Buy At ...'
p10
a.