(lp0
S'Chipotle employee arraigned on assault charges | News ...'
p1
aS'[Exclusive - Breaking News] Apple and Chipotle Team Up for Apple ...'
p2
aS"With Chipotle on the way, here's what you need to know ..."
p3
aS'Chipotle to Stop Selling Burritos - Thrillist'
p4
aS'The Next Chipotle Mexican Grill, Inc. Will Blow Your Mind ...'
p5
aS'New Edgewater Chipotle Accused Of Questionable ...'
p6
aS"The 'Chipotle of pizza' chains coming to Mohawk Commons ..."
p7
aS'Chipotle in G-Square closes, is replaced by Ashley Furniture ...'
p8
aS'News anchor and weather woman have awkward fight on ...'
p9
aS'Chipotle Mexican Grill: Why Even At $652 It Is Still An ...'
p10
a.