(lp0
S"Inside Chipotle's Kitchen: What's Really Handmade - WSJ"
p1
aS'The Chipotle of... - WSJ.com'
p2
aS'This Chipotle News Proves Calorie Counts are Bull - Attn'
p3
aS'Denver-based Chipotle changes executive pay practices ...'
p4
aS"Don't Waste Your Money: Chipotle Mexican Grill secret ..."
p5
aS'Chipotle Strategy Gives Customers What They Want ...'
p6
aS'Chipotle secret menu can spice up a cold night'
p7
aS'How Chipotle is forcing sit-down chains like Olive Garden to ...'
p8
aS'Clintonville getting Chipotle-style Vietnamese restaurant ...'
p9
aS'Chipotle to Open Second Chain in Millcreek - Story | YourErie'
p10
a.