(lp0
S'Chipotle Mexican Grill Inc - News Release'
p1
aS'How to Score a $3 Chipotle Burrito on Halloween | TIME'
p2
aS'Chipotle Boorito 2015 - Chipotle Discount on Halloween If ...'
p3
aS'Chipotle News - Latest Updates About Chipotle Mexican Food'
p4
aS'Your Next Chipotle Burrito Will Be Smaller Thanks to This ...'
p5
aS"Chipotle's Boorito fundraiser is back - WUSA9.com"
p6
aS'Food News: New Whopper Turns Your Poop Green ...'
p7
aS'Chipotle Boorito Day for $3 Burritos  Chipotle News ...'
p8
aS'Chipotle in Menomonee Falls to open next month ...'
p9
aS'Chipotle Hopes to Spook Additive Lovers With Latest Video ...'
p10
a.