(lp0
S'Chipotle E. coli outbreak reaches 6 states ... - Fox News'
p1
aS'Why Chipotle will shake off E coli scare: Analyst - CNBC.com'
p2
aS"Cramer: I don't know what to do with Chipotle - CNBC.com"
p3
aS'Chipotle restaurant in Copley Township  not by UA  is ...'
p4
aS'Analysts mixed on impact of Chipotle Mexican Grill E. coli ...'
p5
aS"E.coli outbreak looks set to infect Chipotle's same ... - News"
p6
aS'Ask Matt: Is Chipotle a sick stock? - USA Today'
p7
aS"E.coli outbreak looks set to infect Chipotle's same-outlet ..."
p8
aS'Will rivals benefit from Chipotle E. coli scare? | Q13 FOX News'
p9
aS"Chipotle's E. Coli Outbreak Is a Buying Opportunity -- The ..."
p10
a.