(lp0
S'Chipotle Mexican Grill to tighten food safety standards for ...'
p1
aS'Chipotle Still Feeling Pain After E. Coli Outbreak of ...'
p2
aS'Chipotle Tightens Standards Amid E. Coli Outbreak, Putting ...'
p3
aS'Chipotle to tighten produce supplier rules after E. coli outbreak'
p4
aS'Chipotle to Enforce Stricter Supplier Guidelines After E. Coli ...'
p5
aS'Chipotle Adjusts Local-Ingredient Policy -- Grub Street'
p6
aS'Chipotle raises testing standards for suppliers | The Packer'
p7
aS'Taco Bell Wants to Boss Chipotle Around -- The Motley Fool'
p8
aS'3 Core Issues Facing Chipotle Mexican Grill -- The Motley Fool'
p9
aS'Chipotle coming to Palladium development - Greensboro ...'
p10
a.