(lp0
S'Colorado Springs man eats Chipotle for 107 days straight ...'
p1
aS'Living the Chipotlife - NBC News'
p2
aS'Living the Chipotlife: 23-year-old man eats Chipotle for 153 ...'
p3
aS'Want free Chipotle? Play this online game - 9News'
p4
aS'Chipotlife: Man spends $1,500+ eating Chipotle 153 days in ...'
p5
aS'Man eats Chipotle for more than 100 straight days | WGN-TV'
p6
aS'Los Angeles Man Eats Chipotle for 153 Days, Details How ...'
p7
aS'6 Reasons Chipotle Bounced Back To A New All-Time High ...'
p8
aS'What happens if you eat Chipotle for 153 days straight ...'
p9
aS'Learn about Chipotle food and get free food - ABC15 Arizona'
p10
a.