(lp0
S'Chipotle Marketing Chief Mark Crumpacker Speaks at the ...'
p1
aS'The Next Chipotle: 6 Chains Ready to Blow Up in 2015'
p2
aS'Arlington News on Twitter: "A Chipotle may be coming to ...'
p3
aS'Reader Wants Tocabe to Become the Next Chipotle ...'
p4
aS"Here's Why Chipotle Is Overrated And Yum! Brands ..."
p5
aS'Chipotle & Other Players Capture Market Share, Will a ...'
p6
aS'Chipotle Coming to Columbia Pike? | ARLnow.com'
p7
aS'Why A Chipotle Stock Top May Be In the Works | See It Market'
p8
aS'Is This Restaurant the Next Chipotle? - New Constructs'
p9
aS'CAA Marketing Co-CCO Jesse Coulter to Depart | Agency ...'
p10
a.