(lp0
S'Chipotle Plans to Reopen Restaurants Without Knowing E ...'
p1
aS'E. coli mystery unsolved, but Chipotle to reopen Wednesday ...'
p2
aS'Chipotle eateries in U.S. Northwest could re-open after ...'
p3
aS'No source found for E. coli; Chipotle could ... - Fox News'
p4
aS'Chipotle could reopen stores as E. coli outbreak remains ...'
p5
aS'Chipotle to reopen restaurants closed after E. coli outbreak'
p6
aS'The CDC Using DNA Tests For the Chipotle E. Coli ...'
p7
aS'Chipotle E. coli probe fails to find source - CNN.com'
p8
aS'Chipotle to Reopen Northwest Restaurants After E. coli ...'
p9
aS'Another lawsuit filed against Chipotle in E. coli outbreak ...'
p10
a.