(lp0
S"Ag Asks Chipotle, 'Who Smears Who?' - News | Agweb.com"
p1
aS"Qdoba Doesn't Want to Be the Next Chipotle - The Motley Fool"
p2
aS'Chipotle Mexican Grill opens Thursday in Oak Ridge - News ...'
p3
aS"Plans announced for Downriver's first Chipotle Mexican Grill ..."
p4
aS'Why is a nonprofit shill for business interests attacking ...'
p5
aS"Here's How You Can Get $3 Chipotle Burritos For Halloween"
p6
aS"Meet the Farmer Who's Helping Chipotle Go Beyond Non ..."
p7
aS'Chipotle solves its pork problem - Fortune'
p8
aS'Minnesota salmonella outbreak linked to Chipotle restaurants'
p9
aS'Annual Boorito fundraiser at Chipotle adds "unnecessary" spin'
p10
a.