(lp0
S'Boston Chipotle shuts down after students get sick - CBS ...'
p1
aS'Chipotle Plunges After Scrapping Forecast Amid E. Coli Scare'
p2
aS'Chipotle Shuts Restaurant After College Students Get Sick ...'
p3
aS"Chipotle E. coli outbreak is not the restaurant's only problem"
p4
aS'20 Boston College students sick after eating Chipotle - NY ...'
p5
aS'Chipotle closes restaurant after Boston College students ...'
p6
aS'BC says Chipotle made basketball players, students sick ...'
p7
aS'Is There a Boston College Connection to the Chipotle ...'
p8
aS'Boston College warns students to avoid Chipotle - Business ...'
p9
aS'Chipotle Increases Its Safety Measures as E. Coli Outbreak ...'
p10
a.