(lp0
S'Chipotle Gives Customers Reason to Try Sofritas ...'
p1
aS'Chipotle Mexican Grill, Inc. Should Have a Great 2015 ...'
p2
aS'Forget Chipotle Mexican Grill: Here Are Better Restaurant ...'
p3
aS'Chipotle Coming to Bayside - The West End News'
p4
aS"Chipotle's Health Troubles Turn Criminal - The Daily Beast"
p5
aS'Warm Chipotle Maple Roasted Sweet Potato Salad with ...'
p6
aS'Three EJC men indicted in series of armed robberies - News ...'
p7
aS'KFC to serve beer at new premium Sydney restaurant - NY ...'
p8
aS"Baird's Top Momentum Stocks for 2015 Include Tesla Motors"
p9
aS'FBI  Three Eastern Jackson County Men Indicted for Five ...'
p10
a.