(lp0
S'The Chipotle Mexican Grill Inc. Carnitas Shortage is Finally ...'
p1
aS"Dear Shake Shack: I Knew Chipotle, and You're No Chipotle ..."
p2
aS'Why Chipotle Mexican Grill Inc. Stock Went From Zero to ...'
p3
aS"Chipotle's Carnitas Coming Back After Shortage, Plus a ..."
p4
aS'Chipotle has customer social interaction wrapped up - 9News'
p5
aS'FDA detains Mexican cilantro at the border, citing fecal ...'
p6
aS"More on the cover story: Colorado's Chipotle has customer ..."
p7
aS"Stanton-EastBanc's Hine School redevelopment, Chipotle at ..."
p8
aS'Chipotle to open Virginia Beach Hilltop location by early ...'
p9
aS'Pros And Cons: The Chipotle Homegrown Game | The18'
p10
a.