(lp0
S"Chipotle CEO: We can't prevent people from overeating ..."
p1
aS'Chipotle CEO: We have the power to raise prices - Video ...'
p2
aS'Chipotle first fast-food chain to remove GMO ingredients ...'
p3
aS'Chipotle stops serving genetically modified ingredients ...'
p4
aS'Chipotle cuts GMO food from menu in US first - NY Daily News'
p5
aS'Chipotle pulls an anti-GMO PR move | Doubtful News'
p6
aS'Chipotle Goes 100% Non-GMO | Fooducate'
p7
aS'5 Things to Know About GMOs - Health News and Views ...'
p8
aS'Why Chipotle stopped using GMOs - Business Insider'
p9
aS"Chipotle's GMO gimmick is hard to swallow - The ..."
p10
a.