(lp0
S'Chipotle Reaches Awkward Age - WSJ'
p1
aS"Here's How To Stay Healthy At Chipotle According To ..."
p2
aS'How to play Yahoo, Chipotle & Verizon earnings - CNBC.com'
p3
aS"Restaurant Inspections: Chipotle, Cosi, Santini's, Good News..."
p4
aS"Holyoke's 'Ingleside Square' plan adds Chipotle Mexican ..."
p5
aS'Chipotle Newport News - Newport News | Delivery Menu'
p6
aS"Chipotle's (CMG) Not Cheap, But Can Still Sizzle Ahead of ..."
p7
aS'What to Look For When Chipotle (CMG) Releases Earnings ...'
p8
aS"Chipotle's Sales Growth May Disappoint, but Here's What ..."
p9
aS'This Just In: Breaking News - YouTube'
p10
a.