(lp0
S'Chipotle Backs Off GMO-free Claim | Heartlander Magazine'
p1
aS'Chipotle workers fear roof collapse - CBS News 8 - San ...'
p2
aS'Corporate irresponsibility over GMOs - The Washington Post'
p3
aS'A Node API for Chipotle orders - Hacker News'
p4
aS'Taco Bell May Pull A Chipotle & Serve Booze | VinePair'
p5
aS"4 Mexican Foods You Didn't Know Existed - ABC News"
p6
aS'Garlic-Lime Chicken Drumettes with Chipotle - Cooking ...'
p7
aS'The Chipotle Carnitas Crisis: PR Dream or Provision Disaster?'
p8
aS'Sorry Syracuse burrito fans: No Qdoba for you | syracuse.com'
p9
aS'The Fairviewer : Chipotle Goes Au Naturel'
p10
a.