(lp0
S"It's (sort of) free Chipotle burrito day! | New York Post"
p1
aS'Free Chipotle todaybut is there a catch? | Fox News'
p2
aS'Chipotle Mexican Grill Inc - News Release'
p3
aS'How to get a free Chipotle meal - Cincinnati News, FOX19 ...'
p4
aS'Chipotle Offering Free Burritos To Adventurous Eaters ...'
p5
aS'Chipotle offers up free entrees in Monday promotion ...'
p6
aS'How to get a free Chipotle meal - NBC12 - WWBT ...'
p7
aS'Buy one get one free today at Chipotle - KRISTV.com ...'
p8
aS'Deal: Buy a sofrita at Chipotle today, get a free burrito ...'
p9
aS'Chipotle puts a twist on BOGO | Chicago Sun-Times'
p10
a.