(lp0
S'Chipotle Will Give You Free Food, but You Have to Try Their ...'
p1
aS'Chipotle is offering free food on January 26th! | KFOR.com'
p2
aS'Chipotle Gives Customers Reason to Try Sofritas ...'
p3
aS'Chipotle Coming to Bayside - The West End News'
p4
aS'Free Chipotle Offer Begins Jan. 26 | Patch'
p5
aS'Free Chipotle on January 26? Mark that Date, Burrito Lovers'
p6
aS'Chipotle Loves Us So Much That They Are Giving Away ...'
p7
aS'Chipotle Offers Free Burritos, Bowls, and Tacos on January 26'
p8
aS'Citi Assumes Chipotle Mexican Grill (CMG) at Buy'
p9
aS'Post Grad Problems | CHIPOTLE IS GIVING AWAY FREE ...'
p10
a.