(lp0
S'This might be bad news for Chipotle lovers - HelloGiggles'
p1
aS'Masked, armed man robs Park Ridge Chipotle, police say ...'
p2
aS'Chipotle said to be source of Salmonella outbreak in ...'
p3
aS'Chipotle Mexican Grill Inc - News Release'
p4
aS'Chipotle Fight Escalates | Fox Business'
p5
aS'Park Ridge Chipotle robbed at gunpoint, police say - Park ...'
p6
aS'3 More Restaurants Growing Faster Than Chipotle -- The ...'
p7
aS'Dozens of salmonella cases linked to Minnesota Chipotle ...'
p8
aS"'Food News' Podcast: Chipotle's Salmonella Outbreak and ..."
p9
aS'What Caused Salmonella Outbreaks at Chipotle and Fig ...'
p10
a.