(lp0
S'Chipotle: Carnitas shortage to persist for months - Yahoo ...'
p1
aS"Chipotle Supply Woes Persist After Pork 'Rolling Blackouts ..."
p2
aS'Chipotle: Steak and barbacoa prices are going up - Apr. 21 ...'
p3
aS'Carnitas returning to Chipotle restaurants - Denver Business ...'
p4
aS'Chipotle Mexican Grill Inc - News Release'
p5
aS"Chipotle's carnitas crisis update - Business Insider"
p6
aS'Chipotle shares hit by slowed growth - USA Today'
p7
aS'After-Hours News: Yahoo Inc (YHOO), Chipotle Mexican ...'
p8
aS"Chipotle's expanding pizzeria concept gets a ... - Fox News"
p9
aS'Chipotle Posts Another Quarter of Billion-Dollar Sales - The ...'
p10
a.