(lp0
S'Does Costco Have a Chipotle Mexican Grill Problem? -- The ...'
p1
aS'Chipotle Mexican Grill, Inc. - ETF Daily News'
p2
aS'Chipotle E. Coli Outbreak Spreads | Patch'
p3
aS'Why Store Expansion Is One Of The Key Growth Drivers For ...'
p4
aS'Chipotle to open its first Sidney restaurant in the spring ...'
p5
aS'Investor Alert: Investigation of Chipotle Mexican Grill ...'
p6
aS'Chipotle Mexican Grill: Silver Lining, Amidst The E. Coli ...'
p7
aS'E. Coli Outbreak Plagues Chipotle - SFCToday.com'
p8
aS"Food Politics by Marion Nestle  Chipotle's E. coli outbreak ..."
p9
aS'How Big Will E. coli Outbreaks Linked To Chipotle and ...'
p10
a.