(lp0
S"How a Mexican-food chain you've probably never heard of ..."
p1
aS'Chipotle CEO to Cramer: Changing food culture - CNBC.com'
p2
aS'Chipotle changing food culture: CEO - CNBC Video'
p3
aS'Chipotle Mexican Grill (CMG) Stock Rated New "Outperform ...'
p4
aS'Yum! Brands (YUM), Chipotle (CMG) Active; Levy ...'
p5
aS'Chipotle Mexican Grill (CMG) - Mergers and Acquisitions'
p6
aS'Northeast Valley News : Chipotle Cultivate Music Festival ...'
p7
aS"First Look: Chapati Indian Grill, the Latest 'Chipotle Version ..."
p8
aS"Chipotle Challenger Qdoba Taps Pereira & O'Dell as Lead ..."
p9
aS'Restaurant Inspections: Chipotle, Five Guys Burgers ... - Patch'
p10
a.