(lp0
S'Chipotle Backs Off GMO-free Claim | Heartlander Magazine'
p1
aS'Chipotle workers fear roof collapse - CBS News 8 - San ...'
p2
aS'Chipotle Mexican Grill Inc. Stock Falls After Earnings: Time ...'
p3
aS"'Put People Over Pigs' Protest At Chipotle Meeting  CBS ..."
p4
aS"Lakeville mayor: Where's OUR Chipotle? - Minneapolis / St ..."
p5
aS"Makers of Chipotle's burrito bowls tell fast food chain to 'put ..."
p6
aS'Police: Wallet Stolen From Huntington Chipotle | Patch'
p7
aS"Chipotle Shares Recipe for Its 'Perfect Guacamole' | Patch"
p8
aS"Chipotle CEOs' under fire for pay - Business Insider"
p9
aS"Working Families Ask Chipotle to Apply 'Food With Integrity ..."
p10
a.