(lp0
S'Chipotle Mexican Grill Inc. names Curt Garner chief ...'
p1
aS'Chipotle Mexican Grill Inc - News Release'
p2
aS'Suspects rob Chipotle in Willow Grove, Pa. | 6abc.com'
p3
aS'Chipotle has taken a major step toward becoming more like ...'
p4
aS"Chipotle Treads Starbucks' Path, Creates CIO Position ..."
p5
aS'Chipotle puts focus on mobile, taps first CIO - USA Today'
p6
aS'Chipotle poaches Starbucks tech exec to combat long lines ...'
p7
aS'Starbucks Exec Quits For Chipotle Chief Information Officer ...'
p8
aS"Chipotle names Starbucks' Curt Garner CIO | Restaurant ..."
p9
aS'Suspects Rob Montgomery County Chipotle | NBC 10 ...'
p10
a.