(lp0
S'Chipotle Gay Marriage Ruling Post On Twitter Gets Mixed ...'
p1
aS'Love wins  this awful Chipotle brand tribute does not ...'
p2
aS"Is Chipotle's Stock Undervalued? - Forbes"
p3
aS'Construction underway on Chipotle, more in Liberty Twp ...'
p4
aS'Developer confirms Chipotle, other stores | Local ...'
p5
aS'3 Growth Stocks Peter Lynch Would Buy: Amazon, Chipotle ...'
p6
aS'Postmates, the Chipotle and Starbucks Delivery Partner ...'
p7
aS'New restaurants coming to Martinsburg - Journal News ...'
p8
aS'Model Angel Rutledge Was Discovered at Chipotle - Vogue'
p9
aS'Chipotle Launches a Text Message Sweepstakes to ...'
p10
a.