(lp0
S'Hillary Clinton Makes Surprise Pit Stop at Chipotle in Ohio ...'
p1
aS'Hillary Clinton, a Van, and a Stop for Chipotle - NBC News'
p2
aS'Hillary Clinton stops for lunch at Chipotle - Videos - CBS News'
p3
aS'Hillary Clinton stops at Chipotle near Toledo, no one notices ...'
p4
aS"Here's Hillary Clinton Ordering A Chicken Bowl At Chipotle ..."
p5
aS'Hillary Clinton Went to Chipotle Today -- NYMag'
p6
aS'Breaking News: Hillary Clinton Eats Food | Mediaite'
p7
aS'Hillary Clinton goes to Chipotle - Business Insider'
p8
aS'Chipotle: No Quick Fix to Pork Shortage - The Epoch Times'
p9
aS'This is Hillary Clinton ordering a burrito bowl at Chipotle'
p10
a.