(lp0
S'What Does Wall Street Want From Chipotle, Anyway ...'
p1
aS'Why Chipotle Stock Will Keep Rising (Eventually) -- The ...'
p2
aS'Chipotle on fire | Food Business News'
p3
aS'7 ways Chipotle stock can spice up your portfolio ...'
p4
aS'Feeling poetic? Chipotle giving free food for best haiku'
p5
aS'Chipotle Mexican Grill Inc. may raise menu prices on beef in ...'
p6
aS'Chipotle is considering raising prices...Will customers bite?'
p7
aS"McDonald's Chicken Farm: Chipotle Founder Says It Was ..."
p8
aS'Bloomberg Releases Expansive Oral History of Chipotle ...'
p9
aS'Chipotle Mexican Grill (CMG) Stock Slumping Today After ...'
p10
a.