(lp0
S'Chipotle is Coming to Yakima This Summer - 107.3 KFFM'
p1
aS'Chipotle coming to Yakima this summer | KIMA'
p2
aS'Chipotle will open in Yakima this... - KEPR Action News ...'
p3
aS'3 Stocks Growing Faster Than Chipotle -- The Motley Fool'
p4
aS'Fort Bragg Report: Chipotle to Fort Bragg? | Blog: Fort Bragg ...'
p5
aS'Three Scenarios That Might Impact Chipotle Mexican Grill ...'
p6
aS"Chipotle's Success Story And The Challenges Ahead ..."
p7
aS'The 12 Best Twitter Reactions to Chipotle Near Fordham ...'
p8
aS"McDonald's sales plunge: The rise of Chipotle is the decline ..."
p9
aS'Great Valley After-Prom Chipotle Fundraiser Planned | Patch'
p10
a.