(lp0
S'Hillary Clinton Makes Surprise Pit Stop at Chipotle in Ohio ...'
p1
aS'Hillary Clinton spotted at Chipotle in Ohio on way to Iowa ...'
p2
aS'Hillary Clinton, a Van, and a Stop for Chipotle - NBC News'
p3
aS'Hillary Clinton goes unnoticed in Ohio Chipotle - USA Today'
p4
aS"Fox Host: Hillary Clinton Ate At Chipotle For 'Hispanic ..."
p5
aS'Hillary Clinton stops for lunch at Chipotle - Videos - CBS News'
p6
aS'Hillary Clinton stops at Chipotle near Toledo, no one notices ...'
p7
aS'Hillary Clinton goes unnoticed at Chipotle in botched retail ...'
p8
aS'Hillary Clinton goes incognito to grab some Chipotle | New ...'
p9
aS'Fox News: Hungover Hillary Ate At Chipotle To Woo The ...'
p10
a.