(lp0
S'Chipotle (CMG), Monster Beverage (MNST), Lululemon ...'
p1
aS'Amazon (AMZN), Apple (AAPL) and Chipotle (CMG) Too ...'
p2
aS"Forget McDonald's And Chipotle Mexican Grill, Buy This Stock"
p3
aS'Chipotle plans to open new restaurant in Greenacres | www ...'
p4
aS"Chipotle Co-CEOs Roll Out $133M in Stock Sales - Barron's"
p5
aS'Eating Out: Fresno lands a new Chipotle, ramen restaurant'
p6
aS'New Chipotle planned for Greenacres shopping center ...'
p7
aS"Will Chipotle's Story Have a Silver Lining in 2015? - Yahoo ..."
p8
aS'Restaurant chain accused of undermining public trust in ...'
p9
aS"Chipotle's GMO-free decision could be beginning of end of ..."
p10
a.