(lp0
S'Chipotle Will Use Central Kitchen for Some Ingredients After ...'
p1
aS"Chipotle's First Norovirus Outbreak in California was Larger ..."
p2
aS'Chipotle Installing New Food Safety Protocols From the ...'
p3
aS'Chipotle has good news for customers after the E. Coli scare'
p4
aS"Chipotle's Truly Terrible 2015 -- Grub Street"
p5
aS'Chipotle CEO to Cramer: There is no E coli in Chipotle today'
p6
aS'Everything You Need to Know About the Latest Foodborne ...'
p7
aS'Chipotle Pulls Back on Local Ingredients - WSJ'
p8
aS'Chipotle announces what it will do differently after E.coli ...'
p9
aS'Fast food failures in 2015 - NY Daily News'
p10
a.