(lp0
S'Woman burned by hot oil at Chipotle - KTRK.com'
p1
aS'Chipotle executive pay under fire  again - The Denver Post'
p2
aS"How to Make Chipotle's Guacamole Recipe - Huffington Post"
p3
aS'Chipotle opens Sunday in Wilkes-Barre Twp. - News ...'
p4
aS'Chipotle Mexican Grill, Inc.(NYSE:CMG) Stock And The ...'
p5
aS"GMO Purge Could Create the 'Chipotle of' Supply Chain ..."
p6
aS"Behind Chipotle Mexican Grill's singular success: A discussion"
p7
aS'Chipotle Mexican Grill opening in Derby | Kansas Just Good ...'
p8
aS'Charlotte woman badly burned by grease at Chipotle'
p9
aS'Woman Treated at Burn Center After Slip at Charlotte Chipotle'
p10
a.