(lp0
S"Carnitas Are Coming Back to Chipotle...but There's a Catch ..."
p1
aS'Chipotle shares sink as pork shortage cuts into sales ...'
p2
aS'Chipotle: Carnitas shortage to persist for months - Yahoo ...'
p3
aS'Chipotle begins offering delivery via Postmates'
p4
aS"Chipotle Supply Woes Persist After Pork 'Rolling Blackouts ..."
p5
aS'Chipotle launching delivery | Food Business News'
p6
aS'Carnitas returning to Chipotle restaurants - Denver Business ...'
p7
aS'Chipotle: Steak and barbacoa prices are going up - Apr. 21 ...'
p8
aS'Chipotle Mexican Grill Inc - News Release'
p9
aS"Chipotle's carnitas crisis update - Business Insider"
p10
a.