(lp0
S'What in the world is happening to Chipotle - Washington Post'
p1
aS'Chipotle Virus Outbreak Hits 120, School Says: What You ...'
p2
aS'Norovirus Caused Chipotle Outbreak in Boston, Officials Say'
p3
aS'News Norovirus strikes 120 Boston College students who ...'
p4
aS'More Boston College students sickened in Chipotle ...'
p5
aS'Chipotle Mexican Grill sets goal of being leader in food safety'
p6
aS'Chipotle Closes Boston Restaurant After College Students ...'
p7
aS'Chipotle Faces Another Foodborne Illness Outbreak, This ...'
p8
aS'Bay State inspectors set to grill Chipotle | Boston Herald'
p9
aS'BC: More than 120 students now sick from Chipotle outbreak'
p10
a.