(lp0
S'Chipotle makes a sound decision: Opposing view'
p1
aS'El Vez Burrito boasts Chipotle-like Tex-Mex - NY Daily News'
p2
aS"Monsanto's Worst Fear May Be Coming True"
p3
aS'all propaganda extensions of Monsanto - Natural News'
p4
aS'Jack in the Box Ramps Up in 2Q15; Chipotle Slows Down ...'
p5
aS"'Natural' and other food labels that sound ... - CNN.com"
p6
aS'Chipotle to Open Monday in Riverside If all the Stars Line ...'
p7
aS"Center for Consumer Freedom  Chipotle's A-pork-alypse"
p8
aS"Chipotle's Famous Guacamole Recipe - Kim's Cravings"
p9
aS"Monsanto's Worst Fear May Be Coming True: The End ..."
p10
a.