(lp0
S'Chipotle Mexican Grill Inc - News Release'
p1
aS'Chipotle New Game Win Free Burritos - Refinery29'
p2
aS"Chipotle game 'Friend or Faux' to compare ingredients with ..."
p3
aS"If Chipotle Won't Pay Fast Food Workers A Living Wage ..."
p4
aS'Play this game, win free Chipotle - WUSA9.com'
p5
aS"Jim Cramer's Top Takeaways: Box, Netflix, Fitbit, Chipotle ..."
p6
aS'You Could Win Free Chipotle Burritos for a Year If You Can ...'
p7
aS'Center for Consumer Freedom  Chipotle Hypocrisy ...'
p8
aS'How to Win Free Chipotle for a Year - Thrillist'
p9
aS'Chipotle Predictably Responds To 14% Minimum Wage ...'
p10
a.