(lp0
S'Chipotle E. coli outbreak reaches 6 states ... - Fox News'
p1
aS'Why Chipotle will shake off E coli scare: Analyst - CNBC.com'
p2
aS"Cramer: I don't know what to do with Chipotle - CNBC.com"
p3
aS'Analysts mixed on impact of Chipotle Mexican Grill E. coli ...'
p4
aS'Chipotle Shares Plummet as E. Coli Outbreak Spreads'
p5
aS"E.coli outbreak looks set to infect Chipotle's same ... - News"
p6
aS'Will rivals benefit from Chipotle E. coli scare? | Q13 FOX News'
p7
aS'Ask Matt: Is Chipotle a sick stock? - USA Today'
p8
aS"E.coli outbreak looks set to infect Chipotle's same-outlet ..."
p9
aS"Chipotle's E. Coli News Is Scaring These Analysts - Benzinga"
p10
a.