(lp0
S'Why a GMO-Free Chipotle Mexican Grill Is Terrible News ...'
p1
aS"Chipotle CEO: We can't prevent people from overeating ..."
p2
aS'Chipotle first fast-food chain to remove GMO ingredients ...'
p3
aS"Why We Can't Take Chipotle's GMO Announcement All That ..."
p4
aS"Chipotle's GMO message is muddled - Chicago Tribune"
p5
aS"Chipotle Says They Can't Prevent People From Overeating ..."
p6
aS'Chipotle Mexican Grill, Inc.: NYSE:CMG quotes & news ...'
p7
aS'Chipotle Bans Credibility - Bloomberg View'
p8
aS'Why Chipotle stopped using GMOs - Business Insider'
p9
aS'5 Things to Know About GMOs - ABC News'
p10
a.