(lp0
S'Jan 19, 2016 - Industry News | January 19, 2016. El ... At its annual awards ceremony in November, El Pollo Loco presented HME with its vendor Award of Excellence in the ...'
p1
aS'Jan 19, 2016 - HME Earns El Pollo Loco 2015 Award of Excellence ... At its annual awards ceremony in November, El Pollo Loco presented HME with its ... News Center.'
p2
aS"Jan 19, 2016 - NBC News image Fransisco Javier Rios-Covarrubias and the girl's mother ... is an illegal non-citizen that has worked at El Pollo Loco (restaurant)for 10 years."
p3
aS'Jan 19, 2016 - Santa Clarita - When news broke last July that the city of Santa Clarita may be ... El Pollo Loco out; burgers and juice in  Occupational healthcare firm gains ...'
p4
aS'Jan 19, 2016 - El Pollo Loco Holdings Inc. (NASDAQ: LOCO) is down almost 40%. While Del Taco Restaurants Inc. (NASDAQ: TACO) was up 9.5% for the year, it is still down ...'
p5
aS'Jan 19, 2016 - El Pollo Loco (LOCO) initiated with a Buy at Guggenheim... Electrolux AB .... Hot Stocks. Breaking Hot Stocks news story on Calumet Specialty Products .'
p6
aS'Jan 19, 2016 - While many other market reports only provide stock news and opinion, we ... El Pollo Loco, First Solar, Dollar Tree and hundreds of other stocks Released By ...'
p7
aS'Jan 19, 2016 - Get reviews, hours, directions, coupons and more for El Pollo Loco at 23716 Southwest Fwy, Rosenberg, TX. Search for other Fast Food Restaurants in ...'
p8
aS"Jan 18, 2016 - Valley Ranch Town Center adds Chickfila, Chili's, El Pollo Loco, Freebirds, Subway, T. Jin's Asian Caf and others ... What's NEW and NEWS in HKA Texas!"
p9
aS'Jan 19, 2016 - ... Shake Shack, Lumber Liquidators, EMC  Investors Suddenly Not So Crazy About El Pollo Loco ... For the latest news and analysis, follow @WSJMoneyBeat .'
p10
a.