(lp0
S'Jan 19, 2016 - Industry News | January 19, 2016. El ... At its annual awards ceremony in November, El Pollo Loco presented HME with its vendor Award of Excellence in the ...'
p1
aS'Jan 20, 2016 - El Pollo Loco opened 10 new company-owned locations in the quarter, just meeting the lower end of ... Receive news and analyst ratings updates for CMG.'
p2
aS'Jan 21, 2016 - Since 2003, Rios-Covarrubias has worked at an El Pollo Loco in Mesa and was described as a good employee until he recently started having car problems and ...'
p3
aS'Jan 19, 2016 - HME Earns El Pollo Loco 2015 Award of Excellence ... At its annual awards ceremony in November, El Pollo Loco presented HME with its ... News Center.'
p4
aS"Jan 19, 2016 - NBC News image Fransisco Javier Rios-Covarrubias and the girl's mother ... is an illegal non-citizen that has worked at El Pollo Loco (restaurant)for 10 years."
p5
aS'Jan 20, 2016 - Our analysis is based on comparing El Pollo Loco Holdings, Inc. with the .... for any investment decision made or action taken by you and others based on news, ...'
p6
aS'Jan 19, 2016 - Santa Clarita - When news broke last July that the city of Santa Clarita may be ... El Pollo Loco out; burgers and juice in  Occupational healthcare firm gains ...'
p7
aS'Jan 19, 2016 - El Pollo Loco Holdings Inc. (NASDAQ: LOCO) is down almost 40%. While Del Taco Restaurants Inc. (NASDAQ: TACO) was up 9.5% for the year, it is still down ...'
p8
aS'Jan 20, 2016 - Back to: Local News January 20, 2016. Follow Local News  Submit Your News ... El Pollo Loco, 1923 E. Highway 50, 100 points. Gold Dust West, Express ...'
p9
aS"Jan 20, 2016 - Home ; News ; Minimum wage ... the night's first public speaker was a woman who identified herself as an El Pollo Loco employee and domestic violence ..."
p10
a.