(lp0
S'Jan 20, 2016 - El Pollo Loco opened 10 new company-owned locations in the quarter, just meeting the lower end of ... Receive news and analyst ratings updates for CMG.'
p1
aS'Jan 21, 2016 - Since 2003, Rios-Covarrubias has worked at an El Pollo Loco in Mesa and was described as a good employee until he recently started having car problems and ...'
p2
aS'Jan 20, 2016 - Our analysis is based on comparing El Pollo Loco Holdings, Inc. with the .... for any investment decision made or action taken by you and others based on news, ...'
p3
aS'Jan 20, 2016 - Back to: Local News January 20, 2016. Follow Local News  Submit Your News ... El Pollo Loco, 1923 E. Highway 50, 100 points. Gold Dust West, Express ...'
p4
aS'Jan 20, 2016 - While many other market reports only provide stock news and opinion, we offer ... Alerts For Celldex Therapeutics, Anavex Life Sciences Corp, El Pollo Loco, ...'
p5
aS"Jan 20, 2016 - Home ; News ; Minimum wage ... the night's first public speaker was a woman who identified herself as an El Pollo Loco employee and domestic violence ..."
p6
aS'Jan 21, 2016 - A decir de la Secretara de Salud, las causas de anulacin del servicio en El Pollo Loco se deben a que present mal manejo en la manipulacin de los ...'
p7
aS"Jan 20, 2016 - Valley Ranch Town Center adds Chickfila, Chili's, El Pollo Loco, Freebirds, Subway, T. Jin's Asian Caf and others ... What's NEW and NEWS in HKA Texas!"
p8
aS'Jan 21, 2016 - Current Weather. Clear. 38. Complete Forecast  News  Sports  A & E ..... menu  we highly recommend the Poblano Pollo Loco and liked the burgers for the most part. .... El Tipico Restaurant, 1444 South Ave., was one of the first Mexican ...'
p9
aS'Clausuran sucursal de "El Pollo Loco" Coincidencia o represalia? Gregorio Martnez ...'
p10
a.