(lp0
S'Jan 8, 2016 - El Pollo Loco introduces five new items to their Under 500 Calorie menu to start the new year. ... Recent News | Recent Reviews | Current Deals & Specials ...'
p1
aS'Jan 7, 2016 - Jacequeline Garcia took this video inside the El Pollo Loco Mexican restaurant in Los Angeles as part of the roof fell inside ... Latest Weather and News Videos.'
p2
aS'Jan 8, 2016 - El Pollo Loco (NASDAQ: LOCO)  Andy Barish, Jefferies, El Pollo Loco is our ... (vs 2H15 levels) as new food news and effective media efforts move the needle.'
p3
aS'Jan 8, 2016 - Food Business News logo ... El Pollo Loco debuted its whole new Under 500 Calorie menu including a double chicken avocado salad, a chicken black bean ...'
p4
aS'Jan 8, 2016 - See the latest news from NRN ... Jefferies analyst Andy Barish believes El Pollo Loco will return to same-store sales growth as it ramps up unit growth.'
p5
aS'Jan 7, 2016 - La segunda tormenta de la temporada en el sur de California ocurri el ... Una porcin del techo de El Pollo Loco en Lincoln Heights se desprendi por la lluvia.'
p6
aS'Jan 9, 2016 - Reader Scott let me know that bakery chain Nothing Bundt Cakes will be opening soon at 5784 Calle Real in Goleta near El Pollo Loco. Founders Debra Shwetz ...'
p7
aS'Jan 7, 2016 - While many other market reports only provide stock news and opinion, we offer ... Alerts For Celldex Therapeutics, Anavex Life Sciences Corp, El Pollo Loco, ...'
p8
aS'Jan 8, 2016 - Food World News ... Before Brad tried out acting, he was once a regular joe working at El Pollo Loco. His job is to bring in more traffic and customers with his ...'
p9
aS"Jan 8, 2016 - Canyon Lake News  Columnists  Classifieds  Place an Ad  Archives ... Sonic, Sprint, El Pollo Loco, European Wax Center, Nikki's Nails, SportClips haircuts, ..."
p10
a.