(lp0
S'Feb 11, 2016 - El Pollo Loco Heats Up Houston With First New Restaurant Opening of 2016. Print. February 11, 2016 11:15 ET | Source: El Pollo Loco, Inc. COSTA MESA, Calif., Feb. 11, 2016 ... other news releases in. Product / Services Announcement'
p1
aS"Feb 12, 2016 - Food Business News logo ... Chili lime is the featured flavor in El Pollo Loco's four new shrimp dishes: The Chili Lime Shrimp bowl, tacos, burrito and tostada."
p2
aS'Feb 12, 2016 - Chile-lime shrimp arrive four ways at El Pollo Loco. ... El Pollo Loco specializes in fresh chicken marinated in citrus juices, herbs and spices. ... Splash News.'
p3
aS"Feb 11, 2016 - Home News Tucson Redevelopment of Former Church Site on Broadway Fully ... the site boasts a superb tenant mix of El Pollo Loco, Blaze Fast Fire'd Pizza ..."
p4
aS"Feb 11, 2016 - Now, after more than a dozen restaurant companies - including El Pollo Loco, Cosi, Famous Dave's of America and trend leader Shake Shack - have lost more ..."
p5
aS"Feb 11, 2016 - An El Pollo Loco restaurant is shown in San Diego, California, in this file photo ... Now, after more than a dozen restaurant companies - including El Pollo Loco (LOCO. .... Thomson Reuters is the world's largest international multimedia news ..."
p6
aS'Feb 11, 2016 - El Pollo Loco turns up the flame under turnaround plan. 5/19/2011. Orange County, Calif.-based El Pollo Loco has ramped up its efforts to reverse flagging sales, attract higher-income customers and fend off a ... Get the News in your Inbox.'
p7
aS"Feb 12, 2016 - Home  BUSINESS  Local Business News  Aldi's grocery store may open in .... El Pollo Loco out; burgers and juice in  Occupational healthcare firm gains ..."
p8
aS'Feb 12, 2016 - Headlines News  News  Hospital nurse accused of giving daughter .... Market Losers: Avalanche Biotechnologies Inc, El Pollo LoCo Holdings Inc, And King ...'
p9
aS"Feb 12, 2016 - Labels: Deals , News , Qdoba , Valentine's Day .... Chipotle Church's Chicken Dairy Queen Del Taco Domino's Dunkin' Donuts El Pollo Loco Hardee's In-N-Out ..."
p10
a.