(lp0
S'Feb 19, 2016 - The big news this week is that Tarakaan, 2301 Main, is suspending its food ... El Pollo Loco opened its first new restaurant of the year at 5309 South Rice, where ...'
p1
aS'Feb 19, 2016 - Updated annual balance sheet for El Pollo Loco Holdings Inc. - inluding LOCO assets, cash, debt, liabilities & shareholder equity, investments, retained earnings ...'
p2
aS"Feb 19, 2016 - Taco Loco's namesakes, Mexican-style tacos. ... our readers as the best Mexican in town in our Best of Dayton contest, El Toro offers plenty of delicious options, ..."
p3
aS'Feb 18, 2016 - Del Taco is offering beer-battered shrimp and beer-battered fish, El Pollo Loco has added shrimp tossed in a lime-chile glaze in bowls, tacos, burritos or tostadas ...'
p4
aS'Feb 18, 2016 - DEALS NEWS BUSINESS DEALS NEWS BUSINE. BUSINESS DEALS NEWS BUSINESS .... 12 El Pollo Loco will open in mid-. March in the Center at Pearland.'
p5
aS'Feb 19, 2016 - "Al founded this company in order to bring his unique flair for medical ... El Pollo Loco out; burgers and juice in  Macy\'s continues to plan store closures amidst ...'
p6
aS'Feb 19, 2016 - ... the former site of the Christian Faith Fellowship church located at 5601 E. Broadway Blvd. is now occupied by three national known food chains: El Pollo Loco, ...'
p7
aS"Feb 18, 2016 - Favy says); Lopez, whose tacos are good but a little fatty; and Tacos El Gordo, the place that inspired the tour in the first place. ... But it's El Pollo Loco and Jack in the Box that jolt Favy and Ras awake and get .... Downtown News 2 months ago ..."
p8
aS'Feb 19, 2016 - La Casa Del Pollo, Bullhead City, Arizona. 415 likes  46 talking about ... News Feed ..... Jorge Rodriguez Better, much better than El Pollo Loco...by a long shot.'
p9
aS'Feb 18, 2016 - Ruffles All Dressed returns permanently to store shelves here in the U.S..'
p10
a.