(lp0
S'Feb 22, 2016 - February 22, 2016 08:00 ET | Source: El Pollo Loco, Inc. ... After almost 15 years with El Pollo Loco, it continues to be as exciting as ... other news releases in'
p1
aS'Feb 22, 2016 - El Pollo Loco will open in mid-March in the Center at Pearland Parkway shopping center. Located at 2610 Pearland Parkway, Pearland, the California-based ...'
p2
aS'Feb 23, 2016 - At El Pollo Loco, we go to crazy lengths for our signature citrus-marinated, ... News Feed ... Join us at any of our 11 Houston-area El Pollo Loco restaurants.'
p3
aS'Feb 23, 2016 - 22 reviews of El Pollo Loco "As I write this review, this location is only about 1 ... There were lots of customers which is good news for them, but you can only get ...'
p4
aS'Feb 22, 2016 - Home  BUSINESS  Local Business News  Vons reloaded and reopening in .... El Pollo Loco out; burgers and juice in  Occupational healthcare firm gains ...'
p5
aS'Feb 22, 2016 - Home  BUSINESS  Local Business News  Hobby Lobby readying to open in .... El Pollo Loco out; burgers and juice in  Occupational healthcare firm gains ...'
p6
aS"Feb 23, 2016 - December 2, 2015 HKA Texas News, Humble ... If you see a line of cars at El Pollo Loco in Humble, that's because the company has given away Facebook ..."
p7
aS"Feb 23, 2016 - February 23, 2016 Atascocita, HKA Texas News, Humble ... Valley Ranch Town Center adds Chickfila, Chili's, El Pollo Loco, Freebirds, Subway, T. Jin's Asian ..."
p8
aS'Feb 24, 2016 - Anavex Life Sciences Corporation financial and business news, updates, and ... For Celldex Therapeutics, Anavex Life Sciences Corp, El Pollo Loco, First Solar, ...'
p9
aS"Feb 22, 2016 - For the much shorter term, Rothbort said El Pollo Loco (LOCO - Get Report) , which is down ... Access to Jim Cramer's daily blog; Intraday commentary and news ..."
p10
a.