(lp0
S'Feb 25, 2016 - Details of an active construction project lead in Arizona, El Pollo Loco 6129, courtesy of CMD. ... News  Contact Us  For more information on construction leads, ...'
p1
aS'Feb 24, 2016 - Four new chile lime shrimp entrees from El Pollo Loco, which operates more than 430 restaurants. Featuring a ... Want seafood news sent directly to your inbox?'
p2
aS"Feb 24, 2016 - February 24, 2016 For Birthdays, HKA Texas News, Kingwood, LOCAL NEWS ... Valley Ranch Town Center adds Chickfila, Chili's, El Pollo Loco, Freebirds, ..."
p3
aS'Feb 24, 2016 - El Pollo Loco lunches at our desks and a myriad of endless tweaks set the tone for my baptism under fire during my first-ever production week. It helped that we ...'
p4
aS"Feb 24, 2016 - Posted in Atascocita News on Wednesday, February 24, 2016 10:02 am. ... El Pollo Loco celebrates growing presence in Houston by hosting 'Loco Fun Day' ..."
p5
aS'Feb 25, 2016 - by Danny Jensen in News on Feb 25, 2016 11:45 am .... The list is 15 pages long and includes BK, Wendys, Subway, El Pollo Loco, Jack in the Box, and many ...'
p6
aS'Feb 25, 2016 - ... (OTCMKTS:BSEG) including real-time stock quotes, historical charts & financial news, all for free! ... Why El Pollo Loco Holdings Inc Fell 20% Friday Morning.'
p7
aS'Feb 24, 2016 - Headlines News  News  A mysterious skull adds new twist to old legend of .... Market Losers: Avalanche Biotechnologies Inc, El Pollo LoCo Holdings Inc, And ...'
p8
aS'Feb 25, 2016 - Home  BUSINESS  Local Business News  Poole & Shaffery welcome new ... El Pollo Loco out; burgers and juice in  Occupational healthcare firm gains ...'
p9
aS"Feb 24, 2016 - See the latest news from NRN. We need to be faster, bolder and think outside the box, she said. Applebee's hasn't done enough to differentiate itself and ..."
p10
a.