(lp0
S'Feb 29, 2016 - Home > News > Government > NY judge grants restraining order on salt law ... See the latest news from NRN ... El Pollo Loco names Kay Bogeajis COO.'
p1
aS'Feb 29, 2016 - El Pollo Loco. Shared publicly - Feb 8, 2016. Good news, Torrance! Buy One Burrito and Get One Free - TODAY ONLY. Click for Coupon.'
p2
aS'Feb 29, 2016 - El Pollo Loco ... Site presents news, location and contact details, a nutrition guide, and menus. ... Site provides information on locations, contacts, and news.'
p3
aS"Feb 29, 2016 - El Pollo Loco's COO to leave company. 8:07 A.M. ET ... El Pollo Loco COO Kay Bogeajis to leave company. 8:02 A.M. ET .... More News from MarketWatch."
p4
aS'Feb 28, 2016 - CLJ6 Stock Quote, and financial news from the leading provider and ... MarketWatch News on Commodities ... El Pollo Loco reports higher profit; sales slide.'
p5
aS"Feb 28, 2016 - Labels: News , Subway .... King Carl's Jr. Chick-fil-A Chipotle Church's Chicken Dairy Queen Del Taco Domino's Dunkin' Donuts El Pollo Loco Hardee's In-N-Out ..."
p6
aS"Feb 29, 2016 - Labels: Deals , News , Sonic .... Carl's Jr. Chick-fil-A Chipotle Church's Chicken Dairy Queen Del Taco Domino's Dunkin' Donuts El Pollo Loco Hardee's In-N-Out ..."
p7
aS'Feb 29, 2016 - All Health News Stories ... All Sports News Stories ... count drops 9 this week to all-time low of 480  Anadarko rises in Wall Street trading, El Pollo Loco slumps.'
p8
aS"Feb 28, 2016 - Einstein's Bagels: 10% off (60+) El Pollo Loco: 10% senior discount (60+), 15% military discount verified. Fazoli's: Join Club 62 for special senior menu items ..."
p9
aS"Feb 29, 2016 - El Pollo Loco is expanding in Houston. Come and join us! At El P...ollo Loco, we go to .... April News from the Farmers' Market at Imperial! April News from the ..."
p10
a.