(lp0
S'Feb 3, 2016 - Cathedral City police are looking for a man who robbed an El Pollo Loco restaurant at gunpoint Tuesday night.'
p1
aS'Feb 4, 2016 - If you dine at fast-food restaurants, El Pollo Loco is a relatively good choice. ... Chile-lime-marinated shrimp arrive four ways at El Pollo Loco. .... Splash News.'
p2
aS'Feb 3, 2016 - A man robbed the Cathedral City El Pollo Loco at gunpoint on Tuesday night. Police were called to the fast food franchise at about 8 p.m., reports the Desert Sun ...'
p3
aS'Feb 4, 2016 - Scripps National News. 2:38 PM ... El Pollo Loco  Catering platter including 24 pieces of chicken, two extra-large sides, warm tortillas, chips and salsa for $50.'
p4
aS'Feb 3, 2016 - The next stop for police was the EL Pollo Loco on Date Palm Drive south of Ramon for an armed robbery at 8 Tuesday night. The thief walked into the restaurant, ...'
p5
aS'Feb 4, 2016 - WEB SEARCH BY Google. Home  News ... with Cathedral City Police. On Tuesday night, an El Pollo Loco restaurant was robbed at gunpoint on Date Palm Dr.'
p6
aS'Feb 4, 2016 - Live-updated Colorado news, weather forecasts for Denver and the state, metro-area ... El Pollo Loco  Catering platter including 24 pieces of chicken, two ...'
p7
aS'Feb 4, 2016 - El Pollo Loco COO Kay Bogeajis to leave company. 8:02 A.M. ET. Westlake Chemical raises bid for .... More News from MarketWatch. Top Stories. Trending.'
p8
aS"Feb 3, 2016 - Back Yard Burgers, Baskin-Robbins, Donatos Pizza, El Pollo Loco, Fuzzy Taco, Rubio's, Tilted Kilt and Zinburger also introduce new menu items. Contact Bret ..."
p9
aS'Feb 3, 2016 - Get reviews, hours, directions, coupons and more for El Pollo Loco at 1510 E Hammer Ln, Stockton, CA. Search for other Fast Food Restaurants in Stockton on ...'
p10
a.