(lp0
S"Mar 17, 2016 - El Pollo Loco's COO to leave company. ... El Pollo Loco shares down 5.9% in premarket trade. ... El Pollo Loco stock price target cut to $12 from $18 at RW Baird."
p1
aS'Mar 17, 2016 - Updated key statistics for El Pollo Loco Holdings Inc. - including loco margins, P/E ratio, valuation, profitability, company ... MarketWatch News on LOCO.'
p2
aS"Mar 19, 2016 - El Pollo Loco's latest menu items are new, limited-time Signature Avocado Tostadas, which offers a slightly different look to their regular-menu Tostada Salads."
p3
aS"Mar 17, 2016 - 01/13/2016  Sidoti began new coverage on El Pollo Loco Holdings, Inc. giving ... 11/13/2015  El Pollo Loco Holdings, Inc. had its buy rating reiterated by ... summary of the latest news and analysts' ratings for El Pollo Loco Holdings, Inc."
p4
aS"Mar 18, 2016 - @kurmudgeon123 Its an epidemic that has also spread to El Pollo Loco too. ..... The day's important news, including local and national headlines, delivered ..."
p5
aS'Mar 18, 2016 - As per Zacks, the way to profitable investment is to invest in stocks from the leading industries. When stockholders acknowledge the real importance of earnings ...'
p6
aS'Mar 18, 2016 - http://www.rimrock.us/El-Pollo-Loco ... NAPC Comes Under Fire for Endorsing the Green Party  FBI Whistle-Blower Sibel Edmonds Starting News Service ...'
p7
aS'Mar 18, 2016 - El Pollo Loco Holdings (NASDAQ:LOCO) has received a short term rating of hold from experts at Zacks with a rank of 3. The stock has been rated an average of ...'
p8
aS'Mar 17, 2016 - Best Brokers. 25 Best and Worst Performing Stocks This Week: March 17. Futures. News ... LOCO, El Pollo Loco Cmn, $12.88, -13.56%, -51.10%. SC, Santander ...'
p9
aS'Mar 18, 2016 - Home  BUSINESS  Local Business News  Netflix to film new comedy in Santa .... El Pollo Loco out; burgers and juice in  Occupational healthcare firm gains ...'
p10
a.