(lp0
S"Mar 30, 2016 - El Pollo Loco is celebrating their presence and continued expansion in the Houston area by ... El Pollo Loco celebrates growing presence in Houston by hosting 'Loco Fun Day' ... Posted in News on Wednesday, March 30, 2016 12:28 pm."
p1
aS'Mar 31, 2016 - Free News Blast. Get the latest breaking industry news sent directly to your email. ... El Pollo Loco Inc. in Costa Mesa, Calif. (NASDAQ:LOCO) just started work ...'
p2
aS'Mar 30, 2016 - ... detrimental impact on chains which have a substantial number of outlets in California, such as El Pollo Loco Holdings, ... Stock Market News for April 12, 2016.'
p3
aS'Mar 31, 2016 - Every day the Zacks Equity Research analysts discuss the latest news and events ... Stocks recently featured in the blog include El Pollo Loco Holdings, Inc. (.'
p4
aS'Mar 30, 2016 - El Pollo Loco Holdings (NASDAQ:LOCO) has received a short term rating of hold from experts at Zacks with a rank of 3. The stock has been rated an average of ...'
p5
aS'Mar 31, 2016 - El Pollo LoCo Holdings Inc (NASDAQ:LOCO) was the target of a large growth in short interest in ... El Pollo LoCo Holdings Inc - Receive News & Ratings Daily ...'
p6
aS"Mar 31, 2016 - The stock of El Pollo Loco Holdings, Inc. (NASDAQ:LOCO)'s started the session at ... recorded a low of $13.0186 and surged to $N/A. At the time of news update, ..."
p7
aS'Mar 31, 2016 - KRQE reports on news, weather, traffic, investigations and sports for New Mexico. ... grilled chicken place here - even a chain like El Pollo Loco would be great!'
p8
aS'Mar 31, 2016 - El Pollo Loco was recognized for offering the healthiest food options, followed by Chick-fil-A and Boston Market. KFC scored last out of the brands studied on ...'
p9
aS'Mar 30, 2016 - El Pollo Loco Holdings, Inc. Appoints Bill Floyd (fmr COO, Taco Bell and KFC) and Lili Lynton (Co-Founder, Dinex Group)to its Board of Directors  thestreet.com.'
p10
a.