(lp0
S'Mar 7, 2016 - El Pollo Loco Holdings, Inc. (LOCO) is set to report fourth-quarter and full-year 2015 results on Mar 10, after the ... Zacks News for ( URBN, FLWS, WING, LOCO ) ...'
p1
aS"Mar 7, 2016 - El Pollo Loco Sizzles in Brownsville with Opening of New... ... All News Releases ... El Pollo Loco, the nation's leading fire-grilled chicken chain, has opened it ..."
p2
aS'Mar 7, 2016 - Looking for Food Services jobs at El Pollo Loco? Our growing list of El Pollo Loco Food Services job opportunities make it easy for you to find the perfect job for ...'
p3
aS'Mar 7, 2016 - Thursday will offer earnings announcements from Bon-Ton Stores, Dollar General, El Pollo Loco, Jamba, Marcus & Millichap, Stein Mart, and VeriFone in ...'
p4
aS'Mar 7, 2016 - It is currently 33 percent occupied with tenants including Dollar General, Subway, Payless Shoes, Sizzler, Jack in the Box, El Pollo Loco and local businesses.'
p5
aS'El Poyo Loco has really good Street tacos. Not saying there ... I predict that pollo tropical will close within 2 or 3 years of el pollo loco opening. A DQ would be ...'
p6
aS'Mar 7, 2016 - Headlines News  News  Monash plans Berwick campus closure, leaving .... Market Losers: Avalanche Biotechnologies Inc, El Pollo LoCo Holdings Inc, And ...'
p7
aS'Mar 8, 2016 - All Health News Stories ... All Sports News Stories ... count drops 9 this week to all-time low of 480  Anadarko rises in Wall Street trading, El Pollo Loco slumps.'
p8
aS'Mar 6, 2016 - Under political pressure to show victory, al-Abadi has repeatedly vowed to "liberate" Mosul this year. ... All Health News Stories ... US rig count drops 9 this week to all-time low of 480  Anadarko rises in Wall Street trading, El Pollo Loco slumps.'
p9
aS'Mar 7, 2016 - Updated news for Party City Holdco Inc. - including PRTY company news, press releases and ... Sysco jumps on Peltz stake; King Digital, El Pollo Loco hit lows.'
p10
a.