(lp0
S"Apr 8, 2016 - COSTA MESA, Calif., April 08, 2016 (GLOBE NEWSWIRE) -- El Pollo Loco (Nasdaq:LOCO), the nation's leading fire-grilled chicken chain, opened its newest ..."
p1
aS"Apr 8, 2016 - View the latest LOCO stock price with Barron's. Including historical share prices, analysis, earnings, cash flow and market valuation for El Pollo Loco Holdings ..."
p2
aS'Apr 9, 2016 - Stock analysis for El Pollo Loco Holdings Inc (LOCO:NASDAQ GS) including stock price, stock chart, company news, key statistics, fundamentals and company ...'
p3
aS"Apr 7, 2016 - 01/13/2016  Sidoti began new coverage on El Pollo Loco Holdings, Inc. giving the ... 11/13/2015  El Pollo Loco Holdings, Inc. had its buy rating reiterated by ... daily summary of the latest news and analysts' ratings with MarketBeat.com's ..."
p4
aS"Apr 8, 2016 - April 7, 2016 HKA Texas News, Valley Ranch ... Additional tenants, including Chickfila, Chili's, El Pollo Loco, Freebirds, GNC, Nails of America, SportClips, ..."
p5
aS'Apr 7, 2016 - Latest Loco News from top sources, including Kickstarter, CNBC, MarketWatch, ... The Zacks Analyst Blog Highlights: El Pollo Loco Holdings, Habit Restaurants, ...'
p6
aS'Apr 9, 2016 - An optional lunch from El Pollo Loco will. be provided for a suggested donation of $8. Reservations. for lunch are strongly encouraged. RSVP to the. church at ...'
p7
aS'Apr 9, 2016 - COSTA MESA, Calif., April 04, 2016 (GLOBE NEWSWIRE) -- El Pollo Loco Holdings, Inc. (El Pollo Loco and the Company) (Nasdaq:LOCO) today announced ...'
p8
aS"Apr 9, 2016 - Home  News & Insights ... El Pollo Loco said Bogeajis' resignation was effective March 30. ... has made to our team over the last three years, said Steve Sather, president and CEO of Costa Mesa, CA-based El Pollo Loco said in a statement."
p9
aS'Apr 7, 2016 - El Pollo Loco Holdings, Inc. (NASDAQ:LOCO) has been doled out a price target of 16.710 by the brokerages. This projection is for one year as given by the ...'
p10
a.