(dp0
(I2
I4
I2016
tp1
F0.49868940298635256
s(I3
I1
I2016
tp2
F0.428521947246362
s(I2
I1
I2016
tp3
F0.3760972005500717
s(I2
I26
I2016
tp4
F0.40904286087410124
s(I2
I23
I2016
tp5
F0.4139542284699669
s(I3
I21
I2016
tp6
F0.5100804706842278
s(I1
I12
I2016
tp7
F0.3520577342222023
s(I2
I16
I2016
tp8
F0.5559732853757996
s(I1
I7
I2016
tp9
F0.43909858311283223
s(I1
I26
I2016
tp10
F0.5579643578027036
s(I1
I29
I2016
tp11
F0.4674972861715564
s(I3
I15
I2016
tp12
F0.48712197493159354
s(I2
I10
I2016
tp13
F0.4356441409383847
s(I3
I10
I2016
tp14
F0.33184735125948855
s(I3
I30
I2016
tp15
F0.5479472186317483
s(I4
I8
I2016
tp16
F0.643720901481337
s(I2
I29
I2016
tp17
F0.448728526138647
s(I3
I18
I2016
tp18
F0.5755432306238054
s(I3
I16
I2016
tp19
F0.47604084720015427
s(I2
I22
I2016
tp20
F0.3983291698360627
s(I1
I13
I2016
tp21
F0.3414591427951598
s(I2
I19
I2016
tp22
F0.5690164675728036
s(I1
I27
I2016
tp23
F0.5065492299018268
s(I3
I4
I2016
tp24
F0.5814676826649211
s(I3
I31
I2016
tp25
F0.5029359611116283
s(I3
I11
I2016
tp26
F0.3835851490323261
s(I1
I20
I2016
tp27
F0.48044333147661245
s(I2
I3
I2016
tp28
F0.3433410778627071
s(I3
I3
I2016
tp29
F0.45440348143306475
s(I3
I14
I2016
tp30
F0.5272184177939868
s(I2
I25
I2016
tp31
F0.579461753028566
s(I1
I14
I2016
tp32
F0.47953670189121816
s(I2
I18
I2016
tp33
F0.6977877819993155
s(I4
I7
I2016
tp34
F0.6080597547907833
s(I1
I4
I2016
tp35
F0.6337229116029333
s(I3
I28
I2016
tp36
F0.6343950607875797
s(I2
I12
I2016
tp37
F0.5179502280463948
s(I3
I8
I2016
tp38
F0.48782777287158774
s(I2
I9
I2016
tp39
F0.5385373530563683
s(I1
I21
I2016
tp40
F0.5520023805329929
s(I2
I2
I2016
tp41
F0.29161538285334104
s(I4
I6
I2016
tp42
F0.6047950304151088
s(I4
I5
I2016
tp43
F0.4741110388018752
s(I3
I9
I2016
tp44
F0.46811055436264243
s(I2
I24
I2016
tp45
F0.49616918581760894
s(I1
I15
I2016
tp46
F0.4846703278515555
s(I3
I22
I2016
tp47
F0.5519622106841047
s(I3
I24
I2016
tp48
F0.7364372671175761
s(I3
I29
I2016
tp49
F0.47400180496096783
s(I1
I5
I2016
tp50
F0.5227172677817028
s(I3
I23
I2016
tp51
F0.6608915609361476
s(I3
I2
I2016
tp52
F0.4901572020543181
s(I3
I17
I2016
tp53
F0.40625888482285555
s(I1
I19
I2016
tp54
F0.4552183348437385
s(I2
I8
I2016
tp55
F0.536569172504352
s(I1
I22
I2016
tp56
F0.5275503253029901
s(I2
I5
I2016
tp57
F0.43777199508581743
s(I4
I4
I2016
tp58
F0.4741110388018752
s(I4
I1
I2016
tp59
F0.47824092373250326
s(I1
I8
I2016
tp60
F0.5316445760864894
s(I2
I17
I2016
tp61
F0.5165275776495984
s(I1
I6
I2016
tp62
F0.5419843220067828
s(I1
I25
I2016
tp63
F0.5847172146490256
s(I1
I11
I2016
tp64
F0.560539679489523
s(I1
I28
I2016
tp65
F0.43028767405197055
s(I2
I11
I2016
tp66
F0.43696931673267114
s(I3
I7
I2016
tp67
F0.5832928785699651
s.