(lp0
S'El Pollo Loco Serving a Bullish Opportunity for LOCO Stock ...'
p1
aS'Why El Pollo Loco Got Crushed And May Still Have Much To ...'
p2
aS'Shake Shack Hits New High Amid NYC Flagship Reopening ...'
p3
aS'Option Millionaires: El Pollo Loco 6M share Block Trade priced'
p4
aS'Colonel Sanders Is Resurrected for New KFC Ads ...'
p5
aS'El Pollo Loco Locations in Chandler, Arizona with Reviews ...'
p6
aS'El Pollo Loco Locations in Surprise, Arizona with Reviews ...'
p7
aS"Colonel is finger-lickin' back in KFC ads | The Columbus ..."
p8
aS'Flipping Out Finally Coming Back to Bravo July 1! - Reality Tea'
p9
aS"For a shot of adrenaline, tap into Tucson's mountain-biking ..."
p10
a.