(lp0
S'Pollo Loco remodel complete | November 19, 2015 | www ...'
p1
aS'Second life for Cottonwood Plaza | The Sheet'
p2
aS'El Pollo Loco Opening In Dublin, CA! - Goodwin Hospitality'
p3
aS'ICR Announces Presenting Companies for Its 2016 ...'
p4
aS'Photo Gallery: Restaurants experience bumpy third quarter ...'
p5
aS'Former Subway spokesman Jared Fogle sentenced to 15 ...'
p6
aS'ICR Announces Presenting Companies for Its ... - Reuters'
p7
aS'1000 Degrees Neapolitan Pizza Opens First Michigan ...'
p8
aS'Pollo Loco Dunkerque - Facebook'
p9
aS'Recently reviewed restaurants: 11-19 - Toledo Blade'
p10
a.