(lp0
S'Man pleads not guilty in El Pollo Loco assault case | St ...'
p1
aS'Church sells property on E. Broadway; retail project planned ...'
p2
aS'New Charity Classic Sponsorship: El Pollo Loco | JJWatt ...'
p3
aS'How Chipotle is forcing sit-down chains like Olive Garden to ...'
p4
aS'Do you eat here? Our look at Phoenix-area restaurant ...'
p5
aS'Coffee - Humble, Kingwood, Atascocita, Texas'
p6
aS'Hula Mamas Hawaiian Dinner Show is a must see!'
p7
aS"francesca's Clothing Boutique Coming Soon to Kingwood"
p8
aS'Starbucks confirms new location on FM 1960 at Kenswick ...'
p9
aS"Arcadia in Times: Chinese admissions - Arcadia's Best"
p10
a.