(lp0
S'El Pollo Loco Fires Up Arizona With New Tempe Restaurant ...'
p1
aS'El Pollo Loco Mexican Restaurant And Grill - Restaurants ...'
p2
aS'El Pollo Loco - Facebook'
p3
aS'Pollo Loco Authentic Mexican Restaurant - Facebook'
p4
aS'El Pollo Loco Jobs in Richmond, TX Now Hiring | Snagajob'
p5
aS'Help military families and claim a deduction'
p6
aS'Star Wars fan Brian Petty'
p7
aS'El Burrito Loco - 153 Photos - Mexican - Renton, WA ...'
p8
aS'Nimra Memon (@nimra_memon) | Twitter'
p9
aS'El Pollo Loco Cashier Job Opening in San Diego, CA ...'
p10
a.