(lp0
S"Jim Cramer's 'Mad Money' Recap: Here's Next Week's ..."
p1
aS'Latest News  YLMS Instrumental Music'
p2
aS"Tomorrow's News Today - Atlanta: Havana Sandwich Shop ..."
p3
aS"Cramer's game plan: The trick to Apple's ecosystem"
p4
aS'Hulbert: Investors Just Got Another Wake-Up Call ...'
p5
aS'El Pollo Loco in Honolulu, Hawaii with Reviews & Ratings ...'
p6
aS'Church Turns Into Multi-Tenant Retail Development'
p7
aS'Poco Loco Paintball'
p8
aS"Customer Behavior - America's Favorite Restaurant Chains ..."
p9
aS"Godfather's Pizza NOW OPEN in Fall Creek - Humble, Texas"
p10
a.