(lp0
S'El Pollo Loco Cashes In as Falling Gas Price Gave Diners ...'
p1
aS'El Pollo Loco CEO: Price increase coming - CNBC Video'
p2
aS"Popeyes' Preliminary Earnings Prove Tasty -- The Motley Fool"
p3
aS'El Pollo Loco CEO: Price increase coming | Watch the video ...'
p4
aS'BBQ Chain Expands in OC | Orange County Business Journal'
p5
aS"HUGE Children's and maternity consignment sale February ..."
p6
aS"Kane's Boot & Western Shop will close after 57 years in ..."
p7
aS'Texas Litter Control offers of free spay and neuter services ...'
p8
aS'Tucson police ask public to ID van thief - Arizona Daily Star'
p9
aS'Hey Salem! New Fast Food Restaurants Coming... | Salem | Yelp'
p10
a.