(lp0
S'New Menu Items at El Pollo Loco - Mexican Chain ...'
p1
aS"El Pollo Loco's Vendor of the Year! | Stampede Meat, Inc."
p2
aS'California firm buys North Las Vegas shopping center | Las ...'
p3
aS'AAJA New York  April Chapter Meeting Minutes'
p4
aS'Timeline of post by HKA Texas'
p5
aS'Taco Cabana celebrates Kingwood opening with ...'
p6
aS'Brazilian Steakhouse Chain Fogo De Chao Charts $75M ...'
p7
aS'Signs the market is girding for a Greek default, in 4 charts ...'
p8
aS'The Class Action News in Los Angeles, CA - 213-217-5019'
p9
aS'Fast Casual - Networld Media Group'
p10
a.