(lp0
S'Is El Pollo Loco The Next Chipotle? - Seeking Alpha'
p1
aS'El Pollo Loco CEO -- We May Raise Prices Next Year on ...'
p2
aS"Here's Pollo Loco's key to success, its CEO says - CNBC.com"
p3
aS'El Pollo Loco restaurant review - Business Insider'
p4
aS"Charlotte-based Bojangles' planning to go public - | The ..."
p5
aS"Bojangles files for an IPO - Nation's Restaurant News"
p6
aS'Not trying to be next Chipotle: LOCO CEO | Watch the video ...'
p7
aS'El pollo loco : keto - Reddit'
p8
aS"Bring on the biscuits: Bojangles' files for a $100 million IPO ..."
p9
aS'Bojangles IPO is the latest from the flaming-hot fast-food ...'
p10
a.