(lp0
S'El Pollo Loco Holdings Inc. Earnings: Delicioso! -- The ...'
p1
aS'EL POLLO LOCO HOLDINGS, INC. - Annual Report'
p2
aS"Tomorrow's News Today - Atlanta: Bojangles' Coming to ..."
p3
aS'New Caney, Texas - HKA TEXAS'
p4
aS'The CW6 2015 Commercial Break #2 (2/16/15) - YouTube'
p5
aS"Zoe's Kitchen: Still Cheap - Zoe's Kitchen (NYSE:ZOES ..."
p6
aS'El Pollo Loco in Smyrna, Tennessee with Reviews ...'
p7
aS'Exactly Why i dont fu-k wit Wendys - Boxden.Com'
p8
aS'4 - News R Us'
p9
aS"Jason Raznick's Tumblr"
p10
a.