(lp0
S'El Pollo Loco Opens Newest Restaurant in Lodi, CA Nasdaq ...'
p1
aS'El Pollo Loco Continues California Expansion With New ...'
p2
aS'Low-cal chicken dinner? El Pollo Loco launches under-500 ...'
p3
aS'Retail Wrap: Steel City Pops, El Pollo Loco and more ...'
p4
aS'El Pollo Loco Opens Newest Restaurant in Lodi, California'
p5
aS"Wish list: Here are 10 chain restaurants we'd love to see in ..."
p6
aS'El Pollo Loco Opens Newest Restaurant in Lodi, CA (El ...'
p7
aS'El Pollo Loco Dental Assistant Jobs in Burbank, California ...'
p8
aS'El Pollo Loco Food Services Jobs in Manhattan Beach ...'
p9
aS'Best restaurants in Toledo in 2015 - Toledo Blade'
p10
a.