(lp0
S'Fresno man gets special gift from "Golden Girls" | abc30.com'
p1
aS'Christmas spirit: Golden Girls honor worker at their usual ...'
p2
aS"Golden Girls lunch club surprises 'adopted grandson' with ..."
p3
aS'Family speaks out after man and unborn child killed in ...'
p4
aS'NewQuest Expanding Spring Town Center in Tandem with ...'
p5
aS'Can Fast-Casual Overcome Chipotle Woes, Slowing Growth ...'
p6
aS"Chicago's toasted sandwich sensation, Potbelly, coming to ..."
p7
aS'Covered Call Alerts For Twitter, Nike, Dow Chemical, Wynn ...'
p8
aS'Covered Call Alerts For Apple, Eli Lilly, Bank of America ...'
p9
aS'Surface Hub Delayed Again as Microsoft Raises Prices ...'
p10
a.