(lp0
S'El Pollo Loco opening third Hidalgo County location - The ...'
p1
aS'Newton News - Los Angeles Police Department'
p2
aS"Forget McDonald's Corp., Here Are 3 Better Stocks To Own ..."
p3
aS'Investor Hunger For Growth Fueling Restaurant IPO Craze ...'
p4
aS'Sobriety checkpoint in Inyo County this Saturday - Sierra Wave'
p5
aS'WCT News - Women Can Too - YouTube'
p6
aS'Critical Alerts For Skyworks Solutions, St. Jude Medical ...'
p7
aS'The Saintilus Consulting Group | LinkedIn'
p8
aS"Photo Gallery: Menu Tracker: New items from McDonald's ..."
p9
aS'El Pollo Loco - About - Google+'
p10
a.