(lp0
S'Bubble Stocks Crash on Wall Street Ponzi Scheme Stock ...'
p1
aS'El Pollo Loco 3959 Wilshire Blvd Los Angeles | Order ...'
p2
aS'Man goes violent in National City 09292015 - YouTube'
p3
aS'5 Sinking Stocks To Avoid In The Market Storm - New ...'
p4
aS"Dunkin' Donuts stock falls after traffic decline"
p5
aS'El Pollo Loco San Pedro, CA, 90731 - YP.com'
p6
aS'John Vancourt | Facebook'
p7
aS'First look: Beerhead bar caps off flurry of new openings in ...'
p8
aS"Two Guys Hit The Open Road To Relive James Dean's Last ..."
p9
aS'New Subway Ranchero Pulled Pork Melt in Some Areas ...'
p10
a.