(lp0
S"9 Things You Didn't Know About El Pollo Loco"
p1
aS'Photo Gallery: Menu Tracker: New items from El Pollo Loco ...'
p2
aS'A warning to Shake Shack: Beware Noodles & Co. - Fortune'
p3
aS'The Automated Kitchen of the Future, Hiring Is Still Strong ...'
p4
aS'Some Food for Thought on Investing--Ahead of the Tape ...'
p5
aS"31 - Tomorrow's News Today - Atlanta - RSSing.com"
p6
aS'Stocks plunge 1.5% amid dollar pressure; Dow tumbles 300 ...'
p7
aS'Decline in Personal Spending  Weekly Update - Gierl ...'
p8
aS'Market Wrap: Stronger Dollar Sends Stocks Down a Bit ...'
p9
aS'The On Demand Economy Is Making Us Lazy - Forbes'
p10
a.