(lp0
S'Why Bojangles Inc Shares Slipped 19% in September -- The ...'
p1
aS'The Food Processor Fall 2015 Program Update | ESHA ...'
p2
aS"'Grampa Harry' Andreas: 1938-2015 - Sierra Wave: Eastern ..."
p3
aS'Mammoth man pleads not guilty to archeological violations ...'
p4
aS'Taylor Morrison debuts five signature model homes in three ...'
p5
aS'North Highlands Food Delivery | North Highlands ... - GrubHub'
p6
aS'El Camino Mexican Restaurant 823 Michigan Ave ...'
p7
aS'"El Pollo Loco" t-shirt | Zazzle'
p8
aS'Eagle Times Bulletin : Brad PittAll American Actor and ...'
p9
aS'SENIOR DISCOUNTS THREAD - Restaurants, Retail & Apparel, Grocery ...'
p10
a.