(lp0
S'El Pollo Loco Adds Chicken and Shrimp Combo Options to ...'
p1
aS'El Pollo Loco Offers New Entrees Featuring Both Fire-Grilled ...'
p2
aS'Cabinetry Scion Mark Buller Joins El Pollo Loco Board ...'
p3
aS'Chicken Chains Wingstop, Bojangles Fly Past Q2 Views ...'
p4
aS'What to Watch in the Week Ahead and on Monday, Aug. 10 ...'
p5
aS'Stocks will be put to the test in week ahead - CNBC.com'
p6
aS'Risk Management Education Associates, LLC | LinkedIn'
p7
aS'El Pollo Loco Folsom, CA, 95630 - YP.com'
p8
aS"Chili's Grill & Bar loyalty program rollout hurts 4Q sales"
p9
aS'Birthday Freebies: 88 Restaurants That Give Free Food on ...'
p10
a.