(lp0
S'26 OC Franchisers Make List | Orange County Business ...'
p1
aS'El Pollo Perucho Restaurant Peruano - Facebook'
p2
aS'PrimusLabs Main Page'
p3
aS'BITE  The Restaurant ETF'
p4
aS'Syd Kearney, Reporter, Houston Chronicle - Houston ...'
p5
aS'Tidel Case Studies | See how Tidel products benefit real ...'
p6
aS'Anybody know when Cosumnes River Blvd opens? - Reddit'
p7
aS'City Park - Arizona Daily Star'
p8
aS'Chadwick Springer and Christina Rubin - Arizona Daily Star'
p9
aS'Mammoth Town Council approves multi-use facility - Sierra ...'
p10
a.