(lp0
S'El Pollo Loco Grows Presence in Sacramento Region With ...'
p1
aS"Salsa's Mexican Grille opens in Annville"
p2
aS'2 killed, several hurt in Los Chavez shooting | New Mexico ...'
p3
aS'Critical Alerts For ConocoPhillips, Second Sight Medical ...'
p4
aS'10 Restaurants that Could Deliver Big Gains (BJRI, SBUX ...'
p5
aS'Who knew? Surprising celebrity facts | Slideshow | Fox News'
p6
aS'Ono Hawaiian BBQ - Facebook'
p7
aS'Arizona football: Report card for Nevada game'
p8
aS'Subway (restaurant) - Wikipedia, the free encyclopedia'
p9
aS'celebrities - ARY News'
p10
a.