(lp0
S'LOCO Stock: El Pollo Loco Goes Crazy on Strong Earnings ...'
p1
aS'Watch out KFC: El Pollo Loco is sizzling - Mar. 13, 2015'
p2
aS"El Pollo Loco's Crazy Freshman Year as a Public Company ..."
p3
aS'El Pollo Loco (LOCO) Stock Higher in After-Hours Trading ...'
p4
aS'El Pollo Loco Inc. fourth-quarter same-store sales rise 7.6 ...'
p5
aS'El Pollo Loco CEO reveals success strategy - Business Insider'
p6
aS'El Pollo Loco shares are surging - Business Insider'
p7
aS'El Pollo Loco Q4 Earnings Beat (NASDAQ: LOCO) - 24/7 ...'
p8
aS'Why El Pollo Loco Holdings Inc. Stock Flew Higher Today ...'
p9
aS'El Pollo Loco swings to a profit on higher sales, lower ...'
p10
a.