(lp0
S'New Hand-Carved Chicken Salads at El Pollo Loco with 50 ...'
p1
aS"Sizzling ... or fizzling? How Bojangles' is faring among ..."
p2
aS'Could Boston Market Be Preparing to Go Public Yet Again ...'
p3
aS'June 7, 1991 commercials - YouTube'
p4
aS"Canada's Freshii plans tie-up with U.S. retailer in 60 days ..."
p5
aS'GDP Declines, RPI Rises, Restaurant Delivery Gains ...'
p6
aS'Starbucks Prices $850 Million Of Senior Notes - Law360'
p7
aS'Potbelly Corp: NASDAQ:PBPB quotes & news - Google ...'
p8
aS'EL POLLO LOCO UNVEILS NEW LINE OF CRAVE ...'
p9
aS"Bojangles' - Time For Caution At This Hot Restaurant IPO ..."
p10
a.