(lp0
S"El Pollo's chicken still drives the CEO loco - Fortune"
p1
aS'It Will Soon Be Easy to Own a Piece of Bojangles ...'
p2
aS'El Pollo Loco - Snohomish, Washington - Mexican ...'
p3
aS"What's Driving Shake Shack (SHAK) Stock to New Highs ..."
p4
aS"Sign of the times: Hillary goes to Chipotle, not McDonald's ..."
p5
aS'El Pollo Loco in Silver Spring, Maryland with Reviews ...'
p6
aS'Three suspects arrested in Humble gas station smash-and ...'
p7
aS"What's Driving Shake Shack (SHAK) Stock to New Highs ..."
p8
aS"Hillary Clinton goes to Chipotle, not McDonald's - Apr. 14 ..."
p9
aS'Woman killed in 2-vehicle crash in Catalina'
p10
a.