(lp0
S'Shareholder Class Action Filed Against El Pollo Loco ...'
p1
aS'Angela Chen - News, Articles, Biography, Photos - WSJ.com'
p2
aS'El Pollo Loco in Tulsa, Oklahoma with Reviews & Ratings ...'
p3
aS"Zoe's Kitchen Q2 Results: Underwhelming, at Least for a ..."
p4
aS'El Pollo Loco Menu Prices - Fast food Menu Price'
p5
aS'Taco Time firing shots : Seattle - Reddit'
p6
aS'7 Restaurant Stocks Firing on All Cylinders Since IPO ...'
p7
aS'Where to Eat in Koreatown, 5776 Edition | Foodaism ...'
p8
aS'Recently reviewed restaurants: 9-3 - Toledo Blade'
p9
aS'New Salted Butterscotch Drinks at The Coffee Bean This Fall'
p10
a.