(lp0
S'El Pollo Loco customer service phone numbers and support'
p1
aS"Bojangles' Stock Leaves a Bad Taste Ahead of ... - TheStreet"
p2
aS'Samuel Nicholas Borgese: Executive Profile & Biography ...'
p3
aS'Galardi Group Inc. | LinkedIn'
p4
aS'California Construction Project Leads - CMD Group'
p5
aS'Highwire Lounge - Arizona Daily Star'
p6
aS'Orange County | Finalists - EY - United States'
p7
aS'New Stocks on Most Attractive and Most Dangerous Lists ...'
p8
aS"McDonald's Updates Salads with Baby Kale; Brings Back ..."
p9
aS'Cal State San Bernardino - Damion Edmonds - 2016 Baseball'
p10
a.