(lp0
S'El Pollo Loco CEO -- We May Raise Prices Next Year on ...'
p1
aS'El Pollo Loco CEO: Low gas prices are giving consumers a ...'
p2
aS"Here's Pollo Loco's key to success, its CEO says - CNBC.com"
p3
aS"El Pollo Loco Spreads Its 'Wings' - Bloomberg"
p4
aS'El Pollo Loco restaurant review - Business Insider'
p5
aS'El Pollo Loco - Fort Worth, Texas - Fast Food Restaurant ...'
p6
aS'Sesame Street Live! Behind the Scenes - Private equity and ...'
p7
aS"Buffalo Wild Wings' Sally Smith and Arby's Paul Brown ..."
p8
aS'Mixed messages on fish plants - Sierra Wave: Eastern ...'
p9
aS"Conn's HomePlus in Humble gets ready to double in size"
p10
a.