(lp0
S'El Pollo Loco to open in Humble in mid-June - Houston ...'
p1
aS"El Pollo Loco Doesn't Hold Much Attraction At Current Prices ..."
p2
aS"After Bojangles' IPO comes the challenging part: growth"
p3
aS'El Pollo Loco Sardis, MS, 38666 - YP.com'
p4
aS'Wingstop Plans To Raise $86.25 Million Through IPO'
p5
aS'WINGSTOP INC. (WING) IPO: News - NASDAQ.com'
p6
aS'Bojangles Cooking Up Its IPO at Right Time - MoneyBeat ...'
p7
aS'San Diego Source > News > Restaurant building in Palm ...'
p8
aS'Texas-based Wingstop files for $86.3 million public offering ...'
p9
aS"Wingstop files for $86M IPO - Nation's Restaurant News"
p10
a.