(lp0
S'El Pollo Loco Serving a Bullish Opportunity for LOCO Stock ...'
p1
aS'Why El Pollo Loco Got Crushed And May Still Have Much To ...'
p2
aS'Panera Bread Stock May Keep Climbing Despite ... - TheStreet'
p3
aS'Making Money With Charles Payne: 05/18/15 | Fox Business'
p4
aS"New Caney High's top 10 students of the 2015 graduating ..."
p5
aS'Search Results for "Chalak Mitra Group" - Dallas Business ...'
p6
aS'Lies, Collapse, And the Return of Precious Metals ...'
p7
aS'El Pollo Loco Locations in Chandler, Arizona with Reviews ...'
p8
aS'Colonel Sanders Is Resurrected for New KFC Ads ...'
p9
aS'New services disrupt restaurant delivery landscape'
p10
a.