(lp0
S'El Pollo Loco Sugar Land, TX, 77478 - YP.com'
p1
aS'Texas Construction Project Leads - CMD Group'
p2
aS"Bojangles' Stock Leaves a Bad Taste Ahead of ... - TheStreet"
p3
aS'Samuel Nicholas Borgese: Executive Profile & Biography ...'
p4
aS'Long awaiting construction of traffic signals on Atascocita ...'
p5
aS'El Pollo Dorado Restaurant - Rifle, Colorado - Mexican ...'
p6
aS'The Hat and its famous pastrami dip and chili cheese fries is ...'
p7
aS'Apple WWDC 2015 Recap: Epicenter of Change ...'
p8
aS'Cal State San Bernardino - Damion Edmonds - 2016 Baseball'
p9
aS"McDonald's Updates Salads with Baby Kale; Brings Back ..."
p10
a.