(lp0
S'El Pollo Loco planning to fill former KFC space in Folsom ...'
p1
aS'El Pollo Loco planning to fill former KFC space in Folsom ...'
p2
aS'Putting the finishing touches on Pollo Tropical in Kingwood'
p3
aS'El Pollo Loco healthy choices #ad  Hispanic Houston'
p4
aS'Making Money With Charles Payne: 03/30/15 | Fox Business'
p5
aS"Applebee's shooting witnesses not cooperating, police say ..."
p6
aS"Billings' 19 most-requested restaurants | Food & Cooking ..."
p7
aS"What's in store for Echo Park's bar-cade? | The Eastsider LA"
p8
aS'[Conversation] | On Death, by Clancy Martin and Adam Baer ...'
p9
aS'Fast Food Source-fast food menus and blogs - El Pollo Loco ...'
p10
a.