(lp0
S'El Pollo Loco: Valuation More Reasonable, Still Not ...'
p1
aS'Remembering those late-night Naugles run - The Orange ...'
p2
aS"Pro's Advice to 'Buy What You Know' Doesn't Always Work ..."
p3
aS'California restaurant mogul buys Super 8 motel in Longmont ...'
p4
aS'El Pollo Loco Prep Cook Salaries | CareerBliss'
p5
aS'San Francisco moves to cancel sanctuary policy ...'
p6
aS'Nandi notebook: An elephant-size temper tantrum'
p7
aS'Corrections & Clarifications: Archive - USA Today'
p8
aS'Crabfest is Back at Red Lobster | Brand Eating'
p9
aS'$1 Chili Cheese & American Dogs at Sonic on July 23rd ...'
p10
a.