(lp0
S'El Pollo Loco Holdings, Inc. Shareholder Alert: Former SEC ...'
p1
aS'Artesia, CA - Official Website - El Pollo Loco'
p2
aS'Lithuania Franchise Opportunities & News'
p3
aS'First round of retailers, food establishments announced for ...'
p4
aS'Critical Alerts For FireEye, Peabody Energy, BlackBerry ...'
p5
aS'This image appeared on my news feed. It says that Austrian ...'
p6
aS'Stock Chart, News and Sentiment For RRGB - Buy The Dip'
p7
aS'El Pollo Loco in Garland, Texas with Reviews & Ratings ...'
p8
aS'New 113 acre Business Park at 59 and Rankin - HKA TEXAS'
p9
aS'State schools chief, Diane Douglas, faces recall effort'
p10
a.