(lp0
S'Franchise news Archive - Food Chronicles'
p1
aS'El pollo loco | Got Food Poisoning? Report it now.'
p2
aS'The Draft opens for customers near the front of Kingwood ...'
p3
aS'Simply Baked Sweets - Coming soon to Atascocita ...'
p4
aS'Laboratory Corp profit beats as revenue jumps - MarketWatch'
p5
aS'Del Taco: Solid Results Should Draw Investor Attention - Del ...'
p6
aS"Papa John's Intros New Grilled Chicken Margherita Pizza ..."
p7
aS'Treat Receipt Promo Returns to Starbucks | Brand Eating'
p8
aS'School Field Trips | Arizona SEA LIFE Aquarium'
p9
aS'La Pisteria - Monterrey, Mexico - Sports Bar | Facebook'
p10
a.