(lp0
S"El Pollo's chicken still drives the CEO loco - Fortune"
p1
aS'[PDF]\nHot News and Trends Report in Foodservice and Retail'
p2
aS'El Pollo Loco - Snohomish, Washington - Mexican ...'
p3
aS"What's Driving Shake Shack (SHAK) Stock to New Highs ..."
p4
aS"Sign of the times: Hillary goes to Chipotle, not McDonald's ..."
p5
aS'Three suspects arrested in Humble gas station smash-and ...'
p6
aS'Exclusive Hip Hop News, Interviews, Rumors, Rap & Music ...'
p7
aS'Groundbreaking of Valley Ranch Town Center, the largest ...'
p8
aS"Hillary Clinton goes to Chipotle, not McDonald's - Apr. 14 ..."
p9
aS"What's Driving Shake Shack (SHAK) Stock to New Highs ..."
p10
a.