(lp0
S'El Pollo Loco Introduces New Grill Master Pollo ... - TheStreet'
p1
aS'El Pollo Loco Introduces New Grill Master Pollo Bowls ...'
p2
aS'HEB, Memorial Hermann, & ??? discussion on the ...'
p3
aS'HEB, Memorial Hermann, & ??? discussion on the Kingwood.com Forums'
p4
aS'Calories in Beverages gold peak fresh-brewed mango ...'
p5
aS'Blodgett puts Ragan in the crosshairs, floats idea to oust her ...'
p6
aS"A Day's Worth Of Calories In One Meal - Financial Buzz"
p7
aS'Taqueria Mexicali - Fresno, California - Fast Food ...'
p8
aS"Five of America's Best Loved and Most Hated Chain Fast ..."
p9
aS'[PDF]\ndeveloping story - The Retail Connection'
p10
a.