(lp0
S'El Pollo Loco - Franchising.com'
p1
aS'El Pollo Loco | Seafood International'
p2
aS'Valley Ranch Town Center | Valley Ranch'
p3
aS'Bowl - Humble, Kingwood, Atascocita, Texas'
p4
aS'Get 10% Off with MataMoney | California State University ...'
p5
aS'Hobby Lobby coming to Blackstone? - The Business Journal'
p6
aS"Raytheon's Tomahawk hits mark in key tests"
p7
aS"We have lots of water; the Colorado River Basin doesn't"
p8
aS'Community Events - Youth Speak Collective'
p9
aS'The Cheesecake Factory Inc. may acquire a new concept to ...'
p10
a.