(lp0
S'El Pollo Loco Offers New Entrees Featuring Both Fire-Grilled ...'
p1
aS'Review: El Pollo Loco - Power Bowl | Brand Eating'
p2
aS'US chicken fast food chain adds more seafood -First in ...'
p3
aS'The QSR 50 Chicken Segment - QSR magazine'
p4
aS'US chicken chain expands seafood menu | Seafood ...'
p5
aS'Tijuana Flats gains private equity partner - Orlando Sentinel'
p6
aS'Pollos Asados Los Norteos - 108 Photos & 164 Reviews ...'
p7
aS'El Pollo Loco Assistant Manager Job Listing in San Jose ...'
p8
aS'El Pollo Loco Offers New Entrees Featuring Both Fire-Grilled ...'
p9
aS'Pollo Locuas Restaurant - Facebook'
p10
a.