(lp0
S'El Pollo LoCo (LOCO) Stock Plummeting After Earnings ...'
p1
aS'We feel good about our business: El Pollo Loco CEO'
p2
aS'El Pollo Loco Earnings Preview (NASDAQ: LOCO) - 24/7 ...'
p3
aS'El Pollo Loco reports sales growth, but investors squawk at ...'
p4
aS'El Pollo Loco Results Beat Forecast - WSJ'
p5
aS'Stocks to Watch: King Digital, Avon, El Pollo Loco - U.S.'
p6
aS'El Pollo Loco Q1 earnings - Business Insider'
p7
aS'Netflix jumps on China plan; El Pollo Loco slumps on weak ...'
p8
aS'El Pollo Loco Holdings, Inc. Announces First Quarter 2015 ...'
p9
aS'King Digital Entertainment Plc (KING), El Pollo LoCo ...'
p10
a.