(lp0
S'El Pollo Loco Holdings Inc - LOCO Stock Trade Analysis ...'
p1
aS"El Pollo Loco Demonstrates 'Theater of Chicken' in New ..."
p2
aS'I would not start my business in California: CEO - CNBC.com'
p3
aS'Vehicle crashes into window of Newbury Park business'
p4
aS'Up-and-coming fast food chains in America - Business Insider'
p5
aS'Pieology Pizzeria Expands Leadership Team ...'
p6
aS'Habit Restaurants Investors Trim Stakes In $155M Offering ...'
p7
aS'Pieology selects former California Pizza Kitchen exec as VP ...'
p8
aS'Pieology Adds Two To Leadership Team - Restaurant News ...'
p9
aS'Vieira Best Week Review Trading Stocks 2015'
p10
a.