(lp0
S'Panera Bread Stock May Keep Climbing Despite ... - TheStreet'
p1
aS'Making Money With Charles Payne: 05/18/15 | Fox Business'
p2
aS'Search Results for "Chalak Mitra Group" - Dallas Business ...'
p3
aS"New Caney High's top 10 students of the 2015 graduating ..."
p4
aS'Lies, Collapse, And the Return of Precious Metals ...'
p5
aS'New services disrupt restaurant delivery landscape'
p6
aS'Lynda Salcido interim Mono CAO - again - Sierra Wave ...'
p7
aS'Trimaran Fund Management Llc - 2015 13F Stocks, AUM ...'
p8
aS'Tucsonans love a free band concert - Arizona Daily Star'
p9
aS'Colorado River report poses tough questions about future'
p10
a.