(lp0
S'Vermin, cockroaches, no hot water shut down 11 San ...'
p1
aS'If they build it, will you shop there? | Business ...'
p2
aS'Cyber Security: NOBE presents CISCO Info-Session - USC ...'
p3
aS'Eaton Vance California Municpl Bnd Fd II: NYSEMKT:EIA ...'
p4
aS'What happens when you stop accumulating cash and start ...'
p5
aS'Barry Rosenstein - MarketWatch.com Topics'
p6
aS"John Kasich: Don't Worry, I Leave Mexican Doctors A Little ..."
p7
aS'Take a selfie with Poe - Arizona Daily Star'
p8
aS'Stocks to Watch 2016 - Stocks To Buy Forum'
p9
aS'Pappa Charlies opens EaDo barbecue joint today - Houston ...'
p10
a.