(lp0
S'Restaurant news - Arizona Daily Star'
p1
aS'[PDF]\nJuly 2015 Economic News and Trends - MuniServices'
p2
aS'Why sporting goods retailers look a lot like trendy restaurants'
p3
aS'Maricopa County cites nearly 400 restaurants with health ...'
p4
aS'Compton Man Arrested for Attempted Pimping - Los Angeles ...'
p5
aS'Uptown Update: Big Changes Proposed On Wilson Avenue ...'
p6
aS'Restaurant Reward Programs  Delish.com'
p7
aS'Food Restaurant Jobs in Stafford, TX Now Hiring | Snagajob'
p8
aS'Food Restaurant Jobs in Missouri City, TX Now Hiring ...'
p9
aS'Nature Made(R) Names BSSP Agency of Record'
p10
a.