(lp0
S'Critical Alerts For Rite Aid, Salesforce.com, El Pollo Loco ...'
p1
aS'Two Glendale, AZ Shopping Centers Sold for $38.6 Million'
p2
aS'Surprise residents offer input on food, business - Your West ...'
p3
aS'Results of the Surprise retail survey - Surprise Independent ...'
p4
aS'UPDATED: Wrong-way driver on U.S. Highway 59 causes ...'
p5
aS'Could These Stocks Be the Next Chipotle Mexican Grill, Inc ...'
p6
aS'Photo Gallery: Menu Tracker: New items from Taco Bell ...'
p7
aS'Chefs bring glamour back to dessert'
p8
aS'Missing Tucson girl found safe - Arizona Daily Star'
p9
aS'Habit Restaurants (HABT) Misses Q2 Earnings, Beats ...'
p10
a.