(lp0
S'The Fast Food Restaurants You Should Be Watching in 2015'
p1
aS"Shake Shack's Stock Climbs On Double-Digit Sales Surge ..."
p2
aS"Wendy's: Value deal drives 3Q sales - Nation's Restaurant ..."
p3
aS'Covered Call Alerts For Disney, Facebook, Google, GW ...'
p4
aS'Covered Call Alerts For SolarCity, Lululemon, Palo Alto ...'
p5
aS'Chipotle wannabes find it hard to measure up - Nov. 5, 2015'
p6
aS'Bojangles shares slide after earnings beat, boosted outlook ...'
p7
aS'The five most lucrative restaurant franchises - CSMonitor.com'
p8
aS'Wingstop (WING) Stock Rising on Q3 Earnings and ...'
p9
aS'Habit Restaurants (HABT) Q3 Results: Beats on Revenue ...'
p10
a.