(lp0
S'El Pollo Loco Heats Up Houston With New Restaurant ...'
p1
aS'El Pollo Loco Heats Up Houston With New Restaurant ...'
p2
aS'El Pollo Loco - Aguascalientes City - Fast Food Restaurant ...'
p3
aS'Help NIH, IMACA help those in need - Sierra Wave: Eastern ...'
p4
aS'Crash closes Ajo Way at Mission Road - Arizona Daily Star'
p5
aS'Dow closes 179 points lower as IBM weighs; Fed eyed'
p6
aS'Local Chiropractor expands and rebrands as New Leaf ...'
p7
aS'Dow closes 179 points lower as IBM weighs; Fed eyed ...'
p8
aS'Disappointing Social Security Change  Weekly Update'
p9
aS'The Beckman Chronicle : The Gist with Veganism'
p10
a.