(lp0
S'El Pollo Loco Continues California Development With ...'
p1
aS'El Pollo Loco Continues California Development With ...'
p2
aS'Restaurant scores for week of Dec. 7 - KSAT.com'
p3
aS"12 Metro Phoenix Restaurants Earned a 'D' from the County ..."
p4
aS'Goldsboro News-Argus | Dining: La Paz'
p5
aS'Covered Call Alerts For Bank of America, Caterpillar Inc ...'
p6
aS'Covered Call Alerts For Micron, NRG Energy Inc ...'
p7
aS"This Week's Houston Deal Sheet - Deal Sheet - Bisnow"
p8
aS'El Pollo Loco Radford, VA, 24141 - YP.com'
p9
aS'iFranchise Clients | iFranchise Group'
p10
a.