(lp0
S'El Pollo Loco Franchisees Fuel the Fire with Four Grand ...'
p1
aS'Baird Sees Loco Undervalued, Wild Wings Overvalued ...'
p2
aS'New El Pollo Loco celebrates Stockton opening - News ...'
p3
aS'El Pollo Loco Stock Looks Tasty After Selloff | InvestorPlace'
p4
aS'Is This The Right Time To Buy El Pollo LoCo (LOCO) Stock?'
p5
aS'El Pollo Loco Franchisees Fuel the Fire with Four Grand ...'
p6
aS"Start the New Year Off Right With El Pollo Loco's New Under ..."
p7
aS'El Pollo LoCo Stock Rises Jumps Analyst Upgrade'
p8
aS'Menu Tracker: New items from White Castle, Starbucks, El ...'
p9
aS'Morning Buzz: Minerva Neurosciences (NERV), Taser (TASR)'
p10
a.