(lp0
S"McDonald's (MCD) Stock Down Amid January Sales Decline"
p1
aS'Will Panera Bread (PNRA) Beat Earnings Estimates in Q4 ...'
p2
aS"McDonald's Corporation (MCD) Stock Suffers More Super ..."
p3
aS'Record Growth Propels Executive Team Expansion At ...'
p4
aS'Jim Cramer Answers Twitter Questions on Coca-Cola, Yelp ...'
p5
aS'RENTV.com - Commercial real estate news and property ...'
p6
aS'Frankie Ballard separated his shoulder, and "busted a rib ...'
p7
aS'Sherdog meme makes Las Vegas local news. | Sherdog Forums | UFC ...'
p8
aS'County parks dept. to offer lifeguard training'
p9
aS'Windows 10 Technical Preview 2 Tip: Find More Hidden ...'
p10
a.