(lp0
S'Carne Asada Back by Popular Demand at El Pollo Loco ...'
p1
aS'Carne Asada Back by Popular Demand at El Pollo Loco ...'
p2
aS"Dame Dash Confirms 'State Property 3' in the Works ..."
p3
aS"Trader Joe's still tops wish list - Golden State Newspapers ..."
p4
aS'Special reunion: Porter Fire Department reconnects with ...'
p5
aS'The Veggie Lady - Fresh, local, and organic open air market ...'
p6
aS'farmers market - Humble, Kingwood, Atascocita, Texas'
p7
aS'Letters to the Editor - News and information on Westfield ...'
p8
aS"Craving Mexican food? We're here to help | Best of Las Vegas"
p9
aS'New Santa Ana | Santa Ana Summer Youth Job Fair set for ...'
p10
a.