(lp0
S'El Pollo Loco Shares Plunge After Earnings Miss Expectations'
p1
aS'El Pollo Loco Needs More Growth To Justify A Higher Price ...'
p2
aS'El Pollo Loco - Key Takeaways From Q2 Results - Seeking ...'
p3
aS'El Pollo Loco Offers New Chicken & Shrimp Entrees | Brand ...'
p4
aS'Zulily saved, but other hot IPOs still in trouble - CNBC.com'
p5
aS'Ed Valle - Salary.com'
p6
aS'Cockfighting event ends in 11 arrests'
p7
aS'Steven Flyer, Partner - A cohesive team of investment and ...'
p8
aS'Bug after naix :: Hacknet General Discussions'
p9
aS'Naeem Ahmadi (@NaeemAhmadi1982) | Twitter'
p10
a.