(lp0
S'El Pollo Loco (LOCO) Stock Rating Upgraded at Stifel ...'
p1
aS'El Pollo Loco upgraded at Stifel Nicolaus - MarketWatch'
p2
aS'El Pollo Loco (LOCO) Should Be Bought Aggressively, Says ...'
p3
aS'Ryan & Maniskas, LLP Announces Class Action Lawsuit ...'
p4
aS'Biz News: Lawsuit accuses El Pollo Loco of false ...'
p5
aS"Man arrested after I-25 donuts: 'I didn't do anything' | New ..."
p6
aS'THE DISH: This fave Bakersfield restaurant is NOT for sale ...'
p7
aS"Habit Restaurants (NASDAQ:HABT), (LOCO) - 2 'New Age ..."
p8
aS'Burrito Madness: And then there were four - Arizona Daily Star'
p9
aS'Albuquerque DEA informant pleads guilty to murder ...'
p10
a.