(lp0
S'El Pollo Loco to open in North Texas - Dallas Business ...'
p1
aS'El Pollo Loco Continues Texas Expansion into Dallas Market'
p2
aS'El Pollo Loco expands into North Texas - Fortworthbusiness ...'
p3
aS'El Pollo Loco Continues Texas Expansion into Dallas Market'
p4
aS'El Pollo Loco Sets Dallas Plan | Orange County Business ...'
p5
aS'Stock Update (NASDAQ:LOCO): El Pollo LoCo Holdings Inc ...'
p6
aS'Critical Alerts For Transocean, Deere, El Pollo Loco, Cisco ...'
p7
aS'Form 4 El Pollo Loco Holdings, For: May 19 Filed by ...'
p8
aS'20-year-old Vacaville motorcyclist dies in crash'
p9
aS'Procter & Gamble - Professional > Articles'
p10
a.