(lp0
S'El Pollo Loco Earnings Preview (NASDAQ: LOCO) - 24/7 ...'
p1
aS'El Pollo Loco Results Beat Forecast - WSJ'
p2
aS'El Pollo Loco reports sales growth, but investors squawk at ...'
p3
aS'El Pollo Loco earnings: 18 cents per share vs. expected ...'
p4
aS'El Pollo Loco Holdings, Inc. Announces First Quarter 2015 ...'
p5
aS'El Pollo Loco Q1 earnings - Business Insider'
p6
aS'King Digital Entertainment Plc (KING), El Pollo LoCo ...'
p7
aS"El Pollo Loco's (LOCO) CEO Steve Sather on Q1 2015 Results"
p8
aS'Shack, Jack Stack Tasty Same-Store Sales, Top Views ...'
p9
aS'Disneyland Pluto Injures Boy with Hug : People.com'
p10
a.