(lp0
S'Man goes violent in National City 09292015 - YouTube'
p1
aS"Logan's Roadhouse Names Butler, Shine, Stern & Partners ..."
p2
aS'El Pollo Loco in San Luis Obispo, California with Reviews ...'
p3
aS'Covered Call Alerts For Ambarella, Regeneron ...'
p4
aS"Logan's Roadhouse Names Butler, Shine, Stern & Partners ..."
p5
aS'El Pollo Loco New Restaurant Opening All Crew Positions ...'
p6
aS'Fall Market and Mall-O-Ween events highlight family fun at ...'
p7
aS'Oro Valley police officer shoots, injures man'
p8
aS'Valencia Pharmacy Signs a 10-Year Lease Henry Mayo ...'
p9
aS'Yard House to open at Baybrook Mall Dec. 5 - Houston ...'
p10
a.