(lp0
S'Can El Pollo Loco (LOCO) Surprise this Earnings Season ...'
p1
aS"Inexplicable Stock Surge? Here's How To Predict The Next ..."
p2
aS'Shack, Jack Stack Tasty Same-Store Sales, Top Views ...'
p3
aS'SEC alleges fraud by ITT Educational Services, two top ...'
p4
aS'Disneyland Pluto Injures Boy with Hug : People.com'
p5
aS'Video of Lake Conroe Dam release - HKA Texas'
p6
aS'After A Strong 1st-Quarter, Del Taco Could Climb Further ...'
p7
aS'The junk food trade: 4 plays on fast food - CNBC.com'
p8
aS"WATCH: Disneyland's Pluto Puts 8-Year-Old in Hospital with ..."
p9
aS"Family Claims Pluto's Hug Injured 8-Year-Old Boy at ..."
p10
a.