(lp0
S'Is This Burger Joint Worth Over a Half-Billion Dollars? -- The ...'
p1
aS'NEW Baseball, and Soccer League this spring at Fall Creek ...'
p2
aS'Brand Eating: January 2015'
p3
aS'Free Appetizer or Dessert at Outback on 1/26/15 for ...'
p4
aS'FranAdvisory | Franchisor Pipeline'
p5
aS'$1-billion-a-year border bill unneeded, critics say'
p6
aS'Police: Robbery Suspect Matches Previous Description ...'
p7
aS'Marc Headley & his wife Claire: Unreliable Source ...'
p8
aS'Gluten Free Restaurants & Bakeries | Simply Gluten Free'
p9
aS'Fast Food Take Ebt 91762 in Ontario, California with ...'
p10
a.