(lp0
S'Why El Pollo Loco Stock Tumbled 31% in August -- The ...'
p1
aS'El Pollo Loco opens new location - The Monitor: Local News'
p2
aS'El Pollo Loco Continues South Texas Expansion With New ...'
p3
aS'El Pollo Loco Continues South Texas Expansion With New ...'
p4
aS'El Pollo Loco Announces Flavorful Twist on Flagship Tostadas'
p5
aS"Four chains that could go public - Nation's Restaurant News"
p6
aS"Spartans' cross country star never runs out of fuel ..."
p7
aS'Flash flooding damages 3 Costa Mesa schools | abc7.com'
p8
aS'New Gun from DYE - M2 - Full Details Released! - Page 16 - PbNation'
p9
aS'My Trip To California: Los Angeles & San Diego'
p10
a.