(lp0
S'El Pollo Loco Maps North Texas | Orange County Business ...'
p1
aS'El Pollo Loco Plays a Game of Chicken - Foodservice ...'
p2
aS'El Pollo Loco Introduces new Grill Master Pollo Bowls ...'
p3
aS'2015 | | Dallas Morning News | Page 32'
p4
aS'Covered Call Alerts For Rite Aid, Chevron, Chesapeake ...'
p5
aS'First anchor tenant breaks ground in Valley Ranch Town ...'
p6
aS'El Pollo Loco in Kingwood, Texas with Reviews & Ratings ...'
p7
aS'Alecia Pulman - ICR'
p8
aS'Anton Nicholas - ICR'
p9
aS'Aimmune Therapeutics to Present at the 2015 Credit Suisse ...'
p10
a.