(lp0
S'Critical Alerts For Facebook, Imperva Inc, TASER ...'
p1
aS'Restaurant - Humble, Kingwood, Atascocita, Texas'
p2
aS'Restaurants - HKA TEXAS'
p3
aS"Tomorrow's News Today - Atlanta: Del Taco Secures Site in ..."
p4
aS'Edgar Lee Weaver Jr. Archives - Sierra Wave: Eastern ...'
p5
aS'Marc Rothman: 1948-2015 - Sierra Wave: Eastern Sierra ...'
p6
aS'Ray T. Dutcher Archives - Sierra Wave: Eastern Sierra News'
p7
aS"News Win free Grand Slams for a year at new Denny's Win ..."
p8
aS'iOS 9 Wallet: Using the shortcut, loyalty cards and more ...'
p9
aS'Peter Bassi | The New England Consulting Group'
p10
a.