(lp0
S'Company Update (NASDAQ:LOCO): El Pollo LoCo ...'
p1
aS'El Pollo Loco Continues Northern California Expansion With ...'
p2
aS'El Pollo Loco Continues Northern California Expansion With ...'
p3
aS'Fosters Freeze International LLC acquired by investment ...'
p4
aS'Sandoval misses mark by vetoing motor carriers bill | Las ...'
p5
aS'Is your L.A. building overdue for a fire inspection? Search ...'
p6
aS'Updates on Inyo County court cases: Chavez, Rossy - Sierra ...'
p7
aS"Houston's first Snooze, an A.M. Eatery leases space on ..."
p8
aS'$1.16B county budget has 20-cent property tax increase'
p9
aS'Franchise Alchemy | LeClairRyan - Part 2'
p10
a.