(lp0
S'IPO Outlook: Shake Shack IPO Set To Wrap Up Busy Week ...'
p1
aS'NEW Baseball, and Soccer League this spring at Fall Creek ...'
p2
aS'BellaVie Home Essentials in Forest Cove - HKA Texas'
p3
aS'going to El Pollo Loco for lunch today - Bodybuilding.com Forums'
p4
aS'Fruitful Capital  Helpful data, news, and insight into the ...'
p5
aS'The Claycord Online Museum  Mr. Steak on Clayton Rd. in ...'
p6
aS'Twelve Upcoming IPOs This Week Led by Shake Shack ...'
p7
aS'Philip Morris: The Hits Keep Coming - Seeking Alpha'
p8
aS'What the botched storm forecasts may have cost | Nightly ...'
p9
aS'Brand Eating: January 2015'
p10
a.