(lp0
S'El Pollo LoCo (LOCO) Stock Price Target Cut at Jefferies ...'
p1
aS'Zeldes Haeggquist & Eck, LLP Announces Investigation of ...'
p2
aS'Critical Alerts For Disney, Isis Pharmaceuticals, El Pollo ...'
p3
aS'El Pollo Loco Needs More Growth To Justify A Higher Price ...'
p4
aS'Zulily saved, but other hot IPOs still in trouble - CNBC.com'
p5
aS'KABC ABC 7 2015 Special Olympics World Games opening ...'
p6
aS'Ed Valle - Salary.com'
p7
aS'Cockfighting event ends in 11 arrests'
p8
aS'Restaurant and Bar Sales Increase, More Sysco News, A ...'
p9
aS'Restaurant News 08-18-15'
p10
a.