(lp0
S'Cheesecake Factory: A Meal Worth Waiting For - WSJ'
p1
aS'Surprising 9-to-5s Celebs Had Before They Were Famous ...'
p2
aS'Chadwick Springer and Christina Rubin - Arizona Daily Star'
p3
aS'Not so serious cactus problems - Arizona Daily Star'
p4
aS'Crispy Fried Chicken Recipe - Way Better Than KFC'
p5
aS'Do you like KFC? : AskMen - Reddit'
p6
aS'[PDF]\n99 cents only stores - ICSC'
p7
aS"Roxy's Peruvian Grill - Facebook"
p8
aS'Taco Bell Testing New Breakfast Bowls | Brand Eating'
p9
aS"The Polls are in! America's Top 7 Food Trucks for 2015 ..."
p10
a.