(lp0
S'NewQuest Properties to expand Spring Town Center near ...'
p1
aS'Grant Massey Archives - Sierra Wave: Eastern Sierra News'
p2
aS'New job site construction - FBN Construction, Inc. | Facebook'
p3
aS'El Pollo Loco Jobs in Dublin, CA Now Hiring | Snagajob'
p4
aS'May 2, 1999 commercials - YouTube'
p5
aS'citybizlist : Houston : NewQuest Expanding Spring Town ...'
p6
aS"GOOGL, EXPE, ECA, GNW: Jim Cramer's Views - TheStreet"
p7
aS"McDonald's New Mozzarella Sticks Have Arrived | Brand ..."
p8
aS'Pizza Hut is Basically Offering Lox on a Star-Shaped Pizza ...'
p9
aS'Updated  Restaurants Open Christmas Eve and Day 2015 ...'
p10
a.