(lp0
S'Critical Alerts For Disney, El Pollo Loco, PayPal Holdings ...'
p1
aS"Being a 'senior citizen' brings some perks, including discounts"
p2
aS"Sheriff's volunteers patrol county's Loop trails"
p3
aS'AirTalk | Calling Don Draper, new study says that sex and ...'
p4
aS"Heavy Seas Releases Fielder's Choice | Brewbound.com"
p5
aS'Half-Price Cheesecake at The Cheesecake Factory on July ...'
p6
aS'Del Taco Showcases Sliced Avocado in Three New Rice ...'
p7
aS'Free El Pollo Loco Application Online | Jobler.com- Hourly ...'
p8
aS'16-year-old firefighter severely burned at 1st fire'
p9
aS'Taco Bell Now Serving Less of the Bad Ingredients and ...'
p10
a.