(lp0
S'Which Came First? Two Chicken QSRs Go Neck and Neck ...'
p1
aS"Study Reveals America's Favorite Quick-Service Restaurants"
p2
aS'Pollo Campero in San Bernardino serves Guatemalan-style ...'
p3
aS"Tomorrow's News Today - Atlanta: Havana Sandwich Shop ..."
p4
aS'Latest News  YLMS Instrumental Music'
p5
aS"Chick-fil-A, Papa Murphy's, Chipotle voted favorites in QSR ..."
p6
aS'LOCO: EL POLLO LOCO - Detailed Estimates - Zacks.com'
p7
aS"Chick-fil-A beats out Raising Cane's to become America's ..."
p8
aS"35 Restaurants in 'Foodies Against MS' Fundraiser ..."
p9
aS'Bens Branch Elementary welcomes the Lewa Afriika ...'
p10
a.