(lp0
S'- El Pollo Loco, Inc.'
p1
aS'Pancho Ochoa Sr. A One of a Kind Restaurateur and Creator...'
p2
aS'Just taken private, Safeway may go public again this year ...'
p3
aS'Kingwood Drive panel replacement construction started ...'
p4
aS'An El Pollo Loco Restaurant In Modesto California At Night ...'
p5
aS'The Palace of Power, Houston Motorsports Park is only a ...'
p6
aS'Guru Gossip  View topic - HRH Collection - Part 2 - Board index'
p7
aS'William Blair Weighs In On Shake Shack Inc Ahead of 1Q:15 ...'
p8
aS"What It Means to Be JetBlue's Wine Expert - Entrepreneur"
p9
aS'Best fish tacos?! : sandiego - Reddit'
p10
a.