(lp0
S"What's in Store for El Pollo Loco (LOCO) this Earnings ..."
p1
aS'Man with gunshot wound seeks help at OC fast food restaurant'
p2
aS'Shooting victim heads for cover inside El Pollo Loco ...'
p3
aS'Looking Ahead of Wall Street: Urban Outfitters, Shake Shack ...'
p4
aS'El Pollo Loco Restaurants Mission Statement to Serve the ...'
p5
aS"Apple's swartwatch event and food earnings  5 things to ..."
p6
aS'El Pollo Loco Jobs in Humble, TX Now Hiring | Snagajob'
p7
aS'US stocks close higher as Street shakes off rate hike fears'
p8
aS'The bull market in stocks is six years old. Now what? - Mar ...'
p9
aS"Things You Didn't Know About Popeyes - Trivia About the ..."
p10
a.