(lp0
S'El Pollo Loco Continues California Expansion With New ...'
p1
aS'El Pollo Loco Opens Newest Restaurant in Lodi, CA Nasdaq ...'
p2
aS'Low-cal chicken dinner? El Pollo Loco launches under-500 ...'
p3
aS"Start the New Year Right With El Pollo Loco's New Under ..."
p4
aS'El Pollo Loco Opens Newest Restaurant in Lodi, California'
p5
aS'Photo Gallery: Menu Tracker: New items from Taco Bell ...'
p6
aS'El Pollo Loco Dental Assistant Jobs in Burbank, California ...'
p7
aS'56 - Restaurant News Release'
p8
aS'Chefs to compete in battle of the truffle - Houston Chronicle'
p9
aS'Bull of the Day: Bojangles (BOJA) - December 29, 2015 ...'
p10
a.