(lp0
S'El Pollo Loco Introduces New Pollo Bowls Nasdaq:LOCO'
p1
aS"How will LA's wage hike affect its workers and businesses ..."
p2
aS'JIB Management Purchases Additional 48 TGI Fridays ...'
p3
aS'BizFed - Minimum wage: The future of the hourly worker in ...'
p4
aS'Can Shake Shack Be The Next Chipotle? Here Are The 14 ...'
p5
aS'Comps Come Into Focus For Del Taco Post-Merger - Del ...'
p6
aS'Late Tucson record-holding dog makes Korean news'
p7
aS'La Adelita Restaurant | Tradicional Mexican Food'
p8
aS'New Oreo Thins Meant to Be "More Sophisticated" Cookies ...'
p9
aS'WsnewsPublishers  Active Trending Stocks: Facebook ...'
p10
a.