(lp0
S'Is This Restaurant the Next Chipotle? - New Constructs'
p1
aS'[PDF]\nDanger Zone: El Pollo Loco (LOCO) - New Constructs'
p2
aS'El Pollo Loco The Crazy Chicken now under construction ...'
p3
aS'Ranking the top restaurant chains | Food Business News'
p4
aS'Bigger not necessarily better for restaurants, finds Technomic'
p5
aS'Size may not matter so much in foodservice - Meat & Poultry'
p6
aS"Taco Bell to introduce Biscuit Taco - Nation's Restaurant News"
p7
aS'Gapping and Probabilities | Online Trading Academy'
p8
aS'Street Smarts: Roadway honors lawyer, judge, developer'
p9
aS'Iconiq Capital Llc - 2015 13F Stocks, AUM, News'
p10
a.