(lp0
S'El Pollo Loco Continues Northern California Expansion With ...'
p1
aS'Company Update (NASDAQ:LOCO): El Pollo LoCo ...'
p2
aS'El Pollo Loco Continues Northern California Expansion With ...'
p3
aS'Sandoval misses mark by vetoing motor carriers bill | Las ...'
p4
aS'Updates on Inyo County court cases: Chavez, Rossy - Sierra ...'
p5
aS'$1.16B county budget has 20-cent property tax increase'
p6
aS"Houston's first Snooze, an A.M. Eatery leases space on ..."
p7
aS'stuttering at 60 FPS :: Grand Theft Auto V General Discussions'
p8
aS"Portillo's Restaurants - Wikipedia, the free encyclopedia"
p9
aS'Franchise Alchemy | LeClairRyan - Part 2'
p10
a.