(lp0
S"Oct 23, 2015 - McDonald's is turning into a source of growth as Chipotle stalls."
p1
aS'Oct 22, 2015 - Cincinnati police are searching for two gunmen who robbed a Chipotle in Corryville. ... WLWT.com is your top source for Cincinnati breaking news, weather and ...'
p2
aS'Oct 22, 2015 - Cincinnati police are searching for two gunmen accused of robbing a Chipotle in Coryville.'
p3
aS'Oct 22, 2015 - Cincinnati Police are seeking the identity of the two suspects who allegedly robbed a Corryville Chipotle restaurant on Oct. 10.'
p4
aS'Oct 22, 2015 - Cincinnati Police need help identifying two individuals who were captured on video robbing a Chipotle in Corryville .'
p5
aS'Oct 23, 2015 - Business Finance News looks at the causes and consequences of major historic stock price downturn at Chipotle Mexican Grill, Inc. (NYSE:CMG).'
p6
aS'Oct 22, 2015 - CHICAGO, Oct. 22, 2015 /PRNewswire/ -- Covered Call Alerts For Chipotle Mexican ... While many other market reports only provide stock news and opinion, we ...'
p7
aS"Oct 22, 2015 - Chipotle posted another great quarter this week, but it wasn't enough for ... About: Chipotle Mexican Grill, Inc. (CMG) .... Don't Buy The Chipotle CDC News."
p8
aS'Oct 22, 2015 - Chipotle reported earnings last evening and the stock promptly dropped from $705. To $650 overnight. Earnings were a few cents below street estimates and ...'
p9
aS'Oct 23, 2015 - While Chipotle Mexican Grill was one of the first quick service restaurant chains to ... News, Retail Sectors, Revenue >> Article: Chipotle fires up mobile-ordering ...'
p10
a.