(lp0
S"Oct 27, 2015 - A recent column written by David Lazarus in the Los Angeles Times wonders why the Center for Consumer Freedom is attacking Chipotle's marketing ..."
p1
aS'Oct 26, 2015 - Despite a positive performance by Chipotle Mexican Grill CMG -1.31% in its third ... down 8% from $706 to $651 in the first trading hours after the news release.'
p2
aS"Oct 27, 2015 - Chipotle stuck to its sustainable-sourcing policy for pork despite a sales ... Last Night's CNN Town Hall Was the Most-Watched in Cable News History 4:02 PM ..."
p3
aS'Oct 27, 2015 - Chris Arnold, a spokesman for the burrito chain, told me Chipotle has no plans to ... that want to sway public policy while keeping their names out of the news.'
p4
aS'Oct 27, 2015 - Arguably, no two companies better represent the fast casual space Chipotle Mexican Grill, (NYSE:CMG) and Shake Shack Inc (NYSE:SHAK). Chipotle, the ...'
p5
aS'Oct 27, 2015 - Chipotle made news when the restaurant chain announced that it was serving only foods made with non-GMO ingredients. McKaskle Family Farm, an organic ...'
p6
aS"Oct 27, 2015 - Plans announced for Downriver's first Chipotle Mexican Grill in Woodhaven ... The News Herald, local news, sports and weather serving Southgate, MI."
p7
aS'Oct 27, 2015 - ... off to trick-or-treat or just looking for a Halloween meal for yourself, Chipotle is... ... Events Boorito Promotion Returns to Chipotle This Halloween ... News (29) ...'
p8
aS'Oct 27, 2015 - NPR\'s Ari Shapiro talks to New Yorker writer Michael Specter about his article, "Freedom from Fries," on the rise of fast casual food and the impact on the fast ...'
p9
aS"Oct 27, 2015 - Fast-casual restaurant chain Chipotle Mexican Grill (NYSE:CMG) was, until recently, one of the market's darling growth stocks. The stock is up 210% in the past ..."
p10
a.