(lp0
S'Nov 23, 2015 - More than 40 people have fallen ill with E. coli food poisoning after eating at Chipotle Mexican Grill (CMG.N) restaurants in six different states, federal health ...'
p1
aS'Nov 23, 2015 - The effects of an E. coli outbreak on Chipotle should prove limited, and same-store sales should grow next ... Chipotle stock sinks 12% after bad E. coli news.'
p2
aS"Nov 23, 2015 - CNBC's Jim Cramer said Monday he is at a loss with regard to Chipotle Mexican ... Chipotle shares since Friday Source: FactSet ... Fred ImbertNews Associate ..."
p3
aS'Nov 22, 2015 - The E. coli outbreak that sickened 22 people and forced Chipotle Mexican Grill to temporarily shutter dozens of restaurants in Oregon and Washington earlier ...'
p4
aS'Nov 23, 2015 - Chipotle Mexican Grill posts list of restaurants implicated in E. coli outbreak. ... See the latest news from NRN. On its website, Chipotle revealed six additional ...'
p5
aS"Nov 23, 2015 - Chipotle's stock rebounded Monday morning, following a 12% plunge Friday due to new fears about an E. coli outbreak that may have originated in its ..."
p6
aS'Nov 23, 2015 - Shares of Chipotle (CMG) are making investors sick to their stomachs as ... The latest news of the outbreak returns the concern to the front burner of things for ...'
p7
aS'Nov 23, 2015 - Chipotle restaurants linked to Minnesota Salmonella outbreak ... Jim Hammerand reports and edits breaking business news for MSPBJ.com and covers the Twin ...'
p8
aS'Nov 23, 2015 - Same-restaurant sales at Chipotle Mexican Grill Inc, hit by an E.coli outbreak at ... uncertainty about whether the bad news is fully behind the company," Sterne ...'
p9
aS'Nov 23, 2015 - The Centers for Disease Control announced six new cases of E. coli linked to Chipotle Mexican Grill, Inc. (NYSE: CMG) restaurants in California, Ohio, New ...'
p10
a.