(lp0
S'Dec 21, 2015 - The development is the latest bad news for Chipotle Mexican Grill Inc., which saw its sales plummet after the emergence of the larger E. coli outbreak that has ...'
p1
aS'Dec 21, 2015 - CDC Investigating Another Multi-State E.Coli Outbreak Linked to Chipotle ... The spokesperson also told ABC News that all of those sickened in the new cases ...'
p2
aS'Dec 21, 2015 - CDC Update: 58 Sick in E. Coli O26 Outbreak(s) Linked to Chipotle. Possible sixth ... (To sign up for a free subscription to Food Safety News, click here.).'
p3
aS'Dec 21, 2015 - On Friday, shares of Chipotle fell by 3 percent, indicating a sense among investors that the news would hurt business. On Monday, the drop worsened  shares ...'
p4
aS'Dec 21, 2015 - The C.D.C. said that five people who had eaten in two Chipotle restaurants in Kansas ... in a Chipotle in the last half of this year, according to Food Safety News.'
p5
aS'Dec 21, 2015 - Last Updated Dec 21, 2015 4:01 PM EST. U.S. health officials are investigating Chipotle Mexican Grill (CMG) restaurants for a possible connection to an ...'
p6
aS'Dec 21, 2015 - Chipotle Mexican Grill Inc., still reeling from recent outbreaks of E. coli and norovirus at its restaurants, is now being investigated for its link to a new spate of ...'
p7
aS'Dec 21, 2015 - Now CDC Reveals More E. Coli Cases Linked to Chipotle U.S. news; Broadcast: Thu, Apr 07  10 Clips Next  1 of10 Dem Race Goes Negative in Spat Over ...'
p8
aS"Dec 21, 2015 - The latest developments will not help build the burrito chain's credibility with the general public -- and investors.. Chipotle Mexican Grill Inc(CMG)"
p9
aS'Dec 21, 2015 - U.S. health officials are investigating a new outbreak of E. coli linked to Chipotle, which has been mired in health concerns in recent months.'
p10
a.