(lp0
S"Dec 29, 2015 - Chipotle is still trying to put the recent E. coli and norovirus outbreaks behind it. ... Chipotle shares have plunged and it's the butt of jokes - can it recover in 2016? by Ahiza Garcia @ahiza_garcia ..... 2016 Cable News Network. A Time Warner ..."
p1
aS'Dec 30, 2015 - A Chipotle Mexican Grill employee prepares food in a Seattle location. (AP File Photo). After an E. coli outbreak that has sickened more than 50 people across ...'
p2
aS'Dec 29, 2015 - "It is important to note that noroviruses are very common, in part because they are so easily transmitted," Chipotle spokesman Chris Arnold told ABC News this ...'
p3
aS'Dec 30, 2015 - An article claimed Chipotle was "sabotaged" by pro-GMO activists but ... (The incidents also reinvigorated fake news rumors about Chipotle\'s using dog or cat ...'
p4
aS"Dec 29, 2015 - Boston College students can once again eat Chipotle burritos without fear, according to the head of Boston's restaurant inspection ... Breaking News newsletter."
p5
aS'Dec 29, 2015 - The bad news for those who wish to assess the value of Chipotle is that each of those numbers is a complete mystery. When Chipotle updated shareholders ...'
p6
aS"Dec 29, 2015 - That's what an ... interesting ... report from something called Natural News claims. Why would so-called food terrorists target Chipotle? Because the company ..."
p7
aS'Dec 29, 2015 - In The Wall Street Journal, Holman W. Jenkins, Jr., writes that Chipotle means ... in the worlds of diversified media, news, education, and information services.'
p8
aS'Dec 29, 2015 - Health News ... Chipotle Mexican Grill has announced that its Cleveland Circle location in Boston, which was recently shut down after a norovirus outbreak ...'
p9
aS'Dec 29, 2015 - Recent E. coli outbreak at Chipotle Mexican Grill (NYSE:CMG) leads to declining sales growth forecast and stock price plunge.'
p10
a.