(lp0
S'Feb 20, 2015 - Comments 0. . News. Chipotle will offer free burritos, bowls and tacos. ... Most Chipotle meals have more than 1,000 calories and as much sodium as you need ...'
p1
aS"Feb 19, 2015 - Unlike its fast-food peers, Chipotle isn't interested in engineering away calories ... of its fast-food peers even though the high-calorie revelation isn't even news."
p2
aS"Feb 19, 2015 - When it's too late to thaw chicken and too early to drive to Denny's for their all-night, trusty breakfast specials, where do we go? CHIPOTLE, that's where. Burritos ..."
p3
aS'Feb 20, 2015 - Turns Out Nobody Actually Cares If Chipotle Is Unhealthy ... This news bodes well not just for Chipotle, but for the success of bacon-wrapped pizza as well.'
p4
aS"Feb 20, 2015 - News & Politics .... Taco Bell's bowl has slightly more calories (490) than the Chipotle competitor ... The Taco Bell bowl has 20 grams of fat; Chipotle has 16."
p5
aS'Feb 19, 2015 - Source: Chipotle Mexican Grill. Chipotle Mexican Grill (NYSE:CMG) has been a booming success over the last several years, both among customers and ...'
p6
aS'Feb 20, 2015 - Cracker Barrel, Five Guys, Chipotle will all see new locations off Route 13 in Salisbury.'
p7
aS'Feb 20, 2015 - When it comes to "healthy" fast food, Chipotle tends to earn extra brownie points for their abundant selection of fresh veggies and commitment to serving only ...'
p8
aS'Feb 20, 2015 - The "shocking" Chipotle\'s news that young consumers probably don\'t care about, a \'90s comeback no one saw coming, and the weirdest new toys to know.'
p9
aS"Feb 20, 2015 - In August, The River City News reported that a Chipotle and a Wendy's would open on the lot to the north of the Frisch's Big Boy surrounded by Fourth & Fifth ..."
p10
a.