(lp0
S'Feb 23, 2015 - Chipotle has long billed itself as a healthy fast-casual alternative to fast food chains. But earlier this week the New York Times published a breakdown of exactly ...'
p1
aS'Feb 23, 2015 - Latest Environmental Leader 2016 Conference News - Denver, June 21-23 ... So how exactly is Chipotle giving their customers authenticity? They are becoming ...'
p2
aS'Feb 23, 2015 - However, recently Chipotle has been under scrutiny for the nutrition facts on its ... thoughts on this recent news along with their thoughts on Chipotle in general.'
p3
aS'Feb 23, 2015 - How Chipotle is forcing sit-down chains like Olive Garden to rethink lunch. The inside track on .... Breaking news about economic and business issues.'
p4
aS"Feb 23, 2015 - Arlington Restaurant Inspections: Chipotle, Ben's Chili Bowl, Stem Preschool + ... School Bus Camera Traffic Tickets, Search for Relisha Rudd: News Nearby."
p5
aS'Feb 23, 2015 - Chipotle already has restaurants on South Florida Avenue in Lakeland, and there is another ... Chipotle pioneered the "fast-casual" restaurant style in 1993 in Denver and now has nearly 1800 restaurants throughout the U.S.. ... Home  News.'
p6
aS'Feb 23, 2015 - NEWS. February 23, 2015. From Chipotle to Wal-Mart, Health Care Law Proving Not to Be a Burden to Employers ... Chipotle Mexican Grill Inc. said in a Feb.'
p7
aS'Feb 23, 2015 - Racic responded, also on Monday night, saying the comment had NOTHING to do with race. UPDATE: Rancic took to E! News on Tuesday to offer a further ...'
p8
aS'Feb 23, 2015 - People stand in line at Chipotle, located at 1726 N. High St. Credit: Alaina ... Buckeye News Now: 18th Avenue Library under construction, Chipotle to deliver.'
p9
aS'Feb 23, 2015 - The Chipotle Cultivate Festival, a free food and concert series, will launch in ... sentenced to 11 years after fatal drunken driving crash; News: | 27 hours ago.'
p10
a.