(lp0
S'Feb 25, 2015 - From Yahoo Finance: Chipotle teaches employees to moderate servings...'
p1
aS"Feb 26, 2015 - Chipotle opens at 11 a.m. next to Starbucks in the Prairie Village Shopping Center. ... Prairie Village's new Chipotle opens at 11 a.m. Feb. 26. .... Splash News."
p2
aS"Feb 26, 2015 - Journalists, investors, and food industry analysts have spent a lot of time in recent weeks comparing Chipotle and McDonald's. The former represents a new way ..."
p3
aS'Feb 25, 2015 - People crowd in the new Chipotle Mexican Grille on Upper Peach Street in Summit Township on ... CHRISTOPHER MILLETTE file photo/ERIE TIMES-NEWS.'
p4
aS'Feb 26, 2015 - "A lot of the food options at Chipotle are actually pretty healthy," she says. That is the good news. But Chipotle "likes to go big," and monumental portions are not ...'
p5
aS'Feb 26, 2015 - All 19 Chipotle Mexican Grill locations in the Austin metro area are participating in an all-day fundraiser to ... Breaking news, recommended events, and more.'
p6
aS'Feb 27, 2015 - by JULIE PODCZASKI While we already know that guacamole at Chipotle is extra, most people ... Emerging App Bando Reimagines How Users Consume News.'
p7
aS"Feb 26, 2015 - Last week, news broke that burritos stuffed with sour cream, cheese, and guacamole are not exactly as healthy as we'd like to believe  even when they come ..."
p8
aS'Feb 26, 2015 - We all love Chipotle right!? Why not get what you love and support the school you love! On March 16, Chipotle will be hosting a fundraiser for MDS Student Life.'
p9
aS'Feb 25, 2015 - Chipotle Holds Back These Key Ingredients From Your Burrito & This Madness Has To End. Joe Raedle/Getty Images News/Getty Images. Zoe Ferguson.'
p10
a.