(lp0
S"May 27, 2015 - Chipotle, Monster Beverage and Lululemon are losing their front-runner status. ... Access to Jim Cramer's daily blog; Intraday commentary and news; Real-time ..."
p1
aS'May 26, 2015 - Amazon, Apple and Chipotle Too Pricey for Your Portfolio? ... The good news is that there are plenty of exchange-traded funds with solid exposure to these ...'
p2
aS"May 27, 2015 - In the realm of burgers and burritos, two companies reign supreme: McDonald's Corporation (NYSE:MCD) and Chipotle Mexican Grill (NYSE:CMG). These two ..."
p3
aS'May 26, 2015 - Chipotle is open at Fashion Fair, a new ramen restaurant is here and Pieology ... Fresno and Clovis now have 5 Chipotle restaurants ... Weekend food news.'
p4
aS'May 26, 2015 - Chipotle has several locations, including Wellington, Palm Beach Gardens, West ... MORE NEWS ONLINE: Get more news every day about Greenacres and ...'
p5
aS'May 27, 2015 - The two co-chief executives of Chipotle Mexican Grill portioned out some holdings, selling 210,075 shares of the quick-service restaurant for $132,700,244, ...'
p6
aS"May 26, 2015 - GREENACRES  Do you like Mexican food? Well, you're in luck. A new Chipotle is in the works for the River Bridge Centre on Forest Hill Boulevard and Jog ..."
p7
aS"May 26, 2015 - This will certainly raise a lot more questions if Chipotle's peers such as Qdoba and the US economy continue to do well. Currently, Chipotle has more than 1,800 ..."
p8
aS"May 26, 2015 - Does Chipotle's branding strategy on genetically engineered ingredients ... An opening paragraph from the New York Times's news report illustrates a sort of ..."
p9
aS'May 26, 2015 - First Chipotle decided to cut out GMOs, and now Taco Bell and Pizza Hut are stepping in line to ruin our ... NEWS: The 13 most clich hangover cures, ranked.'
p10
a.