(lp0
S'May 4, 2015 - In addition to the recipe, Chipotle also revealed they use a staggering 48 avocados per batch-- just in case fans were looking to feed a small army guacamole ...'
p1
aS'May 4, 2015 - NEWS: Chipotle might actually be healthy nowfind out why! Chipotle also made a cheeky nod to their incredibly archaic pricing structure in the blog post.'
p2
aS'May 3, 2015 - Rather than making the trek to your neighborhood Chipotle, you can replicate their super-delicious guac in the comfort of your ... Get the MTV News app today.'
p3
aS'May 4, 2015 - Chipotle finally unveils recipe for its famous guacamole ... NEW YORK DAILY NEWS. Monday ... Chipotle finally unveiled the recipe to its delicious guacamole.'
p4
aS'May 4, 2015 - Peter Coclanis: Last week, Chipotle sanctimoniously announced that its menus would be Genetically Modified ... The News & Observer | NewsObserver.com.'
p5
aS'May 4, 2015 - This is not a drill. For all you guacamole lovers out there, Chipotle has revealed its recipe. Now you can make it at home yourself and eat as much as you want ...'
p6
aS'May 4, 2015 - Chipotle has released the recipe for its guacomole so "guac" lovers can make their own batch at home. CBSN\'s Elaine Quijano has the delicious details.'
p7
aS'May 4, 2015 - Hate being reminded every single time you go to Chipotle that guac is extra? ... WATCH: CBS13 News is on the air | Latest forecast | Real-time traffic conditions ...'
p8
aS"May 3, 2015 - MTV News reports that Chipotle released the full recipe on their site this morning. Surprisingly, there doesn't seem to be any sort of strange witchery in the ..."
p9
aS'May 4, 2015 - You can stop paying Chipotle extra for its perfect guacamole. The food chain recently unveiled its .... Inc. All rights reserved. Part of HuffPost on HPMG News.'
p10
a.