(lp0
S'Jun 11, 2015 - Chipotle has signed a 2400-square-foot lease and will open at 20 Midtown. ... on page print button to print this article. Industry News Retailing & Restaurants ...'
p1
aS"Jun 11, 2015 - Dream Chaser, Chipotle, BJ's Restaurant & Brewhouse in AL.com business news. 1 / 5 ... Chipotle coming to downtown Birmingham in 20 Midtown. --."
p2
aS"Jun 12, 2015 - The new rue 21 will be on the lower level beside Belk, and the new Chipotle will be in the food court between McAlister's ... news delivered right to your inbox!"
p3
aS'Jun 11, 2015 - From Yahoo Finance: A Chipotle-style pizza chain endorsed by LeBron James is taking over America. Rick Wetzel, Blaze...'
p4
aS'Jun 11, 2015 - Chipotle is extending its worker benefits to part-time employees by giving them sick pay, paid vacation time, and ... Benefit Your Friends by Sharing the News'
p5
aS'Jun 12, 2015 - Chipotle Mexican Grill will open its first Rio Grande Valley location on Thursday. ... Chipotle to open in McAllen / Action 4 News. 0shares. tweet now! 0shares.'
p6
aS'Jun 12, 2015 - The awesome Chipotle news just keeps coming. Last week, the chain announced that hourly workers would be eligible for paid sick leave, paid vacation, and ...'
p7
aS"Jun 12, 2015 - But recently, even as fast-casual chains such as Chipotle, Panera Bread and ... teamed with trade publication Nation's Restaurant News to survey thousands of ..."
p8
aS'Jun 11, 2015 - For the pickles: 30 ounces sliced pickles; For the beer batter; 2 cups flour; 2 cups beer; 1 teaspoon salt; 1/2 gallon of vegetable oil; For the chipotle mayo: 1 clove ...'
p9
aS'Jun 11, 2015 - There are CVS stores with the addresses 20 University Place, 116 University Drive and 12290 College Boulevard. You may not have noticed, but you probably ...'
p10
a.