(lp0
S'Jun 1, 2015 - View the full release here: http://www.businesswire.com/news/home/20150601005135/en/. For the month of June, Chipotle will offer a limited edition (RED) gift ...'
p1
aS'Jun 2, 2015 - Chipotle Mexican Grill has chosen Kansas City as the test market for a new menu item: chorizo. The Mexican-style fresh ... Splash News  The Wizarding World ...'
p2
aS'May 31, 2015 - LOWELL -- Chipotle Mexican Grill Inc. is hiring for its new Billerica store, which it expects to soon open in the Treble Cove Plaza, 199 Boston Road.'
p3
aS'Jun 1, 2015 - At least one college football team has used its nearby Chipotle as a ... Chipotle has set up shop near just about every college campus because ... Latest News.'
p4
aS"Jun 1, 2015 - News Annapolis. Ruling clears way for Chipotle's City Dock location ... Chipotle's attorney Alan Hyatt said the Moe's rationale  while understandable from a ..."
p5
aS"Jun 1, 2015 - A Maryland appeals court on Friday upheld the dismissal of a petition by the operator of a Moe's Southwest Grill challenging a zoning board's decision to grant ..."
p6
aS"Jun 1, 2015 - According to a study in National Restaurant News, Chipotle responds to more than 83% of its Facebook followers' comments, and 90% of its Twitter followers."
p7
aS'Jun 1, 2015 - Chipotle has achieved phenomenal publicity for its age. How, you say? The chain describes how the focus of its marketing strategy is all in the experience.'
p8
aS"Jun 1, 2015 - If you haven't heard already, Chipotle recently released a full recipe of its tasty guacamole. The Internet reverberated with the news in every corner, and it ..."
p9
aS"May 31, 2015 - But the chain's fast-rising rivals, like Chipotle Mexican Grill and Firehouse Subs, are beating Subway at the game it helped create, offering seemingly fresher, ..."
p10
a.