(lp0
S"Jul 6, 2015 - Citing investors, Barron's pointed out that Chipotle shares could dip to $500 in the next few ... Access to Jim Cramer's daily blog; Intraday commentary and news ..."
p1
aS'Jul 5, 2015 - NEW YORK (Reuters) - Shares of Chipotle Mexican Grill have lost some of their luster recently ... News Anchors Who Will Make Your Jaw DropMy Daily Viral.'
p2
aS"Jul 6, 2015 - Tulsa's 24-Hour News, Weather and Traffic ... Chipotle button and ad photo ... Chipotle Is Being Criticized for Its Provocative 'Homo Ests?' Promotion gallery."
p3
aS'Jul 6, 2015 - What would a breakup between fans of Chipotle and the fast-casual chain look like? Will there be lots of .... Internship at UF Health News and Communications.'
p4
aS'Jul 6, 2015 - Photo: Chipotle ... Analysts at Barron\'s now say that Chipotle shares  "a mouthful of jalapeos for short sellers" as recently as ... Latest News from Grub Street.'
p5
aS"Jul 5, 2015 - Shares of Chipotle Mexican Grill Inc (CMG. ... Thomson Reuters is the world's largest international multimedia news agency, providing investing news, world ..."
p6
aS'Jul 6, 2015 - NAMPA  A new Chipotle Mexican Grill will open July 30 in Nampa, according to a spokesperson for the company. ... Latest Sky Sports News Headlines ...'
p7
aS'Jul 6, 2015 - On April 14, Keilar hyped, "Yesterday she stopped at a Chipotle, a campaign ... Scott Whitlock is the senior news analyst for the Media Research Center and a ...'
p8
aS'Jul 6, 2015 - Shares of Chipotle Mexican Grill, Inc. (NYSE: CMG) fell about 0.4 percent ($2.39) on Monday. ... A tool used by the Benzinga News Desk each trading day --'
p9
aS"Jul 6, 2015 - Investors might have lost some of their taste for Chipotle, but customers sure haven't. ... investors could count on a growing stock price at Chipotle Mexican Grill. ... is NRN's newsroom blog, where our editors give their points of view on news ..."
p10
a.