(lp0
S'Aug 24, 2015 - Chipotle Mexican Grill Inc. has pledged to hire 4,000 people in one day during ... You can access more in-depth stories and analysis, as well as news not found ...'
p1
aS'Aug 24, 2015 - Chipotle wants to bring on 4000 new staff members in a single day next ... Chipotle CEO: We have the power to raise prices .... 2016 Cable News Network.'
p2
aS'Aug 24, 2015 - Chipotle Mexican Grill Inc. plans to hire thousands of employees in one day ... and follows news that Chipotle would expand benefits to all employees, including ...'
p3
aS'Aug 23, 2015 - Chipotle Mexican Grill plans to hire 4000 workers on a single day next month, ... in the worlds of diversified media, news, education, and information services.'
p4
aS'Aug 24, 2015 - Job interviews will take place at all U.S. restaurants; applicants are invited to register online for an interview. DENVER --(BUSINESS WIRE)--Aug. 24, 2015-- ...'
p5
aS'Aug 24, 2015 - Chipotle to host nationwide Career Day, seeking to hire 4,000 new employees  all in one single day. BY Robert Dominguez. NEW YORK DAILY NEWS.'
p6
aS'Aug 24, 2015 - The Colorado-based burrito chain Chipotle announced it is hiring 4000 people in ... Live-updated Colorado news, weather forecasts for Denver and the state, ...'
p7
aS'Aug 24, 2015 - Chipotle to hire 4,000 employees in one-day hiring spree ... DENVER  Chipotle Mexican Grill just announced its plan to hire 4,000 new ... Filed in: News.'
p8
aS'Aug 24, 2015 - Looking for a job? Chipotle Mexican Grill is hiring and this time in bulk.'
p9
aS'Aug 24, 2015 - DENVER  Chipotle is looking to hire thousands, as restaurant chains ... To find more jobs at Chipotle restaurants, visit their careers website. ... Filed in: News.'
p10
a.