(lp0
S'Sep 30, 2015 - Chipotle Mexican Grill will open its first Central Oregon outlet in northeast Bend on Friday morning, officials confirmed Wednesday. But invited guests already ...'
p1
aS"Sep 30, 2015 - How many avocados does it take to make Chipotle's famous guac? That, and other facts you might not know about the burrito chain."
p2
aS"Sep 30, 2015 - Dig Inn is winning over New York's office workers with fresh fare. ... Mitchell Costa is standing in the crowded lunch line at Dig Inn for what he admits is his fourth trip to the fast-casual restaurant in about a week. ... About 65 percent of that business comes from the midday crowd ..."
p3
aS'Sep 30, 2015 - The news would be unremarkable expect for the fact that the U.S. Taco Co., as the ... by Chipotle Mexican Grill (NYSE:CMG) and garner favor with millenials.'
p4
aS'Sep 29, 2015 - Chipotle announced that 90 percent of its restaurants are now serving ... 10:00: Blue Bloods; 11:00: 10TV News @ 11PM; 11:15: Wall to Wall Sports Extra; 11:35 ...'
p5
aS'Sep 29, 2015 - Despite a sign on the Atrium staircase with a photo of a Chipotle burrito saying, ... When the Daily News submitted a general inquiry to Chipotle, a customer ...'
p6
aS'Sep 30, 2015 - Business: Carnitas comeback: Chipotle taps U.K. supplier to address ... Related News ... In January, Chipotle stopped serving carnitas at one-third of its 1,700 ...'
p7
aS"Bruce Turkel on Fox Business' After the Bell with Melissa Francis: Chipotle's accused of deceiving customers ..."
p8
aS"Sep 29, 2015 - Chipotle's Carnitas Returns to Most Restaurants ... ChipotleNews0 Comments ... Chipotle has bucked the trends in the fast food industry for quite some time."
p9
aS"Sep 30, 2015 - Business Finance News takes a look at recent short interest changes of the two giant restaurant chains, Chipotle Mexican Grill (NYSE:CMG) and McDonald's ..."
p10
a.