(lp0
S'Chevron Corporation'
p1
aS'Chevron Corporation'
p2
aS'Oil & Gas Journal'
p3
aS'Oil & Gas Journal'
p4
aS'International Institute for Sustainable Development'
p5
aS'Bloomberg L.P.'
p6
aS'United States Fish and Wildlife Service'
p7
a.