(lp0
S'Environmental Leader'
p1
aS'The Wall Street Journal'
p2
aS'Oil & Gas Journal'
p3
aS'CTV News'
p4
aS'CBC.ca'
p5
aS'Financial Post'
p6
aS'U.S. Securities and Exchange Commission'
p7
aS'McAfee and Taft'
p8
a.