(lp0
S'Arabian Business'
p1
aS'Bloomberg L.P.'
p2
aS'Internet Archive'
p3
aS'Wikipedia'
p4
aS'San Francisco Chronicle'
p5
aS'The New York Times'
p6
aS'American Chemical Society'
p7
aS'LinkedIn'
p8
aS'Statoil'
p9
a.