(lp0
S'Energen'
p1
aS'San Francisco Chronicle'
p2
aS'BBC'
p3
aS'Offshore Magazine'
p4
aS'The Wall Street Journal'
p5
aS'The New York Times'
p6
aS'The New York Times'
p7
aS'Environment & Energy Publishing'
p8
aS'Oil & Gas Journal'
p9
a.