(lp0
S'The Wall Street Journal'
p1
aS'The Wall Street Journal'
p2
aS'Amarillo GlobeNews'
p3
aS'Google'
p4
aS'The Independent'
p5
aS'Oil & Gas Journal'
p6
aS'Massachusetts Institute of Technology'
p7
aS'Reuters'
p8
aS'Bloomberg L.P.'
p9
a.