(lp0
S'The Huffington Post'
p1
aS'Vanguard'
p2
aS'The Wall Street Journal'
p3
aS'United States Environmental Protection Agency'
p4
aS'Bloomberg L.P.'
p5
aS'Bloomberg L.P.'
p6
aS'Seeking Alpha'
p7
aS'ADVFN'
p8
a.