(lp0
S'Reuters'
p1
aS'Catalyst'
p2
aS'Boise Weekly'
p3
aS'MIT Sloan Management Review'
p4
aS'Oil & Gas Journal'
p5
aS'University of Southern California'
p6
aS'Wikipedia'
p7
aS'Chevron Corporation'
p8
a.