(lp0
S'Oil & Gas Journal'
p1
aS'Oil & Gas Journal'
p2
aS'The Huffington Post'
p3
aS'United States Environmental Protection Agency'
p4
aS'Offshore Magazine'
p5
aS'McCombs School of Business'
p6
aS'HeriotWatt University'
p7
aS'The Wall Street Journal'
p8
aS'University of Western Australia'
p9
a.