(lp0
S'The Wall Street Journal'
p1
aS'James A. Baker III Institute for Public Policy'
p2
aS'Chevron Corporation'
p3
aS'CNET'
p4
aS'Statista'
p5
aS'InsideClimate News'
p6
aS'Oil, Gas and Energy Law'
p7
aS'The New York Times'
p8
a.