(lp0
S'Chevron Corporation'
p1
aS'Oil & Gas Journal'
p2
aS'Oil & Gas Journal'
p3
aS'Reuters'
p4
aS'Rainforest Action Network'
p5
aS'The Huffington Post'
p6
aS'McCombs School of Business'
p7
aS'Offshore Magazine'
p8
aS'Bloomberg L.P.'
p9
a.