(lp0
S'The Guardian'
p1
aS'Chevron Corporation'
p2
aS'Chevron Corporation'
p3
aS'Bloomberg L.P.'
p4
aS'Voice of America'
p5
aS'Reuters'
p6
aS'The Independent'
p7
aS'Environmental Leader'
p8
aS'Daily Kos'
p9
a.