(lp0
S'University of California, Berkeley'
p1
aS'Rig Zone'
p2
aS'United States Environmental Protection Agency'
p3
aS'Upstream'
p4
aS'Milken Institute'
p5
aS'University of South Florida'
p6
aS'The Oil Drum'
p7
a.