(lp0
S'Bloomberg L.P.'
p1
aS'ADVFN'
p2
aS'San Francisco Chronicle'
p3
aS'Venezuelanalysis.com'
p4
aS'Center for American Progress'
p5
aS'Oil & Gas Journal'
p6
aS'The Wall Street Journal'
p7
aS'Richmond Confidential'
p8
a.