(lp0
S'USA Today'
p1
aS'The Wall Street Journal'
p2
aS'Oil & Gas Journal'
p3
aS'CTV News'
p4
aS'Oceana'
p5
aS'U.S. Securities and Exchange Commission'
p6
aS'The Sydney Morning Herald'
p7
aS'Financial Post'
p8
a.