(lp0
S'Chevron Corporation'
p1
aS'Reuters'
p2
aS'Reuters'
p3
aS'Bloomberg L.P.'
p4
aS'South Florida Business Journal'
p5
aS'The Wall Street Journal'
p6
aS'The Huffington Post'
p7
aS'Oil & Gas Journal'
p8
a.