(lp0
S'South Florida Business Journal'
p1
aS'The Wall Street Journal'
p2
aS'Reuters'
p3
aS'Chicago Bridge & Iron Company'
p4
aS'Chicago Bridge & Iron Company'
p5
aS'Chicago Bridge & Iron Company'
p6
a.