(lp0
S'Center for Responsive Politics'
p1
aS'Oil & Gas Journal'
p2
aS'Common Dreams'
p3
aS'Bloomberg L.P.'
p4
aS'Reuters'
p5
aS'The Globe and Mail'
p6
aS'World Oil'
p7
aS'Seeking Alpha'
p8
aS'Radio Free Europe/Radio Liberty'
p9
a.