(lp0
S'Google'
p1
aS'The Wall Street Journal'
p2
aS'Reuters'
p3
aS'San Francisco Chronicle'
p4
aS'Chicago Bridge & Iron Company'
p5
aS'Chicago Bridge & Iron Company'
p6
aS'Chicago Bridge & Iron Company'
p7
a.