(lp0
S'Environmental Leader'
p1
aS'Oil & Gas Journal'
p2
aS'Oil & Gas Journal'
p3
aS'Venezuelanalysis.com'
p4
aS'Richmond Confidential'
p5
aS'Chicago Bridge & Iron Company'
p6
aS'McAfee and Taft'
p7
a.