(lp0
S'Oil & Gas Journal'
p1
aS'U.S. News & World Report'
p2
aS'The New York Times'
p3
aS'Chevron Corporation'
p4
aS'Environment & Energy Publishing'
p5
aS'San Francisco Chronicle'
p6
aS'Chicago Bridge & Iron Company'
p7
aS'Bloomberg L.P.'
p8
a.