(lp0
S'The Washington Post'
p1
aS'Forbes'
p2
aS'The New York Times'
p3
aS'Oil & Gas Journal'
p4
aS'Oil & Gas Journal'
p5
aS'Rig Zone'
p6
aS'Bloomberg L.P.'
p7
aS'Bloomberg L.P.'
p8
aS'Common Dreams'
p9
aS'Der Spiegel'
p10
a.