(lp0
S'Chevron Corporation'
p1
aS'Energy Information Administration'
p2
aS'San Francisco Chronicle'
p3
aS'Oil & Gas Journal'
p4
aS'Oil & Gas Journal'
p5
aS'The Wall Street Journal'
p6
aS'Bloomberg L.P.'
p7
a.