(lp0
S'Chevron Corporation'
p1
aS'Reuters'
p2
aS'Arabian Business'
p3
aS'Internet Archive'
p4
aS'San Francisco Chronicle'
p5
aS'Daily Kos'
p6
aS'American Chemical Society'
p7
aS'Honolulu StarAdvertiser'
p8
a.