(lp0
S"Oct 12, 2015 - Starbucks' Curt Garner to Join Chipotle Management Team as the Company's First CIO. DENVER --(BUSINESS WIRE)--Oct. 12, 2015-- Chipotle Mexican Grill ..."
p1
aS"Oct 12, 2015 - Home > News > People > Chipotle names Curt Garner chief information officer ... Curt Garner has joined Chipotle Mexican Grill Inc. as the company's first chief ..."
p2
aS"Oct 12, 2015 - From Yahoo Finance: Chipotle just took a major step toward becoming more like ... That's big news for Chipotle, considering the fact that Starbucks has one of ..."
p3
aS"Oct 12, 2015 - With hopes of improving its mobile presence, fast-casual chain Chipotle Mexican Grill announced on Monday they've hired the company's first chief information ..."
p4
aS'Oct 12, 2015 - Shorter lines at Chipotle Mexican Grill may be just around the corner. The popular burrito chain (founded by Steve Ells in 1993), whose nearly 2000 stores jam ...'
p5
aS'Oct 12, 2015 - Chipotle hires first-ever chief information officer from Starbucks. ... News; Popular; Videos; Fortune 500 ... This executive is ditching Starbucks to join Chipotle.'
p6
aS"Oct 12, 2015 - Chipotle Mexican Grill said Monday that it has brought on Starbucks' Chief Information Officer Curt ... Chipotle names Starbucks' Curt Garner CIO ... Latest News."
p7
aS"Oct 12, 2015 - In 1995, two years after Steve Ells rolled Chipotle's first Mission-style burrito in Denver, CO, competition moved into town. It was called Zuma Fresh Mexican Grill ..."
p8
aS'Oct 12, 2015 - Chipotle looks to expand mobile sales and increase efficiency in restaurants as it ... Please note: The Wall Street Journal News Department was not involved in ...'
p9
aS'Oct 11, 2015 - Detroit News ..... Based in part on its appeal to millennials, Chipotle is the darling of Wall Street, with a stock price of more than $700 a share and a store count ...'
p10
a.