(lp0
S"Oct 12, 2015 - Starbucks' Curt Garner to Join Chipotle Management Team as the Company's First CIO. DENVER --(BUSINESS WIRE)--Oct. 12, 2015-- Chipotle Mexican Grill ..."
p1
aS"Oct 12, 2015 - Home > News > People > Chipotle names Curt Garner chief information officer ... Curt Garner has joined Chipotle Mexican Grill Inc. as the company's first chief ..."
p2
aS"Oct 13, 2015 - Police in Montgomery County are investigating a robbery at a Chipotle ... NEWS. John Kasich on Refusing Service to LGBT People: 'What the Hell Are We Doing ..."
p3
aS"Oct 12, 2015 - From Yahoo Finance: Chipotle just took a major step toward becoming more like ... That's big news for Chipotle, considering the fact that Starbucks has one of ..."
p4
aS'Oct 12, 2015 - Shorter lines at Chipotle Mexican Grill may be just around the corner. The popular burrito chain (founded by Steve Ells in 1993), whose nearly 2000 stores jam ...'
p5
aS"Oct 12, 2015 - With hopes of improving its mobile presence, fast-casual chain Chipotle Mexican Grill announced on Monday they've hired the company's first chief information ..."
p6
aS'Oct 13, 2015 - Chipotle Mexican Grill, Inc. (CMG) appointed Curt Garner as its first chief information officer who held the same ... Zacks News for ( PNRA, CMG, SBUX, RRGB ) ...'
p7
aS'Oct 12, 2015 - Chipotle hires first-ever chief information officer from Starbucks. ... News; Popular; Videos; Fortune 500 ... This executive is ditching Starbucks to join Chipotle.'
p8
aS'Oct 13, 2015 - Your morning dose of need-to-know news, weather and more. ... The robbers struck the Chipotle on Moreland Road in Willow Grove, Pennsylvania after 11 p.m. ...'
p9
aS'Oct 13, 2015 - Now you can, for free, if you eat at Chipotle. . Live-updated Colorado news, weather forecasts for Denver and the state, metro-area traffic and Denver sports ...'
p10
a.