(lp0
S"Oct 27, 2015 - A recent column written by David Lazarus in the Los Angeles Times wonders why the Center for Consumer Freedom is attacking Chipotle's marketing ..."
p1
aS"Oct 28, 2015 - One of Chipotle Mexican Grill's (NYSE:CMG) feistiest rivals is going in a different ... According to Nation's Restaurant News, the chain also updated its logo on ..."
p2
aS'Oct 28, 2015 - Chipotle Mexican Grill will celebrate the opening of its Oak Ridge location Thursday at 433 S. Illinois Ave.'
p3
aS"Oct 27, 2015 - Chipotle stuck to its sustainable-sourcing policy for pork despite a sales ... Last Night's CNN Town Hall Was the Most-Watched in Cable News History 4:02 PM ..."
p4
aS"Oct 28, 2015 - Plans announced for Downriver's first Chipotle Mexican Grill in Woodhaven ... The News Herald, local news, sports and weather serving Southgate, MI."
p5
aS'Oct 28, 2015 - Food News 10/28/2015 ... For the 5th year in a row, Chipotle is having a Halloween promotion where they sell their hefty burritos ... Who: Chipotle Mexican Grill.'
p6
aS'Oct 27, 2015 - Chris Arnold, a spokesman for the burrito chain, told me Chipotle has no plans to ... that want to sway public policy while keeping their names out of the news.'
p7
aS'Oct 27, 2015 - Chipotle made news when the restaurant chain announced that it was serving only foods made with non-GMO ingredients. McKaskle Family Farm, an organic ...'
p8
aS"Oct 28, 2015 - Home  News  Sports  Things to Do  Opinion  Obituaries  Classifieds; Editors' Picks1 ... News  Minnesota salmonella outbreak linked to Chipotle restaurants ..."
p9
aS'Oct 28, 2015 - News  Chipotle sponsors second annual free music, food fest in Minneapolis ... Chipotle sponsors second annual free music, food fest in Minneapolis. By Ross ...'
p10
a.