(lp0
S'Oct 2, 2015 - The Chipotle Mexican Grill and the Habit Burger Grill both are closer to ... The Denver-based Chipotle prides itself on using high-quality raw .... Sports News ...'
p1
aS"Oct 1, 2015 - That gives the brand an advantage over McDonald's, which has struggled with poor brand perception, and Chipotle, which takes longer to order than typical fast ..."
p2
aS'Oct 2, 2015 - Chipotle Mexican Grill locating in Oak Ridge. <p>Chipotle Mexican Grill is opening an Oak Ridge store.</p>. Oct. 02, 2015. 0 Comments. SHARE. By News ...'
p3
aS'Oct 1, 2015 - Source: Chipotle. Chipotle (NYSE:CMG) Co-CEOs Steve Ells and Monty Moran are the two highest-paid executives in their industry, taking home nearly $60 ...'
p4
aS'Oct 1, 2015 - Chipotle Mexican Grill announced that its pork shortage is almost over and Carnitas will be back on the menu in most of its restaurants by November.'
p5
aS'Oct 1, 2015 - Maxim Group revised up FY15 earnings estimates for Chipotle Mexican Grill, Inc. ... Although Mr. Anderson believes that the recent news will have positive effect ...'
p6
aS"Oct 2, 2015 - News  Chipotle  Los Angeles  Fairfax. Customer Gets 20 Free Meals at Chipotle After Biting Into Full Size Screw ... Here's a crown-buster that happened a few days ago at the Chipotle just outside The Grove on Fairfax in Los Angeles: a ..."
p7
aS'Oct 2, 2015 - Chipotle Mexican Grille is trading at a price over $700, too high from its IPO price; Bidness Etc analyzes is the stock should go for stock split or ... Sector News.'
p8
aS'Oct 1, 2015 - Chipotle did NOT nail the order of one customer, who says she found a screw buried in ... News  Sports  Videos  Photos  Celebs  Store  Tour  WATCH TMZ.'
p9
aS"Oct 2, 2015 - The student news site of University of North Dakota. ... Chipotle vs. Qdoba: A fair ... I'll say it out loud with no shame: Qdoba and Chipotle are incredibly similar."
p10
a.