(lp0
S"Oct 19, 2015 - Chipotle, long the restaurant industry's biggest renegade, is settling into middle ... in the worlds of diversified media, news, education, and information services."
p1
aS'Oct 20, 2015 - Chipotle said Tuesday it expects same restaurant sales to increase by ... Venessa Wong is a business reporter for BuzzFeed News and is based in New York.'
p2
aS'Oct 20, 2015 - DENVER --(BUSINESS WIRE)--Oct. 20, 2015-- Chipotle Mexican Grill, Inc. (NYSE: CMG) today reported financial results for its third quarter ended September 30 ...'
p3
aS"Oct 20, 2015 - Long the star of fast casual, Chipotle's same-store sales rose just 2.6% during the quarter, down sharply from 20% a year ago."
p4
aS'Oct 20, 2015 - Chipotle reported its worst sales growth figure in over two years on Tuesday. Its stock fell 4% in after ... 2016 Cable News Network. A Time Warner Company.'
p5
aS'Oct 20, 2015 - Chipotle Mexican Grill Inc. shares fell the most in six months after third-quarter profit missed estimates, renewing concerns about escalating costs and slowing ...'
p6
aS'Oct 20, 2015 - Chipotle Mexican Grill fell short of earnings estimates but met revenue .... Global Business and Financial News, Stock Quotes, and Market Data and Analysis.'
p7
aS'Oct 19, 2015 - "Fast Money" traders discussed how to play Yahoo, Chipotle and Verizon ... Fast casual chain Chipotle also reports Tuesday. ... Jacob PramukNews Associate ...'
p8
aS'Oct 19, 2015 - In fact, our love for Chipotle led us to ask a number of nutrition experts to weigh in our burrito bowl habits, and they gave us great news: All of them actually eat at ...'
p9
aS'Oct 20, 2015 - Chipotle sales continue to slow in 3Q, despite traffic increase. Pork to return to 100 percent of units by ... See the latest news from NRN. Revenue increased 12.2 ...'
p10
a.