(lp0
S'Oct 5, 2015 - Customers are invited to add something unnecessary to their costumes to score a $3 burrito and to help raise $1 million for the Chipotle Cultivate Foundation.'
p1
aS"Oct 5, 2015 - Costume rules to get a 3 dollar burrito at Chipotle for Halloween. ... Here's the Big Facebook News We Expect This Week ... Every Halloween, Chipotle has offered either $2 or $3 burritos to customers who show up in costumes, from 5:00 p.m. ..."
p2
aS'Oct 5, 2015 - Here\'s How to Get a Super-Cheap Chipotle Burrito on Halloween ... This year, Chipotle\'s "Boorito" fundraiser will require people to dress up in a ... Food News.'
p3
aS"Oct 6, 2015 - It's been scientifically proven that a few simple ordering hacks will allow you to increase the size of your Chipotle burrito by 86 percent at no extra cost. This fact ..."
p4
aS"Oct 6, 2015 - Chipotle Mexican Grill is bringing back its Boorito fundraiser with a special emphasis on the restaurant's mission to rid its food of ... MORE CHIPOTLE NEWS:."
p5
aS'Oct 6, 2015 - Chipotle is selling burritos for just $3 on Halloween. But to get the discount, you have to wear a costume AND bring a, quote, "unnecessary addition." That means ...'
p6
aS'Oct 5, 2015 - Menomonee Falls  Burrito lovers only have about a month to wait until Chipotle opens in Menomonee Falls. ... News and Features  Home  News and ...'
p7
aS'Oct 5, 2015 - Good news, Chipotle fans! The fast food chain announced today that it will be bringing back its popular Boorito day promotion for charity on Halloween this ...'
p8
aS"Oct 5, 2015 - The Halloween boorito is a wonderful Chipotle tradition. Each year ... Chipotle's Boorito Promotion Used to Be Fun. Now It's .... Your News Companion. April 11 ..."
p9
aS"Oct 5, 2015 - Chipotle, under attack from critics who say it health-washes its menu, fires back ... Chipotle Hopes to Spook Additive Lovers With Latest Video ... What's news"
p10
a.