(lp0
S'Oct 8, 2015 - Goldman Sachs recommends betting on Chipotle ahead of earnings, but one technician says this burrito-like pattern ... Bad news: Bond defaults are on the rise.'
p1
aS'Oct 8, 2015 - The lines may not be any longer at Chipotle Mexican Grill (NYSE:CMG) than they were a week ago, but at least one Wall Street pro sees some more lettuce in ...'
p2
aS'Oct 8, 2015 - ... :mobile_leaderboard ). News  Eater Today  Chipotle ... Chipotle is getting in the Halloween spirit with a fundraiser and $3 burritos. On October 31, from 5 p.m. ...'
p3
aS"Oct 7, 2015 - It accuses the burrito chain of deceptively marketing its food as free of added hormones. The ad claims that Chipotle's tofu  called Sofritas  and beans ..."
p4
aS"Oct 7, 2015 - Growth stocks command lofty multiples, but Morgan Stanley thinks the best of them are worth it as the world's economy sputters."
p5
aS'Oct 8, 2015 - For its annual Halloween fundraiser, Chipotle will be selling $3 burritos (i.e. boo-ritos), ... Sign up for NYC news plus the scoop on things to do, see and eat.'
p6
aS'Oct 8, 2015 - Facebook, Chipotle Are Buys; Nike, Medtronic Upgraded ... Meanwhile, Thursday news reports said Facebook is testing emojis in place of its iconic like buttons ...'
p7
aS'Oct 7, 2015 - Four popular restaurant chains - Chipotle Mexican Grill, MOD Pizza, Panda Express ... In other business news, Modrack said a Potbelly Sandwich Shop is soon ...'
p8
aS"Oct 8, 2015 - fairwindslogo Falls Church's own Casey Jones and his brewery, Fair Winds Brewing Company, were big winners at the Great American Beer Festival in Denver ..."
p9
aS"Get Loot Crate: http://loot.cr/grabloot Today on Looter News, DC announces Superman's new identity and ..."
p10
a.