(lp0
S'Nov 10, 2015 - Officials believe E. coli outbreak likely linked to Chipotle restaurants. ... People who eat A get sick and people eat B do not," Schaffner explained to ABC News.'
p1
aS'Nov 10, 2015 - As 43 shuttered Chipotle restaurants in Washington and Oregon prepared to reopen on ... Email Newsletter Signup Custom-curated news highlights, delivered ...'
p2
aS'Nov 9, 2015 - Chipotle restaurants in Washington could reopen as soon as Wednesday after tests ... Email Newsletter Signup Custom-curated news highlights, delivered ...'
p3
aS'Nov 9, 2015 - By Eric M. Johnson SEATTLE (Reuters) - Chipotle Mexican Grill Inc could reopen locations in Washington state and Oregon as soon as Wednesday after a batch ...'
p4
aS"Nov 9, 2015 - Washington state health officials say they have found no source for the E. coli outbreak related to Chipotle and the chain's Pacific Northwest restaurants could ..."
p5
aS"Nov 10, 2015 - Nation's Restaurant News ... Chipotle Mexican Grill Inc. said Tuesday that the 43 restaurants in the Pacific Northwest that were ... Chipotle said it voluntarily closed all 43 units throughout the region on Oct. 31 in an overabundance of caution."
p6
aS'Nov 9, 2015 - All tests of food from Chipotle stores in Washington and Oregon came back ... down food, call your doctor," said CBS News medical contributor Dr. Tara Narula.'
p7
aS'Nov 10, 2015 - The cause of an E. coli outbreak linked to Chipotle restaurants in Washington and Oregon remains unknown, according to health ... 2016 Cable News Network.'
p8
aS'Nov 10, 2015 - [UPDATED] After E. Coli Investigation, 43 Chipotle Restaurants Could Reopen ... results with investigators," Chris Arnold, Chipotle\'s PR Director, told CTV News.'
p9
aS'Nov 10, 2015 - Chipotle Mexican Grill said it would reopen 43 restaurants it had closed in two ... in the worlds of diversified media, news, education, and information services.'
p10
a.