(lp0
S"Nov 18, 2015 - The fake news website Huzlers was behind a false report that Chipotle had closed 60 restaurants because of an E. coli outbreak related to Chipotle's use of dog ..."
p1
aS'Nov 19, 2015 - The number of ill people in the E. coli outbreak from Chipotle restaurants has ... In other news, Blue Bell Ice Cream will begin phase three of five in its market ...'
p2
aS'Nov 19, 2015 - OHA News Releases. November 3, 2015: Oregon cases of E. coli linked to Chipotle now at 12  October 31, 2015: E. coli cases linked to Chipotle restaurants ...'
p3
aS'Nov 19, 2015 - Chipotle, a fast casual Mexican eatery, quietly opened its new Yakima location Thursday, about a week after it resolved an E. coli ... SEND BUSINESS NEWS.'
p4
aS"Nov 19, 2015 - Better than frozen: I hate on Pieology as much as the next person. But that doesn't mean I think a Chipotle of pizza business model can't work, just that Pieology ..."
p5
aS'Nov 18, 2015 - Chipotle stock has imploded since its ugly earnings report in October. The rally is over for CMG stock, and any rebound will be short-lived.'
p6
aS'Nov 19, 2015 - An outbreak of E. coli linked to Chipotle that originated in the Pacific Northwest ... On news Friday that the outbreak had spread, shares of Chipotle plunged 10 ...'
p7
aS'Nov 18, 2015 - Image by Flickr user szapucki under Creative Commons license. Now that fast-casual eatery Chipotle Mexican Grill (NYSE:CMG) has reopened 43 restaurants it ...'
p8
aS"Nov 19, 2015 - ... the recent lows.. Chipotle Mexican Grill Inc(CMG) ... Access to Jim Cramer's daily blog; Intraday commentary and news; Real-time trading forums. Only $49.95."
p9
aS"Nov 19, 2015 - And that's not the only bad news in the burrito bowl. In August, a $5 million class-action lawsuit accused Chipotle of falsely claiming its food is free of GMOs."
p10
a.