(lp0
S"Nov 12, 2015 - If you've seen some disturbing Chipotle news floating around Twitter, never fear: Chipotle is not closing all of its locations within the next year. Twitter account ..."
p1
aS'Nov 12, 2015 - Customers returned to Pacific Northwest Chipotle restaurants on Wednesday as the chain reopened after an E. coli outbreak that sickened about 45 people in ...'
p2
aS'Nov 12, 2015 - A Twitter post spreads false rumor that Chipotle was going out of business ... Fox and Ex Brian Austin Green Spotted Grabbing Lunch Day After Baby News ...'
p3
aS'Nov 12, 2015 - The fast casual Mexican chain just got more bad news. ... Chipotle recently reopened 43 restaurants in the Seattle and Portland areas after some customers ...'
p4
aS"Nov 13, 2015 - Chipotle Reopens Most NW Stores After E. Coli Outbreak ... Patrons wait in line at Chipotle in Portland's Lloyd District Wednesday, Nov. 11, 2015. ... More News."
p5
aS'Nov 14, 2015 - The Chipotle E. coli outbreak has sickened 50 people. ... State health officials have linked 11 Chipotle restaurants, including six restaurants in ... latest+news.'
p6
aS'Nov 13, 2015 - Several food items collected from Chipotle Mexican Grill locations in Washington and ... 11, Chipotle began reopening its restaurants in Washington and multiple locations in ... (To sign up for a free subscription to Food Safety News, click here.).'
p7
aS'Nov 13, 2015 - Chipotle, the leading Mexican fast-casual chain that is the 14th largest limited-service restaurant ... Industry News | November 13, 2015 | QSR Exclusive Brief.'
p8
aS'Nov 13, 2015 - Exactly a year ago, Mayor Bill Finch and other elected officials held a news conference downtown announcing Chipotle and Starbucks would join Bass Pro ...'
p9
aS'Nov 12, 2015 - Chipotle Mexican Grill Inc. is preparing to reopen 43 restaurants in the Pacific Northwest ... Claims Journal - Insurance news and resources for claims adjusters ...'
p10
a.