(lp0
S"Nov 25, 2015 - Some blowback on Chipotle's sales is likely as the news is hurting the brand, and will take a toll on consumers' confidence in its food safety even after the ..."
p1
aS"Nov 25, 2015 - The illnesses are not related to a recent E. coli outbreak tied to Chipotle that sickened more ... Scarlett Johansson says ex made her hit 'rock bottom' Fox News ..."
p2
aS'Nov 25, 2015 - Investigators looking into the E. coli outbreak at Chipotle Mexican Grill Inc restaurants face "significant challenges" in finding the source of the sickness, a U.S. ...'
p3
aS'Nov 25, 2015 - The Costco-linked illnesses are not related to a recent E. coli outbreak tied to Chipotle that sickened more than 40 people. Chipotle voluntarily closed 43 ...'
p4
aS'Nov 24, 2015 - An outbreak of E. coli linked to Chipotle that originated in the Pacific Northwest ... On news Friday that the outbreak had spread, shares of Chipotle plunged more ...'
p5
aS'Nov 24, 2015 - News and sports coverage from Akron, Cuyahoga Falls, Stow, Copley, Fairlawn, Green, Hudson, Tallmadge, Bath Township, Summit County, Portage County, ...'
p6
aS"Nov 24, 2015 - Here's what Chipotle is doing in the wake of E. coli cases connected to ... Get the latest news delivered to your inbox plus breaking news when it happens."
p7
aS'Nov 25, 2015 - Both Chipotle locations in Bellevue received unsatisfactory health inspections ... Connect with Us. NEWSLETTERS. News ... The Chipotle logo - Courtesy photo.'
p8
aS'Nov 24, 2015 - E. Coli fears may plague Chipotle but not for long, says an analyst. ... The good news, according to the report, is that the new cases reported on Friday are part of ...'
p9
aS'Nov 25, 2015 - Federal officials have again changed their description of dozens of E. coli infections, now saying 45 sick people in six states are part of one outbreak linked to ...'
p10
a.