(lp0
S'Nov 2, 2015 - CBS Evening News. TSA to ramp up random ... Seventeen of them had eaten at a Chipotle restaurant during the past few weeks. Eight people have been ...'
p1
aS'Nov 2, 2015 - Health officials expect the number of people sickened by an E. coli outbreak linked to Chipotle restaurants in Washington state and Oregon to grow.'
p2
aS'Nov 2, 2015 - Chipotle Mexican Grill is temporarily closing more than 40 restaurants in and ... NBC News reports that the investigation into the E. coli outbreak is still in the ...'
p3
aS'Nov 1, 2015 - Chipotle closed 43 of its restaurants in Washington state and Oregon as health officials investigated an E. coli outbreak that appears to be linked to the fast ...'
p4
aS'Nov 1, 2015 - Fox News Latino - Fair & Balanced ... SEATTLE  Chipotle has closed 43 of its restaurants in two states, Washington and Oregon, amid fears of an E. coli ...'
p5
aS'Nov 1, 2015 - Chipotle Mexican Grill has temporarily closed 43 restaurants on the West Coast ... News navigation ... Chipotle temporarily closes 43 US restaurants over E. coli.'
p6
aS'Nov 2, 2015 - Chipotle. "The safety and wellbeing of our customers is always our highest priority," Arnold said, per NBC News. "After being notified by health department ...'
p7
aS'Nov 2, 2015 - Chipotle voluntarily closed 43 restaurants in Washington state and Oregon. ... Following news of the outbreak, Chipotle shares dropped as much as 5 percent ...'
p8
aS'Nov 1, 2015 - Local News. Officials anticipate more E. coli cases in Northwest linked to Chipotle ... A closed sign is on the window of the West Seattle Chipotle restaurant.'
p9
aS'Nov 2, 2015 - Chipotle Mexican Grill shut 43 restaurants in Oregon and Washington states following an outbreak of E.coli linked to at least 22 cases, a Chipotle spokesman ...'
p10
a.