(lp0
S'Nov 3, 2015 - Federal health officials commended Chipotle restaurants on Tuesday for closing outlets in Washington and Oregon, saying bold actions are what it takes to stop big, multi-state outbreaks of food poisoning. ... "We do know that Chipotle has closed many of its restaurants until more ...'
p1
aS'Nov 4, 2015 - They are interviewing everyone in both states who has tested positive for that strain of E. coli and are also testing food products from Chipotle restaurants to look ...'
p2
aS'Nov 4, 2015 - The number of confirmed E. Coli food poisoning cases linked to Chipotle ... A company spokesman declined to say whether news of the outbreak has hurt sales ...'
p3
aS'Nov 4, 2015 - Investigators closing in on source of Chipotle E. coli outbreak ... The outbreak is not the first that Chipotle has had to contend with in recent months. .... phone and tablet, download the FREE redesigned app, featuring CBSN, live 24/7 news.'
p4
aS"Nov 3, 2015 - Chipotle Facing scrutiny over E. coli cases and lawsuit over outbreak. ... ill from this kind of E. coli infection. ABC News' Emily Shapiro contributed to this report."
p5
aS'Nov 4, 2015 - An outbreak of E. coli food poisoning linked to Chipotle restaurants ... centers, along with testing ingredients before resupplying, the firm said in a news release.'
p6
aS'Nov 3, 2015 - There are now more than three dozen confirmed cases of people being sickened by an E. coli outbreak in Oregon and Washington state, a sharp increase in the ...'
p7
aS'Nov 3, 2015 - Chipotle Mexican Grill Inc is now linked to 35 confirmed E. coli food poisoning cases in Oregon and Washington, state officials said on Tuesday. A dozen of the ...'
p8
aS'Nov 3, 2015 - Of the 25 cases, 23 reported having been at Chipotle restaurants before getting sick. ... (To sign up for a free subscription to Food Safety News, click here.).'
p9
aS"Nov 3, 2015 - Chipotle has been sued by a customer who says she was sickened with E. coli after eating a burrito bowl. Charmaine ... More News Headlines. Chipotle's stock ..."
p10
a.