(lp0
S'Nov 4, 2015 - They are interviewing everyone in both states who has tested positive for that strain of E. coli and are also testing food products from Chipotle restaurants to look ...'
p1
aS"Nov 4, 2015 - Chipotle E. coli outbreak grows as more than 37 people sickened 0:25 ... The good news is that no one who's reported E. coli in any other states has that same ..."
p2
aS'Nov 4, 2015 - The number of confirmed E. Coli food poisoning cases linked to Chipotle ... A company spokesman declined to say whether news of the outbreak has hurt sales ...'
p3
aS'Nov 4, 2015 - Investigators closing in on source of Chipotle E. coli outbreak ... The outbreak is not the first that Chipotle has had to contend with in recent months. .... phone and tablet, download the FREE redesigned app, featuring CBSN, live 24/7 news.'
p4
aS'Nov 4, 2015 - An outbreak of E. coli food poisoning linked to Chipotle restaurants ... centers, along with testing ingredients before resupplying, the firm said in a news release.'
p5
aS'Nov 5, 2015 - He said he respected Chipotle for its food integrity and animal-welfare policies. ... Email Newsletter Signup Custom-curated news highlights, delivered weekday ...'
p6
aS'Nov 5, 2015 - The E. coli outbreak that sickened dozens is believed to have been linked to Chipotle restaurants.'
p7
aS'Nov 5, 2015 - Most reported eating at several Chipotle locations before falling ill. ... With a pinch of skepticism and a dash of fun, The Salt covers food news from the farm to the ...'
p8
aS'Nov 4, 2015 - Having three outbreaks over the course of two to three months is highly unusual, food poisoning attorney Bill Marler told BuzzFeed News. I think corporate ...'
p9
aS"Nov 4, 2015 - Chipotle Mexican Grill Inc's food poisoning outbreak in Washington state and Oregon threatens to scare diners away from the popular burrito chain and has ..."
p10
a.