(lp0
S"Dec 1, 2015 - All of these -- like the current Chipotle E. coli problem -- were big news at the time. They all on some level damaged the chain's business and created some ..."
p1
aS'Nov 30, 2015 - Shares of Chipotle Mexican Grill (NYSE:CMG) have been pummeled by an ... Which is why the news that Costco (NASDAQ:COST) is having to deal with an E.'
p2
aS'Nov 30, 2015 - But Barton did note a tiny piece of positive news for Chipotle on FOX Business. There have been no new outbreaks in the states where the first breakouts were ...'
p3
aS"Dec 1, 2015 - You are here: Home / News / Which Chipotle Restaurants are Part of the E. coli ... The E. coli O26 outbreak linked to Chipotle restaurants in six states hasn't ..."
p4
aS"Nov 30, 2015 - Chipotle Mexican Grill currently operates less than 2000 restaurants, most of which are in the U.S., a minuscule number compared to the 35000+ McDonald's ..."
p5
aS'Nov 30, 2015 - Holzer investigates Chipotle. ... The price of Chipotle stock dropped dramatically on the news. If you purchased Chipotle common stock between October 21, ...'
p6
aS'Nov 30, 2015 - ... to print this article. Industry News Commercial Real Estate ... A new Chipotle Mexican Grill is coming to Sidney, the first location in Shelby County. A Chipotle ...'
p7
aS'Dec 1, 2015 - Shares of Chipotle fell 12% in a single day after news of spreading E. coli that has been linked to Chipotle. Initially, the E. coli outbreak was considered to be ...'
p8
aS'Dec 1, 2015 - Chipotle, the ubiquitous Mexican food chain recently hit with an outbreak of E.Coli in its ... Sky News. Raw: Man Who Scaled Cliff to Propose Rescued. AP.'
p9
aS'Nov 30, 2015 - The price of Chipotle stock dropped dramatically on the news. .... All the news releases provided by Business Wire are copyrighted. Any forms of copying other ...'
p10
a.