(lp0
S"Dec 11, 2015 - Chipotle Mexican Grill's food-safety problems just got worse. Health officials closed a Chipotle location in Seattle on Thursday, citing repeated food safety violations within the past year. The closure is the latest blow to Chipotle's food safety image."
p1
aS'Dec 11, 2015 - Bacteria and virus outbreaks at Chipotle restaurants call food safety at the popular eatery into question. BY Tobias Salinger. NEW YORK DAILY NEWS. Friday ...'
p2
aS'Dec 11, 2015 - Seattle health officials will require Chipotle to correct all the violations, pay a fine, and pass ... (To sign up for a free subscription to Food Safety News, click here.).'
p3
aS'Dec 11, 2015 - The closure comes hours after Chipotle CEO Steven Ells apologized for a multi-state E.coli_" target="_blank">E.coli outbreak where 52 people were sickened ...'
p4
aS'Dec 10, 2015 - Last Updated Dec 10, 2015 6:12 PM EST. NEW YORK -- Chipotle Mexican Grill (CMG) founder and co-CEO Steve Ells apologized for the outbreak of E. coli that ...'
p5
aS'Dec 10, 2015 - Chipotle Mexican Grill has long promoted what it calls its food with integrity: fresh food without artificial flavors and genuine raw ... National & International News.'
p6
aS'Dec 11, 2015 - As it turns out, Chipotle Mexican Grill Chief Executive Steve Ells waited at least five ... News Corp. is a network of leading companies in the world of diversified ...'
p7
aS"Dec 11, 2015 - 7): Chipotle's stock slips on Friday's news. Tuesday (Dec. 8): Boston College says 30 students became ill over the weekend after eating at a Chipotle in ..."
p8
aS"Dec 11, 2015 - When Eating Clean Is Dirty: Chipotle, 'Fresh' Offerings and Food Safety. A closer look at how sustainable food practices pose unique challenges to safety."
p9
aS'Dec 11, 2015 - The news hit as officials with Chipotle Mexican Grill Inc. responded to a norovirus outbreak in Boston associated with one restaurant, one of a number of ...'
p10
a.