(lp0
S'Dec 21, 2015 - The development is the latest bad news for Chipotle Mexican Grill Inc., which saw its sales plummet after the emergence of the larger E. coli outbreak that has ...'
p1
aS"Dec 22, 2015 - Just when it looked like it might be safe once again to eat at Chipotle, a new spate of ... Chipotle's troubles now because they've already been in the news once."
p2
aS'Dec 22, 2015 - Analysts negative on Chipotle after CDC launches new E.coli investigation ... sales and EPS estimates for Chipotle on the latest E. coli news, factoring in a 25 ...'
p3
aS'Dec 21, 2015 - CDC Investigating Another Multi-State E.Coli Outbreak Linked to Chipotle ... The spokesperson also told ABC News that all of those sickened in the new cases ...'
p4
aS'Dec 22, 2015 - Sales growth was already starting to slow at Chipotle before the E. coli news. But the company warned earlier this month that it now expects sales to fall sharply ...'
p5
aS'Dec 23, 2015 - Tags: Chipotle e.coli outbreak, corporate sabotage, biotech bioterrorism ... Get breaking news alerts on GMOs, fluoride, superfoods, natural cures and more.'
p6
aS"Dec 22, 2015 - Chipotle's stock took a beating again Tuesday in the wake of news that the restaurant chain has been linked to a second outbreak of E. coli, just weeks after ..."
p7
aS"Dec 21, 2015 - The latest developments will not help build the burrito chain's credibility with the general public -- and investors.. Chipotle Mexican Grill Inc(CMG)"
p8
aS'Dec 21, 2015 - CDC Update: 58 Sick in E. Coli O26 Outbreak(s) Linked to Chipotle. Possible sixth ... (To sign up for a free subscription to Food Safety News, click here.).'
p9
aS'Dec 21, 2015 - The C.D.C. said that five people who had eaten in two Chipotle restaurants in Kansas ... in a Chipotle in the last half of this year, according to Food Safety News.'
p10
a.