(lp0
S'Dec 2, 2015 - Chipotle Mexican Grill Inc., dealing with an E. coli outbreak that has sickened dozens around the U.S., has tightened its supplier standards, putting its ...'
p1
aS"Dec 1, 2015 - All of these -- like the current Chipotle E. coli problem -- were big news at the time. They all on some level damaged the chain's business and created some ..."
p2
aS'Dec 2, 2015 - Chipotle Mexican Grill will soon have stricter guidelines for its suppliers that will ... News of the shift in supplier rules was first reported by Bloomberg News.'
p3
aS"Dec 1, 2015 - You are here: Home / News / Which Chipotle Restaurants are Part of the E. coli ... The E. coli O26 outbreak linked to Chipotle restaurants in six states hasn't ..."
p4
aS'Dec 1, 2015 - Shares of Chipotle fell 12% in a single day after news of spreading E. coli that has been linked to Chipotle. Initially, the E. coli outbreak was considered to be ...'
p5
aS"Dec 2, 2015 - Chipotle restaurant and Sleepy's mattress store coming to Palladium development ... News of the fast-casual chain's entry into the High Point market came this ..."
p6
aS'Dec 1, 2015 - Chipotle, the ubiquitous Mexican food chain recently hit with an outbreak of E.Coli in its ... Sky News. Raw: Man Who Scaled Cliff to Propose Rescued. AP.'
p7
aS'Dec 2, 2015 - As a precaution, 43 Chipotle franchise restaurants within Oregon and ... After news of the E-coli outbreak, sophomore Matthew Taylor explains that he is nervous ...'
p8
aS'Dec 2, 2015 - Outbreaks have hit Chipotle, Costco, and now even Starbucks isn\'t immune. ... of an abundance of caution," the Food and Drug Administration said in a news ...'
p9
aS'Dec 1, 2015 - View source version on businesswire.com: http://www.businesswire.com/news/home/20151201006657/en/. Source: Chipotle Mexican Grill, Inc. Chipotle ...'
p10
a.