(lp0
S"Jan 14, 2015 - It's the first time the company stopped serving a topping for its burritos and bowls. Chipotle says it stopped serving pork at hundreds of its restaurants after suspending a supplier that violated its standards. ... On other occasions, Chipotle customers may have noticed signs saying a ..."
p1
aS'Jan 13, 2015 - NEW YORK - Chipotle (CMG) says it stopped serving pork at about a third of its restaurants after suspending a supplier that violated its standards. Chris Arnold ...'
p2
aS'Jan 14, 2015 - Hundreds of Chipotle restaurants aren\'t serving pork after the national chain ... our standards where animal welfare is concerned," Arnold told ABC News.'
p3
aS'Jan 14, 2015 - Chipotle - Mexican fast food chain suspends pork supplier. ... So reads a sign posted in a Chipotle restaurant in New York City. ... 2016 Cable News Network.'
p4
aS"Jan 14, 2015 - Chipotle Mexican Grill halted pork sales at about one-third of its ... Bloomberg News ... Chipotle won't serve pork from conventional sources as it sorts out the ..."
p5
aS'Jan 14, 2015 - Chipotle said it would suspend pork sales at about a third of its U.S. restaurants, following a routine audit that revealed one of its suppliers was not complying ...'
p6
aS'Jan 14, 2015 - Chipotle confirmed the news to BuzzFeed, apologizing for the shortage and admitting that they "just aren\'t sure" how long it will take to reinstate carnitas.'
p7
aS'Jan 13, 2015 - Chipotle Mexican Grill Inc. suspended sales of pork at about a third of its more ... in the worlds of diversified media, news, education, and information services.'
p8
aS"Jan 14, 2015 - Some bad news for anyone who's craving a carnitas from Chipotle. Chipotle says it stopped serving pork at about a third of its restaurants after suspending a ..."
p9
aS'Jan 14, 2015 - Consumers may have to wait a while to get some pork dishes at hundreds of Chipotle restaurants. Chipotle says it has stopped serving pork at hundreds of ...'
p10
a.