(lp0
S'Jan 19, 2015 - Chipotle has stopped serving pork at a third of its restaurants, or some 600 establishments countrywide, citing a standards violation by ... Related News/Archive.'
p1
aS"Jan 19, 2015 - While there aren't any Chipotle restaurants in the Sioux Falls area, hog production and processing are big players in the economy. ... Pork is off the menu at hundreds of Chipotle Mexican Grill restaurants because the restaurant chain says a major pork supplier violated its standards ..."
p2
aS'Jan 19, 2015 - Wondering why your local Chipotle is no longer serving pork? ... But when David Maren heard the news, he had a pretty good idea what the problem was.'
p3
aS'Jan 20, 2015 - Chipotle Mexican Grill is giving away free food in a promotion for the ... News. Sports. Biz. A&E. Email. Life. Ontario selects new fire chief  Tanaka faces ...'
p4
aS"Jan 20, 2015 - Breaking news for Chipotle fans: one third of Chipotle stores have stopped serving their pork carnitas. This abrupt stop is due to a violation in the chain's strict ..."
p5
aS'Jan 20, 2015 - Tags: Chipotle, Chipotle Mexican Grill, food and drink events, food news, free stuff, Sofritas, Chipotle Sofritas, Tampa Bay Mexican food, free meal, free Chipotle ...'
p6
aS'Jan 20, 2015 - On Monday, customers who purchase a Sofritas entre item at any Chipotle ... chief marketing and development officer at Chipotle, said in a news release.'
p7
aS'Jan 20, 2015 - Chipotle Mexican Grill Inc. has been flying high lately, with double-digit ... You can access more in-depth stories and analysis, as well as news not found on any ...'
p8
aS'Jan 20, 2015 - Chipotle Mexican Grill Inc. employees alleging the fast-food chain misclassified them as overtime-exempt executives have asked a New York federal judge to ...'
p9
aS'Jan 19, 2015 - HOLA has some exciting news! On Friday, February 7th Chipotle on Pearl Street is hosting a fundraising event for us! Chipotle is going to donate a percentage of ...'
p10
a.