(lp0
S'Jan 28, 2015 - News  Sports  Business  Food ... Pizzeria Locale, a partnership between Chipotle and Colorado restaurateurs Bobby Stuckey and Lachlan ... In May 2013, the first Pizza Locale under the new partnership with Chipotle opened in Denver, this ...'
p1
aS'Jan 29, 2015 - JOLIET  The second Chipotle restaurant in Joliet opened Thursday, an event pleasing to some on the University of St. Francis baseball team. "This is a little bit ...'
p2
aS'Jan 29, 2015 - O> and others that hope to replicate the sizzling growth of Chipotle Mexican Grill Inc ... When Chipotle went public in 2006, it had almost 500 U.S. restaurants.'
p3
aS'Jan 29, 2015 - But how much will Shake Shack have to grow to live up to the hype? posted on Jan. 29, 2015, at 1:23 p.m.. Mariah Summers. BuzzFeed News Reporter. Tweet.'
p4
aS'Jan 29, 2015 - On Monday, Feb. 2, Weatherford Planning and Zoning Commission will convene at 2:30 p.m. in a special called meeting to consider approving a plat for the fast ...'
p5
aS"Jan 28, 2015 - Chipotle's Cultivating Thought author series has gifted us with inspiring words (to go with our ... Aziz Ansari Chipotle Bag ... Get the MTV News app today."
p6
aS"Jan 28, 2015 - The company McDonald's helped grow could hold the key to its future."
p7
aS'Jan 29, 2015 - Chipotle Mexican Grill plans to expand its fast-casual pizza chain, Pizzeria .... Global Business and Financial News, Stock Quotes, and Market Data and Analysis.'
p8
aS"Jan 29, 2015 - McDonald's CEO Out as Consumers Flee to Chipotle. 01.29.15 ... News. Billerica Chipotle closed due to ill employees will reopen Thursday 03.09.16 | 4:33 PM."
p9
aS'Jan 29, 2015 - For the Toloache Hot Sauce: Bring a pot of water to boil then add the chiles, cinnamon sticks, Mexican oregano, onion and chipotle puree, let boil for 5 minutes ...'
p10
a.