(lp0
S'Jan 2, 2015 - The growth leader in the restaurant business put in another strong year, but can Chipotle keep up the pace this year?'
p1
aS"Jan 2, 2015 - I will start by saying I'm a burrito enthusiast. Both places have there pros along with their cons. Moes On Monday, any Burrito at Moe's is cheaper. Usually $5.50 ..."
p2
aS'Jan 2, 2015 - Water main break in Olathe affects Panera, Chipotle near 119th. 41 Action News Staff. 4:14 PM, Jan 2, 2015. 6:22 PM, Jan 2, 2015. Previous Next. Crews are ...'
p3
aS'Jan 2, 2015 - In addition to Chipotle and Buffalo Wild Wings, leading stocks in the group by IBD ... You will find the latest news, market analysis, and education to help you ...'
p4
aS'Jan 1, 2015 - Here is a snapshot of some of the news stories to expect in the coming year. ... Chipotle Mexican Grill is set to open a Macon location this spring, a company ...'
p5
aS'Jan 2, 2015 - Company bosses should be feeling pretty good right now. The recovering economy is getting a big boost from low inflation and gas prices, and consumers are.'
p6
aS'Jan 1, 2015 - When I first saw the phrase boycott Chipotle I figured this was an .... more difficult than ever to be a good and responsible consumer of news and information.'
p7
aS'Jan 2, 2015 - Chipotle, which touts its use of organic ingredients and meat from animals that were raised without antibiotics, said sales at established locations surged 19.8 ...'
p8
aS'Jan 2, 2015 - News. /r/Hawaii Wiki - Info compiled by the /r/Hawaii community about our state. User Flair ... Has anyone tried this new Chipotle clone in Kailua yet? (yelp.com).'
p9
aS"Jan 2, 2015 - Get all the Latest news, Breaking headlines and Top stories, photos & video in real time about ... Chipotle: Guac is extra KJ: No it's not Chipotle: yes it is http ..."
p10
a.