(lp0
S'Jan 30, 2015 - Chipotle is expanding its new pizzeria chain eastward, a sign that the fast-food giant has national .... How Fox News Unwittingly Destroyed the Republican Party ...'
p1
aS'Jan 29, 2015 - JOLIET  The second Chipotle restaurant in Joliet opened Thursday, an event pleasing to some on the University of St. Francis baseball team. "This is a little bit ...'
p2
aS'Jan 30, 2015 - Chipotle Mexican Grill is now open in Corpus Christi // Photo via Facebook ... CBS 4 (KGBT-TV) provides local news, weather forecasts, traffic updates, sports ...'
p3
aS'Jan 29, 2015 - On Monday, Feb. 2, Weatherford Planning and Zoning Commission will convene at 2:30 p.m. in a special called meeting to consider approving a plat for the fast ...'
p4
aS'Jan 30, 2015 - The pizza concept  a partnership between Chipotle and Colorado restauranteurs Bobby Stuckey and Lachlan Mackinnon-Patterson  will open a third ...'
p5
aS'Jan 29, 2015 - O> and others that hope to replicate the sizzling growth of Chipotle Mexican Grill Inc ... When Chipotle went public in 2006, it had almost 500 U.S. restaurants.'
p6
aS'Jan 29, 2015 - But how much will Shake Shack have to grow to live up to the hype? posted on Jan. 29, 2015, at 1:23 p.m.. Mariah Summers. BuzzFeed News Reporter. Tweet.'
p7
aS'Jan 31, 2015 - George Clooney has a tab at Chipotle that he forgot to close. ... is a site associated with The Onion, which is well-known for its well-written satirical news. Snopes ...'
p8
aS'Jan 29, 2015 - Chipotle Mexican Grill plans to expand its fast-casual pizza chain, Pizzeria .... Global Business and Financial News, Stock Quotes, and Market Data and Analysis.'
p9
aS'Jan 30, 2015 - We expect Chipotle Mexican Grill, Inc. (CMG) to beat expectations when it reports fourth-quarter and full year 2014 results on Feb 3, ... Zacks News for ( CMG ) ...'
p10
a.