(lp0
S"Jan 5, 2015 - Rubio's Fresh Mexican Grill beat out Chipotle in a recent Consumer Reports ... She writes breaking news about all things food and drink, and could live off of ..."
p1
aS"Jan 5, 2015 - Though there aren't as many locations as Chipotle with 1,700 restaurants across the country, the California-based chain ... Connect With Franchise News."
p2
aS'Jan 6, 2015 - Chipotle Mexican Grill, Inc. is likely to defy the skeptics with another year of ... Follow him on Twitter for the latest news and commentary on the airline industry!'
p3
aS'Jan 6, 2015 - Find out why these Motley Fool contributors think Buffalo Wild Wings, Texas Roadhouse, and Panera Bread are better stocks than Chipotle.'
p4
aS'Jan 6, 2015 - COLLEGE STATION- The Chipotle Mexican Grill at 815 University Dr. near Northgate ... KAGS-HD News at 10 - 4/1/16 Texas A&M held its "Friday Night Lights" ...'
p5
aS"Jan 6, 2015 - Chipotle's stock took a dive following the news but the SEC filing also notes that the company's board has authorized a $300 million buyback program. That's in ..."
p6
aS"Jan 5, 2015 - Rubio's Fresh Mexican Grill tastes better than Chipotle, according to a recent Consumer Reports survey. Rubio's won the Mexican category with a score of 84, ..."
p7
aS"Jan 5, 2015 - A Consumer Reports survey's surprising results show that Chipotle is not America's best Mexican fast food chain. See who is..."
p8
aS'Jan 6, 2015 - Healthy can be delicious like in this Warm Chipotle Maple Roasted Sweet Potato ... Sarah Walker Caron is senior features editor for the Bangor Daily News, and ...'
p9
aS"Jan 5, 2015 - According to a new survey from YouGov, Jimmy John's, Chipotle, Chick-Fil-A, and Whataburger, respectively, have the highest current millennial customer ..."
p10
a.