(lp0
S'Jan 6, 2015 - Chipotle Mexican Grill, Inc. is likely to defy the skeptics with another year of ... Follow him on Twitter for the latest news and commentary on the airline industry!'
p1
aS'Jan 7, 2015 - Chipotle Mexican Grill is giving its customers a special opportunity to try its new ... News and information presented in this release has not been corroborated by ...'
p2
aS'Jan 6, 2015 - COLLEGE STATION- The Chipotle Mexican Grill at 815 University Dr. near Northgate ... KAGS-HD News at 10 - 4/1/16 Texas A&M held its "Friday Night Lights" ...'
p3
aS"Jan 6, 2015 - Chipotle's stock took a dive following the news but the SEC filing also notes that the company's board has authorized a $300 million buyback program. That's in ..."
p4
aS"Jan 7, 2015 - Chipotle and Dunkin' Donuts will anchor a new shopping plaza on Marginal Way in the Bayside neighborhood. Construction is slated to start in May."
p5
aS'Jan 6, 2015 - Healthy can be delicious like in this Warm Chipotle Maple Roasted Sweet Potato ... Sarah Walker Caron is senior features editor for the Bangor Daily News, and ...'
p6
aS"Jan 7, 2015 - Chipotle's fast casual Mexican restaurants cater to the trend to fresher fare, and rising ... You will find the latest news, market analysis, and education to help you ..."
p7
aS"Jan 7, 2015 - According to court records, all three allegedly robbed the Chipotle restaurant on Columbus Street in Lee's Summit on Nov. 3, the Chipotle restaurant on ..."
p8
aS"Jan 6, 2015 - The pilot project is seen as an attempt to keep up with rivals such as Nando's and Chipotle and maintain relevance among the coveted Millennial population with ..."
p9
aS"Jan 6, 2015 - All three defendants are charged with the armed robberies of the Chipotle restaurant at 900 N.E. Columbus St., Lee's Summit on Nov. ... News and Outreach"
p10
a.