(lp0
S'Jan 8, 2015 - Chipotle Will Give You Free Food, but You Have to Try Their Tofu. Food News 1/8/2015. Isai Rocha. MeatlessMonday. Not sure if Chipotle is trying to convert us ...'
p1
aS'Jan 7, 2015 - Chipotle Mexican Grill is giving its customers a special opportunity to try its new ... News and information presented in this release has not been corroborated by ...'
p2
aS"Jan 9, 2015 - Chipotle is offering free burritos, bowls, and tacos on January 26th. ... Filed in: News. Suggest a ... Here's how to get your free Chipotle burrito 'raincheck'  News ..."
p3
aS"Jan 7, 2015 - Chipotle and Dunkin' Donuts will anchor a new shopping plaza on Marginal Way in the Bayside neighborhood. Construction is slated to start in May."
p4
aS'Jan 8, 2015 - Dixon, CA - Chipotle is located at 1620 E Monte Vista Ave. in Vacaville and 227 E. ... Get free daily newsletters and real-time news alerts from the Dixon Patch.'
p5
aS'Jan 8, 2015 - Darien, CT - The nearest Chipotle is at 71 Post Rd. in Darien. Buy the sofrita ... To sign up for Darien Patch breaking news alerts and more, click here. File photo ...'
p6
aS'Jan 8, 2015 - Filed Under: chipotle, Free. (Photo by Joe Raedle/Getty Images). MIAMI, FL - MARCH 05: A Chipotle restaurant is seen on March 5, 2014 in ... MORE NEWS.'
p7
aS'Jan 8, 2015 - Citi assumes coverage on Chipotle Mexican Grill (NYSE: CMG) with a Buy rating and raised its ... For more ratings news on Chipotle Mexican Grill click here.'
p8
aS"Jan 8, 2015 - Read our lips: free Chipotle. But there's a catch. If, that is, you think of meat-free eating as a catch. See also: Vegans Rejoice! Chipotle Presents..."
p9
aS'Jan 8, 2015 - When news broke that Chipotle was giving away free food on January 26, I immediately cleared my schedule for January 26th and began preparing my stomach ...'
p10
a.