(lp0
S'Feb 9, 2015 - If you were awake in the pre-dawn hours on Sunday morning, you would have seen a slew of racist, anti-government, anti-Obama posts and a swastika on Chipotle\'s Twitter account. ... During the hack, Chipotles Twitter bio was changed to "the official Twitter account of @TUGFeds and ...'
p1
aS"Feb 9, 2015 - Mexican restaurant chain Chipotle has apologised for a barrage of racist, homophobic and anti-Semitic ... Lifestyle  Tech  News ... A volley of abuse was launched at Chipotle's followers, using homophobic and racist slurs including f**, ..."
p2
aS"Feb 9, 2015 - Thinking of selling shares on last week's bad news? Here's why you might regret that move."
p3
aS"Feb 9, 2015 - Hackers took over Chipotle's Twitter account Sunday, changing the icon to a swastika and calling President ... Chipotle Twitter Feed ... Also On News One:."
p4
aS"Feb 9, 2015 - Chipotle Apologizes for Racist and Profane Tweets Over Weekend ... Food | News ... Chipotle's twitter account was hacked this past weekend, sending out ..."
p5
aS'Feb 9, 2015 - The odds of Chipotle Mexican Grill opening in Sioux Falls have gotten a bit ... "mini Chipotle" format that offers take-out only, according to multiple news sources.'
p6
aS'Feb 9, 2015 - The official Twitter feed of burrito chain Chipotle was hacked late Saturday night, ... Home; / National News. Chipotle Twitter feed sends racist tweets during hack.'
p7
aS'Feb 9, 2015 - Red River Valley News, Weather, Sports | KVLY ... The location in Fargo is at 1680 45th Street South, and is the first Chipotle in the state of North Dakota.'
p8
aS'Feb 10, 2015 - Chipotle says a third of its more-than 1700 restaurants will remain without pork "carnitas" as a meat option for the foreseeable future. A company spokesman ...'
p9
aS'Feb 9, 2015 - Chipotle is opening its very first restaurant in North Dakota Monday. ... was originally set to open its 45th Street South location last July, Forum News reports.'
p10
a.