(lp0
S"Feb 11, 2015 - If you're new to the Chipotle bandwagon, the Mexican grill serves up ... indoor and outdoor seating for about 76 guests, according to a company news release."
p1
aS'Feb 11, 2015 - West Seattle restaurants: Chipotle Mexican Grill apparently Junction-bound ..... Funny how restaurant news always generates the most comments. We love our ...'
p2
aS'Feb 10, 2015 - Chipotle says a third of its more-than 1700 restaurants will remain without pork "carnitas" as a meat option for the foreseeable future. A company spokesman ...'
p3
aS'Feb 11, 2015 - Each quarter Chipotle Mexican Grill underlines how important its employees are to its successful operation, which has contributed to the success of Chipotle.'
p4
aS"Feb 11, 2015 - From Yahoo Finance: Chipotle's revenue has grown year-over-year (or YoY) in each quarter in 2014. ... Last Week's Restaurant News Flipped Over Burgers."
p5
aS"Feb 11, 2015 - In January, Chipotle suspended one of its pork suppliers as a result of an audit, which concluded that the supplier breached Chipotle's food policies."
p6
aS"Feb 10, 2015 - From Yahoo Finance: Chipotle's same-store sales increased in the third quarter because of an increase in ... Last Week's Restaurant News Flipped Over Burgers."
p7
aS"Feb 10, 2015 - Included in the above total count of restaurants, Chipotle Mexican Grill has nine ShopHouse Asian ... Last Week's Restaurant News Flipped Over Burgers."
p8
aS'Feb 10, 2015 - News > Recall: MegaMex Foods Herdez Chipotle Peppers ... 7 ounce Herdez Chipotle Peppers with UPC 7287828513. With Best By Dates of: JAN 2017, FEB ...'
p9
aS"Feb 10, 2015 - Steve Ells had the idea to raise money for a fine-dining restaurant with a concept he'd found in the Mission District in San Francisco, where he worked at the ..."
p10
a.