(lp0
S'Feb 12, 2015 - Chipotle is facing a lawsuit in Colorado claiming employees were required to work without pay. . Live-updated Colorado news, weather forecasts for Denver and ...'
p1
aS'Feb 12, 2015 - Festival returns to Minneapolis , comes to Phoenix and Kansas City for the first time; sweepstakes offers a chance to attend a festival of your choice. DENVER ...'
p2
aS"Feb 11, 2015 - If you're new to the Chipotle bandwagon, the Mexican grill serves up ... indoor and outdoor seating for about 76 guests, according to a company news release."
p3
aS"Feb 12, 2015 - In 2013, Chipotle's founder Steve Ells teamed up with two Denver ... more of a hard news program and that's why I would prefer it over this kind of fluff piece?"
p4
aS'Feb 12, 2015 - DENVER  Employees at some Colorado Chipotle restaurants are suing the burrito ... or have filed declarations in support, the law firm said in a news release.'
p5
aS'Feb 11, 2015 - West Seattle restaurants: Chipotle Mexican Grill apparently Junction-bound ..... Funny how restaurant news always generates the most comments. We love our ...'
p6
aS'Chipotle is facing a lawsuit in Colorado claiming employees were required to work ... The Denver Channel ...'
p7
aS"Feb 12, 2015 - With seven ex-Chipotle employees across the nation now claiming they weren't paid for overtime work, Denver lawyers filed a .... Submit a news tip or photo."
p8
aS'Feb 12, 2015 - From Yahoo Finance: Blaze Pizza is taking over America. The brand...'
p9
aS'Feb 11, 2015 - Each quarter Chipotle Mexican Grill underlines how important its employees are to its successful operation, which has contributed to the success of Chipotle.'
p10
a.