(lp0
S'Feb 12, 2015 - Chipotle is facing a lawsuit in Colorado claiming employees were required to work without pay. . Live-updated Colorado news, weather forecasts for Denver and ...'
p1
aS'Feb 12, 2015 - Festival returns to Minneapolis , comes to Phoenix and Kansas City for the first time; sweepstakes offers a chance to attend a festival of your choice. DENVER ...'
p2
aS"Feb 12, 2015 - In 2013, Chipotle's founder Steve Ells teamed up with two Denver ... more of a hard news program and that's why I would prefer it over this kind of fluff piece?"
p3
aS'Feb 12, 2015 - DENVER  Employees at some Colorado Chipotle restaurants are suing the burrito ... or have filed declarations in support, the law firm said in a news release.'
p4
aS'Feb 13, 2015 - Chipotle Mexican Grill is looking to fill positions at all of its Louisiana restaurants. ... Home  News ... Chipotle Mexican Grill restaurants host Open Interview Day.'
p5
aS"Feb 12, 2015 - With seven ex-Chipotle employees across the nation now claiming they weren't paid for overtime work, Denver lawyers filed a .... Submit a news tip or photo."
p6
aS'Chipotle is facing a lawsuit in Colorado claiming employees were required to work ... The Denver Channel ...'
p7
aS'Feb 12, 2015 - From Yahoo Finance: Blaze Pizza is taking over America. The brand...'
p8
aS'Feb 13, 2015 - 23 before the Macon-Bibb County Planning & Zoning Commission. Chipotle wants to build an eatery at 120 Tom Hill Sr. Blvd. near Chick-fil-A, according to plans ...'
p9
aS"Feb 13, 2015 - What have you done for me lately, Chipotle Mexican Grill (NYSE:CMG)? ... Follow Rich Duprey's coverage of all the restaurant industry's most important news ..."
p10
a.