(lp0
S'Feb 18, 2015 - Chipotle has successfully positioned itself as the ethical alternative traditional fast food by using responsibly raised meatsbut is it actually better for you from a ...'
p1
aS'Feb 17, 2015 - How healthy are the meals people actually order for themselves at Chipotle? We decided to try to find out.'
p2
aS'Feb 17, 2015 - Chipotle somehow feels healthier than other fast food. The meat is grilled, not fried! There are vegetables! Guac is green! Unfortunately, a new study in The New ...'
p3
aS"Feb 18, 2015 - New data reveals that costumers' orders at Chipotle contain more than 1000 ... Bad News, People: The Average Chipotle Order Contains Over 1,000 Calories."
p4
aS'Feb 18, 2015 - NEWS. 11 People So Over All this Talk About Chipotle and Calories! by Alex Ungerman 12:00 PM PST, February 18, 2015. Getty Images. The New York Times ...'
p5
aS"Feb 17, 2015 - That's not all the bad news: The data suggests that most Chipotle orders also come with a full day's recommended amount of of sodium, plus 75 percent of the ..."
p6
aS'Feb 17, 2015 - The New York Times found that the typical Chipotle order has about 1000 calories. 1 in every 10 meals has more than 1600 calories -- but with the right ...'
p7
aS'Feb 17, 2015 - NEWS: Chipotle has a carnitas shortage, so it\'s probably the end of the world. Of course, restaurant-goers aren\'t always eating the "typical" order. There\'s not a ...'
p8
aS"Feb 17, 2015 - One order at Chipotle has been exposed as half a day's calories wrapped inside ... Sean Levinson is a Senior News Writer for Elite Daily, first joining as an editor ..."
p9
aS'Feb 17, 2015 - Chipotle might advertise better quality ingredients than its fast food rivals, but that ... The news comes as Chipotle has been deemed a business powerhouse in ...'
p10
a.