(lp0
S'Feb 2, 2015 - By restaurant industry standards, Chipotle Mexican Grill does countless things .... he was reviewed by the Rocky Mountain News by a guy named Bill St. John.'
p1
aS"Feb 3, 2015 - Sorry McDonald's, Chipotle was just not that into you. That's the major takeaway from an oral history of Chipotle published Monday by Bloomberg. ... 2016 Cable News Network. A Time Warner Company. All Rights Reserved. Terms under ..."
p2
aS"Feb 3, 2015 - But investors weren't happy Tuesday with the company's latest earnings report. Chipotle (CMG)'s stock slipped over 5% in after hours trading after news broke ..."
p3
aS"Feb 3, 2015 - He wasn't lovin' it. Chipotle Mexican Grill founder and CEO Steve Ells was disgusted by a McDonald's Arkansas chicken farm, according to a Bloomberg News ..."
p4
aS"Feb 3, 2015 - But investors weren't happy Tuesday with the company's latest earnings report. Chipotle's stock slipped five percent in after hours trading after news broke that ..."
p5
aS'Feb 2, 2015 - As appetiing as shares of Chipotle Mexican Grill are, they carry a risk of ... in the worlds of diversified media, news, education, and information services.'
p6
aS'Feb 3, 2015 - Chipotle Mexican Grill maintained its weak sales-growth forecast for this year ... in the worlds of diversified media, news, education, and information services.'
p7
aS'Feb 3, 2015 - Chipotle hit a speed bump. Shares plummeted in after-hours trading more than 5% after the widely-successful Mexican fast-casual chain reported fourth quarter ...'
p8
aS'Feb 3, 2015 - DENVER --(BUSINESS WIRE)--Feb. 3, 2015-- Chipotle Mexican Grill, Inc. (NYSE: CMG) today reported financial results for its fourth quarter and full year ended ...'
p9
aS"Feb 3, 2015 - Chipotle Mexican Grill Inc.'s net income rose 52.3 percent during the fourth quarter ... You can access more in-depth stories and analysis, as well as news not ..."
p10
a.