(lp0
S"Feb 3, 2015 - But investors weren't happy Tuesday with the company's latest earnings report. Chipotle (CMG)'s stock slipped over 5% in after hours trading after news broke ..."
p1
aS'Feb 3, 2015 - Chipotle hit a speed bump. Shares plummeted in after-hours trading more than 5% after the widely-successful Mexican fast-casual chain reported fourth quarter ...'
p2
aS"Feb 3, 2015 - But investors weren't happy Tuesday with the company's latest earnings report. Chipotle's stock slipped five percent in after hours trading after news broke that ..."
p3
aS'Feb 3, 2015 - Chipotle Mexican Grill maintained its weak sales-growth forecast for this year ... in the worlds of diversified media, news, education, and information services.'
p4
aS"Feb 4, 2015 - The burrito chain's shares got hit on its earnings report, but Chipotle is hell bent on winning the fast-food war. Here's how company executives say they will do it."
p5
aS'Feb 3, 2015 - DENVER --(BUSINESS WIRE)--Feb. 3, 2015-- Chipotle Mexican Grill, Inc. (NYSE: CMG) today reported financial results for its fourth quarter and full year ended ...'
p6
aS"Feb 3, 2015 - Chipotle Mexican Grill Inc.'s net income rose 52.3 percent during the fourth quarter ... You can access more in-depth stories and analysis, as well as news not ..."
p7
aS"Feb 3, 2015 - He wasn't lovin' it. Chipotle Mexican Grill founder and CEO Steve Ells was disgusted by a McDonald's Arkansas chicken farm, according to a Bloomberg News ..."
p8
aS"Feb 4, 2015 - Chipotle stock dropped following a Q4 earnings report that didn't meet Wall ... Follow him on Twitter for the latest news and commentary on the airline industry!"
p9
aS'Chipotle sliding after hours following holiday earnings report.'
p10
a.