(lp0
S'Feb 8, 2015 - Chipotle Twitter hackers tweet obscenities, change icon to swastika. The burrito chain has apologized after hackers took control of its official Twitter account early Sunday morning and sent out racist, profanity-laced messages. ... One trolling tweet claimed the chain would be closing ...'
p1
aS'Feb 9, 2015 - If you were awake in the pre-dawn hours on Sunday morning, you would have seen a slew of racist, anti-government, anti-Obama posts and a swastika on Chipotle\'s Twitter account. ... During the hack, Chipotles Twitter bio was changed to "the official Twitter account of @TUGFeds and ...'
p2
aS'Feb 8, 2015 - Chipotle apologized for offensive tweets sent from its account early Sunday morning after it was apparently hacked.'
p3
aS"Feb 8, 2015 - Someone transformed Chipotle's Twitter into a Nazi propaganda account. ... Drop us your email and our editors will hand-deliver the best news, analysis, ..."
p4
aS"Feb 8, 2015 - Undoubtedly, Chipotle has some of the best burritos around, but they've made it abundantly clear where they stand on issues like the Second Amendment."
p5
aS'Feb 8, 2015 - Followers of Mexican restaurant chain Chipotle got some unexpected ingredients in their Twitter feeds early Sunday when the fast-casual food chain had its ...'
p6
aS"Feb 8, 2015 - National & International News. The day's top ... Chipotle Twitter Hacked, Obscenities Posted ... A Chipotle Mexican Grill in Robinson Township, Pa. Hackers ..."
p7
aS"Feb 9, 2015 - Mexican restaurant chain Chipotle has apologised for a barrage of racist, homophobic and anti-Semitic ... Lifestyle  Tech  News ... A volley of abuse was launched at Chipotle's followers, using homophobic and racist slurs including f**, ..."
p8
aS'Feb 8, 2015 - Chipotle Mexican Grill (NYSE:CMG) dropped another blockbuster earnings report on investors this week. The company showed off a 27% revenue increase, ...'
p9
aS'Feb 8, 2015 - Good news, folks, your burrito-loving prayers have been answered. It was awesomely announced earlier this week that Chipotle is looking to open more than ...'
p10
a.