(lp0
S"Mar 9, 2015 - Chipotle is Coming to Yakima This Summer ... News Feed ... Slated to open this summer, you'll find Chipotle in Yakima on South 1st next to Panda Express and ..."
p1
aS'Mar 9, 2015 - Chipotle coming to Yakima, summer of 2015. ... KIMA CBS Yakima, Washington covers news, sports, weather and events in the area, including Terrace Heights, ...'
p2
aS'Mar 9, 2015 - Chipotle will open in Yakima this summer, confirmed by Hogback Development Company.'
p3
aS'Mar 10, 2015 - Chipotle Mexican Grill (NYSE:CMG) has generously rewarded shareholders in recent years, with its stock climbing more than 492% over the past five years.'
p4
aS'Mar 10, 2015 - Chipotle Mexican Grill ( CMG ), the leader in the fast-casual segment, is one of the fastest growing restaurant brands in the U.S. The burrito maker.'
p5
aS"Mar 10, 2015 - An interesting news item from today's quarterly Fort Bragg town hall (see that story HERE) is the possible addition of a Chipotle Mexican Grill to the installation's ..."
p6
aS"Mar 9, 2015 - Chipotle's Success Story And The Challenges Ahead, Stocks: CMG,MCD,BKW, release date:Mar 09, 2015. ... Guru News ..."
p7
aS"Mar 10, 2015 - News. World News  Entertainment  Life .... Chipotle is coming to the Bronx! That's right ... You are even asking Fordham for help to feed your Chipotle addiction."
p8
aS"Mar 9, 2015 - Chipotle. Five Guys. Shake Shack. Everything fast-casual and better burger. It's no secret that .... There's good news too, though: they emptied it out to sell it."
p9
aS'Mar 9, 2015 - Bring your family and we thank you for dining out at Chipotle! 0 ... Get free daily newsletters and real-time news alerts from the Malvern Patch. Join 1.2 million ...'
p10
a.