(lp0
S'Mar 11, 2015 - Rubio\'s Fresh Mexican Grill tastes better than Chipotle, according to a recent Consumer ... that\'s what our customers want," Rubio told Nation\'s Restaurant News.'
p1
aS"Mar 12, 2015 - Jim Cramer speaks with the co-CEO of Chipotle on the company's ... Global Business and Financial News, Stock Quotes, and Market Data and Analysis."
p2
aS'Mar 12, 2015 - Monty Moran, Chipotle Mexican Grill co-CEO, is focused on the sustainability and ... Global Business and Financial News, Stock Quotes, and Market Data and ...'
p3
aS"Mar 11, 2015 - Shares of Chipotle Mexican Grill (CMG) are up after Credit Suisse initiated coverage on the ... Access to Jim Cramer's daily blog; Intraday commentary and news ..."
p4
aS'Mar 12, 2015 - Brands (YUM), Chipotle (CMG) Active; Levy Acquisition to Acquire Del Taco, Aims for Nasdaq Listing ... FREE Breaking News Alerts from StreetInsider.com!'
p5
aS'Mar 12, 2015 - QUICK LINKS : Goldman Sachs Conviction Buy List  Carl Icahn News ... Brands (YUM), Chipotle (CMG) Active; Levy Acquisition to Acquire Del Taco, Aims for ...'
p6
aS'Mar 12, 2015 - Subscribe to Northeast Valley News Follow us on Facebook ... The Chipotle Cultivate Music Festival will return for its fifth consecutive year in three select cities: ...'
p7
aS"Mar 11, 2015 - Chipotle Challenger Qdoba has named Pereira & O'Dell its new lead ... Chipotle Challenger Qdoba Taps Pereira & O'Dell as Lead Agency ... What's news"
p8
aS"Mar 11, 2015 - First Look: Chapati Indian Grill, the Latest 'Chipotle Version of' Posted By Douglas .... Subscribe now to get the latest news delivered right to your inbox."
p9
aS"Mar 12, 2015 - Restaurant Inspections: Chipotle, Five Guys Burgers, Listrani's and More .... Get free daily newsletters and real-time news alerts from the Mclean Patch. Join 1.2 ..."
p10
a.