(lp0
S"Mar 16, 2015 - Please recall last summer, when Ansel Elgort revealed what happens when a non-fan dares to interrupt him while he's eating Chipotle: If you don't know my ..."
p1
aS'Mar 17, 2015 - Notices  Danville News  News  Sports  Danville News Obituaries. Chipotle and Starbucks coming to Plaza 15 near Lewisburg. By Evamarie Socha/The Daily ...'
p2
aS"Mar 16, 2015 - Panera Bread would occupy a standalone building and Chipotle would share ... The town's economic development specialist, Tim Ryan, said it's good news big ..."
p3
aS'Mar 16, 2015 - E! News caught up with the duo\'s fellow co-star Ansel Elgort and chatted with the ... "I had a birthday party with all my family and friends at a house and Chipotle ...'
p4
aS"Mar 16, 2015 - Steve Ells and Monty Moran, the co-CEOs of Denver's Chipotle Mexican Grill, both received a 15 percent bump in their pay last year. Business Insider reports the ..."
p5
aS'Mar 17, 2015 - PARK SLOPE  Chipotle is opening its first Park Slope location. The national .... Get our daily Park Slope, Windsor Terrace & Gowanus news and alerts!'
p6
aS"Mar 16, 2015 - Chipotle's CEOs made a combined $57 million in 2014. ... NOW WATCH: 9 things you didn't know about Chipotle ... Get updates in your Facebook news feed."
p7
aS'Mar 17, 2015 - Must-see videos: Chipotle leads guided tour of Cultivate Exhibits ... You can access more in-depth stories and analysis, as well as news not found on any other ...'
p8
aS"Mar 16, 2015 - PEOPLE News; Great Ideas; StyleWatch ... At Chipotle Mexican Grill. Salad Shock: Salad with Chicken and Toppings You're at Chipotle and eating a SALAD?"
p9
aS"Mar 16, 2015 - Chipotle's co-CEOs took home a combined $57 million in compensation in 2014, according to a recent SEC filing. ... News; Popular; Videos; Fortune 500 ..."
p10
a.