(lp0
S'Mar 19, 2015 - Chipotle recently announced it was taking pork off the menu at many of its ... have made national news before over controversial comments on LGBT issues.'
p1
aS'Mar 19, 2015 - GREEN TWP.  Two more restaurants are coming to the Harrison Avenue corridor. Starbucks and Chipotle Mexican Grill plan to open new locations in a retail ...'
p2
aS"Mar 19, 2015 - What does Chipotle's choice to cut pork at some chains have to do with ... Global Business and Financial News, Stock Quotes, and Market Data and Analysis."
p3
aS'Mar 20, 2015 - News. Value Village hosting interactive art installation on Earth Day on Alki ... The popular Chipotle Mexican Grill chain will be opening in the fall on the ground ...'
p4
aS'Mar 19, 2015 - Chipotle Mexican Grill plans to open a second Rio Grande Valley location near the University of Texas-Pan ... By Action 4 News Staff Thursday, March 19th 2015.'
p5
aS"Mar 20, 2015 - GOP WTF: Discriminating Against Gays Is Just Like Chipotle Buying Organic Beef ... House Republicans Holds News Conference On Nat'l Security Budget Cuts."
p6
aS"Mar 20, 2015 - ... of the day's breaking news and current events as well as arts, entertainment, ... Between GIF-filled listicles and Chipotle references, the GOP really wants to ..."
p7
aS'Mar 19, 2015 - For local news delivered via email enter address here: Calendar of ... Chipotle will be built between Panera and the Eyeglass World, but adjacent to the latter.'
p8
aS"Mar 19, 2015 - Chipotle, which has been a rising star in the fast casual restaurant business ... Seattle NewsSeattle visit sparks effort to snuff China's smoking habit  with an ..."
p9
aS'Mar 19, 2015 - Filed under NEWS. University students will soon be able to enjoy Chipotle Mexican Grill and Starbucks, which will open in Lewisburg in the near future. Although ...'
p10
a.