(lp0
S"Mar 26, 2015 - Fancy a fish taco at Chipotle? Don't hold your breath. (Chipotle Mexican Grill). From crispy fish tacos to spicy grilled shrimp, seafood has become a mainstay of ..."
p1
aS"Mar 26, 2015 - Genesee County's first Chipotle Mexican Grill is coming to Miller Road in Flint ... Read more in my update here: http://www.mlive.com/news/flint/index.ssf/2015/09 ..."
p2
aS"Mar 25, 2015 - chipotle tacos Chipotle InstagramChipotle has stuck to a classic menu since it opened. ... Mexican fast-casual restaurant Rubio's, told Nation's Restaurant News."
p3
aS"Mar 26, 2015 - People were mostly likely to avoid Starbucks if they were on a budget. Those on a diet said they'd go to McDonald's less. Customers who fled Chipotle said they ..."
p4
aS'Mar 26, 2015 - Chipotle Mexican Grill will open the doors to its first Macon restaurant Monday. ... Sr. Blvd., will be open 11 a.m.-10 p.m. each day, according to a news release.'
p5
aS'Mar 26, 2015 - British TV chef Kyle Connaughton on Thursday asked a New York appeals court to revive his suit against Chipotle Mexican Grill Inc., which he claimed duped ...'
p6
aS"Mar 25, 2015 - Photo Jacqueline Ramseyer/Bay Area News Group/March 18, 2015 The remodeled ... Leases for tenants including Fish's Wild, Chipotle and Starbucks are final, ..."
p7
aS'Mar 25, 2015 - Chipotle Coming To Montreal A Cruel Hoax. News We got played. by Synden Hope-Johnston.  March 25, 2015  0. Share on Facebook Share; Share on ...'
p8
aS'Mar 25, 2015 - RECENT NEWS ... Whole Foods, Petsmart and Chipotle all have their eyes set on Edgewater but many are worried that small local businesses may pay the ...'
p9
aS"Mar 25, 2015 - The problem is that her lawsuit against Chipotle is still very much in front of her. On April 6, Samuels' case against Chipotle and her former regional manager ..."
p10
a.