(lp0
S'Mar 1, 2015 - Camarones Chipotle Ingredients 15 peeled and deveined shrimpsliced onionssliced bell pepperchipotle pastesour cream rice and beans (optional) PrepIn.'
p1
aS'Mar 1, 2015 - Chipotle on North Prospect, Champaign. Our April Dine Out Event will be hosted by Chipotle  North Prospect Ave., Champaign! Bring in our ... News & Events.'
p2
aS"Mar 1, 2015 - NYC's Halal Guys want to be the Chipotle of Middle Eastern food. Written By .... to Do in ... New York NewsThings to Do in Connecticut, April 9 April Through 17 ..."
p3
aS"Mar 2, 2015 - McDonald's has been losing its core customers, who are increasingly turning to fast-casual options like Chipotle Mexican Grill and Five Guys Burgers & Fries."
p4
aS'Mar 3, 2015 - ... outbreaks. Courtney Friel reports for the KTLA 5 News at 3 on March 2, 2015. ... Local News  People walk by a Chipotle Restaurant in Manhattan on Sept.'
p5
aS'Mar 2, 2015 - Last week lovers of the health and environmentally conscious food chain, Chipotle, were delivered startling news that it might not be as healthy as they think.'
p6
aS'Mar 2, 2015 - This distinctive and popular chili is like barbecue in vegetable form: smoky and earthy with a rich caramelized sweetness, it works beautifully in partnership.'
p7
aS"Mar 2, 2015 - Market Force Information Papa Murphy's top in the pizza category, Chipotle and Qdoba ... Home - Industry News - Press Releases - Market Force Study Reveals ..."
p8
aS'Mar 2, 2015 - Where: Chipotle Location: Phoenix, AZ Symptoms: Diarrhea, Nausea, Fever, Vomiting Details: Ate barbacoa bowl with medium salsa, guac, cheese, sour cream, ...'
p9
aS'Mar 2, 2015 - Photo: Bloomberg News. Por Sarah Nassauer. lunes, 2 de marzo de 2015 14:35 EDT. En Chipotle, si un cliente pide ms, los empleados sirven generosamente ...'
p10
a.