(lp0
S'Mar 30, 2015 - A New York federal judge has determined that some of the documents that plaintiffs in an overtime wage suit against Chipotle Mexican Grill Inc. demanded be ...'
p1
aS"Mar 30, 2015 - Becky Wolf of Skokie just loves Chipotle at Lincolnwood Town Center. That's why she comes to the ... News. Suburbs Lincolnwood Review Lincolnwood News ..."
p2
aS"Mar 30, 2015 - Just today, we were all sitting in News Cult HQ, thinking about all the shit we want to order from Chipotle, because who doesn't love Chipotle? It's a delicious ..."
p3
aS'Mar 30, 2015 - While Starbucks is a confirmed tenant, Chipotle is only a lease agreement, said Alan ... Please stop trying to spin the good news happening in South Augusta.'
p4
aS'Mar 29, 2015 - We asked three Motley Fool contributors to weigh in on two restaurant stocks to buy -- and one to skip. Andrs Cardenal: Chipotle Mexican Grill (NYSE:CMG) is ...'
p5
aS'Mar 30, 2015 - Chipotle in Edgewater Opens in Former Piser Funeral Home Lot. By Benjamin ... not yet leased. For more neighborhood news, listen to DNAinfo Radio here:.'
p6
aS'Mar 30, 2015 - Carnage, AKA "Papi Gordo," doesn\'t roll anywhere without his trusted Chipotle Gang. So when the squad comes through the THUMP Miami Beach House ...'
p7
aS'Mar 29, 2015 - The folks at Festival Foods show us how to make chipotle chicken potato skins. ... HOF: Local 5 Honors 4  Locker Room  The Green Room  Prep Sports News ...'
p8
aS"Mar 30, 2015 - The line outside Chipotle's new Macon restaurant forms just before it opens at 11 a.m. Monday."
p9
aS"Mar 30, 2015 - Purchasing 100 shares of Chipotle stock at $660.57 would cost an investor $66,570. That's a big chunk of change. But here's good news. Investors have another ..."
p10
a.