(lp0
S'Mar 3, 2015 - Chipotle CEO Monty Moran must personally address allegations that his ... in News. 81,584. Chipotle CEO to address charges of stiffing workers on wages ...'
p1
aS'Mar 3, 2015 - Chipotle is finally coming to SE Texas ... 28, 2014 file photo, shows the door on a Chipotle Mexican Grill in Robinson Township, Pa. .... Latest News Videos.'
p2
aS"Mar 4, 2015 - Business: Hold the carnitas: Chipotle's pork shortage hits Orange County | pork, ... Top news. Business ... Chipotle would not name the pork supplier in question."
p3
aS"Mar 3, 2015 - GREEN TOWNSHIP, Ohio (WKRC)  An employee at the Chipotle on Glenway ... Cincinnati NewsBelgians find elusive 'man in the hat' from airport video ..."
p4
aS'Mar 3, 2015 - Traders are exiting bets against Chipotle Mexican Grill Inc. amid speculation losses ... Janet Yellen, chair of the U.S. Federal Reserve, speaks during a news ...'
p5
aS'Mar 3, 2015 - Source: Chipotle Mexican Grill. The New York Times published an interesting article analyzing the calories consumed by the average customer at Chipotle ...'
p6
aS"Mar 4, 2015 - McDonald's is trying to be more like Chipotle, but it's hard to change perceptions."
p7
aS'Mar 4, 2015 - Chipotle Price Hike ... It would be the fourth Chipotle in the Syracuse area, joining restaurants in ... The latest Syracuse and CNY commercial and retail news.'
p8
aS'Mar 3, 2015 - Authorities are investigating a reported abduction overnight of a Chipotle worker at ... month for a local gay rights activist and Chipotle worker accused of faking his own .... News Minute: Here is the latest Ohio news from The Associated Press.'
p9
aS'Mar 3, 2015 - "A lot of the food options at Chipotle are actually pretty healthy," she says. That is the good news. But Chipotle "likes to go big," and monumental portions are not ...'
p10
a.