(lp0
S'Mar 5, 2015 - These chains also sell freedom of choice; at Chipotle Mexican Grill, for instance ... By Kevin Quealy, Amanda Cox and Josh Katz / New York Times News Service.'
p1
aS"Mar 5, 2015 - After 35 years of working for other restaurants, Mustafa Dakroub's ambition is to launch the Chipotle Mexican Grill of Mediterranean cuisine. Based in Detroit ..."
p2
aS"Mar 5, 2015 - Chipotle recently halted sales of pork to one-third of its restaurants due to a farmer ... The supplier (also known as a farmer) wasn't named; however, major news ..."
p3
aS"Mar 5, 2015 - Chances are, you woke up this morning glad to have the day off. Maybe you'll spend your snow day inside watching Netflix. Maybe you'll go sledding and have ..."
p4
aS'Mar 6, 2015 - Chipotle Mexican Grill, Inc. has seen choppy trading so far in 2015, and now an increasing concerning technical pattern in CMG stock has emerged.'
p5
aS"Mar 5, 2015 - McDonald's Plan of New CEO to Compete with Chipotle: Focus on Food Quality. Steve Pak ... News Great Firewall of China Bites Own 'Dad' in Ironic Incident."
p6
aS"Mar 5, 2015 - In other opening news, Spero (161 Meeting St.) opened it's doors on Tuesday. ... Those on the Chipotle countdown, it looks like you have another week to wait."
p7
aS'Mar 6, 2015 - Dan Caplinger picks Chipotle: After remaining on the sidelines far too long, I recently bought shares of Mexican food restaurant chain Chipotle Mexican Grill. My move was was inspired .... 2016 Cable News Network. A Time Warner Company.'
p8
aS"Mar 5, 2015 - I don't usually brag, but I'm better at Chipotle than you. ... I'm such a regular at the Chipotle near my house that one time I forgot my .... music industry | news."
p9
aS'Mar 5, 2015 - Chipotle demands that suppliers raise the animals in humane conditions with access to the outdoors instead of tight pens, Arnold told ABC News adding, The ...'
p10
a.