(lp0
S'Apr 13, 2015 - "She got great food, the manager told ABC News. Everybody loves Chipotle. This was just the second Clinton sighting in as many days. On Sunday night, the ...'
p1
aS'Apr 14, 2015 - Hillary Clinton made a Chipotle pitstop on her way from New York to Iowa ... General manager Charles Wright told the Daily News that Clinton was in his ...'
p2
aS'Apr 13, 2015 - Hillary Clinton is on the road  in a van  on the way to Iowa. And she made a very-low key stop Monday at a Chipotle in Maumee, Ohio. The 2016 presidential ...'
p3
aS'Apr 14, 2015 - Fox News host Andrea Tantaros suggested on Tuesday that Hillary Clinton visited the Mexican restaurant chain Chipotle while on the campaign trail this week in ...'
p4
aS'Apr 14, 2015 - Presidential candidate Hillary Clinton stopped at a Chipotle in Ohio and as ... Judge shocked by reaction to her tough love; News: | -68150 seconds ago. Undo.'
p5
aS"Apr 13, 2015 - A day after throwing her hat in the 2016 presidential ring, Hillary Clinton was seen ordering a chicken bowl with guacamole at a Chipotle's restaurant in Maumee ..."
p6
aS'Apr 13, 2015 - A photo taken of surveillance camera recordings and provided by an employee shows Hillary Rodham Clinton at a Chipotle in Maumee, Ohio, on Monday.'
p7
aS'Hillary Clinton Stops at Chipotle On Trip To Iowa | NBC Nightly News ... 2016 election road trip maintains a ...'
p8
aS"Apr 14, 2015 - Manager Charles Wright told ABC News that no one recognized Clinton in her shades. He only released a security video of Hillary's nosh stop after he was ..."
p9
aS"Apr 14, 2015 - On Fox News, the Outnumbered ladies and the designated Dude o' The Day had themselves a great laugh about Clinton's stop at Chipotle in Ohio on Monday."
p10
a.