(lp0
S'Mar 31, 2015 - Sure, Chipotle trades for 46 times trailing EPS -- but it still has massive ... Follow him on Twitter for the latest news and commentary on the airline industry!'
p1
aS"Who doesn't like a good burrito? That must have been what those crafty PR execs at Apple were telling themselves recently. Apple and Chipotle just shared ..."
p2
aS'Mar 31, 2015 - Chipotle offers signature menu items including burritos, tacos, burrito bowls (burritos minus the tortilla) and salads. Guests can choose from meats including ...'
p3
aS"Mar 31, 2015 - Chipotle has been the fastest-growing fast food chain in the last decade. ... Here's the Big Facebook News We Expect This Week ..."
p4
aS'Apr 1, 2015 - Burrito giant Chipotle just sent shockwaves through the fast-casual landscape with the announcement that, as of June of this year, they would no longer be ...'
p5
aS"Apr 1, 2015 - RECENT NEWS ... They came to the front counter, they said, 'Hi, we are from Chipotle to say we are hiring, and were wondering if anyone in your kitchen is ..."
p6
aS'Mar 31, 2015 - A Massachusetts federal judge on Monday rejected a bid by the U.S. Equal Employment Opportunity Commission to obtain sanctions against Chipotle Mexican ...'
p7
aS'Mar 31, 2015 - Chipotle #1248 - Patrick Henry Mall. : 12300 Jefferson Ave. Suite 200, Newport News VA 23602 : (757) 882-8313 : http://www.chipotle.com. Chipotle Mexican ...'
p8
aS"Mar 31, 2015 - Chipotle is now open in the food court on the second floor of the Shops at Liberty Place. The food court location is Center City's third Chipotle, joining the ..."
p9
aS"Apr 1, 2015 - Blaze Fast Fire'd Pizza, a fast-growing chain with celebrity investors that has been called the Chipotle of pizza, is opening its first location in upstate New York ..."
p10
a.