(lp0
S'Apr 20, 2015 - ... Hillary Clinton stopped in at a fast-food restaurant on her first official day of campaigning and got some bad news, to go. The staff at the Chipotle in Maumee, ...'
p1
aS'Apr 19, 2015 - Now Playing. Hillary\'s Chipotle campaign. This is a rush transcript from "MediaBuzz," April 19, 2015. This copy may not be in its final form and may be updated.'
p2
aS"Apr 20, 2015 - Despite its stock performance for the past three months, Chipotle has not lost momentum ... Access to Jim Cramer's daily blog; Intraday commentary and news ..."
p3
aS'Apr 20, 2015 - On April 18, Chipotle held its first Cultivate Festival in Arizona. The Cultivate Festival destinations differ each year, and this year the lineup of the three select ...'
p4
aS'Apr 20, 2015 - If you have a hankering for carnitas at Chipotle Mexican Grill, you might have to wait awhile until its return to some Connecticut ... Watch NBC Connecticut News.'
p5
aS"Apr 19, 2015 - ... Clinton and her staff planning her van trip to Iowa with a stop at a Chipotle in Ohio. ... MSNBC's 'Breaking News': Protester Says Cruz Is 'Right-Wing Bigot'."
p6
aS'Apr 19, 2015 - After "news" broke that Clinton, en route to Iowa to meet with voters, stopped in at an Ohio Chipotle for lunch and that the order was captured on film, the press ...'
p7
aS'Apr 19, 2015 - More about Panera. ARTICLE: Tracy OKs plans for Chipotle, Panera ... Posted in Tracy Press News, Tracy Press City on Sunday, April 19, 2015 7:30 am.'
p8
aS'Apr 20, 2015 - Chipotle Mexican Grill restaurants are currently facing a shortage of what the ... E. Cheese Brawl Details Emerge; Landmark Restaurant to Close: Nearby News.'
p9
aS"Apr 20, 2015 - Headline: Uber-Wealthy Hillary Leaves Pandering Tip at Chipotle, ... 5. 9 things Bernie Sanders should've known about but didn't in that Daily News interview ..."
p10
a.