(lp0
S'Apr 23, 2015 - We just got the best news of 2015: Chipotle is going to start offering delivery service. Are you ...'
p1
aS'Apr 24, 2015 - Chipotle is now offering delivery of online and mobile orders in 67 cities ... Related: Investors think Chipotle is too hot to handle .... 2016 Cable News Network.'
p2
aS"Apr 24, 2015 - Chipotle's CEO announced the news this week during a call with investors about its financial results. The service will be available in 67 cities, including New ..."
p3
aS"Apr 24, 2015 - Juliet Litman and David Jacoby talk about Chipotle and McDonald's developments and the latest listeria scare, and then eat some new candies. Listen to the ..."
p4
aS"Apr 24, 2015 - A quick search for the Morning News' newsroom at 508 Young Street showed two Chipotle restaurants that Postmates will deliver from. The Chipotle on 208 N."
p5
aS"Apr 23, 2015 - Chipotle has teamed up with the Postmates app to begin offering delivery for ... and mobile orders in 67 cities, according to a report in Nation's Restaurant News."
p6
aS"Apr 23, 2015 - Nation's Restaurant News reports that Chipotle is delivering in 67 cities using the app Postmates, which Starbucks is also using for its upcoming delivery service."
p7
aS"Apr 24, 2015 - A Chipotle delivery service called Postmates will be available in Charlotte on ... Chipotle itself doesn't offer delivery and announced the Postmates news in a ..."
p8
aS'Apr 23, 2015 - Chipotle has announced it will now offer delivery. The restaurant chain has agreed to a deal with a delivery start-up company, Postmates. The service.'
p9
aS'Apr 23, 2015 - Chipotle is now offering delivery through the startup app Postmates, making burrito lovers ... United Press International is a leading provider of news, photos and ...'
p10
a.