(lp0
S'Apr 27, 2015 - Chipotle says it has completed phasing out genetically modified ingredients from its food.'
p1
aS'Apr 27, 2015 - In an industry breakthrough, Chipotle has removed one of the things that consumers  particularly Millennials  want least in their food: GMOs. The Mexican fast-casual dining chain on Monday announced that it has become the first national restaurant chain to use only non-GMO ...'
p2
aS'Apr 27, 2015 - Chipotle said it\'s become the first national chain to get rid of all genetically modified or "GMO" ingredients from its food.'
p3
aS"Apr 27, 2015 - The news was devastating, sure, but not quite devastating enough to keep us from our ... NEWS: Chipotle is delivering now and it's going to change the world."
p4
aS'Apr 27, 2015 - Chipotle Mexican Grill Inc. has eliminated genetically modified organisms from all its ingredients, an unprecedented move for a national U.S. restaurant chain ...'
p5
aS'Apr 27, 2015 - Company now shifting focus to creating an even better tortilla. DENVER --(BUSINESS WIRE)--Apr. 27, 2015-- Chipotle Mexican Grill (NYSE: CMG) has achieved ...'
p6
aS"Apr 28, 2015 - Biotech titan Monsanto will use its typical outrageous tactics against Chipotle in light of the company's GMO free news."
p7
aS'Apr 28, 2015 - Hold the GMO on that burrito. Chipotle announced that genetically modified ingredients are a thing of the past. After promising to remove GMO offerings from its ...'
p8
aS'Apr 27, 2015 - Chipotle says it has completed phasing out genetically modified ingredients from its food. The Denver-based chain had already been using mostly non-GMO ...'
p9
aS"Apr 28, 2015 - Chipotle founder and co-CEO Steve Ells tells CNNMoney's Cristina Alesci why ... Chipotle CEO: We have the power to raise prices ... 2016 Cable News Network."
p10
a.