(lp0
S'Apr 29, 2015 - Chipotle says it has completed phasing out genetically modified ingredients ... Concerned residents rally to oppose moving Metro police headquarters. News ...'
p1
aS"Apr 28, 2015 - Chipotle founder and co-CEO Steve Ells tells CNNMoney's Cristina Alesci why ... Chipotle CEO: We have the power to raise prices ... 2016 Cable News Network."
p2
aS"Apr 29, 2015 - Chipotle burritos can run more than 1000 calories. CNNMoney's Cristina Alesci asked Chipotle Founder Steve Ells how the ... 2016 Cable News Network."
p3
aS"Apr 28, 2015 - Biotech titan Monsanto will use its typical outrageous tactics against Chipotle in light of the company's GMO free news."
p4
aS'Apr 28, 2015 - As of March 27, 2015, Chipotle Mexican Grill became the first national restaurant company to use only non-GMO ... YOUR Health and Wellness News ...'
p5
aS"Apr 28, 2015 - Is this really feasible? Does it make sense? Chipotle dumps GMOs: Why the fast food chain's latest achievement is so unprecedented - Salon.com. Chipotle,"
p6
aS'Apr 28, 2015 - Hold the GMO on that burrito. Chipotle announced that genetically modified ingredients are a thing of the past. After promising to remove GMO offerings from its ...'
p7
aS'Apr 28, 2015 - Is your Chipotle burrito healthier now that the chain ditched ingredients containing genetically modified organisms?'
p8
aS'Apr 28, 2015 - Starting this week, Chipotle is serving only non-GMO food in all 1700 of its locations. The Mexican fast food chain has been a trailblazer when it comes to ethical ...'
p9
aS"Apr 29, 2015 - Not everyone is happy about Chipotle's recent decision to ditch GMOs, or genetically modified ingredients, in most of its food. The company's move runs contrary ..."
p10
a.