(lp0
S'Apr 6, 2015 - Midland Retail has signed Chipotle, Supercuts and AT&T; for a new 11444-square-foot retail center planned at the corner of Liberty ... Hamilton Journal News ...'
p1
aS'Apr 6, 2015 - LOCO is priced to be the next Chipotle despite the expansionary headwinds. ... However, this pop seems to be a case of investors thinking that any news is good ...'
p2
aS'Apr 6, 2015 - Not Chipotle; they eat at the top notch local Mexican joints." ... The new opening date is definite, said Anna Mahoney, 46, who owns the restaurant with her husband, Darren. ... Two longtime Yakima Valley real estate agents have teamed up to take over half of Heritage Moultray Real Estate ...'
p3
aS"Apr 5, 2015 - A dating survey reveals Americans' favorite first-date locations, with chains like Buffalo Wild Wings and Chipotle in the top 10. Mike Janela (@mikejanela) finds ..."
p4
aS'Apr 5, 2015 - In Defense of Chipotle (But Maybe Not Basic Bitches). About Latest Posts Jessica RodriguezCo-Editor at The Daily Ramen21, is an independent woman of ...'
p5
aS'Apr 6, 2015 - Chipotle has made the first mark on an upcoming commercial project at Reynolds Crossing, the ... Home  News ... Chipotle spices up Henrico development.'
p6
aS'Apr 6, 2015 - Related news. (Chipotle). Has Chipotle Mexican Grill Reached \'Peak Burrito\'? 4/07/2016 Chipotle Mexican Grill has filed for a trademark on the "Better Burger" ...'
p7
aS"Apr 6, 2015 - Chipotle Mexican Grill today announces a new, text-to-win sweepstakes offering a trip to attend a Tough ... At Oberlin, foodies seek a 'safe space' - Fox News."
p8
aS"Apr 6, 2015 - Chipotle is moving into a new commercial space at Reynolds Crossing. ... Get Mike's forecast on CBS 6 News at Noon and at 6 and 11 p.m. Saturday and ..."
p9
aS'Apr 6, 2015 - Starbucks took the top spot, while Chipotle, Panera Bread and The Cheesecake Factory all made .... How Fox News Unwittingly Destroyed the Republican Party ...'
p10
a.