(lp0
S'Apr 8, 2015 - Chipotle says there\'s no "quick fix" its "carnitas" shortage, partly because is it takes six ... menu option today, Chipotle spokesman Chris Arnold told ABC News.'
p1
aS'Apr 7, 2015 - Employees prepare orders at a Chipotle Mexican Grill in Hollywood, California. ... Niman Ranch, Chipotles top pork supplier, has boosted shipments in the aftermath of the suspension, but it hasnt been enough to close the gap, Arnold said. You might think pig farmers would be ...'
p2
aS'Apr 8, 2015 - Americans have turned to Chipotle Mexican Grill (CMG) to fill up on humanely raised meat and premium ingredients, fueling its fast growth. The only problem?'
p3
aS'Apr 8, 2015 - Chipotle continues to suffer carnitas shortages at many locations around the U.S. after it ... Reuters Signs a News Deal with Red Bull, But Is That a Good Thing?'
p4
aS"Apr 7, 2015 - Industry News Retailing & Restaurants. Chipotle competitor Moe's wants to open more Twin Cities stores. Apr 7, 2015, 1:21pm CDT. Industries & Tags: Retailing ..."
p5
aS'Apr 7, 2015 - Turns Out Chipotle Is a Totally Acceptable Place for a First Date. By Allison .... If you want to date out of your league, we have some bad news for you. 10:33 a.m. ...'
p6
aS'Apr 8, 2015 - Most Popular First Date Spots: Starbucks and Chipotle ... Well Rounded: Complex News + Niykee Heaton on DMs, Buffet Etiquette, and Self-Directed Music ...'
p7
aS"Apr 7, 2015 - Chipotle Co-CEO Monty Moran on the factors driving the restaurant chain's success. ... From breaking news to interviews with key newsmakers, watch must-see ..."
p8
aS"Apr 8, 2015 - ADVERTISEMENT. Chipotle Co-CEO Monty Moran on the factors driving the restaurant chain's success. ... 2016 FOX News Network, LLC. All rights reserved."
p9
aS"Apr 7, 2015 - A recent poll puts Starbucks as America's #1 first date spot, then Chipotle."
p10
a.