(lp0
S'May 11, 2015 - Sporting News ... Cincinnati uses close proximity to Chipotle as recruiting pitch ... which involves a player snatching a burrito out of the air with Chipotle lurking in ...'
p1
aS"May 11, 2015 - Today's real-time CMG ETF quote Chipotle Mexican Grill Inc Class A ticker symbol CMG price, news, holdings, asset allocations, sectors, distributions."
p2
aS'May 11, 2015 - Chipotle draws shareholder activism. May 11, 2015. The comptroller of New York City has targeted Chipotle Mexican Grill as one of about 75 ... Latest News.'
p3
aS"May 11, 2015 - MailOnline US - news, sport, celebrity, science and health stories ... What Bill Clinton said when he saw Hillary in Chipotle: 'What are she and Huma doing?"
p4
aS'May 11, 2015 - Breaking News. Morning Squawk. Evening Brief ... Global Business and Financial News, Stock Quotes, and Market Data and Analysis. Data also provided by.'
p5
aS"May 11, 2015 - Chipotle has done a pretty good job ignoring Mexican culture. ... Immigration News 2016 Today: GOP Senators Challenge Obama's Immigration Executive ..."
p6
aS'May 11, 2015 - The Gold Standard - If you want to be like Chipotle you just have to follow its recipe for success, which includes two main ingredients: its food and its people.'
p7
aS'May 10, 2015 - Local News, Sports, Obituaries, and Classifieds for Wilkes-Barre, PA. ... Chipotle Mexican Grill was first opened in 1993 in Denver, Colorado, by Steve Ells.'
p8
aS'May 11, 2015 - Twitter Facebook Email More. A Chipotle kitchen aught fire on May 11, 2015, officials said. ... Get our daily Midtown & Theater District news and alerts! Subscribe.'
p9
aS'May 10, 2015 - Springfield restaurateur Steve Zhao described his newest venture as an Asian spin on Chipotle Mexican Grill before opening Wasabi Japanese Kitchen in ...'
p10
a.