(lp0
S'May 20, 2015 - Chipotle Mexican Grill made news recently when the fast casual restaurant chain announced that it was serving only foods made with non-GMO ingredients.'
p1
aS'May 20, 2015 - The decision of the Chipotle restaurant chain to make its product lines .... which is the publisher of Independent Science News (independentsciencenews.org).'
p2
aS"May 20, 2015 - FAIRBANKS  For the past few weeks, it's seemed like Chipotle, the Mexican, fast-casual chain restaurant, has been in the headlines every couple of days."
p3
aS'May 20, 2015 - The mainstream news media has launch a coordinated attack against Chipotle for going GMO free because the biotech industry led by Monsanto has attacked ...'
p4
aS'May 20, 2015 - 28, 2014 file photo shows the door of a Chipotle Mexican Grill in Robinson ... None of them passed, the Chipotle filings said. ... Submit a news tip or photo.'
p5
aS'May 20, 2015 - Chipotle Mexican Grill is sounding serious about coming to Sioux Falls.'
p6
aS'May 20, 2015 - Colorado Chipotle Employees Allege Unfair Payment Practices ... across the country, U.S. Department of Labor investigation records obtained by I-News show.'
p7
aS"May 19, 2015 - There's some bad news coming for Chipotle Mexican Grill fans: Prices for some of its signature items will probably be inching higher this summer."
p8
aS"May 20, 2015 - Chipotle is a popular spot for catching a quick and tasty meal, but it's also an employer looking to fill ... South Bend Indiana | WNDU 16 | News, Weather, Sports."
p9
aS"May 20, 2015 - Chipotle is doing far better than McDonald's, but the Golden Arches look more attractively valued. Which one is a better buy at current prices?"
p10
a.