(lp0
S"May 22, 2015 - The burger chain made an investment in Chipotle in 1998 that helped it grow from 14 locations to nearly 500 within seven years. By 2005, McDonald's had a ..."
p1
aS'May 21, 2015 - Non-GMO News Briefs on Chipotle, Dr. Oz, Glyphosate, & More. By Melissa Diane Smith. The last few months there has been so much news about genetically ...'
p2
aS"May 22, 2015 - Chipotle is technically less appealing than Brinker, as it sets up for a move to the downside. ... Access to Jim Cramer's daily blog; Intraday commentary and news ..."
p3
aS"May 21, 2015 - Chipotle's decision may compel other food brands to follow suit. ... This article was originally published in Independent Science Newsunder a Creative ..."
p4
aS"May 22, 2015 - Home  Us News  The ridiculous reason McDonald's sold Chipotle and missed ... The burger chain made an interest in Chipotle in 1998 that helped it develop ..."
p5
aS"The youngest restaurateur in Chipotle's history has had a meteoric rise. Find out how ... Follow CNBC News on ..."
p6
aS'May 22, 2015 - Cramer has some bad news for those who love to eat Egg McMuffins. ... If investors want to understand how a company like Chipotle can continue to crush the ...'
p7
aS'May 22, 2015 - Um, is anyone from Chipotle watching right now? ... And the one we loved the most asked Jake what his Chipotle order is. ... News & Gossip  Quizzes & Polls.'
p8
aS'May 21, 2015 - Its multiple to 2016 estimated EBITDA of $20 million is roughly 165 times. Chipotle, on the other hand, will generate EBITDA approaching $1.2 billion in 2016.'
p9
aS'May 22, 2015 - Chipotle Mexican Grill and Vocelli Pizza appear to be slated for the Cowan Crossing development ... Chipotle has applied for a Virginia ABC license for an establishment to be built at 1601 .... News Galleries Feature Galleries Sports Galleries.'
p10
a.