(lp0
S"May 27, 2015 - Chipotle, Monster Beverage and Lululemon are losing their front-runner status. ... Access to Jim Cramer's daily blog; Intraday commentary and news; Real-time ..."
p1
aS"May 28, 2015 - Chipotle (CMG) stock is trading in the green after Miller Tabak raised its rating to 'buy' from ... Access to Jim Cramer's daily blog; Intraday commentary and news ..."
p2
aS"May 27, 2015 - In the realm of burgers and burritos, two companies reign supreme: McDonald's Corporation (NYSE:MCD) and Chipotle Mexican Grill (NYSE:CMG). These two ..."
p3
aS"May 28, 2015 - Incredible: Chipotle Is Paying For This Couple's Wedding, And All They Expect ... Chipotle has really done something special for Trevor and Ashley. .... Can You Make Bruce Springsteen Sick Enough To Cancel A Concert? April 7, 2016. News ..."
p4
aS'May 28, 2015 - The Greene Turtle, Chipotle, Panda Express, Kiku Steak House coming to Westown.'
p5
aS'May 27, 2015 - The two co-chief executives of Chipotle Mexican Grill portioned out some holdings, selling 210,075 shares of the quick-service restaurant for $132,700,244, ...'
p6
aS"May 28, 2015 - An upgrade from Miller Tabak is sending Chipotle Mexican Grill (CMG) ... The stock doesn't pay a dividend, but all this upside could be good news in terms of ..."
p7
aS'May 28, 2015 - There is a lot of debate about genetically modified foods, Chipotle founder and ... Of course, Chipotle is only one restaurant, but the news was significant, said ...'
p8
aS'May 28, 2015 - Two major Wall Street research firms weighed in on Chipotle Mexican Grill, Inc. ... Obama Storms Fox News And Destroys GOP Clinton Email Conspiracy Theory.'
p9
aS'May 28, 2015 - From Yahoo Finance: Zacks Industry Outlook Highlights: Starbucks, Chipotle Mexican ... Increase in demand for a commodity is always good news for producers.'
p10
a.