(lp0
S'May 5, 2015 - Lisa Wortman, who operates Wortman Property Inc. with her husband John, presented details of a proposal to locate a Chipotle Mexican Grill in Effingham.'
p1
aS'May 6, 2015 - The accident happened at 8:34 p.m. inside the Chipotle restaurant on South Kings Drive in Midtown, according to a .... news delivered right to your inbox!'
p2
aS'May 6, 2015 - Chipotle\'s recent ban on genetically modified ingredients is facing mounting criticism. The move, which was initially praised, is being called "bad science" and ...'
p3
aS'May 6, 2015 - If I asked my friends to tell me what US news stories were most important during the month of April, they would probably jump straight to the riots in Baltimore or ...'
p4
aS'May 6, 2015 - Everyone who has been to Chipotle knows that guacamole costs extra. The question becomes: ... The Week in Food News: May 4  10. You are on the first post ...'
p5
aS'May 5, 2015 - Chipotle Mexican Grill will be opening a location in Derby by late 2015, ... This is great news and a good addition to the Marketplace, he said in an email.'
p6
aS'May 6, 2015 - ... at a state burn center after she was burned by hot oil at a Midtown Chipotle. ... Eyewitness News reporter Tina Terry asked the manager what went wrong, but ...'
p7
aS"May 5, 2015 - TIME: Why Chipotle Mexican Grill Going GMO-Free is Terrible News NATIONAL GEOGRAPHIC:What Chipotle's Ban on GMOs Says About Us SLATE: Chipotle ..."
p8
aS'May 6, 2015 - Chipotle has reveled the recipe for its famous guacamole.'
p9
aS'May 5, 2015 - But for a number of companies  from publicly traded giants such as Chipotle and Whole Foods, to high-growth startups such as Birchbox and Warby Parker ...'
p10
a.