(lp0
S'May 6, 2015 - The accident happened at 8:34 p.m. inside the Chipotle restaurant on South Kings Drive in Midtown, according to a .... news delivered right to your inbox!'
p1
aS'May 6, 2015 - If I asked my friends to tell me what US news stories were most important during the month of April, they would probably jump straight to the riots in Baltimore or ...'
p2
aS'May 6, 2015 - Everyone who has been to Chipotle knows that guacamole costs extra. The question becomes: ... The Week in Food News: May 4  10. You are on the first post ...'
p3
aS'May 6, 2015 - Chipotle\'s recent ban on genetically modified ingredients is facing mounting criticism. The move, which was initially praised, is being called "bad science" and ...'
p4
aS'May 6, 2015 - ... at a state burn center after she was burned by hot oil at a Midtown Chipotle. ... Eyewitness News reporter Tina Terry asked the manager what went wrong, but ...'
p5
aS'May 7, 2015 - A Chipotle customer was burned and rushed to the hospital when workers at the restaurant dropped gallons of ... Woman badly burned at Chipotle ... More News ...'
p6
aS'May 6, 2015 - Chipotle has reveled the recipe for its famous guacamole.'
p7
aS"May 7, 2015 - Chipotle Mexican Grill (NYSE:CMG) made big news on Monday. In fact, it's a move that could help propel Chipotle stock to new highs in the coming years."
p8
aS'May 7, 2015 - Last week, Chipotle made major news again by setting a new benchmark for quality-focused restaurants to target: the elimination of genetically modified ...'
p9
aS"May 7, 2015 - DERBY, Kan.  Fast casual restaurant Chipotle Mexican Grill is opening in Derby. The restaurant, which is opening in the city's Marketplace, will create 25 to 30 ..."
p10
a.