(lp0
S'Jun 17, 2015 - How to Eat Healthy At... Chipotle. 06/17/2015 05:26 pm ET | Updated Jun 17, 2015 ... FOR YOU. How Fox News Unwittingly Destroyed the Republican Party ...'
p1
aS"Jun 17, 2015 - Chipotle's float and free pins at Philly's gay pride parade were absolutely genius."
p2
aS'Jun 18, 2015 - Chipotle plans to open up a restaurant at a newly-built shopping center on Northern Boulevard and ... Get our daily Jackson Heights & Elmhurst news and alerts!'
p3
aS"Jun 18, 2015 - McDonald's is going after the wrong customers. The burger chain is trying to steal market share from fast-casual chains such as Chipotle by adding more ..."
p4
aS'Jun 18, 2015 - Chipotle Mexican Grill has joined Starbucks in offering hourly workers tuition ... (Photo : Joe Raedle| Getty Images News) Chipotle Restaurant Workers Fill ...'
p5
aS'Jun 17, 2015 - PANAMA CITY BEACH  A building that will house Chipotle Mexican Grill and other ... By JOHN HENDERSON | News Herald Writer | Twitter: @pcnhjohn.'
p6
aS"Jun 18, 2015 - Chipotle Is Testing Tortillas That Feature ONLY 4 Ingredients. Food News 6/18/2015. Peter Pham. Chipotle-Delivery. It seems everyone's trying to go healthier ..."
p7
aS'Jun 17, 2015 - In addition to being constantly on most of our hungry minds, Chipotle has been extra prominent in the news lately  what with the guacapocalypse scare of ...'
p8
aS'Jun 17, 2015 - The Chipotle Mexican Grill restaurants serve a focused menu of burritos, tacos ... food giveaways as customers slowly return. 16 Mar 2016.  More CMG.N News ...'
p9
aS"Jun 18, 2015 - Chipotle Mexican Grill  Major Announcement Of Benefits. ... Chipotle workers, yelp.com. Last week ... Host of WMFE's Intersection & Assistant News Director."
p10
a.