(lp0
S'Jun 20, 2015 - A driver in her 60s crashed into a Chipotle restaurant, injuring eight people. Angie Crouch reports for the NBC4 News at 5 p.m. on Friday, June 19, 2015.'
p1
aS'Jun 19, 2015 - BREAKING NEWS Track the rain with the LIVE Megadoppler 7000 HD ... Firefighters respond to a crash at a Chipotle in the 4500 block of Pico Boulevard in the ...'
p2
aS'Jun 19, 2015 - Eight people were hospitalized Friday after a car crashed into a Chipotle restaurant during lunchtime in the Mid-City area of Los Angeles. ... Filed in: Local News.'
p3
aS'Jun 19, 2015 - LAFD: 8 Injured After Car Crashes Into Mid-City Chipotle ... MID-CITY (CBSLA.com)  A car crashed into a Mid-City Chipotle restaurant Friday, ... MORE NEWS.'
p4
aS'Jun 19, 2015 - Several customers inside a Chipotle restaurant in Mid-City suffered minor injures Friday when a vehicle ... For more Southern California news follow @LATVives.'
p5
aS'Jun 19, 2015 - Chipotle Mexican Grill Inc. grew its already substantial domestic same-store sales by ... You can access more in-depth stories and analysis, as well as news not ...'
p6
aS"Jun 19, 2015 - Chipotle, Dunkin' Should Watch Out for These Smaller Rivals ... Access to Jim Cramer's daily blog; Intraday commentary and news; Real-time trading forums."
p7
aS"Jun 18, 2015 - McDonald's is going after the wrong customers. The burger chain is trying to steal market share from fast-casual chains such as Chipotle by adding more ..."
p8
aS'Jun 19, 2015 - ... Into Chipotle, Injuring 8. by Carman Tse in News on Jun 19, 2015 2:53 pm ... A car crashed into a Chipotle in Mid-City, injuring eight people. According to the ...'
p9
aS'Jun 18, 2015 - Chipotle plans to open up a restaurant at a newly-built shopping center on Northern Boulevard and ... Get our daily Jackson Heights & Elmhurst news and alerts!'
p10
a.