(lp0
S"Jun 24, 2015 - Chipotle opened its first restaurant in 1993 and now has more than 1,800, including ... Here's the company's background, as stated in one of its news releases."
p1
aS'Jun 24, 2015 - Chipotle Mexican Grill plans to open two more restaurants in the Charleston area after opening one downtown on King .... Latest Sky Sports News Headlines ...'
p2
aS"Jun 24, 2015 - Yale University's rare-books library is now collecting Chipotle cups. Chipotle has a collection of cups with short stories and essays. Payton Guion; Wednesday ..."
p3
aS'Jun 23, 2015 - Home ; News ; Local News. Chipotle requests permit to open in Ukiah. Chipotle is looking to build a restaurant on this vacant lot at the corner of Orchard ...'
p4
aS'Jun 23, 2015 - A creamy chipotle reduction simmers while the ears roast, adding a mix of creamy, smoky sweetness to the corn, with a topping of nutty grated parmesan.'
p5
aS"Jun 24, 2015 - The sofritas  Chipotle's name for what we can only assume is actually tofu  taste like a big lump of coal."
p6
aS"Jun 24, 2015 - As long as they're from Chipotle. And have ... Chipotle's cups and bags featuring the work of famous writers. ... Book news and more; I'm @paperhaus on Twitter."
p7
aS'Jun 24, 2015 - Del Taco Is Throwing Bacon And Chipotle Salsa On Their Cheese Fries. Food News 6/23/2015. Isai Rocha. cheddarfries. Del Taco is not only spicing up their ...'
p8
aS"Jun 24, 2015 - The Big Macs' side of the bed has been replaced with Chipotle, Five Guys, Freshii and fast casual restaurants promising better ingredients, customizable meals ..."
p9
aS'Jun 24, 2015 - News, weather, traffic and sports for Harrisburg, Pa. Also York, Lancaster ... Tammy Kerr with Wildtree prepared Chipotle Citrus Jumbo Shrimp on Good Day PA.'
p10
a.