(lp0
S"Jun 26, 2015 - Search. News; Popular; Videos; Fortune 500 ... Chipotle after gay marriage decision: 'Homo Estas?' by; Benjamin ... Chipotle (@ChipotleTweets) June 26, 2015."
p1
aS'Jun 26, 2015 - Love wins  this awful Chipotle brand tribute does not ... Topics: Chipotle, brand fail, Life News ... @ChipotleTweets I am never eating at Chipotle again.'
p2
aS'Jun 26, 2015 - Chipotle Mexican Grill , the leader in the fast casual U.S. restaurant industry, is in an excellent position at the moment, with 81% revenue growth in the last 3 ...'
p3
aS'Jun 26, 2015 - Midland Retail has so far signed Chipotle, Supercuts and AT&T for the new ... in talks with other potential tenants as well, Austing previously told Journal-News.'
p4
aS"Jun 25, 2015 - Developer confirms Chipotle, other stores ... Those include The Habit Burger Grill, Chipotle Mexican Grill, Jimmy John's Gourmet ..... Lee Central Califorina News."
p5
aS"Jun 26, 2015 - Amazon, Chipotle, and Netflix look like powerful candidates to buy based on Peter Lynch's."
p6
aS'Jun 25, 2015 - Tech News, Reviews & Analysis ... Postmates, the delivery startup that counts Chipotle, Apple and Starbucks among its partners, has raised an $80 million ...'
p7
aS'Jun 25, 2015 - MARTINSBURG  A Chipotle Mexican Grill and a Panda Express are coming to Martinsburg at the Shoppes at Foxcroft.'
p8
aS'Jun 25, 2015 - From Chipotle to the Runway: The Unlikely Modeling Career of Angel Rutledge .... Vogue Runway - Daily fashion news, runway coverage, street style, and more.'
p9
aS'Jun 26, 2015 - Chipotle partnered with Tough Mudder for a text message sweepstakes. ... to message their loyal customers about other news and offers related to their brand.'
p10
a.