(lp0
S'Jun 1, 2015 - Limited-edition gift cards generate money to support (RED); celebrity chefs and TV personalities create original recipes using Chipotle ingredients to support the ...'
p1
aS'Jun 2, 2015 - Chipotle Mexican Grill has chosen Kansas City as the test market for a new menu item: chorizo. The Mexican-style fresh ... Splash News  The Wizarding World ...'
p2
aS'Jun 2, 2015 - Chipotle announced this week that it is adding a new meat option, chorizo, to the ..... NY Daily News Claims FDR Unfit to Be President: "No Concrete Plans, Only ...'
p3
aS"Jun 2, 2015 - Here's the Big Facebook News We Expect This Week ... Chipotle will begin offering chorizo as a protein option in Kansas City on Tuesday, as a test run for the ..."
p4
aS'Jun 2, 2015 - In a relatively a rare move for Chipotle Mexican Grill, Chipotle began testing a new ... Global Business and Financial News, Stock Quotes, and Market Data and ...'
p5
aS"Jun 2, 2015 - Beginning Tuesday, Kansas City's 33 Chipotle locations will be rolling out the new ingredient, and let's hope it tests well. ... Abby Johnston. June 2, 2015 News."
p6
aS'Jun 2, 2015 - Chipotle Mexican Grill Inc. began a test Tuesday of a new chorizo protein ... You can access more in-depth stories and analysis, as well as news not found on ...'
p7
aS'Jun 2, 2015 - Chipotle rarely makes any changes to its menu. But if you live in Kansas City, you can start shaking up your burrito bowls now. The Kansas City Star reports the ...'
p8
aS'Jun 2, 2015 - Chipotle might be adding chorizo to its menu. The burrito chain is testing the Mexican-style sausage  which consists of ground chicken and pork with paprika, ...'
p9
aS'Jun 1, 2015 - At least one college football team has used its nearby Chipotle as a ... Chipotle has set up shop near just about every college campus because ... Latest News.'
p10
a.