(lp0
S'Jun 5, 2015 - Chipotle Mexican Grill Inc. will expand benefits formerly reserved for salaried workers, ... You can access more in-depth stories and analysis, as well as news not ...'
p1
aS'Jun 4, 2015 - Chipotle may still be reeling from its pork shortage but the popular Mexican Grill is introducing a new meat item in a select marketchorizo sausage. ... Last fall, Chipotle introduced tofu-based sofritas, originally tested in San Francisco, the soy product has now become a national ...'
p2
aS'Jun 4, 2015 - DENVER --(BUSINESS WIRE)--Jun. 4, 2015-- Chipotle Mexican Grill, Inc. (NYSE: CMG) today announced that it will host a conference call to discuss second ...'
p3
aS"Jun 5, 2015 - Chipotle's hourly workers are about to get a serious boost in benefits. According to Nation's Restaurant News, the burrito chain is expanding the benefits that ..."
p4
aS'Jun 5, 2015 - A spokeswoman for Denver, Colorado-based Chipotle Mexican Grill confirmed that the company will open a location at 2313 N. Main St. in the first quarter of ...'
p5
aS"Jun 5, 2015 - ALL CHIPOTLE EMPLOYEES Will Now Get Tuition And Vacations Paid. Food News 6/5/2015. Isai Rocha. chipot. While earlier this week Taco Bell said it'd be ..."
p6
aS'Jun 5, 2015 - That could be bad news for an already weak recovery, which slowed in the first quarter. ... But there could be another reason for the productivity plunge: Chipotle.'
p7
aS'Jun 4, 2015 - At Chipotle Mexican Grill, eating burritos have philanthropic benefits. From 11 a.m.  10 p.m. Saturday, June 6, all Atlanta-area Chipotle restaurants will come ...'
p8
aS'Jun 4, 2015 - Subway is facing fiercer competition from fast-casual chains such as Panera Bread Co. and Chipotle Mexican Grill Inc., which tout the purity of their menus.'
p9
aS"Jun 4, 2015 - Subway Goes All-Natural as Industry Follows Chipotle's Lead. Drops Artificial Flavors, Colors and ... is owned by Doctor's Associates Inc. ~ Bloomberg News ~ ..."
p10
a.