(lp0
S'Jun 8, 2015 - All employees, including part-time workers, at Chipotle Mexican Grill Inc. will ... A spokeswoman for Chipotle confirmed the policy change to ABC News today.'
p1
aS'Jun 8, 2015 - Chipotle executives first announced the news at a human resources convention in Dallas last week, according to a report in Restaurant News. The report cites ...'
p2
aS"Jun 8, 2015 - The wonderful people who give you those delicious burrito bowls at Chipotle just got an upgrade. Nation's Restaurant News reports that every worker at Chipotle ..."
p3
aS"Jun 8, 2015 - Chipotle Mexican Grill just gave employees another reason to love working there ... Chipotle recruitment strategy manager, told Nation's Restaurant News."
p4
aS"Jun 8, 2015 - Chipotle Mexican Grill Inc. has become the latest company with national operations to expand tuition benefits to all employees. Nation's Restaurant News ..."
p5
aS'Jun 8, 2015 - ABC News reports Chipotle Mexican Grill Inc. will provide full benefits to all workers beginning July 1. Chipotle hopes its change in the benefits policy, which ...'
p6
aS"Jun 8, 2015 - Chipotle Mexican Grill next month is planning to offer tuition reimbursement and ... manager quoted by Nation's Restaurant News, the benefits will help Chipotle ..."
p7
aS'Jun 8, 2015 - Chipotle will be offering tuition reimbursement to its part-time employees. ... Food | News. Share Tweet Email ... Ever thought of seeking employment at Chipotle?'
p8
aS"Jun 8, 2015 - Chipotle made a name for itself by selling ethically raised meat  now, the fast-food ... have been promoted internally, according to Nation's Restaurant News."
p9
aS'Jun 8, 2015 - A spokeswoman for Denver, Colorado-based Chipotle Mexican Grill confirmed that the company will open a location at 2313 N. Main St. in the first quarter of ...'
p10
a.