(lp0
S'Jun 8, 2015 - All employees, including part-time workers, at Chipotle Mexican Grill Inc. will ... A spokeswoman for Chipotle confirmed the policy change to ABC News today.'
p1
aS'Jun 9, 2015 - Our news partners at Wicked Local reported Valedictorian Vivian Ling issued an apology via her public Twitter account, which was later quoted in a release sent ...'
p2
aS"Jun 9, 2015 - Chipotle is following in some fast food restaurants footsteps and offering expanded ... recruitment strategy manager at Chipotle, told Nation's Restaurant News."
p3
aS'Jun 8, 2015 - Chipotle executives first announced the news at a human resources convention in Dallas last week, according to a report in Restaurant News. The report cites ...'
p4
aS"Jun 8, 2015 - The wonderful people who give you those delicious burrito bowls at Chipotle just got an upgrade. Nation's Restaurant News reports that every worker at Chipotle ..."
p5
aS"Jun 9, 2015 - Chipotle Mexican Grill is set to give all employees, including part-time workers, ... up to the IRS's limit of $5,250 per year, according to Nation's Restaurant News."
p6
aS"Jun 9, 2015 - NEWS NOW. Walpole Historical Society and Recreation Department to sponsor Walpole ... Walpole High valedictorian plagiarized 'Chipotle' graduation speech ..."
p7
aS"Jun 8, 2015 - Chipotle Mexican Grill Inc. has become the latest company with national operations to expand tuition benefits to all employees. Nation's Restaurant News ..."
p8
aS"Jun 9, 2015 - Chipotle recently said they' plan to expand worker benefits like paid sick leave ... The news was first reported by industry publication Nation's Restaurant News."
p9
aS'Jun 8, 2015 - ABC News reports Chipotle Mexican Grill Inc. will provide full benefits to all workers beginning July 1. Chipotle hopes its change in the benefits policy, which ...'
p10
a.