(lp0
S"Jul 13, 2015 - The second-half of 2015 is looking up for lovers of Chipotle's carnitas style pork."
p1
aS"Jul 13, 2015 - Great news for people screaming for the return of Chipotle's carnitas: The chain's gotten crafty, found an unlikely supplier, and promises things will be back to ..."
p2
aS"Jul 14, 2015 - When Chipotle stopped selling carnitas in some locations last year because a pork supplier wasn't meeting its ethical standards, it was sad news for customers."
p3
aS'Jul 13, 2015 - Their support will be tested as companies respond by raising the price of food. posted on Jul. 13, 2015, at 9:53 a.m.. Venessa Wong. BuzzFeed News Reporter.'
p4
aS'Jul 13, 2015 - In trading on Monday, shares of Chipotle Mexican Grill Inc (Symbol: CMG) crossed above their 200 day moving average of $654.84, ... Market News, Investing.'
p5
aS"Jul 13, 2015 - Chipotle's Carnitas Shortage Has Finally Come to a Close .... that Chipolte is, http://www.meatingplace.com/Industry/News/Details/59705?allowguest=true."
p6
aS"Jul 14, 2015 - Cramer always circles back to high-growth stocks Netflix, Chipotle and Fitbit after any ... Access to Jim Cramer's daily blog; Intraday commentary and news ..."
p7
aS"Jul 13, 2015 - Chipotle has signed up a new pork supplier to fill a gap that, at one time, affected about a third of the chain's ... 17 facts about FOX News anchor Megyn Kelly."
p8
aS'Jul 13, 2015 - Industry News - PM. Chipotle goes across the pond for pork; allows antibiotics use. Facebook Tweet LinkedIn Email ShareThis. Comment comment email editors ...'
p9
aS'Jul 13, 2015 - Chipotle Mexican Grill Inc. has added a British pork supplier, helping ease a ... Chipotle Adds British Pork Supplier to Ease Carnitas Shortage ... Back to news.'
p10
a.