(lp0
S'Jul 15, 2015 - Friend or Faux reinforces the beauty of simplicity in food by contrasting Chipotle ingredients with fast food. DENVER --(BUSINESS WIRE)--Jul. 15, 2015-- On ...'
p1
aS'Jul 15, 2015 - If you answered yes to any or all of these questions, do I have some exciting news for you! On July 21, Chipotle will be launching a new interactive experience ...'
p2
aS"Jul 15, 2015 - Chipotle game to compare ingredients with brand's competitors ... You can access more in-depth stories and analysis, as well as news not found on any other ..."
p3
aS"Jul 14, 2015 - When Chipotle stopped selling carnitas in some locations last year because a pork supplier wasn't meeting its ethical standards, it was sad news for customers."
p4
aS'Jul 15, 2015 - Starting July 21, Chipotle will be giving out buy one, get one free coupons for a ... CHIPOTLE. Chipotle. Like this story? Like us on Facebook. RELATED NEWS:.'
p5
aS"Jul 15, 2015 - The sweepstakes are a part of Chipotle's new Friend or Faux campaign, which launches July 21. Friend or Faux is an online ... Part of HuffPost on HPMG News."
p6
aS'Jul 15, 2015 - You Could Win Free Chipotle Burritos for a Year If You Can Correctly Guess Scary Fast Food Ingredients. You Could Win ... See More Chipotle News. Chipotle is ...'
p7
aS"Jul 14, 2015 - Cramer always circles back to high-growth stocks Netflix, Chipotle and Fitbit after any ... Access to Jim Cramer's daily blog; Intraday commentary and news ..."
p8
aS'Jul 15, 2015 - First, the news that carnitas will make a gallant return to your Chipotle burrito, and now, a chance to win FREE BURRITOS FOR AN ENTRIE YEAR. Oh yes, this ...'
p9
aS"Jul 15, 2015 - We've written before about how misguided Chipotle's so-called Food with Integrity ... By: Will Coggin News Outlet: The Oklahoman Two of Oklahoma City's ..."
p10
a.