(lp0
S'Jul 17, 2015 - On Monday I decided to get Chipotle and on Tuesday I made the same decision, then got lunch with my friend there on Wednesday, Rantal told ABC News.'
p1
aS'Jul 17, 2015 - KRQE reports on news, weather, traffic, investigations and sports for New Mexico. ... Chipotle tried to find a domestic pork supplier that met its standards, and will ...'
p2
aS"Jul 16, 2015 - Orem's new Chipotle, slated to open in August, photographed on Monday, July 13, .... Interact: Gas prices  Which states have the most fluoridated water? News ..."
p3
aS"Jul 16, 2015 - Chipotle is (again) playing fast and loose with its definition of food with integrity at the expense of America's pork producers."
p4
aS"Jul 17, 2015 - Chipotle's director of architecture and design Mick McConnell stopped in town to talk about the restaurant's 3.0 design: ... Industry News Commercial Real Estate ..."
p5
aS'Jul 16, 2015 - You have a chance to win free Chipotle for a year. Find out how.'
p6
aS'Jul 17, 2015 - NACS Online / Media / News Archive. Chipotle Giving Away Free Food ... DENVER  From July 21 until the end of August, Chipotle will be giving customers a ...'
p7
aS'Jul 17, 2015 - In a devastating start to the new year, Chipotle pulled pork from its menu, citing a lack of responsibly raised meat. Last week, the chain delivered exciting news ...'
p8
aS"Jul 17, 2015 - Friend or Faux reinforces Chipotle's commitment to continue conversations about where food comes from and how it is prepared. ... News & Views."
p9
aS'Jul 16, 2015 - US restaurant chain Chipotle has struck a deal to buy pork from UK-based Karro Food Group in a ... Breaking News on Global Meat Trading and Processing ...'
p10
a.