(lp0
S'Jul 22, 2015 - A Los Angeles man is living the "Chipotlife"  and it\'s been an easy diet to swallow. ... The exercise in eating began after he decided in February to "not" give up Chipotle for Lent  what he referred to as "Chipotlent." ... On his blog detailing his journey, the 154 days has totaled ...'
p1
aS'Jul 22, 2015 - Los Angeles Man Eats Chipotle for 153 Days, Details How Diet Possibly .... Quiz: Which newspaper released a satirical front page depicting news stories if ...'
p2
aS'Jul 22, 2015 - Los Angeles-based animator Andrew Hawryluk, 23, has eaten Chipotle at least once a day for the past 153 days. He\'s documenting it on his blog "Chipotlife."'
p3
aS'Jul 23, 2015 - Move over Mark Rantal, the true Chipotle king is a lean guacamole-eating eating machine.'
p4
aS"Jul 22, 2015 - Something weird happened on Wall Street today: Chipotle stock jumped more ... On its face, that news isn't too strangeChipotle is one of the best performing ..."
p5
aS'Jul 23, 2015 - Reached by Fusion, Hawryluk also admitted he has never eaten a Chipotle burrito, whose tortillas alone contain 300 calories and 690 mg .... ABC News Network.'
p6
aS"Jul 22, 2015 - Chipotle has an offer for you -- learn more about their food and you'll get a freebie. . Arizona's source for breaking news, weather, traffic, sports, investigations ..."
p7
aS"Jul 23, 2015 - A Los Angeles man has eaten at Chipotle for 155 days straight, which an expert says is not advisable despite Chipotle's healthy offerings. ... News Feed."
p8
aS'Jul 22, 2015 - For 107 days, a Colorado man has eaten Chipotle for lunch. CNN affiliate ... Man eats Chipotle for 107 days straight. Stephen .... 2016 Cable News Network.'
p9
aS"Jul 22, 2015 - Chipotle's mixed second-quarter earnings highlighted some challenges the popular chain ... Rising Costs Start to Weigh on Chipotle, but Not All the News Is Bad."
p10
a.