(lp0
S"Jul 29, 2015 - The burrito chain has found a new pork supplier that meets its standards. Why that's good news for investors and carnitas fans alike."
p1
aS'Jul 29, 2015 - Everyone on Wall Street hopes that Shake Shack is the next Chipotle, here is why they are likely to be disappointed. ... Bad news for your credit card company.'
p2
aS"Jul 28, 2015 - Chipotle has announced the addition of a new pork supplier to help address the ... News Chipotle's Carnitas Coming Back After Shortage, Plus a Chance to Win ..."
p3
aS"Jul 28, 2015 - The good news is that Chipotle's guacamole is going to be fine. The bad news is you might not want to eat any Mexican cilantro for a while. The US Food and ..."
p4
aS"Jul 28, 2015 - Last year's inaugural Chipotle MLS Homegrown Game injected the league's All-Star ... 2015 CHIPOTLE MLS HOMEGROWN TEAM ROSTER: ... Latest News."
p5
aS'Jul 28, 2015 - Denver Business Journal, news source 1:52 p.m. MDT July 28, 2015 ... a surprise that Chipotle Mexican Grill Inc. boasts an impressive social media following as ...'
p6
aS"Jul 29, 2015 - Nothing's worse than the crushing feeling you get when you eagerly approach your local Chipotle to pick up your burrito bowl only to find that there's a massive, ..."
p7
aS"Jul 29, 2015 - The MLS Homegrown All-Stars were defeated by Club America's U-20 team in the Chipotle Homegrown game. This was not the desired result, so we did what ..."
p8
aS"Jul 29, 2015 - Filed in: National & World News. Suggest a ... Q13 FOX News at 10, Seattle's 10 o'clock news team. ... Boston College says students sick after eating at Chipotle."
p9
aS'Jul 29, 2015 - VIRGINIA BEACH Chipotle is opening a Hilltop location. ... writes about the Virginia Beach Oceanfront, planning commission and breaking news in the city.'
p10
a.