(lp0
S'Jul 8, 2015 - EconomyNews. Thanks to Minimum Wage Hike, San Francisco Chipotle Customers Paying $1 More for Burrito Bowls. Chelsea Scism / @chescismlsea / July 08, ...'
p1
aS"Jul 8, 2015 - Looking at business news and consumer issues from every angle ... It's simple really, find CoGo's avocado-themed Chipotle bike and you are dangerously close ..."
p2
aS'Jul 7, 2015 - If you are a Chipotle Mexican Grill fan, as I am, you might be missing its carnitas. Earlier this year, the restaurant chain made the decision to remove its popular ...'
p3
aS"Jul 8, 2015 - Chipotle Mexican Grill is more than a popular dining chain in the U.S. It's a $20 billion burrito empire. In the U.K., many of us don't even know how to say ..."
p4
aS"Jul 7, 2015 - You've all been asking... and we've been calling daily to find out when the Tri-Cities first Chipotle is set to open."
p5
aS'Jul 8, 2015 - Chipotle, Starbucks, Other Business Coming to University Town Center. Written by Andrew Havranek. Last updated on July 08, 2015 @ 7:21PM. Created on July ...'
p6
aS'Jul 7, 2015 - From San Diego-based burger joint Jack In The Box to comeback chicken chain Popeyes, these 14 chains posted at least 5% comparable sales growth in the ...'
p7
aS'Jul 7, 2015 - On May 21, 2015, we released an investment series on Chipotle Mexican Grill (CMG) called Is Post-1Q the Right Time to Place Your Order for Chipotle?'
p8
aS"Jul 7, 2015 - From Yahoo Finance: The market could be expecting Chipotle to have lower same-store sales growth in 2Q15. Chipotle's recent two readings for food service ..."
p9
aS"Jul 7, 2015 - Chipotle Mexican Grill's once spicy stock is becoming milder. There are other restaurant stocks that are even better buys.. Cracker Barrel Old Country Store ..."
p10
a.