(lp0
S'Aug 11, 2015 - Chipotle-goers can rejoice now that they know how to maximize their burritos, and thus, their happiness.'
p1
aS'Aug 11, 2015 - Taco Bell Tries to Be Chipotle with New Burrito Bowls ... She writes breaking news about all things food and drink, and could live off of melted cheese, if that ...'
p2
aS"Aug 11, 2015 - 3 Ways to Double Your Chipotle Order For Free ... Chipotle obsessives, you might want to sit down for this one: We've discovered a hack for .... Food News."
p3
aS'Aug 11, 2015 - In order to hack Chipotle most efficiently, Grosz found six major ordering strategies to get ... Sign up for NYC news plus the scoop on things to do, see and eat.'
p4
aS"Aug 11, 2015 - This piece was originally published by Apartment List and was submitted to Rise Miami News as a resource for our audience. Because seriously, who doesn't ..."
p5
aS"Aug 10, 2015 - Chipotle says that once you play the game, you'll get a text for any buy one, get .... News  A nighttime exterior image of the Chipotle Mexican Grill located in the ..."
p6
aS'Aug 10, 2015 - What: Fast-casual restaurant Chipotle (NYSE:CMG) saw its stock jump 23% higher during the month of July, according to S&P Capital IQ data. The move pushed ...'
p7
aS"Aug 10, 2015 - What's coming to Delco: Cracker Barrel, Chipotle, Painting With a Twist, Auto Zone ... When you work at a newspaper, people just assume you're news central ..."
p8
aS"Aug 11, 2015 - The internet is filled with post's from Chipotle customers who have figured out how to get the most out of their standard burrito order. Here are a few of our ..."
p9
aS"Aug 10, 2015 - Shake Shack's Sales Are Officially Hotter Than Chipotle's ... But the bigger news was same-store sales, or same-shack sales, to use the company's preferred ..."
p10
a.