(lp0
S"Aug 12, 2015 - There's no denying that Chipotle Mexican Grill (NYSE:CMG) is a market darling. The fast-casual eatery saw its shares hit yet another all-time high earlier this ..."
p1
aS'Aug 11, 2015 - Chipotle-goers can rejoice now that they know how to maximize their burritos, and thus, their happiness.'
p2
aS"Aug 12, 2015 - This Genius Chipotle Trick Will Get You A Massive 2-Pound Burrito. Food News 8/12/2015. Isai Rocha. Screen Shot 2015-08-12 at 12.16.40 PM. We're always ..."
p3
aS'Aug 11, 2015 - Taco Bell Tries to Be Chipotle with New Burrito Bowls ... She writes breaking news about all things food and drink, and could live off of melted cheese, if that ...'
p4
aS"Aug 12, 2015 - Downtown Birmingham's first Chipotle, part of the Publix-anchored 20 Midtown development, got approval from ... For more news, visit AL.com/business."
p5
aS"Aug 11, 2015 - 3 Ways to Double Your Chipotle Order For Free ... Chipotle obsessives, you might want to sit down for this one: We've discovered a hack for .... Food News."
p6
aS'Aug 12, 2015 - Dylan Grosz at Apartment List figured out how to double the size of his Chipotle burrito through some simple hacks that he tested on 35 burrito orders. He shared ...'
p7
aS"Aug 12, 2015 - And what's better than an even bigger Chipotle burrito? ... Life hack: How to get Chipotle to nearly double your burrito size without paying extra ... BGR News."
p8
aS'Aug 11, 2015 - In order to hack Chipotle most efficiently, Grosz found six major ordering strategies to get ... Sign up for NYC news plus the scoop on things to do, see and eat.'
p9
aS"Aug 11, 2015 - This piece was originally published by Apartment List and was submitted to Rise Miami News as a resource for our audience. Because seriously, who doesn't ..."
p10
a.