(lp0
S"Aug 19, 2015 - Why Shake Shack won't be the next Chipotle .... To give you a comparison, Chipotle (CMG) had over 500 stores before going .... Sidekick More Market News."
p1
aS'Aug 19, 2015 - News  Sports  Business  Go! ... Build-A-Pizza: How the successful Chipotle business model is spreading ... a website for restaurant professionals, more and more pizza parlors are being built on the Chipotle-style, build-your-own-pizza model.'
p2
aS'Aug 18, 2015 - WASHINGTON WJLA ShopHouse is partnering with Chipotle to offer yet another ... Two incredibly easy ways to get free Chipotle ... (Photo: ABC News). 0shares.'
p3
aS"Aug 18, 2015 - Chipotle Will Give You Free Chips & Guac for Playing Photo Hunt Online. Hotness Level: ... Chipotle's Slump Likely Means More Free Burritos for You. Hotness ..."
p4
aS"Aug 18, 2015 - What's coming to Delco: Cracker Barrel, Chipotle, Painting With a Twist, Auto Zone ... When you work at a newspaper, people just assume you're news central ..."
p5
aS'Aug 19, 2015 - A free, all-day event in Loring Park this Saturday brings live music, family activities and celebrity chefs together to highlight and celebrate food.'
p6
aS'... Huckabee Jokes About Clinton Murder Claims, Hillary Leaving Nuke Codes At Chipotle ... RWW News ...'
p7
aS'Aug 18, 2015 - 18, 2015 /PRNewswire/ -- Critical Alerts For Exelixis, Opko Health, Chipotle ... While many other market reports only provide stock news and opinion, we offer ...'
p8
aS'Aug 18, 2015 - DC News You Can (Maybe) Use. kaylee | Aug 18, 2015 ... (via Facing Addiction); Did you know that you can get free Chipotle today? Because you can get free ...'
p9
aS'Aug 19, 2015 - Kofi: Anytime we can hit a Chipotle, we always stop. ... WWE Tough Enough Finale News, Stephen Amell SummerSlam Promo, Amanda And Sara Video.'
p10
a.