(lp0
S"Aug 3, 2015 - It's pretty unusual for an RD to be able to gush over an American fast food restaurant. But thanks to Chipotle, that's what's happening."
p1
aS'Aug 2, 2015 - Chipotle Mexican Grill (NYSE:CMG) and Panera Bread (NASDAQ:PNRA) .... Follow him on Twitter for the latest news and commentary on the airline industry!'
p2
aS"Aug 2, 2015 - What's coming to Delco: Cracker Barrel, Chipotle, Painting With a Twist, Auto Zone ... When you work at a newspaper, people just assume you're news central ..."
p3
aS'Aug 3, 2015 - From Yahoo Finance: The Chipotle-style pizza chain that is becoming a threat to traditional delivery...'
p4
aS"Aug 3, 2015 - Analysts at Morgan Stanley believe Chipotle could double the number of locations in the coming years. Chipotle's cult following and reputation for fresh and ..."
p5
aS'Aug 2, 2015 - Chipotle is offering a buy one burrito, get one free coupon through the website chipotlefriendorfaux.com. In order to access the coupon, participants must play ...'
p6
aS'Aug 3, 2015 - Over the past 12 months, shares of fast-casual chains like Chipotle Mexican Grill, up 10.1 percent, and Panera Bread, up 35.7 percent, have outperformed ...'
p7
aS'Aug 3, 2015 - When Towson business professors Tobin Porterfield and Seth Gitter decided to lead a study abroad trip to Cuba, they knew it would be complicated.'
p8
aS"Aug 2, 2015 - Chipotle could be a stock market unicorn, but is it a stock market unicorn on ... About: Chipotle Mexican Grill, Inc. (CMG) .... Don't Buy The Chipotle CDC News."
p9
aS"Aug 3, 2015 - ... of the crowd to find story leads and angles no other news organization can. ... If you dine on Chipotle chicken burritos, you'd spend about $19 to hit your ..."
p10
a.