(lp0
S"Aug 3, 2015 - It's pretty unusual for an RD to be able to gush over an American fast food restaurant. But thanks to Chipotle, that's what's happening."
p1
aS"Aug 4, 2015 - Millennials wants McDonald's to adapt Chipotle's food policies and menu items. (AP File Photos). It's no secret that McDonald's has been scrambling to win back ..."
p2
aS'Aug 3, 2015 - From Yahoo Finance: The Chipotle-style pizza chain that is becoming a threat to traditional delivery...'
p3
aS"Aug 3, 2015 - Analysts at Morgan Stanley believe Chipotle could double the number of locations in the coming years. Chipotle's cult following and reputation for fresh and ..."
p4
aS"Aug 4, 2015 - Chipotle's reigning supreme, with Subway trailing behind. ... Food World News ... Chipotle has overtaken Subway as the people's choice for healthy fast food."
p5
aS'Aug 3, 2015 - Over the past 12 months, shares of fast-casual chains like Chipotle Mexican Grill, up 10.1 percent, and Panera Bread, up 35.7 percent, have outperformed ...'
p6
aS'Aug 3, 2015 - When Towson business professors Tobin Porterfield and Seth Gitter decided to lead a study abroad trip to Cuba, they knew it would be complicated.'
p7
aS"Aug 3, 2015 - ... of the crowd to find story leads and angles no other news organization can. ... If you dine on Chipotle chicken burritos, you'd spend about $19 to hit your ..."
p8
aS'Aug 4, 2015 - http://www.bizjournals.com/kansascity/news/2015/07/20/chipotle-el-dorado- ... that location is the firm El Dorado, they are working on Chipotle concept stores.'
p9
aS"Aug 4, 2015 - Chipotle Mexican Grill: The fast-casual darling is this year's top fastest growing restaurant. Chipotle first entered the Albuquerque market in late 2011 at 6810 ..."
p10
a.