(lp0
S'Aug 6, 2015 - Chipotle is giving away buy one get one free coupons to anyone who plays ... Download one of the NBCChicago mobile apps and have the news come to you.'
p1
aS'Aug 8, 2015 - Fast-casual dining leader Chipotle Mexican Grill (NYSE:CMG) is committed to fast ... You will find the latest news, market analysis, and education to help you ...'
p2
aS'Aug 6, 2015 - News and sports coverage from Akron, Cuyahoga Falls, Stow, Copley, Fairlawn, Green, Hudson, Tallmadge, Bath Township, Summit County, Portage County, ...'
p3
aS'Aug 7, 2015 - Obituaries  Local News  Boise State Sports  Idaho Politics ... In late July, Chipotle Mexican Grill opened its first store in Nampa, at 1471 Nampa-Caldwell Blvd., ...'
p4
aS"Aug 7, 2015 - A rapper-endorsed restaurant chain that's a mix between Chipotle and Buffalo Wild ... Wingstop is somewhere between a Buffalo Wild Wings and a Chipotle."
p5
aS"Aug 6, 2015 - A chipotle pepper is merely a smoked, dried jalapeo. That's it. More commonly made from red ... Inc. All rights reserved. Part of HuffPost on HPMG News."
p6
aS'Aug 6, 2015 - Nine CEOs including David Zaslav of media company Discovery Communications (DISCA), Chipotle (CMG) co-CEOs Steven Ells and Montgomery Moran and ...'
p7
aS"Aug 6, 2015 - Big Sean News (@BigSeanNews1) August 4, 2015. The only thing we don't get is that, according to GQ, Big Sean never orders guacamole at Chipotle because ..."
p8
aS'Aug 6, 2015 - The word Chipotle derives from the Nahuatl word chilpoctli, which means smoked chile pepper. ... Posted on Aug 6th, 2015 in News // Comments . The word ...'
p9
aS"Aug 6, 2015 - Though this graphic doesn't depict the exact colors of the proposed building, Mid America Real Estate submitted this drawing to show what a proposed Chipotle ..."
p10
a.