(lp0
S'Sep 11, 2015 - The good news for Chipotle fans is that health officials said they believe there are no longer any transmissions from the restaurants. "Chipotle has been ...'
p1
aS'Sep 11, 2015 - April Beck of Minneapolis, MN, dined at Chipotle Mexican Grill Inc. at 2600 ... lawsuit against the restaurant chain (Marler is also publisher of Food Safety News.) ...'
p2
aS'Sep 10, 2015 - MN Health Officials Investigating 45 Salmonella Infections Linked to Chipotle ... told Food Safety News, adding that the Minnesota Department of Agriculture is ...'
p3
aS'Sep 10, 2015 - State health and agriculture officials are investigating an outbreak of salmonellosis associated with eating at Chipotle restaurants in Minnesota. Forty-five (45) ...'
p4
aS'Sep 11, 2015 - Chipotle restaurants in the Twin Cities seem to be linked with the outbreak. (Photo: Getty Images/Joe Raedle) Forty-five cases of food poisoning from Salmonella ...'
p5
aS'Sep 10, 2015 - MINNEAPOLIS (KMSP) - State health officials are investigating an outbreak of Salmonella cases associated with eating at Chipotle restaurants in Minnesota, the ...'
p6
aS'Sep 11, 2015 - Chipotle linked to salmonella outbreak in Minnesota. by Ahiza ... Exclusive: Chipotle becomes first national chain to go GMO-free .... 2016 Cable News Network.'
p7
aS'Sep 11, 2015 - Associated Press file A rash of Salmonella infections in recent weeks has been traced to people who ate at Chipotle restaurants throughout the Twin Cities, the ...'
p8
aS'Sep 11, 2015 - "Investigators are confident that ongoing transmission at Chipotle as part of ... Global Business and Financial News, Stock Quotes, and Market Data and Analysis.'
p9
aS'Sep 10, 2015 - State health officials say 45 cases of salmonella have been reported this month.'
p10
a.