(lp0
S'Sep 23, 2015 - Here is some bad news for Chipotle, and this time it has nothing to do with a carnitas shortage: A woman in California who applied for a job at the chain is now ...'
p1
aS'Sep 22, 2015 - A Chipotle on Michigan Ave. was closed Monday after an inspection ... Download one of the NBCChicago mobile apps and have the news come to you.'
p2
aS'Sep 22, 2015 - Chipotle at 316 N. Michigan Ave. failed inspection after officials noticed "over 100 flying insects." ... For more neighborhood news, listen to DNAinfo Radio here:.'
p3
aS'Sep 22, 2015 - As a sign on the door stated, the license for the Chipotle on Michigan ... The manager at that Chipotle, located at 316 N Michigan Avenue, can ... MORE NEWS.'
p4
aS'Sep 22, 2015 - A Popeyes Louisiana Kitchen , Noodles & Company and Chipotle Mexican Grill .... Sign up for Breaking News, Daily Headlines, Severe Weather Alerts & more!'
p5
aS'Sep 22, 2015 - A Chipotle on Michigan Avenue was closed by the Chicago Health ... BREAKING NEWS WEATHER RADAR: Track the Sox Opening Day weather with LIVE ...'
p6
aS'Sep 23, 2015 - Chipotle Mexican Grill and Amazon are challenging customers to write a super short ... September 23, 2015 | Filed in: Ajc-features; local news, Carolyn Desalu, ...'
p7
aS"Sep 22, 2015 - Friends, today is a good day. Not because we made it through Monday; not because it's sunny in Chicago; but because carnitas is officially back at Chipotle."
p8
aS'Sep 23, 2015 - The GLP aggregated and excerpted this blog/article to reflect the diversity of news, opinion and analysis. Chipotle, the popular fast-food chain that pitch.'
p9
aS"Sep 23, 2015 - Chipotle and Moe's: two giants of fast-casual Mexican food. Which is better? I went to both to find out."
p10
a.