(lp0
S'Sep 23, 2015 - Here is some bad news for Chipotle, and this time it has nothing to do with a carnitas shortage: A woman in California who applied for a job at the chain is now ...'
p1
aS'Sep 24, 2015 - DENVER --(BUSINESS WIRE)--Sep. 24, 2015-- Chipotle Mexican Grill, Inc. (NYSE: CMG) today announced that it will host a conference call to discuss third ...'
p2
aS'Sep 24, 2015 - ST. PETERSBURG  The demand for burritos must be high on Fourth Street. A Chipotle Mexican Grill is opening at 3540 Fourth St. N next to El Cap Restaurant.'
p3
aS"Sep 24, 2015 - Franco Origlia / Getty Images News / chipotle.co.uk ... First off, let's talk about how Chipotle burrito artists (or whatever they're called) grill you on the spot like ..."
p4
aS"Sep 24, 2015 - Chipotle Just Launched An Amazing Burrito Game Modeled After 'Space Invaders' ... Chipotle (@ChipotleTweets) September 24, 2015. While the ... Food News."
p5
aS'Sep 23, 2015 - Chipotle Mexican Grill and Amazon are challenging customers to write a super short ... September 23, 2015 | Filed in: Ajc-features; local news, Carolyn Desalu, ...'
p6
aS'Sep 24, 2015 - As of September 24, 2015, Hopkins resident Christine Bento has filed a lawsuit against Chipotle Mexican Grill Inc., for damages related to Salmonella poisoning ...'
p7
aS"Sep 23, 2015 - Chipotle and Moe's: two giants of fast-casual Mexican food. Which is better? I went to both to find out."
p8
aS"Sep 24, 2015 - If Chipotle is like any other brick-an- mortar business, it has a breakdown of guests .... NEWS. Webinar registration open: 'How to be FDA Calorie Compliant and ..."
p9
aS'Sep 23, 2015 - The GLP aggregated and excerpted this blog/article to reflect the diversity of news, opinion and analysis. Chipotle, the popular fast-food chain that pitch.'
p10
a.