(lp0
S'Sep 28, 2015 - Chipotle will be bringing back pork carnitas to 90% of its restaurants, ending the great ... Upon hearing the news, some fans of Chipotle celebrated on Twitter: ...'
p1
aS'Sep 28, 2015 - Chipotle says pork is back on the menu at 90% of its nearly 2000 restaurants. By November, 11 months after "The Great Carnitas Shortage of 2015" began, the ...'
p2
aS'Sep 28, 2015 - New Supplier Enables Chipotle to Return Popular Menu Item to Restaurants around the Country. DENVER --(BUSINESS WIRE)--Sep. 28, 2015-- Chipotle ...'
p3
aS'Sep 28, 2015 - Chipotle says 90 percent of its restaurant are serving carnitas. ... The Great Chipotle Carnitas Scare of 2015 is over! Chipotle said .... 2016 Cable News Network.'
p4
aS'Sep 28, 2015 - Chipotle estimates that the pork shortage reduced sales at established locations by about 2 percent. Carnitas account for about 6 to 7 percent of entree orders, ...'
p5
aS'Sep 28, 2015 - It was a long and pork-less road, but it appears that The Great Chipotle Carnitas Shortage of 2015 has officially come to an end. According to CBS News, ...'
p6
aS"Sep 28, 2015 - Chipotle announced on Monday that with its new U.K. pork supplier, Karro, ... Yes, it's hard to find supply, spokesperson Chris Arnold told BuzzFeed News."
p7
aS"Sep 28, 2015 - WASHINGTON  There's good news for fans of Chipotle's braised pork tacos. The company's nearly 10-month-long carnitas shortage is just about over."
p8
aS'Sep 28, 2015 - DENVER  Carnitas are making a comeback at Chipotle Mexican Grill, which announced it has restored most of its pork supply following a shortage earlier this ...'
p9
aS'Sep 28, 2015 - Pork lovers, its time to come back to Chipotle. ... Chipotle stopped serving carnitas at more than a third of its restaurants back in April after a ... MORE NEWS.'
p10
a.