(lp0
S'Sep 3, 2015 - Chipotle restaurant workers fill orders for customers in Miami, Fla., on April 27 i .... With a pinch of skepticism and a dash of fun, The Salt covers food news from ...'
p1
aS'Sep 3, 2015 - ... nearly 100 customers and employees last month at a Chipotle restaurant in Ventura ... Watch KCRA/KQCA News ... Norovirus suspected for Chipotle illnesses.'
p2
aS'Sep 3, 2015 - From Yahoo Finance: Chipotle Mexican Grill Inc , known for its indulgent burritos, is battling a "Chubby Chipotle" ad campaign from the food industry group ...'
p3
aS"Sep 2, 2015 - A California woman claims Chipotle's non-G.M.O. claims are false. ... D. King, an attorney for the proposed class, said in a news release announcing the lawsuit."
p4
aS'Sep 3, 2015 - Chipotle fans at University of Michigan, Michigan State and Eastern Michigan University ... Jessica Webster covers food and dining for The Ann Arbor News.'
p5
aS'Sep 2, 2015 - "Free" is a relative term, as Chipotle uses meat and dairy products fed GMO feeds. ... Food chain Chipotle sued over its GMO free claims ... Latest News ...'
p6
aS"Sep 3, 2015 - Chipotle Co-CEO: I'm 'Happier Than Hell' When I See Shake Shack Doing Well .... Access to Jim Cramer's daily blog; Intraday commentary and news; Real-time ..."
p7
aS'Sep 2, 2015 - A photograph of the Chipotle Mexican Grill located in Washington Dulles International Airport.  ... News Quiz: Virgin Airlines was acquired by what airline?'
p8
aS'Sep 3, 2015 - What a Chipotle smear campaign with a lot of money looks like.'
p9
aS'Sep 3, 2015 - In other news, Chipotle is delivering to 40 college campuses, including Arizona State University, Northern Arizona University and University of Arizona, through a ...'
p10
a.