(lp0
S'Sep 4, 2015 - All of the ingredients we use to make our food are non-GMO, except for beverages, said Chipotle spokesman Chris Arnold in an email to BuzzFeed News.'
p1
aS'Sep 4, 2015 - Chipotle Grill (CMG) loudly announced in April 2015 that it had gone GMO-free and was the first national restaurant chain to use only ingredients that were not ...'
p2
aS"Sep 4, 2015 - You'll really pay extra when you eat at Chipotle, according to its critics."
p3
aS'Sep 3, 2015 - Chipotle restaurant workers fill orders for customers in Miami, Fla., on April 27 i .... With a pinch of skepticism and a dash of fun, The Salt covers food news from ...'
p4
aS'Sep 4, 2015 - Health officials believe that the food-borne illness that sickened nearly 100 customers at a California Chipotle is Norovirus. A number of diners that ate at an ...'
p5
aS'Sep 3, 2015 - From Yahoo Finance: Chipotle Mexican Grill Inc , known for its indulgent burritos, is battling a "Chubby Chipotle" ad campaign from the food industry group ...'
p6
aS'Sep 4, 2015 - News Analysis ... With the theme Chubby Chipotle, the campaign sponsored by a shadowy group calling itself the Center For Consumer Freedom, the ad, ...'
p7
aS"Sep 3, 2015 - Chipotle Co-CEO: I'm 'Happier Than Hell' When I See Shake Shack Doing Well .... Access to Jim Cramer's daily blog; Intraday commentary and news; Real-time ..."
p8
aS'Sep 3, 2015 - What a Chipotle smear campaign with a lot of money looks like.'
p9
aS'Sep 3, 2015 - In other news, Chipotle is delivering to 40 college campuses, including Arizona State University, Northern Arizona University and University of Arizona, through a ...'
p10
a.