(lp0
S"Sep 7, 2015 - Chipotle Mexican Grill will hold Wednesday it's first-ever National Career Day in an effort to overcome hiring obstacles on the burrito line."
p1
aS"Sep 8, 2015 - DONALD TRUMP GOES ON 'THE O'REILLY FACTOR' NOW ON FOX NEWS ... Chicago cop praised for buying homeless man Chipotle. Published September ..."
p2
aS"Sep 8, 2015 - They say that bad news travels fast, but thankfully that's not the case with Chipotle Mexican Grill (NYSE:CMG). The chain appears to have emerged largely ..."
p3
aS'Sep 8, 2015 - Chipotle will hold its first-ever national career day tomorrow. The company wants to ... BREAKING NEWS ABC7 Morning News -- WATCH LIVE HERE. Full Story ...'
p4
aS'Sep 7, 2015 - Chipotle, the fast-casual burrito chain, sparked headlines earlier this year when they announced they ... Townhall Radio News; |; Conservative Radio; |; Signup.'
p5
aS'Sep 8, 2015 - Health officials say a foodborne virus may have sickened nearly 100 customers and employees last month at a Chipotle restaurant in Ventura County.'
p6
aS'Sep 7, 2015 - A Chicago police officer bought Chipotle for a hungry homeless man and the photos of his act of kindness are quickly going viral. On Friday, the ... News Feed.'
p7
aS"Sep 8, 2015 - [UPDATED] Tomatoes Are The Confirmed Source of Chipotle's Salmonella ... but this news isn't making us get in line at our local Chipotle to get oversize burritos ..."
p8
aS'Sep 8, 2015 - By News Release |. Posted: Tue 12:15 PM, Sep 08, 2015. DENVER, CO - Chipotle Mexican Grill is holding its first-ever National Career Day, Wednesday, ...'
p9
aS"Sep 8, 2015 - Chipotle Mexican Grill, apparently, rubs some people the wrong way. This wouldn't be news, really, because customers typically gripe about food and service in ..."
p10
a.