(lp0
S"Sep 9, 2015 - Chipotle Mexican Grill has a message for job seekers: we're on a hiring spree. ... Global Business and Financial News, Stock Quotes, and Market Data and ..."
p1
aS"Sep 9, 2015 - Today is Chipotle's first ever National Career Day, during which the company plans to hire 4000 new workers. ... Search. News; Popular; Videos; Fortune 500 ..."
p2
aS'Sep 9, 2015 - To find 4,000 suitable hires, Chipotle will need to interview at least five times as ... News of the one-day hiring binge came out more than two weeks before the ...'
p3
aS'Sep 9, 2015 - Chipotle Mexican Grill has more than 1,800 locations nationwide. (Gene J. ... Chipotle is hiring. ... The latest Syracuse and CNY commercial and retail news.'
p4
aS'Sep 8, 2015 - Chipotle will hold its first-ever national career day tomorrow. The company wants to ... BREAKING NEWS ABC7 Morning News -- WATCH LIVE HERE. Full Story ...'
p5
aS'Sep 9, 2015 - The Colorado-based burrito chain Chipotle plans to hire 4000 people during a national hiring event Wednesday morning. . Live-updated Colorado news, ...'
p6
aS"Sep 9, 2015 - Chipotle wants to bring on 4,000 new employees in one day ... and that's today. ... Ryan: No good news goes unpunished by the bitter cranks who post here."
p7
aS"Sep 8, 2015 - DONALD TRUMP GOES ON 'THE O'REILLY FACTOR' NOW ON FOX NEWS ... Chicago cop praised for buying homeless man Chipotle. Published September ..."
p8
aS"Sep 8, 2015 - They say that bad news travels fast, but thankfully that's not the case with Chipotle Mexican Grill (NYSE:CMG). The chain appears to have emerged largely ..."
p9
aS"Sep 9, 2015 - Wednesday is Chipotle's national career day, where they are looking to hire thousands of ... Chipotle hiring blitz Wednesday, lines expected ... More News ..."
p10
a.