(lp0
S'Oct 28, 2010 - Join over 100,000 investors who get the latest news from Dividend.com ..... Exxon Mobil Corporation {XOM) is a manufacturer and marketer of commodity ...'
p1
aS'Oct 27, 2010 - Careers  Investors  News  Global  ExxonMobil. Menu .... Privacy policy  Terms & conditions.  Copyright 2003- Exxon Mobil Corporation. All Rights Reserved.'
p2
aS'Oct 27, 2010 - ExxonMobil has successfully drilled and tested the PTU-15 and PTU-16 ... ExxonMobil Successfully Drills Point Thomson Wells in Alaska. ExxonMobil Corp.'
p3
aS'Oct 28, 2010 - Planning Design Research Corporation (PDR) has completed a consolidation of two ExxonMobil data centers and an expansion of a third while establishing ...'
p4
aS'Oct 28, 2010 - An analysis of fund-raising documents, lobbying records and corporate reports shows that ... NPR News Investigations ... and associations, such as the tobacco company Reynolds American Inc., ExxonMobil and the National Rifle Association.'
p5
aS"Oct 27, 2010 - Exxon Says `$25 Billion Rule' Will Sink Deepwater Oil Drilling ... offshore drilling rules that Exxon Mobil Corp. said will cost $25 billion over 10 years and render ..."
p6
aS"Oct 27, 2010 - ... Bloomberg Television  Bloomberg Radio  Bloomberg Mobile Apps  News Bureaus .... Exxon Says `$25 Billion Rule' Will Sink Deepwater Oil Drilling ... International Business Machines Corp. executives, has raised $240 million for parks .... U.S. plan to toughen offshore drilling rules that Exxon Mobil Corp. said will cost as ..."
p7
aS'Oct 27, 2010 - A. D. Koen Gulf Coast News Editor Robin Buckner Price Staff Writer Major U.S. oil and ... Exxon Corp. with about 100 million BOE worth $500-600 million, and Phillips ..... Job Summary: ExxonMobil Research and Engineering Company has an ...'
p8
aS'Oct 28, 2010 - This has resulted in several majors such as Shell, Exxon, Mobil, and Elf reportedly .... On the licensing side, Elf made news when it was granted a 6,800-sq km .... oil company and Environmental Remediation Holding Corporation to explore for ...'
p9
aS'Oct 28, 2010 - Live Business News .... Chevron Corporation  Executives Biographies  Exxon Mobil Corporation  Miscellanoeous  News  The Western Union Company ...'
p10
a.