(lp0
S'Oct 27, 2010 - Careers  Investors  News  Global  ExxonMobil. Menu .... Privacy policy  Terms & conditions.  Copyright 2003- Exxon Mobil Corporation. All Rights Reserved.'
p1
aS'Oct 27, 2010 - ExxonMobil has successfully drilled and tested the PTU-15 and PTU-16 ... ExxonMobil Successfully Drills Point Thomson Wells in Alaska. ExxonMobil Corp.'
p2
aS"Oct 27, 2010 - Exxon Says `$25 Billion Rule' Will Sink Deepwater Oil Drilling ... offshore drilling rules that Exxon Mobil Corp. said will cost $25 billion over 10 years and render ..."
p3
aS"Oct 26, 2010 - Click here to subscribe to the blog's RSS news feed. .... And the good news it is renewable, so it can extend the life of oil year after .... Exxon Mobil Corporation."
p4
aS'Oct 27, 2010 - ... where Chevron\'s logo has sat atop the news as PBS\' top corporate sponsor. ... Conoco-Phillips, ExxonMobil and Chevron that, "BP did not act to industry ...'
p5
aS'Oct 27, 2010 - Executive Vice President and Corporate Comptroller American ... ExxonMobil Production Company .... General Manager and COO, Beliefnet, News Corp.'
p6
aS'Oct 28, 2010 - This has resulted in several majors such as Shell, Exxon, Mobil, and Elf reportedly .... On the licensing side, Elf made news when it was granted a 6,800-sq km .... oil company and Environmental Remediation Holding Corporation to explore for ...'
p7
aS'Oct 26, 2010 - ... to announce that we have accepted a $750.00 grant courtesy of Exxon Mobil, ... the good people at Consumers Oil Corporation based in Trenton, New Jersey.'
p8
aS'Oct 26, 2010 - News  About Us  Contact Us; Arguments ... Eastman Kodak, Eastman Chemical, ExxonMobil Corp., ExxonMobil Oil, Fina Oil & Chemical, Goodyear Tire and ...'
p9
aS'Oct 27, 2010 - DOW JONES, A NEWS CORP COMPANY .... My father worked for Exxon Mobil so we moved around during my childhoodTurkey, Japan, Indonesiawhile my ...'
p10
a.