(lp0
S'Oct 5, 2010 - By JON NIELSEN / The Dallas Morning News jnielsen@dallasnews.com ... That was two months ago when Tillerson, the chief executive of Exxon Mobil, asked fellow Dallas oilman Rees-Jones to make a $25 million donation to .... Fluor Corp.'
p1
aS"Oct 6, 2010 - Alan Hirshberg, 49, formerly a vice president at Exxon Mobil Corp., is joining the ... One of the executives in today's news release may become CEO within a year ..."
p2
aS"Oct 6, 2010 - Exxon Says `$25 Billion Rule' Will Sink Deepwater Oil Drilling ... U.S. plan to toughen offshore drilling rules that Exxon Mobil Corp. said will cost as much as $25 ..."
p3
aS'Oct 6, 2010 - Industry News & Trends.  Corporate & Store Operations ... formerly vice president, Worldwide Deepwater and Africa Projects, ExxonMobil, will join the company ...'
p4
aS'Oct 7, 2010 - Is the Exxon Mobil Campus a Done Deal? This week Coventry Development Corporation (CDC) announced the development of Springwoods Village ...'
p5
aS'Oct 6, 2010 - WASHINGTON, Oct. 6 /PRNewswire/ -- The Cohen Group announced today that Ambassador Craig Kelly, former Principal Deputy Assistant Secretary of State ...'
p6
aS'Oct 7, 2010 - U.S. News has a great FAQ on why the old bulbs are being banned. ... such as Russian Railways Corporation and Gazprom, are among the largest ... Exxon Mobil, Wal - Mart Stores, Chevron, ConocoPhillips, General Electric, General Motors, ...'
p7
aS'Oct 6, 2010 - And Exxon Mobil said its looking to sell some of its shallow water assets in the Gulf of ... Private equity firms ACON Investments and TPG Capital will buy Houston-based Marathon Oil Corp. ... Get Journal good news straight to your email.'
p8
aS'Oct 6, 2010 - Get All the Offshore Magazine News Delivered to Your Inbox for free ... ExxonMobil brings Banyu Urip central processing facility online in Indonesia .... and bioinformatics at its Corporate Strategic Research laboratory located in Annandale, NJ.'
p9
aS'Oct 5, 2010 - However, the final criterion of the HRC Corporate Equality Index allows points ... Exxon Mobil Corp., Wal-Mart Stores Inc. and Verizon Communications Inc. have ...'
p10
a.