(lp0
S'Nov 16, 2010 - By Oil & Gas Financial Journal staff Eight crew members were kidnapped from an ExxonMobil Corp. facility in Nigeria late Sunday, Nov. 14, according to news ...'
p1
aS'Nov 17, 2010 - ... und Unternehmensmeldungen fr Exxon Mobil Corporation Common (XOM) bei Yahoo! ... Juni); Brse Frankfurt-News: Gefragte lkonzerne (Auslandsaktien) ...'
p2
aS'Nov 17, 2010 - Exxon Mobil Corp. agreed to pay $25 million to settle a lawsuit over a decades-old oil spill and related environmental contamination in Brooklyn, New York, state ...'
p3
aS'Nov 16, 2010 - News releases concerning Tulane Law School, its faculty, staff, students, and programs ... Dan Schuessler, a high-ranking venture executive for ExxonMobil in ... about corporate environmental responsibility in the context of climate change.'
p4
aS'Nov 16, 2010 - ExxonMobil Corp. ... Mobil Producing Nigeriaconfirms that unknown armed persons boarded the Oso ... International news for oil and gas professionals ...'
p5
aS'Nov 17, 2010 - ... that commits ExxonMobil Corporation (NYSE: XOM) (ExxonMobil) to perform a ... The settlement requires ExxonMobil to conduct a comprehensive cleanup of its ... Attorney General Cuomo today to share this great news for our community.'
p6
aS'Nov 17, 2010 - Senator Dilan Praises ExxonMobil Settlement to Continue Cleanup of Newtown Creek ... State Attorney General Andrew Cuomo has reached a settlement with ExxonMobil Corporation to begin the cleanup of the millions of ... See More News ...'
p7
aS'Nov 17, 2010 - Exxon Mobil has agreed to pay $25 million and commit to a more thorough cleanup of its huge oil spills along Newtown Creek and a faster timetable for the ...'
p8
aS"Nov 17, 2010 - ... world continue to increase, said William M. Colton, Exxon Mobil's vice president for corporate strategic planning. ... Credit Andrew Harrer/Bloomberg News."
p9
aS'Nov 16, 2010 - ... Tuesday it kidnapped seven local workers from an Exxon Mobil Corp. offshore rig. ... In this file photo, local residents stand around an Exxon Mobil oil manifold in the oil-rich Niger Delta region of Nigeria. ... Stay Connected with CBC News.'
p10
a.