(lp0
S'Nov 12, 2010 - Fuels News, Prices and Analysis .... On Thursday, ExxonMobil introduced the Exxon Mobil Fuel Finder ... We as a corporation are very technology-focused.'
p1
aS'Nov 11, 2010 - Exxon Mobil Corp. appears to have the prospect of improving earnings. .... The good news about the current marketplace is - we are presented frequent and ...'
p2
aS"Nov 11, 2010 - Penguin Group (USA) company news and press releases. ... author Steve Coll's penetrating, news-breaking investigative portrait of the ExxonMobil Corporation."
p3
aS'Nov 11, 2010 - ExxonMobil (NYSE:XOM) introduced today the Exxon Mobil Fuel Finder iPhone and iPod touch application, which provides ... Exxon Mobil Corporation(XOM)'
p4
aS"Nov 11, 2010 - The grants were made possible by funding from the ExxonMobil Corporation. Troy's Mobil is located at 2507 Albany Ave, West Hartford. St. Timothy Middle ..."
p5
aS'Nov 11, 2010 - DOW JONES, A NEWS CORP COMPANY. News Corp is a ..... Last month, dozens of foreign executives, including top brass from Exxon Mobil Corp. XOM -0.01 ...'
p6
aS'Nov 12, 2010 - I spent the first 10 years of my professional career with Exxon Mobil, the largest multi-national corporation in the world. I worked for Exxon in Chile, Argentina and ...'
p7
aS'Nov 12, 2010 - By Michael A. Mahone, Jr. On October 19, 2010, the Louisiana Supreme Court issued its opinion in Marin v. Exxon Mobil Corp., a legacy'
p8
aS'Nov 12, 2010 - By MARIA HALKIAS / The Dallas Morning News mhalkias@dallasnews.com. Published: 12 November 2010 .... Exxon Mobil, XOM, 78.06. Fluor Corp. FLR, 41.35.'
p9
aS'Nov 11, 2010 - ... quickly and accurately delivers business and financial information, news and insight ..... Health Minister Khaw Boon Wan and Oversea-Chinese Banking Corp. ... reclaimed land offshore to attract companies such as Exxon Mobil Corp. and ...'
p10
a.