(lp0
S'Nov 25, 2010 - Get All the Offshore Magazine News Delivered to Your Inbox for free ... Exxon Mobil Corp. has started oil production at the Julia field in the deepwater Gulf of ...'
p1
aS'Nov 26, 2010 - ... Fund, Inc. Class Investor (MUTF:DGAGX) including real-time quotes, historical charts & related news, all for free! ... Exxon Mobil Corporation (XOM), 3.83%.'
p2
aS'Nov 25, 2010 - ExxonMobil: ExxonMobil R&D investments impacting oil spill response .... News reports suggest that the National Response Corporation dedicated eight ships ...'
p3
aS'Nov 27, 2010 - Chevron Corp., formerly ChevronTexaco Corporation manages its ... Next Page: the 4th ranked company General Electric Company; Previous Page: the 2nd ranked company Exxon Mobil Corporation ... USPages Latest Business News.'
p4
aS'Nov 26, 2010 - By ELIZABETH SOUDER / The Dallas Morning News esouder@dallasnews.com. Published: 26 November .... Exxon Mobil, XOM, 78.06. Fluor Corp. FLR, 41.35.'
p5
aS'Nov 26, 2010 - By SHERYL JEAN / The Dallas Morning News sjean@dallasnews.com. Published: 26 November 2010 .... Exxon Mobil, XOM, 78.06. Fluor Corp. FLR, 41.35.'
p6
aS'Nov 26, 2010 - November sweeps ratings in Dallas-Fort Worth local TV news race reveal increasingly tight competition, with virtual ties ... Exxon Mobil, XOM, 78.06. Fluor Corp.'
p7
aS'Nov 27, 2010 - Senior Counsel, Exxon Mobil Corporation. The Hypothetical ... No one likes bad news. Client reaction to bad news is typically described using words with.'
p8
aS'Nov 26, 2010 - Get All the Oil and Gas Journal News Delivered to Your Inbox ... Pason Systems Corp. knows a thing or two about information and intelligence. .... the Baytown Complex Laboratory of ExxonMobil Refining Supply Company, will be responsible ...'
p9
aS'Nov 25, 2010 - He is a Director of Catalyst Paper Corp., a Canadian paper company. Previously, Mr. Wadhwaney ... Latest News ... Exxon Mobil Corporation  AT&amp;T Inc.'
p10
a.