(lp0
S'Nov 4, 2010 - Exxon Mobil Corp. is facing a $12 million wrongful death suit from the widow of a worker who died while fixing a hydrogen sulfide leak at a Louisiana refinery ...'
p1
aS"Nov 3, 2010 - ExxonMobil Corporation  ExxonMobil Asia Pacific Pte Ltd ... Vincent Chong, ExxonMobil's global director of marine fuels, speaking to Bunkerworld at ... reduction in sulphur limits, according to the global head of marine fuels at ExxonMobil."
p2
aS'Nov 4, 2010 - ... Strait, Indonesia. ExxonMobil is offering half of its 80% working interest in the block, where drilling is planned for Q4 2011. ... Upstream oil and gas news for exploration and production professionals ... Current Corporate Activity articles: 2567 ...'
p3
aS'Nov 4, 2010 - Exxon and Sinopec join traders in selling crude overseas ... Oil companies including Exxon Mobil Corp and China Petroleum and Chemical Corp have joined ...'
p4
aS'Nov 3, 2010 - ... to a drug, the chief executive of Six Flags Entertainment Corp. said Wednesday the company will ... Dallas Morning News Home .... Exxon Mobil, XOM, 78.06.'
p5
aS"Nov 3, 2010 - SINGAPORE: India's Oil and Natural Gas Corporation (ONGC) has beaten Chinese rival ... The global list headed by ExxonMobil Corp of the US, had billionaire ..."
p6
aS"Nov 4, 2010 - Visit Crain's Chicago Business for complete business news and analysis including ... as Dow Chemical Co., Huntsman International LLC and Exxon Mobil Corp."
p7
aS'Nov 4, 2010 - Jean Baderschneider, Vice President, Procurement, Exxon Mobil ... Mark Hoplamazian, President and CEO, Global Hyatt Corporation ... Top News Stories.'
p8
aS"Nov 4, 2010 - And major oil companies like BP, Exxon Mobil and Royal Dutch Shell will likely ... and accusations from Macondo well partner Anadarko Petroleum Corp. of gross ... Thomson Reuters is the world's largest international multimedia news agency ..."
p9
aS'Nov 4, 2010 - Chemical & Engineering News Archive .... THE address of the Western Precipitation Corp. for 25 years has been 1016 West Ninth St., Los Angeles, Calif., though the concern ... American Geophysical Union to keep ExxonMobil sponsorship.'
p10
a.