(lp0
S'Dec 13, 2010 - ExxonMobil is the largest of the six multinational oil supermajors and one of the biggest energy companies ... warming and the oil industry in a favorable way and offering corporate-built lesson plans and textbooks. ... POLLUTERWATCH News ...'
p1
aS'Dec 13, 2010 - ExxonMobil Corp. completed its $86 million expansion of the carbon dioxide capture plant near ... Get All the Oil and Gas Journal News Delivered to Your Inbox.'
p2
aS'Dec 15, 2010 - HOUSTON  Two environmental groups have asked a federal court to force Exxon Mobil Corp. to reduce harmful emissions at its massive Baytown complex, ...'
p3
aS"Dec 14, 2010 - ... Texas filed a federal lawsuit against Exxon Mobil Corp for five years of excess pollution at ... A view of the Exxon Mobil refinery in Baytown, Texas September 15, 2008. .... Thomson Reuters is the world's largest international multimedia news ..."
p4
aS'Dec 13, 2010 - Also in attendance were Rex W. Tillerson, chairman and chief executive officer of Exxon Mobil Corporation (NYSE:XOM), ministers, senior government officials ...'
p5
aS'Dec 13, 2010 - Defendant ExxonMobil Corporation (ExxonMobil) is a multinational oil and gas ... Defendant ExxonMobil Chemical Company (Exxon Mobil Chemical) is a ...'
p6
aS"Dec 14, 2010 - Claims that ExxonMobil did not pay taxes in 2009 are just plain incorrect. ... Click here to subscribe to the blog's RSS news feed. .... Exxon Mobil Corporation."
p7
aS'Dec 13, 2010 - Company News ... Exxon Mobil, ConocoPhillips seek investments in Qatar ... like Exxon Mobil Corp and ConocoPhillips seek investment opportunities there.'
p8
aS'Dec 14, 2010 - FedEx Corp. drivers were found by a judge to be independent contractors in a ... Chesapeake, second only to Exxon Mobil Corp. in gas production from U.S. ...'
p9
aS"Dec 13, 2010 - Wellstream expands GE's operations in Brazil, where Exxon Mobil Corp., BG Group Plc and state-controlled Petroleo Brasileiro SA may need to spend more on ..."
p10
a.