(lp0
S'Nov 30, 2010 - It was 12 years ago today that Exxon and Mobil agreed to terms on a $75.3 billion merger that was one of the ... DOW JONES, A NEWS CORP COMPANY.'
p1
aS'Nov 30, 2010 - Exxon  Mobil  Esso  XTO energy  Accessibility  Privacy policy  Terms and conditions.  Copyright 2003-2015 Exxon Mobil Corporation. All rights reserved.'
p2
aS'Dec 1, 2010 - Careers  Investors  News; Select countryGlobal_selector_abbreviation ..... Careers  Contact us  Investors  News and updates  Perspectives blog.'
p3
aS'Nov 30, 2010 - Mr. Frazier sits on the board of directors of Exxon Mobil Corporation, The ... In this news release, "Merck" refers to the relevant pre- or post-merger entity, ...'
p4
aS'Dec 1, 2010 - ... Chevron Corp. has made a large grab at the North American shale industry, ... Shell, ExxonMobil, BP, and Statoilhave already snapped up acreage and ..... Get All the Oil & Gas Financial Journal News Delivered to Your Inbox for free.'
p5
aS"Dec 1, 2010 - Steenstrup chose the development of Mobil's Zafiro deepwater project offshore .... Get All the Offshore Magazine News Delivered to Your Inbox for free ... Lockheed Martin has selected SeaRobotics Corp. as the original equipment .... as part of the Baytown Complex Laboratory of ExxonMobil Refining Supply Company, will ..."
p6
aS'Nov 30, 2010 - These people want to cut back on the powers of the EPA and the Department of Energy so that ExxonMobil can remain the most profitable corporation in world ...'
p7
aS'Dec 1, 2010 - China National Petroleum Corp. and OAO Gazprom were ready to scoop up Kazakh ... oil field, to 16.8 percent in 2008, equal to the stakes held by Eni, Exxon Mobil Corp., ... In interviews with Bloomberg News, the prince cautioned that if other ...'
p8
aS'Dec 1, 2010 - Denison Mines Corp(DNN) ... to add to your portfolio, oil majors like Exxon Mobil (XOM) and Dow component Chevron (CVX) tend to come to mind first.'
p9
aS"Nov 30, 2010 - Lead Stories  Other News ... Ghana government and the Ghana National Petroleum Corporation are entertaining too much offers for ... Since ExxonMobil's $4 billion offer for Kosmos Energy's 23.5% stake in the Jubilee field was rejected last ..."
p10
a.