(lp0
S'Dec 15, 2010 - (XOM: News ) that alleges thousands of violations of federal clean air act at the ... The lawsuit seeks a court order requiring ExxonMobil to end its Clean Air Act violations. ... The Bar for Corporate Leadership on Climate Has Been Raised ...'
p1
aS'Dec 15, 2010 - HOUSTON  Two environmental groups have asked a federal court to force Exxon Mobil Corp. to reduce harmful emissions at its massive Baytown complex, ...'
p2
aS"Dec 14, 2010 - ... Texas filed a federal lawsuit against Exxon Mobil Corp for five years of excess pollution at ... A view of the Exxon Mobil refinery in Baytown, Texas September 15, 2008. .... Thomson Reuters is the world's largest international multimedia news ..."
p3
aS'Dec 15, 2010 - ENVIRONMENT TEXAS CITIZEN LOBBY, INC., and SIERRA CLUB, Plaintiffs, Civil Action No. 4:10-cv-4969 v. EXXONMOBIL CORPORATION, EXXONMOBIL ...'
p4
aS"Dec 15, 2010 - ExxonMobil is working to reach out to Alaska's communities and people by ... click here: http://www.exxonmobil.com/Corporate/community_math.aspx ... News  Did You Miss the Webinar? If you missed our applications webinar from last week, ..."
p5
aS"Dec 14, 2010 - Claims that ExxonMobil did not pay taxes in 2009 are just plain incorrect. ... Click here to subscribe to the blog's RSS news feed. .... Exxon Mobil Corporation."
p6
aS'Dec 15, 2010 - Environmental groups have filed a lawsuit against Exxon Mobil for allowing the largest oil refining plant in the nation to emit over 8 million pounds of illegal air ...'
p7
aS'Dec 15, 2010 - DOW JONES, A NEWS CORP COMPANY .... to sell its stake in the Jubilee field and eventually reached a $4 billion deal with U.S. oil giant Exxon Mobil Corp.'
p8
aS'Dec 14, 2010 - FedEx Corp. drivers were found by a judge to be independent contractors in a ... Chesapeake, second only to Exxon Mobil Corp. in gas production from U.S. ...'
p9
aS'Dec 15, 2010 - ... $5.4 billion doubling the capacity of the oil link that runs from the Chevron Corp. ... Exxon Mobil Corp., BG Group Plc, Eni SpA and Oryx Caspian Pipeline LLC.'
p10
a.