(lp0
S'Dec 2, 2010 - Blanca De La Rosa, ExxonMobil Engineering and Mathematics Scholarship Sponsor and Olivia Plana. ... Exxon Mobil Corporation and the Hispanic Heritage Foundation awarded the 2010 Hispanic Heritage Youth ... News Postings by Date ...'
p1
aS'Dec 2, 2010 - DOW JONES, A NEWS CORP COMPANY ... is a network of leading companies in the worlds of diversified media, news, education, and information services.'
p2
aS'Dec 1, 2010 - China National Petroleum Corp. and OAO Gazprom were ready to scoop up Kazakh ... oil field, to 16.8 percent in 2008, equal to the stakes held by Eni, Exxon Mobil Corp., ... In interviews with Bloomberg News, the prince cautioned that if other ...'
p3
aS'Dec 2, 2010 - Exxon Mobil Starts Damar Gas Production Off Malaysia ... Exxon Mobil Corporation announced the start of natural gas production at the Damar field off the east ...'
p4
aS'Dec 1, 2010 - ... Chevron Corp. has made a large grab at the North American shale industry, ... Shell, ExxonMobil, BP, and Statoilhave already snapped up acreage and ..... Get All the Oil & Gas Financial Journal News Delivered to Your Inbox for free.'
p5
aS"Dec 2, 2010 - ... has wooed impressive talent to Genie's advisory boardincluding News Corp. ... prudently be worth half as much as ExxonMobil , or roughly $150 billion."
p6
aS'Dec 1, 2010 - Denison Mines Corp(DNN) ... to add to your portfolio, oil majors like Exxon Mobil (XOM) and Dow component Chevron (CVX) tend to come to mind first.'
p7
aS"Dec 2, 2010 - ... and Haffner's insistence on maintaining the area's lowest gas prices despite increased pricing competition, even from major chains like Exxon and Mobil."
p8
aS'Dec 1, 2010 - Exxon Mobil has awarded the new Kiewit-Aker Contractors joint venture a front-end .... Not such good news for the company to the north in the Romanian sector, ...'
p9
aS'Dec 1, 2010 - Rockbestos-Surprenant Cable Corp. ... Trending News ... Exxon Mobil Corp. has started oil production at the Julia field in the deepwater Gulf of Mexico.'
p10
a.