(lp0
S'Dec 20, 2010 - CSPnet.com - Convenience Store News .... Exxon Mobil Corp. ... Schools could partner with Exxon- and Mobil-branded stations, the majority of which are ...'
p1
aS'Dec 20, 2010 - Exxon Mobil Corp. said it resumed output from the Oso field in Nigeria more than a month after its gas and condensate platform there was attacked by militants.'
p2
aS'Dec 19, 2010 - The real estate community was speculating in the media that Exxon-Mobil ... The other big corporate office campus to make news in 2010 was the one that did ...'
p3
aS'Dec 20, 2010 - ... first nine months of the year  even as Gillispie publicly reported the company could rival Exxon Mobil in profitability. ... More News ... Public Radio and Television, Jefferson Public Radio, KLCC and the Corporation for Public Broadcasting.'
p4
aS'Dec 19, 2010 - *CORPORATE TERRORISM AGAINST A FORMER SHELL EMPLOYEE ... Links to news media information - over 100 articles by the FT, Wall Street Journal, Reuters ..... REUTERS ARTICLE: Exxon-Shell gas venture may have to adjust .... in the USA  ExxonMobil Website  Fifo Mining Jobs  fuelfix.com  Google Shell News ...'
p5
aS'Dec 20, 2010 - GEOLOGY &. GEOPHYSICS NEWS. Inside this Issue ... Shell Corporation). We know many G&G alumni ...... (aka ExxonMobil now) for the last 25 years and has ...'
p6
aS'Dec 21, 2010 - news room  Media Kit  Podcasts ... Rex W. Tillerson, Chairman and CEO of ExxonMobil Corporation, also attended the event at Ras Laffan. "Qatar\'s visionary ...'
p7
aS'Dec 19, 2010 - ... Gulf of Mexico shelf oil and natural gas interests from ExxonMobil and its affiliates, ... energy-pedia general news ... Current Corporate Activity articles: 2567 ...'
p8
aS'Dec 20, 2010 - Get All the Offshore Magazine News Delivered to Your Inbox for free .... as part of the Baytown Complex Laboratory of ExxonMobil Refining & Supply Company, ...'
p9
aS"Dec 19, 2010 - ExxonMobil, the largest supplier of fossil fuels, distributed over $8 million from 2000 ... For instance, in 2005, ExxonMobil's Corporate Citizenship Report ... Mother Jones, http://www.motherjones.com/news/featurex/2005/05/exxon_chart.html, ..."
p10
a.