(lp0
S'Dec 28, 2010 - Natural-gas processing facility operated by ExxonMobil Corporation. Located about 6.7 miles south-southwest of Fontenelle, Wyoming. For U.S. EPA report on ...'
p1
aS'Dec 28, 2010 - By Environment & Energy News | December 28, 2010 ... But as pressure grew, companies such as Exxon Mobil Corp. insisted that they actually were disclosing ...'
p2
aS'Dec 27, 2010 - Dallas Morning News Home ... Genesco CEO John Tatum says his corporate clients will host and entertain about 3,000 people for .... Exxon Mobil, XOM, 78.06.'
p3
aS'Dec 27, 2010 - Petrohawk Energy Corp. has sold its natural gas assets in the Fayetteville Shale ... The Fayetteville acquisition gives ExxonMobil about 537,000 net acres in the ... is a leading provider of natural gas, shale news and market information for the ...'
p4
aS'Dec 27, 2010 - CSPnet.com - Convenience Store News  April 2016 CSP .... Oh, really? the rep asks, and flips through his mental Rolodex for the name of Quick Chek Corp.'
p5
aS'Dec 27, 2010 - News and information on Royal Dutch Shell Plc. ... start of my employment in PILIPINAS SHELL PETROLEUM CORPORATION, ..... REUTERS ARTICLE: Exxon-Shell gas venture may have to adjust Groningen output after court ruling: 15 April 2015 .... ExxonMobil Website  Fifo Mining Jobs  fuelfix.com  Google Shell News ...'
p6
aS"Dec 27, 2010 - But God help you if you're still long on stocks when the nightly news begins to ..... 5/20/2014, CYGAM Announces Updated Corporate Presentation and Presents . ... 4/19/2016, Why Exxon Mobil Investors Should Expect A Dividend Increase ."
p7
aS'Dec 27, 2010 - One of the most important developments of the past week was the newfound strength of big-cap energy, such as Exxon Mobil Corp. (NYSE: XOM) and Chevron ...'
p8
aS"Dec 28, 2010 - Subsidiaries of Exxon Corp., Royal Dutch Shell, Standard Oil Co. of California, and others ... Mobil and Pdvsa's portion of the upgraded crude will be refined at their joint venture ... Get All the Oil and Gas Journal News Delivered to Your Inbox."
p9
aS'Dec 27, 2010 - WunderBlog News & Blogs .... Dirty Money: Big Oil and corporate polluters spent over $500 million to kill climate bill, push ... Producers, like Exxon Mobil Corp.'
p10
a.