(lp0
S'Dec 30, 2010 - Carrier Corporation in the US produces a 500-ton chiller incorporating a 6-in biphase ... Get All the Offshore Magazine News Delivered to Your Inbox for free ... Exxon Mobil Corp. has started oil production at the Julia field in the deepwater Gulf ...'
p1
aS'Dec 30, 2010 - 3519, Exxon Mobil Corporation, Baton Rouge, East Baton Rouge Parish, Louisiana, Settlement No. SA-AE-10-0042, State settlement agreement regarding air ...'
p2
aS'Dec 30, 2010 - E-mail: rl.skip.hobbs@exxonmobil.com. Georgia Gulf Corporation Mr. Charlie Freeburgh, Operations Mgr. Chemical & Polymers P.O. Box 629. Plaquemine, LA ...'
p3
aS'Dec 31, 2010 - RVING, Texas--(BUSINESS WIRE)--Exxon Mobil Corporation (NYSE:XOM) announced today that its subsidiary, Exxon Neftegas Limited, has successfully drilled ...'
p4
aS'Dec 30, 2010 - Celanese; Exxon Refinery; Humble Oil Refining Corporation; King Ranch ... Dynegy Midstream Services Lp; Exxon Chemical Company; Exxon Mobil Oil Corp ...'
p5
aS'Dec 30, 2010 - Also, Exxon, Mobil, Occidental, and Amerada Hess exhibited average assured operational .... International news for oil and gas professionals ... ExxonMobil Corp. in October published an updated crude oil assay for Zafiro Blend, which is ...'
p6
aS'Jan 1, 2011 - (now ExxonMobil Corp.) .... Of the five American "sisters"-Exxon Corp., Mobil Corp., Chevron Corp., Texaco Inc., ... International news for oil and gas professionals ...'
p7
aS'Dec 30, 2010 - ... Prospect, The National, The Atlantic Monthly, The Los Angeles Daily News, ... the Exxon-Mobil Corporation, the Ford Foundation, the Foundation for Child ...'
p8
aS'Dec 30, 2010 - Dallas Morning News Home .... Understand your corporate documents and bank covenants so there are no surprises. SOURCES: ... Exxon Mobil, XOM, 78.06.'
p9
aS"Dec 30, 2010 - The Fool owns shares of ExxonMobil, but Rich Smith does not own shares of any company named above. ... play (http://www.bloomberg.com/news/2010-12-27/chemed-dresser-rand... others don't. .... ExxonMobil Corp, CAPS Rating: **** ..."
p10
a.