(lp0
S'Jan 13, 2010 - Exxon Mobil Corp. plans to spend $340 million to boost production of one of ... By ELIZABETH SOUDER / The Dallas Morning News esouder@dallasnews.com ... Exxon has been producing oil at the field near Tyler for 70 years, since the ...'
p1
aS'Jan 14, 2010 - Exxon Mobil Corp. Stock Price (XOM) Stock Quote and real time streaming Exxon Mobil - Stock Charts, - Company Information, News, Level 2 Data, Message ...'
p2
aS'Jan 15, 2010 - Philanthropy has been hurt by the economic downturn, but many of the most generous corporate foundations found ways to keep giving.'
p3
aS'Jan 13, 2010 - Once the deal is complete, ExxonMobil plans to create a new upstream ... said Rex Tillerson, chairman and chief executive officer of ExxonMobil Corporation. ... Sea, which is good news for our customers and shareholders," said Sam Laidlaw ...'
p4
aS'Jan 13, 2010 - BP, Inc. (NYSE:BP) and the China National Petroleum Corp. were awarded the development ... A month later, Exxon Mobil (NYSE:XOM) and Royal Dutch Shell (NYSE:RDS. .... Subscribe to News To Use for the latest insights and analysis ...'
p5
aS'Jan 13, 2010 - Join LinkedIn to get the latest news, insights, and opportunities from over 3 million ... Joint venture of The Dow Chemical Compnay and ExxonMobil formed to ...'
p6
aS'Jan 14, 2010 - Get All the Offshore Magazine News Delivered to Your Inbox for free ... the installation of subsea mooring connectors for Anadarko Petroleum Corp. .... as part of the Baytown Complex Laboratory of ExxonMobil Refining Supply Company, will ...'
p7
aS'Jan 14, 2010 - Exxon Mobil seeks stake in Mozambique gas project. 5:36 P.M. ET. Hologic, Centene tick higher on S&P .... More News from MarketWatch. Top Stories. Trending.'
p8
aS'Jan 13, 2010 - ... directors of Western Sizzlin Corporation, a 50-year old franchising company with over $150 million in system-wide ... Latest News ... Exxon Mobil Corporation.'
p9
aS'Jan 14, 2010 - In The News Industry Experience Associates ... Mobil Marketing & Refining--US Exxon Mobil MarketingUS ... National Data Corp First Issac. Government'
p10
a.