(lp0
S'Jan 20, 2010 - ExxonMobil announced today the successful completion of the first two extended-reach wells at the Odoptu ... More News RSS feed for Exxon Mobil Corporation.'
p1
aS"Jan 20, 2010 - Moncrief bought a piece of Davy Jones after being impressed by McMoRan's success with a former Exxon Mobil Corp. well known as Blackbeard at a ..."
p2
aS'Jan 20, 2010 - Get premium, high resolution news photos at Getty Images. ... Rex Tillerson, chairman and chief executive officer of ExxonMobil Corp., laughs during a.'
p3
aS'Jan 21, 2010 - provides you with the latest news, links, and resources about Signum. ..... Mobil, the Pegasus design and Signum are trademarks of Exxon Mobil Corporation.'
p4
aS'Jan 21, 2010 - DOW JONES, A NEWS CORP COMPANY .... Exxon Mobil Corp. placed itself squarely in the middle of the wrangling when it agreed last month to acquire gas ...'
p5
aS'Jan 21, 2010 - home  news  careers  contact us. English | . Global  ExxonMobil Chemical  products & services. polymers. polyethylene  polypropylene.'
p6
aS'Jan 21, 2010 - Press Releases and Press Notes  News  Focus on  Eni in the Press  Corporate Announcements  From the media  Speeches and Interviews  Corporate Magazines ... Eni purchases ExxonMobil downstream activities in Austria ... Through the transaction, Eni will acquire ExxonMobil oil downstream activities in Austria.'
p7
aS'Jan 21, 2010 - dit le 21/01/2010 - Plus de news de "ENI" - Voir la fiche entreprise de "ENI" ... Through the transaction, Eni will acquire ExxonMobil oil downstream activities in ...'
p8
aS'Jan 21, 2010 - The dissenters said opening the floodgates to corporate money will corrupt democracy. How will this decision .... Bad News for Judicial Elections. Richard Hasen.'
p9
aS"Jan 22, 2010 - EXXON MOBIL, the largest US energy company, is offering stakes in two natural gas fields off the Irish ... Exxon Mobil is trimming its shares in the Dunquin fields for a second time in less than a year. ... Campaign News ... Says - 6 weeks ago; Prisoners draw corporate evil-doers who should be in jail but aren't - 8 weeks ago."
p10
a.