(lp0
S'Jan 25, 2010 - IRVING, Texas--(BUSINESS WIRE)--Exxon Mobil Corporation (NYSE:XOM) today announced that its affiliate ExxonMobil Iraq Limited signed an agreement with ...'
p1
aS"Jan 24, 2010 - HOUSTONA collision between an oil tanker bound for Exxon Mobil Corp. ... vessel traffic along Port Arthur's river front, the Coast Guard said in a news release."
p2
aS'Jan 24, 2010 - DOW JONES, A NEWS CORP COMPANY .... The incident brings up an unwelcome association for Exxon Mobil Corp., which said it chartered the vessels ...'
p3
aS'Jan 25, 2010 - ... headed for an Exxon Mobil Corp. refinery in Beaumont collided with a towing vessel pushing two barges near Port Arthur, ... "Exxon Mobil is very concerned about this unfortunate incident. ... FCC News and Information Programming Report.'
p4
aS'Jan 24, 2010 - About 462,000 gallons of oil spilled when an 800-foot tanker headed for an Exxon Mobil Corp. refinery in Beaumont collided Saturday with a vessel pushing two ...'
p5
aS'Jan 24, 2010 - home  news  careers  contact us. English | . Global  ExxonMobil Chemical  products & services. polymers. polyethylene  polypropylene.'
p6
aS'Jan 25, 2010 - Stephen Pryor, vice president of Exxon Mobil Corp., speaks at the Global Competitiveness Forum in ... Get premium, high resolution news photos at Getty Images.'
p7
aS'Jan 24, 2010 - ... with a cargo of crude to Exxon Mobil Corp\'s 344,500 barrel per day (bpd) refinery in ... our operations at the Beaumont refinery," said Exxon spokesman Kevin Allexon. .... Thomson Reuters is the world\'s largest international multimedia news ...'
p8
aS'Jan 25, 2010 - AP Photo/The News, Reesha BrownA gash in the side of the oil tanker Eagle ... headed for an Exxon Mobil Corp. refinery in Beaumont collided with a towing ... Exxon Mobil spokesman Kevin Allexon said the company was monitoring the ship ...'
p9
aS"Jan 24, 2010 - The tanker was carrying crude oil to Exxon Mobil Corp's refinery in Beaumont, Texas, located north of Port Arthur. The waterway, through which tankers carry oil ..."
p10
a.