(lp0
S"Jan 27, 2010 - ExxonMobil, Ashoka's Changemakers and International Center for Research on ... Exxon Mobil Corporation (NYSE:XOM) and ExxonMobil Foundation, the ..."
p1
aS'Jan 28, 2010 - ExxonMobil will release its fourth quarter 2009 earnings on Monday, February 1, 2010. ... More News RSS feed for Exxon Mobil Corporation. March 15, 2016.'
p2
aS'Jan 27, 2010 - ExxonMobil methyl ethyl ketone (MEK) ExxonMobil methyl ethyl ketone (MEK) oxygenated fluids offer strong solvency and fast evaporative properties. ... ExxonMobil MEK is a key fluid in formulating polychloroprene adhesives, especially as a replacement for toluene, and is a ...'
p3
aS'Jan 28, 2010 - ExxonMobil will provide the basic design engineering for the 22,600b/d unit. ... The revamped refinery is due to come online in 2015, state news agency Andina ...'
p4
aS'Jan 28, 2010 - News & Publications ... Packer of SkyRiver Management; Erik Perkins of Exxon Mobil Corporation*; Cindy Polfliet of The Schwan Food Company; Trish Poulos of ...'
p5
aS'Jan 28, 2010 - RIGZONE News - leading source for the latest news and information for the oil ... is home to a plethora of major industry players, including Exxon Mobil Corp, the ...'
p6
aS'Jan 28, 2010 - RIGZONE News - leading source for the latest news and information for the oil ... is home to a plethora of major industry players, including Exxon Mobil Corp, the ...'
p7
aS"Jan 29, 2010 - Exxon Mobil Corporation; Intracoastal Tubular Services, Inc, Etc., et aL.; Mobil Exploration & Producing U.S. Inc.,; Alpha Technical; Chevron U.S.A., Inc.;' Conoco ..."
p8
aS"Jan 28, 2010 - Real Estate News. ExxonMobil campus grows to house 10,000 employees: read more; Exxon's shift near The Woodlands means a ... ExxonMobil's Top Secret New Corporate Campus Now Hiding in Plain Sight on Google Maps: read more ..."
p9
aS"Jan 27, 2010 - National Security News Service  Natural Resources News Service  Trento's Take ... on Energy and Commerce hearing on the impact of an Exxon Mobil Corp."
p10
a.