(lp0
S'Feb 16, 2010 - IRVING, Texas--(BUSINESS WIRE)--Exxon Mobil Corporation (NYSE:XOM) announced today that additions to its proved reserves in 2009 totaled 2.0 billion ...'
p1
aS"Feb 16, 2010 - Adding new reserves ensures that ExxonMobil will continue to develop new ... The annual reporting of proved reserves is the product of the corporation's ..."
p2
aS'Feb 16, 2010 - ... not expected to form new giant companies like Exxon Mobil or ConocoPhillips. ... A floorhand began drilling on a natural gas rig for Chesapeake Energy Corp.'
p3
aS'Feb 17, 2010 - Warren Buffett sold EXxon Mobil because it is using undervalued stock to ... have to do with the big news that hit the wires on December 14, 2009: Exxon Mobil ...'
p4
aS'Feb 17, 2010 - But according to the Bloomberg news desk, the company appears to be a sham. .... 1 for Exxon Mobil Corp., the largest U.S. company, when it said in a headline ...'
p5
aS"Feb 16, 2010 - Air Products' Nitrogen Recovery Unit Equipment Selected for ExxonMobil Texas Project."
p6
aS'Feb 17, 2010 - Dallas Morning News Home. ePaper Subscribe ... NINA is a joint venture created by NRG and Toshiba Corp. to build the reactors. .... Exxon Mobil, XOM, 78.06.'
p7
aS'Feb 17, 2010 - The ExxonMobil Community Summer Jobs Program: Frequently Asked Questions ... Corporate News Archive  Your Link to Excellence in Corporate Citizenship.'
p8
aS'Feb 17, 2010 - home  news  careers  contact us. English | . Global  ExxonMobil Chemical  products & services. polymers. polyethylene  polypropylene.'
p9
aS'Feb 17, 2010 - Through its trading subsidiaries, Petronas Trading Corp. and Malaysia International .... Get All the Oil and Gas Journal News Delivered to Your Inbox .... as part of the Baytown Complex Laboratory of ExxonMobil Refining & Supply Company, ...'
p10
a.