(lp0
S'Feb 22, 2010 - Form S-4 Exxon Mobil Corp - XOM, February 1, 2010, Registration of ...... http://finance.yahoo.com/news/Petrohawk-Energy-Corporation-prnews-422610.'
p1
aS'Feb 21, 2010 - Falcon Oil & Gas has received written notices from ExxonMobil and MOL, stating that neither company will proceed to the ... Upstream oil and gas news for exploration and production professionals ... Current Corporate Activity articles: 2567 ...'
p2
aS"Feb 21, 2010 - ExxonMobil takes its environmental remediation responsibilities seriously. Our goal is the same as the community's  to remediate the petroleum contamination ..."
p3
aS'Feb 22, 2010 - In December, for instance, Exxon Mobil Corp. said it would buy Fort Worth natural gas firm XTO Energy for $41 billion in a move to boost its natural gas reserves.'
p4
aS"Feb 22, 2010 - Chemical and petrochemical news and contracts for contractors and ... ExxonMobil Corporation's sales and purchase agreements with liquefied natural gas ..."
p5
aS'Feb 21, 2010 - Drilling/Production news briefs, Jan. 17 ... Project operator Operadora Cerro Negro is a strategic association among ExxonMobil Corp., 41.7%, Petroleos de ...'
p6
aS'Feb 21, 2010 - By BRENDAN CASE / The Dallas Morning News bcase@dallasnews.com. Published: ... Both Beal Bank and Beal Bank Nevada are subsidiaries of Beal Financial Corp., a holding company solely owned by Beal. .... Exxon Mobil, XOM, 78.06.'
p7
aS'Feb 21, 2010 - Get All the Offshore Magazine News Delivered to Your Inbox for free ..... as part of the Baytown Complex Laboratory of ExxonMobil Refining & Supply Company, ...'
p8
aS'Feb 22, 2010 - Since Gates is investing in Exxon Mobil, there is a dangerous alignment of interests. .... Bavarian intervention caused by EPO affairs is now the subject of news ... Corporate Lobbying for Software Patents in the United States and Against Alice, ...'
p9
aS'Feb 23, 2010 - ... the use of cookies. ExxonMobil ... country web site. home  news  careers  contact us ... Exxon Mobil Corporation  Global Web Sites  Contact Us  Copyright ...'
p10
a.