(lp0
S'Feb 23, 2010 - IRVING, Texas--(BUSINESS WIRE)--Qatar Petroleum and Exxon Mobil Corporation (NYSE:XOM) today announced the Al Khaleej Gas-Phase 2 (AKG-2) project, ...'
p1
aS'Feb 24, 2010 - EX-99.1 2 dex991.htm EXHIBIT 99.1 - NEWS RELEASE ... to Dallas as the corporate finance manager for Exxon Corporation, now Exxon Mobil Corporation.'
p2
aS"Feb 23, 2010 - Hot on the heels of oil giant Exxon Mobil Corp's (XOM. ... Thomson Reuters is the world's largest international multimedia news agency, providing investing news ..."
p3
aS"Feb 24, 2010 - Exxon Mobil. Big merger, we get it. Now get over it and pick a name. Chevron got it right when it bought Texaco. Now you see it, now you don't. Gone. Smart."
p4
aS'Feb 24, 2010 - home  news  careers  contact us. English | . Global  ExxonMobil Chemical  products & services. polymers. polyethylene  polypropylene.'
p5
aS'Feb 24, 2010 - The announcement from ExxonMobil Corp. said RasGas 3 Train 7 is the fourth 7.8-million-tpy ... Get All the Oil and Gas Journal News Delivered to Your Inbox.'
p6
aS'Feb 25, 2010 - Corporate name, Chevron Corp. Tradename, Chevron ... news. Email address. Start a Free Trial. Already a subscriber? Please, login ... ExxonMobil. 14 Key ...'
p7
aS"Feb 24, 2010 - I believe three flaws in Toyota's corporate culture are behind its current predicament. ... now that attack will likely be directed at Exxon Mobil and Toyota, not GM."
p8
aS'Feb 24, 2010 - By SHERYL JEAN / The Dallas Morning News. Published: 24 February 2010 10:15 AM .... Exxon Mobil, XOM, 78.06. Fluor Corp. FLR, 41.35. Fossil, FOSL, 32.48.'
p9
aS'Feb 24, 2010 - By News on the Net -- Bio and Archives February 24, 2010 ... a 14-page subpoena to the Competitive Enterprise Institute while investigating Exxon Mobil Corp.'
p10
a.