(lp0
S'Feb 26, 2010 - Academic News ... and philanthropy and a member of the board of directors for Exxon Mobil Corp. and National Association of Corporate Directors (NACD).'
p1
aS"Feb 26, 2010 - During the 1990s, it achieved growth through buying BP and Mobil's Dutch assets, and .... Get All the Offshore Magazine News Delivered to Your Inbox for free .... Job Summary: ExxonMobil Research and Engineering Company has an immediate ... at its Corporate Strategic Research laboratory located in Annandale, NJ."
p2
aS'Feb 26, 2010 - ... a joint venture composed of Qatar Petroleum, Total, ExxonMobil, Mitsui and Marubeni, ... Chiyoda Corporation, headquartered in Yokohama, Japan, provides ...'
p3
aS'Feb 26, 2010 - About us. ExxonMobil has been an active and engaged member of the Greenpoint community for decades. The core ExxonMobil team dedicated to this ...'
p4
aS'Feb 26, 2010 - Potential gas committee ExxonMobil Acquisition of XTO Energy  $31 billion in stock & assumption of $10 .... --Bloomberg News October 14, 2009; Rapid decline rate for horizontal wells  A cautionary note about .... Exxon Mobil Corporation.'
p5
aS'Feb 26, 2010 - ... with the Dolphin deal, Harvey Gulf signed a five-year alliance with Exxon-Mobil for all ... Georges also runs corporate food service and vending businesses under ... Local, small business, finance and economy news for greater New Orleans.'
p6
aS'Feb 25, 2010 - Black Enterprise has decided to spotlight the extraordinary achievements of a cadre of top professionalsour 100 Most Powerful Executives in Corporate ...'
p7
aS"Feb 26, 2010 - News Corporation (NASDAQ: NWS) There's a reason Fox News Channel is America's ... Also, Exxon Mobil has earned a truly Godly score of zero on a sodomite ..."
p8
aS'Feb 26, 2010 - Twenty Dividend Increases in the news ... Exxon Mobil Corporation (XOM) engages in the exploration, production, transportation, and sale of crude oil and ...'
p9
aS'Feb 25, 2010 - Take for example, the little-known Bill Barrett Corporation, a Colorado-based ... merger between Exxon Mobil and XTO Energy Inc. If the deal goes through, ...'
p10
a.