(lp0
S"Feb 1, 2010 - NEW YORK  Exxon Mobil Corp. said Monday its fourth-quarter net income fell 23 percent as the ... Related News/Archive ... For all of 2009, Exxon Mobil's annual profit fell 56 percent to $19.42 billion, from a U.S. record $44.06 billion in 2008."
p1
aS'Feb 2, 2010 - Exxon Mobil Corp. may be expanding its position in natural gas in North America with its pending ... Analysts, however, have speculated that the Exxon Mobil-XTO deal stems at least in part from the oil ... Why stocks need more really bad news.'
p2
aS"Feb 1, 2010 - The world's largest publicly traded oil company, ExxonMobil, saw its profits slump to ... empire smashed America's all-time record for corporate earnings in 2008. ... evidence that the recession was prompting energy efficiency was good news."
p3
aS"Feb 1, 2010 - While much of the oil industry contracted last year, Exxon Mobil expanded its oil ... In 2008, Exxon became the world's most profitable corporation with earnings ..."
p4
aS'Feb 2, 2010 - More News From Greenwire ... Oil companies, including Exxon Mobil Corp., report those costs in lobbying totals, but other large petroleum companies like ...'
p5
aS"Feb 2, 2010 - BP's results compare with lower fourth-quarter earnings at U.S. rivals Exxon Mobil Corp (XOM. ... Nonetheless, Exxon and Chevron reported downstream losses. ... Thomson Reuters is the world's largest international multimedia news agency, ..."
p6
aS"Feb 1, 2010 - Cosan first branched out into the fuel distribution business in 2008 when it acquired U.S.-based Exxon Mobil Corp's Esso chain of service stations for nearly $1 ..."
p7
aS'Feb 2, 2010 - ExxonMobil Corp., which is buying onshore natural gas shale giant XTO ... The preceding news report may not be republished or redistributed, in whole or in ...'
p8
aS'Feb 2, 2010 - By BRENDAN CASE / The Dallas Morning News bcase@dallasnews.com ... has been slamming PlainsCapital, which is owned by Dallas-based PlainsCapital Corp., and warning other small businesses to beware. .... Exxon Mobil, XOM, 78.06.'
p9
aS'Feb 2, 2010 - From corporate dining, restaurants, hospitals, sports & entertainment to school cafeterias, Compass Group can provide your business with comprehensive ...'
p10
a.