(lp0
S'Feb 3, 2010 - ExxonMobil isopropyl alcohol. ... ExxonMobil isopropyl alcohol (IPA) is a clear, colorless and volatile material with a light odor. ... ExxonMobil Chemical has been a long-term supplier of specialty IPA grades.'
p1
aS'Feb 3, 2010 - After months of talk, Jasper Economic Development Corporation Executive ... A deal signed in May 2013 between Exxon Mobil Corp. and Qatar Petroleum ...'
p2
aS"Feb 3, 2010 - News. Competitors. Exxon Mobil Corporation (XOM) 86.87. Quick Profile ... the DayEvery morning receive an in-depth analysis of a stock that's making the news."
p3
aS'Feb 4, 2010 - A flood of bad news, including rising debt levels in European nations and an .... Exxon Mobil Corp. fell $1.88, or 2.8 percent, to $64.72, while Chevron Corp. fell ...'
p4
aS"Feb 4, 2010 - What's moving the markets  Dow 30  Latest market news ... lower, and stocks such as Chevron (CVX, Fortune 500) and Exxon Mobil (XOM, Fortune 500) sliding."
p5
aS'Feb 3, 2010 - PDOD was owned by BP, Shell, Total, Exxon, Mobil, with 5 per cent held by ... (Japex then was in partnership with the state-owned Japan National Oil Corp ...'
p6
aS"Feb 4, 2010 - Dallas Morning News Home. ePaper Subscribe ... Wearable products ready for corporate logos are the industry's biggest category. .... Exxon Mobil, XOM, 78.06."
p7
aS'Feb 3, 2010 - Dallas Morning News Home. ePaper Subscribe  Up to 50% Off Newsstand .... Energy Transfer Partners, ETP, 21.64. Exxon Mobil, XOM, 78.06. Fluor Corp.'
p8
aS'Feb 3, 2010 - Prosperie names American Eagle, Exxon Mobil Corp. and Sabine Pilot Service as ... Contact. Southeast Texas Record; Email: news@setexasrecord.com; Twitter ...'
p9
aS'Feb 4, 2010 - Monsanto: The evil corporation in your refrigerator ... AIG, Halliburton, Goldman-Sachs, Exxon-Mobil and the United States Senate. .... News You Need to Know ...'
p10
a.