(lp0
S'Feb 5, 2010 - ExxonMobil Chemical has led the development and application of ... Recent announcements about xylenes licensing can be found in the news release section 2 ...'
p1
aS'Feb 5, 2010 - home  news  careers  contact us. English | . Global  ExxonMobil Chemical  products & services. polymers. polyethylene  polypropylene.'
p2
aS'Feb 5, 2010 - ExxonMobil Chemical and Kellogg Brown & Root (KBR) introduced the Selective Cracking Optimum Recovery (SCORE) ethylene process in 1999.'
p3
aS"Feb 5, 2010 - ... the industry's broadest portfolio of polyethylene (PE) resins. ExxonMobil Chemical's global quality standards provide high product uniformity and consistency."
p4
aS'Feb 5, 2010 - DOW JONES, A NEWS CORP COMPANY. News Corp .... The downstream operation posted a loss of $427 million, echoing similar losses at Exxon Mobil Corp.'
p5
aS'Feb 5, 2010 - DOW JONES, A NEWS CORP COMPANY .... 15 gas producers and has participated in joint ventures with other Western oil majors, including Exxon Mobil Corp.'
p6
aS'Feb 5, 2010 - ... and ExxonMobil has implemented a mobile framework across its three business .... He joined Invensys Operations Management after SAT Corporation was ...'
p7
aS'Feb 5, 2010 - Home  News  Communities ... By ERIC TORBENSON and KAREN ROBINSON-JACOBS / The Dallas Morning News .... Exxon Mobil, XOM, 78.06. Fluor Corp.'
p8
aS'Feb 4, 2010 - A flood of bad news, including rising debt levels in European nations and an .... Exxon Mobil Corp. fell $1.88, or 2.8 percent, to $64.72, while Chevron Corp. fell ...'
p9
aS'Feb 5, 2010 - See a video of the news conference here. 2. ... The Yes Men punk ExxonMobil ... As ExxonMobil, they announced that American and Canadian energy ... Buy Nothing Day is as close to a holiday as it gets for the hardcore anti-corporate set.'
p10
a.