(lp0
S'Mar 9, 2010 - Exxon Corp. has started production from its $2 billion expanded development of Santa Ynez ... International news for oil and gas professionals .... exxon mobil'
p1
aS'Mar 9, 2010 - Exxon Mobil Corp ... More Details for Exxon Mobil Refinery ... With the latest News & Advice from Manta, you can stay ahead of the trends and challenges ...'
p2
aS"Mar 10, 2010 - DOW JONES, A NEWS CORP COMPANY. News Corp is a network of ..... That problem doesn't face giants like Exxon Mobil Corp. XOM -0.54 % or BP whose ..."
p3
aS'Mar 10, 2010 - The northeast Louisiana discovery was not yet in the news, so Kallenberg, .... A lot of big energy companies, like ExxonMobil, are betting that natural gas will ... merger between Exxon Mobil Corp. and a large independent gas producer.'
p4
aS'Mar 10, 2010 - Stewart Yee has joined Veritas (Houston) as Director of Corporate Marketing. ... of America have entered into agreements with Exxon Company USA and BP Amoco to ... Get All the Offshore Magazine News Delivered to Your Inbox for free .... part of the Baytown Complex Laboratory of ExxonMobil Refining Supply Company, ...'
p5
aS"Mar 9, 2010 - Chevron Corp (CVX. ... The Chevron corporate logo and the current price of unleaded fuel per gallon are shown at a ... Larger rival Exxon Mobil Corp (XOM. ... Thomson Reuters is the world's largest international multimedia news agency, ..."
p6
aS"Mar 9, 2010 - Chevron Corp (CVX. ... The Chevron corporate logo and the current price of unleaded fuel per gallon are shown at a ... Larger rival Exxon Mobil Corp (XOM. ... Thomson Reuters is the world's largest international multimedia news agency, ..."
p7
aS'Mar 9, 2010 - If you were looking for a quick, 4-paragraph introduction on the subject of Peak Oil, Bloomberg News has you covered: Exxon Mobil Corp., BP Plc and Total SA ...'
p8
aS'Mar 9, 2010 - ... than buy a competitor outright  as Exxon Mobil Corp. did in December with ... news and speeches from CERAWeek at blogs.chron.com/newswatchenergy.'
p9
aS"Mar 10, 2010 - This development is the foundation of ExxonMobil's global workplace design ... that supports the business needs of the corporation, the group and the individual. ... with a Bachelor of Fine Arts from the University of Houston. About PDR  News"
p10
a.