(lp0
S'Mar 12, 2010 - Participating interests include affiliates of ExxonMobil including Esso Highlands ... Independent Public Business Corporation (PNG government, 16.6 percent), ...'
p1
aS'3/11/2010- Exxon Mobil (NYSE:XOM) said Thursday that it plans to spend approximately $27 billion on capital ...'
p2
aS'Mar 12, 2010 - Collection: ExxonMobil Historical Collection. The American Energy History Collections consists of corporate archives, organizational records, personal papers ...'
p3
aS'Mar 11, 2010 - NEW YORK (CNNMoney.com) -- Exxon Mobil outlined plans Thursday that rely heavily on oil from tough to reach places, extracting it from the depths of the ...'
p4
aS'Mar 12, 2010 - ExxonMobil aims to contribute to the Middle East and North Africa region by helping to develop highly skilled and culturally adept individuals.'
p5
aS"Mar 11, 2010 - In December Exxon Mobil paid $41 billion for XTO, a pure-play gas firm with a large .... T. Boone Pickens, a corporate raider turned energy speculator, has ... Subscribe to The Economist and get the week's most relevant news and analysis."
p6
aS"Mar 12, 2010 - Haroon S. Kheshgi is the Global Climate Change Program Leader at ExxonMobil's Corporate Strategic Research. He studied chemical engineering at the ..."
p7
aS'Mar 12, 2010 - DOW JONES, A NEWS CORP COMPANY .... a $300 million deal with Exxon Mobil to develop renewable energy sources, uses solar energy to warm the water of ...'
p8
aS'Mar 12, 2010 - More Details for Exxon Mobil Downstream Business Services Inc. Categorized under Oil Crude. ... Exxonmobil Oil Corporation Oil Crude in Fairfax, VA.'
p9
aS'Mar 11, 2010 - Still, even under contract terms paying Oxy (and partners Eni ( E - news - people ) ... In five-year average return on capital Oxy, at 21%, trails only ExxonMobil.'
p10
a.