(lp0
S'Mar 16, 2010 - Careers  Investors  News  Global  ExxonMobil. Menu .... Privacy policy  Terms & conditions.  Copyright 2003- Exxon Mobil Corporation. All Rights Reserved.'
p1
aS'Mar 16, 2010 - Careers  Investors  News; Select countryGlobal_selector_abbreviation ..... Careers  Contact us  Investors  News and updates  Perspectives blog.'
p2
aS'Mar 16, 2010 - FOR IMMEDIATE NEWS RELEASE. NEWS RELEASE #020 ... 1979, ExxonMobil constructed an ethylene pipeline extending from LA Hwy 1 in. Plaquemine .... or corporation that may prove beneficial or profitable to some portion of the public,.'
p3
aS'Mar 15, 2010 - Latest CVX News | Press Releases ... Corporate winners and losers amid the oil price crash ... ExxonMobil Commences Production at Julia Oil Field in GoM.'
p4
aS'Mar 16, 2010 - Grand-prize package of the Mobil 1 Orange County Choppers Sweepstakes won by ... Mobil, Mobil 1 and the 1 icon are trademarks of Exxon Mobil Corporation ...'
p5
aS'Mar 15, 2010 - Get All the Offshore Magazine News Delivered to Your Inbox for free ... Exxon Mobil Corp. has started oil production at the Julia field in the deepwater Gulf of ...'
p6
aS'Mar 16, 2010 - DOW JONES, A NEWS CORP COMPANY ..... For example, shares of Exxon Mobil Corp. and Chevron Corp. historically tend to trade in similar directions, since ...'
p7
aS'Mar 15, 2010 - DOW JONES, A NEWS CORP COMPANY. News Corp is a .... WSJ.com/Mideast: News, video, graphics ... Royal Dutch Shell PLC, BP PLC, ExxonMobil Corp.'
p8
aS'Mar 15, 2010 - Exxon Mobil Corporations has just announced that it will start its Papua New ... Independent Public Business Corporation (PNG government, 16.6 percent), ... cars; moto; news; reviews; editorial; coverstory; auto how-to; glossary; car finder; rss.'
p9
aS'Mar 16, 2010 - ExxonMobil to Explore Black Sea with Specially Designed Transocean Drillship ... Top 5 News; Carnival Corporation Finalizes Contracts with Fincantieri to Build ...'
p10
a.