(lp0
S'Mar 5, 2010 - ExxonMobil, perhaps the industry\'s biggest poster child for anti-climate change ... Discussion of stakeholder engagement is adequate at the corporate level but ... and the news article "Sustainability Rankings for ICT Industry Put Vodafone, ...'
p1
aS"Mar 4, 2010 - Exxon Mobil Corp's buttoned-up, bureaucratic corporate culture could chase away XTO Energy ... (For more news on Reuters Money visit www.reutersmoney.in) ..."
p2
aS'Mar 5, 2010 - ExxonMobil Chemical is committed to operating throughout the world in a way that protects the environment and takes into account the economic and social ...'
p3
aS'Mar 5, 2010 - home  news  careers  contact us. English | . Global  ExxonMobil Chemical ..... ExxonMobil Chemical advanced synthetic base stocks: Innovative lubricants start here viewable by ... Copyright 2015 Exxon Mobil Corporation. All Rights ...'
p4
aS'Mar 5, 2010 - After deliberating over seven days, a Jefferson Parish jury today found Exxon Mobil failed to warn workers at a Harvey industrial yard that the offshore drilling ...'
p5
aS'Mar 5, 2010 - ... contract terms to international oil giants like Exxon Mobil (XOM, Fortune 500) ... of 50% of their profits to the government in either royalties or corporate taxes.'
p6
aS'Mar 5, 2010 - Chemical Engineering Alumni News Spring 2010 ..... cal Corporation and it was held in the old city of Siena, ..... The Exxon Mobil Research and Engi- neering ...'
p7
aS"Mar 4, 2010 - Here's Why Devon Energy Corp. ... Why do you recommend this news source? ... The company's most significant customer is refiner and oil giant Exxon Mobil."
p8
aS'Mar 4, 2010 - NEWS RELEASE. Investor Contact: ... Charles W. Matthews to its Board of Directors and Corporate Governance and Directors Nominating ... Mr. Matthews recently retired from Exxon Mobil Corporation where he worked since 1971. He was.'
p9
aS'Mar 5, 2010 - Home  News ... By KAREN ROBINSON-JACOBS / The Dallas Morning News krobinson@dallasnews.com. Published: .... Exxon Mobil, XOM, 78.06. Fluor Corp.'
p10
a.