(lp0
S'Apr 13, 2010 - The Cablevision Systems Corp. headquarters stand in Bethpage, New York, .... plan to toughen offshore drilling rules that Exxon Mobil Corp. said will cost as ...'
p1
aS'Apr 12, 2010 - China Petrochemical Corp. agreed to pay ConocoPhillips $4.65 billion for its stake in ... Exxon Mobil Corp., based in Irving, Texas, and Chevron Corp., based in San .... Minister Paolo Gentiloni said Monday, according to Italian news wire Ansa.'
p2
aS'After winning the Masters golf tournament, Phil Mickelson promotes Exxon Mobil. ... Exxon Mobil Corp. (XOM ...'
p3
aS'Apr 13, 2010 - ... "get out there and sell" the area that  come June  will be the former home of Pilgrim\'s Pride Corp. ... Dallas Morning News Home .... Exxon Mobil, XOM, 78.06.'
p4
aS"Apr 12, 2010 - ExxonMobil's funding of virulently anti-science fanatics, carried to its 'logical' ... but now has his act together [unlike that other golfer in the news these days] has ..."
p5
aS"Apr 13, 2010 - ... and that it is the strategy that China Petroleum & Chemical Corp., known as Sinopec, ... with Western multinationals such as Imperial Oil's parent, Exxon Mobil Corp., or BP PLC ... News. Woman pleads not guilty to live-streaming friend's rape ..."
p6
aS'Apr 13, 2010 - MOBIL OIL CORPORATION, a corporation; EXXONMOBIL OIL CORPORATION, a corporation; MOBIL EXPLORATION AND PRODUCING, NORTH AMERICAN, ...'
p7
aS'Apr 12, 2010 - Last week, ExxonMobil became the first U.S. oil company in 35 years to sign an ... Only one consortium  BP and the Chinese National Petroleum Corp.'
p8
aS'Apr 12, 2010 - Get All the Oil and Gas Journal News Delivered to Your Inbox. Subscribe to ... The first oil production well has come online at ExxonMobil Corp.-operated Julia ...'
p9
aS'Apr 13, 2010 - Minyanville > Business News. Skeletons in the Corporate Closet: Coke .... a former president of the ExxonMobil (XOM) Foundation who teaches corporate social ...'
p10
a.