(lp0
S"Apr 21, 2010 - Some are frustrated with Exxon's pace in moving to more renewables. ... News  U.S. News Home  News  Facebook Twitter. News, Opinion & Analysis ... Exxon is the biggest American corporation in terms of revenue. (It shot past Wal-Mart on ..."
p1
aS'Apr 21, 2010 - "Idol Gives Back" is supported by News Corp, Ford Motor Co, Exxon Mobil Corp, ... and news outlet CNN to be the first to reach 1 million followers on Twitter.'
p2
aS'Apr 22, 2010 - Zenith National Insurance Corp. investors lost a bid to block Fairfax Financial ..... plan to toughen offshore drilling rules that Exxon Mobil Corp. said will cost as ...'
p3
aS'Apr 21, 2010 - BP can learn from other epic corporate mistakes that came before the spill. ... The 1989 Exxon-Valdez oil disaster was an environmental catastrophe of ... tone-deaf response generated fierce opposition to its merger with Mobil a decade later.'
p4
aS'Apr 22, 2010 - Dallas Morning News Home ... After the closings, 61 corporate-owned Fuddruckers locations will remain. There also are 13 Koo .... Exxon Mobil, XOM, 78.06.'
p5
aS'Apr 22, 2010 - Check out the direct competitors of PolyOne Corporation Common Stoc (POL) and ... News & Info ... EXXON MOBIL CORPORATION, Private - View Profile.'
p6
aS"Apr 22, 2010 - The Transocean Corp. rig was 40 miles off the coast of Louisiana when it had an explosion and caught fire .... Three workers were injured at an April 14 fire at Exxon Mobil's Baton Rouge refinery, and one worker died ... Latest News Videos."
p7
aS'Apr 21, 2010 - MAXUS ENERGY CORPORATION and. TIERRA SOLUTIONS ... EXXON MOBIL. F.E.R. PLATING, INC, ... NEWS PUBLISHING AUSTRALIA LIMITED,. NORPAK ...'
p8
aS"Apr 22, 2010 - Natural gas in Bolivia is one of the nation's main energy sources and export products. Bolivia's .... Others also involved are Total from France, British Gas and British Petroleum as well as the US Exxon Mobil Corporation. ... (December 7, 2009) CBS News http://www.cbsnews.com/stories/2009/12/07/world/main5920409.shtml ..."
p9
aS'Apr 22, 2010 - News CVX Caltex Has Shut Lytton Refinery For About A Month New York Stock Exchange Announcements, ... Caltex, which is 50%-owned by Chevron Corp. ... 04/13/2016, 11:10:00, Exxon Mobil CEO Tillerson Was Paid $27.3 Million for 2015.'
p10
a.