(lp0
S'Apr 27, 2010 - More Details for Exxon Mobil Corporation ... With the latest News & Advice from Manta, you can stay ahead of the trends and challenges affecting your industry ...'
p1
aS'Apr 27, 2010 - More Details for Exxonmobil Oil Corporation ... With the latest News & Advice from Manta, you can stay ahead of the trends and challenges affecting your ...'
p2
aS'Apr 26, 2010 - DOW JONES, A NEWS CORP COMPANY .... has been open for several years and involves as many as a dozen oil companies, including Exxon Mobil Corp.'
p3
aS"Apr 27, 2010 - Opponents of Imperial Oil/ExxonMobil's plans to transport high and wide loads ... BOISE, Idaho - A plan by Exxon Mobil Corp. to transport big and heavy pieces ..."
p4
aS'Apr 26, 2010 - ConocoPhillips News COP Conoco Targets Rockies, Texas, Western Canada In ... The third-largest U.S. oil company by market value after Exxon Mobil Corp.'
p5
aS'Apr 26, 2010 - (Richard Vines is the chief food critic for Bloomberg News. ... Chesapeake, second only to Exxon Mobil Corp. in gas production from U.S. fields, bucked the trend ...'
p6
aS"Apr 26, 2010 - Exxon Says `$25 Billion Rule' Will Sink Deepwater Oil Drilling ... U.S. plan to toughen offshore drilling rules that Exxon Mobil Corp. said will cost as much as $25 ..."
p7
aS'Apr 27, 2010 - By SHERYL JEAN / The Dallas Morning News sjean@dallasnews.com. Published: 27 April 2010 08:59 AM .... Exxon Mobil, XOM, 78.06. Fluor Corp. FLR, 41.35.'
p8
aS'Apr 27, 2010 - By JASON ROBERSON / The Dallas Morning News jroberson@dallasnews.com. Published: ... This is made possible through a secure health information exchange product provided by Epic Systems Corp. It is the ... Exxon Mobil, XOM, 78.06.'
p9
aS'Apr 26, 2010 - And last year, ExxonMobil announced more than $600 million for research and ... Valero Energy Corp. announced last year it plans to build a 135 MMgy ...'
p10
a.