(lp0
S'Apr 27, 2010 - More Details for Exxon Mobil Corporation ... With the latest News & Advice from Manta, you can stay ahead of the trends and challenges affecting your industry ...'
p1
aS'Apr 27, 2010 - More Details for Exxonmobil Oil Corporation ... With the latest News & Advice from Manta, you can stay ahead of the trends and challenges affecting your ...'
p2
aS'Apr 28, 2010 - DOW JONES, A NEWS CORP COMPANY ..... But many companies, including BP, Exxon Mobil Corp. and Royal Dutch Shell, objected to an MMS proposal that ...'
p3
aS"Apr 27, 2010 - Opponents of Imperial Oil/ExxonMobil's plans to transport high and wide loads ... BOISE, Idaho - A plan by Exxon Mobil Corp. to transport big and heavy pieces ..."
p4
aS'Apr 28, 2010 - Ken sits on the boards of Exxon Mobil Corporation, The Pennsylvania State University and Cornerstone Christian ... More News RSS feed for Merck & Co., Inc.'
p5
aS'Apr 28, 2010 - CSPnet.com - Convenience Store News .... Break Time has signed long-term leases with Ross Oil Co. and RI Corp. for the locations, which formerly were ...'
p6
aS'Apr 28, 2010 - Nomac Drilling Corp. derrick man Justin Spruell, right, climbs down from an .... Chesapeake, second only to Exxon Mobil Corp. in gas production from U.S. fields, ...'
p7
aS'Apr 27, 2010 - By JASON ROBERSON / The Dallas Morning News jroberson@dallasnews.com. Published: ... This is made possible through a secure health information exchange product provided by Epic Systems Corp. It is the ... Exxon Mobil, XOM, 78.06.'
p8
aS'Apr 27, 2010 - By SHERYL JEAN / The Dallas Morning News sjean@dallasnews.com. Published: 27 April 2010 08:59 AM .... Exxon Mobil, XOM, 78.06. Fluor Corp. FLR, 41.35.'
p9
aS"Apr 27, 2010 - news releases ... Complex will be ExxonMobil's largest integrated chemical and refining site ... and may include any one or more of ExxonMobil Chemical Company, Exxon Mobil Corporation, or any affiliates they directly or indirectly steward."
p10
a.