(lp0
S'Apr 29, 2010 - Michael Dolan, senior vice president of ExxonMobil Corp., speaks at the U.S.-Saudi Business ... Get premium, high resolution news photos at Getty Images.'
p1
aS"Apr 29, 2010 - TransCanada Corporation Home  Media  Announcements  The Alaska Pipeline ... ExxonMobil is the world's largest publicly traded international oil and gas ... This news release may contain certain information that is forward looking and is ..."
p2
aS'Apr 28, 2010 - DOW JONES, A NEWS CORP COMPANY ..... But many companies, including BP, Exxon Mobil Corp. and Royal Dutch Shell, objected to an MMS proposal that ...'
p3
aS'Apr 29, 2010 - Home  News  Archived News 2010; Addressing the needs of oil and gas ... Krishna, ExxonMobil Corporate Environmental Programs Manager); Drilling Waste, ...'
p4
aS"Apr 29, 2010 - Dow component ExxonMobil Corp.'s profit rose during the ... ExxonMobil fell 93 cents to $68.26. Hewlett-Packard ... Breaking News newsletter. When the big ..."
p5
aS'Apr 29, 2010 - News & Analysis  News & Analysis ... Chevron Corp. $3,090,000 ... Exxon Mobil, $9,320,000, $4,270,000, $7,160,000, $6,680,000, $3,390,000. American ...'
p6
aS'Apr 29, 2010 - accommodating employees of Exxon Mobil and Shell Oil and the welcoming people of Nigeria, who opened ..... exported from Nigeria, daily (BBC News, 2009). A Profile of ... the umbrella corporation for Exxon, Esso and Mobil Oil. Both Exxon ...'
p7
aS'Apr 28, 2010 - Ken sits on the boards of Exxon Mobil Corporation, The Pennsylvania State University and Cornerstone Christian ... More News RSS feed for Merck & Co., Inc.'
p8
aS'Apr 28, 2010 - ... Shah project after considering bids from companies such as Exxon Mobil Corp., Royal Dutch Shell Plc and Occidental Petroleum Corp. ... Bloomberg News.'
p9
aS"Apr 29, 2010 - Oil spill in Gulf of Mexico 'could be worse than Exxon Valdez disaster' ... BP, Britain's largest corporation, which saw its share price tumble 6 per cent, was trying ..."
p10
a.