(lp0
S"Apr 5, 2010 - Exxon Mobil Corp (XOM. ... Exxon Mobil units accused of underpaying royalties ... Thomson Reuters is the world's largest international multimedia news agency, ..."
p1
aS"Apr 5, 2010 - The good news is, oil megacorporation ExxonMobil had such a profitable year in 2009, ... By contrast, the nation's largest corporation, Wal-Mart, paid $7.1 billion ..."
p2
aS'Apr 5, 2010 - Justice News ... The settlement with the Mobil companies arises from a lawsuit filed by Harold ... $56 million, Chevron Corporation, Texaco and Unocal Incorporated for $45.5 million and Dominion Exploration and Production Co. for $2 million. The Mobil companies were merged into and became subsidiaries of ExxonMobil, ...'
p3
aS'Apr 6, 2010 - The joke goes, The economy is so bad Exxon Mobil laid off 25 Congressmen. ... Think Progress reports the stunning news, which, sadly, is not a Steve Martin ... year reported a record $45.2 billion profit, paid the most taxes of any corporation, ...'
p4
aS'Apr 5, 2010 - Mobilgear SHC MT 68 is a synthetic extreme pressure marine gear oil formulated to optimise the performance of equipment operating under the most ...'
p5
aS'Apr 7, 2010 - Chevron, BP, Exxon Mobil Corp and all other oil companies are leaving too many ... (10 miles) southeast of Venice, Louisiana, a Coast Guard news release said.'
p6
aS'Apr 6, 2010 - Corvette: Sales, News & Lifestyle ... ExxonMobil engineers work closely with Pratt & Miller and Corvette Racing to develop and test .... ExxonMobil, Mobil 1 and the 1 Icon are trademarks of Exxon Mobil Corporation or one of its subsidiaries.'
p7
aS'Apr 5, 2010 - By SHERYL JEAN / The Dallas Morning News sjean@dallasnews.com. Published: 05 April 2010 09:04 AM .... Exxon Mobil, XOM, 78.06. Fluor Corp. FLR, 41.35.'
p8
aS'Apr 6, 2010 - By BRENDAN CASE / The Dallas Morning News bcase@dallasnews.com. Published: 06 April 2010 08:03 .... Exxon Mobil, XOM, 78.06. Fluor Corp. FLR, 41.35.'
p9
aS'Apr 5, 2010 - TRAINING CENTER  NEWS  CONTACT US ... By D.M. Pirro and A.A. Wessol, Published By Marcel Dekker, Inc., Copyright 2001 Exxon Mobil Corporation.'
p10
a.