(lp0
S'Apr 6, 2010 - The joke goes, The economy is so bad Exxon Mobil laid off 25 Congressmen. ... Think Progress reports the stunning news, which, sadly, is not a Steve Martin ... year reported a record $45.2 billion profit, paid the most taxes of any corporation, ...'
p1
aS'Apr 7, 2010 - The current interests are Shell (55%), Exxon-Mobil (20%), Agip (12.5%) and Elf (12.5%). .... Get All the Offshore Magazine News Delivered to Your Inbox for free ... Exxon Mobil Corp. has started oil production at the Julia field in the deepwater ...'
p2
aS'Apr 7, 2010 - Chevron, BP, Exxon Mobil Corp and all other oil companies are leaving too many ... (10 miles) southeast of Venice, Louisiana, a Coast Guard news release said.'
p3
aS'Apr 7, 2010 - World Fuel Services Corporation (NYSE:INT) announced today that its ... Inc., ExxonMobil Corporation, CITGO Petroleum Corporation and a licensee for Clark ...'
p4
aS"Apr 7, 2010 - Mobil, now part of Irving, Texas-based Exxon Mobil Corp., and Nazarbayev aren't accused of wrongdoing. LyondellBasell disclosed in a bankruptcy court filing ..."
p5
aS'Apr 6, 2010 - Corvette: Sales, News & Lifestyle ... ExxonMobil engineers work closely with Pratt & Miller and Corvette Racing to develop and test .... ExxonMobil, Mobil 1 and the 1 Icon are trademarks of Exxon Mobil Corporation or one of its subsidiaries.'
p6
aS'Apr 6, 2010 - A barge working for Exxon Mobil Corp was driving long pipes called "spuds" to ... a news release issued by Chevron, the Coast Guard and state of Louisiana.'
p7
aS'Apr 7, 2010 - A former Tesoro Corp. worker, Jeffrey Lane Kirk, has sued the San Antonio-based refiner in federal court, saying the company discriminated against him ...'
p8
aS'Apr 7, 2010 - Natural Resources News Service .... Exxon Mobil Corp. has a $41 billion deal in place to merge with XTO Energy Inc. The finalization of this multi-billion dollar ...'
p9
aS'Apr 8, 2010 - Get information, directions, products, services, phone numbers, and reviews on Exxon Mobil Chemical CO in Akron, OH. Discover more Plastics Materials and ...'
p10
a.