(lp0
S'Apr 7, 2010 - The current interests are Shell (55%), Exxon-Mobil (20%), Agip (12.5%) and Elf (12.5%). .... Get All the Offshore Magazine News Delivered to Your Inbox for free ... Exxon Mobil Corp. has started oil production at the Julia field in the deepwater ...'
p1
aS'Apr 8, 2010 - Sag Harbor officials and representatives of oil corporation Exxon Mobil are trying to determine the source of oil-laden water that began bubbling up from the ...'
p2
aS'Apr 7, 2010 - World Fuel Services Corporation (NYSE:INT) announced today that its ... Inc., ExxonMobil Corporation, CITGO Petroleum Corporation and a licensee for Clark ...'
p3
aS'Apr 9, 2010 - Whether a customer is building a new plant or improving an existing facility, ExxonMobil Chemical is committed to providing priority support to its licensees ...'
p4
aS"Apr 7, 2010 - Mobil, now part of Irving, Texas-based Exxon Mobil Corp., and Nazarbayev aren't accused of wrongdoing. LyondellBasell disclosed in a bankruptcy court filing ..."
p5
aS'Apr 7, 2010 - Nomac Drilling Corp. derrick man Justin Spruell, right, climbs down from an .... Chesapeake, second only to Exxon Mobil Corp. in gas production from U.S. fields, ...'
p6
aS'Apr 7, 2010 - Natural Resources News Service .... Exxon Mobil Corp. has a $41 billion deal in place to merge with XTO Energy Inc. The finalization of this multi-billion dollar ...'
p7
aS'Apr 7, 2010 - A former Tesoro Corp. worker, Jeffrey Lane Kirk, has sued the San Antonio-based refiner in federal court, saying the company discriminated against him ...'
p8
aS'Apr 8, 2010 - Get information, directions, products, services, phone numbers, and reviews on Exxon Mobil Chemical CO in Akron, OH. Discover more Plastics Materials and ...'
p9
aS'Apr 7, 2010 - STOP CENSORING THE REAL NEWS ..... Chevron, BP, Exxon Mobil Corp and all other oil companies are leaving too many indelible footprints on our planet.'
p10
a.