(lp0
S'May 10, 2010 - ExxonMobil Chemical Technology Licensing LLC (EMCTL) and ExxonMobil ... ExxonMobil Chemical Company, a division of Exxon Mobil Corporation, is a ...'
p1
aS"May 10, 2010 - The ceremony took place on 29 April during ExxonMobil's Safety, Health, Environment and Security (SHES) symposium in Keppel Bay Drive in Singapore."
p2
aS'May 9, 2010 - Photographer: Andrew Harrer/Bloomberg News ..... Exxon Mobil Corp. is among companies bringing platforms online in the U.S. Gulf of Mexico from discoveries ...'
p3
aS'May 10, 2010 - Metal-forming processes such as stamping, punching, rolling or drawing are effective and efficient when ExxonMobil hydrocarbon fluids featuring medium-range ...'
p4
aS"May 10, 2010 - Houston-based Anadarko Petroleum Corp. and the U.K.'s Tullow Oil PLC reported ... Super-major Exxon Mobil Corp. spent a quarter of its capital and exploration budget in Africa last ... News. Trump confuses 9/11 with convenience store chain ..."
p5
aS'May 10, 2010 - DOW JONES, A NEWS CORP COMPANY ..... This work is done for major oil producers such as BP, Chevron Corp. and Exxon Mobil Corp. XOM 0.50 ...'
p6
aS'May 9, 2010 - Large companies such as BP, Chevron and ExxonMobil said they generally supported such programs but preferred that they be voluntary and more flexible.'
p7
aS"May 10, 2010 - He is the CEO of Monsanto, possibly America's most feared corporation. ..... The good news was that when GAT and Roundup Ready 1 were stacked, they had a ..."
p8
aS'May 10, 2010 - Free Business profile for EXXONMOBIL CHEMICAL BRPO at 12875 Scenic Hwy, Baton Rouge, LA, 70807-1007, US. ... READ ALL COMPANY NEWS IN THE COMPLETE COMPANY CREDIT REPORT ... Corporate Transit of America.'
p9
aS'May 9, 2010 - MIT Sea Grant AUV Lab has generated equipment for Bluefin Robotics Corp., and .... Get All the Offshore Magazine News Delivered to Your Inbox for free .... part of the Baytown Complex Laboratory of ExxonMobil Refining Supply Company, ...'
p10
a.