(lp0
S'May 12, 2010 - Boeing Co. and Exxon Mobil Corp. are lobbying to fend off tightened sanctions against Iran that business groups say may cost $25 billion in U.S. exports.'
p1
aS'May 11, 2010 - Exxon Mobil Corp. and Royal Dutch Shell Plc are considering a sale of natural-gas ... for Shell, declined to comment when contacted by Bloomberg News today.'
p2
aS'May 13, 2010 - Hellenic Shipping News Worldwide - 17 hours ago ... Exxon Mobil Co. .... Premier Energy Corp., through its wholly owned subsidiary, KARBON, is engaged in ...'
p3
aS'May 12, 2010 - NEWS Hungary pushes energy program in upstream, downstream sectors .... Exploration is under way on areas awarded in 1994 to Mobil Corp., ..... as part of the Baytown Complex Laboratory of ExxonMobil Refining Supply Company, will be ...'
p4
aS"May 12, 2010 - WPI's ExxonMobil Bernard Harris Summer Camp encourages youth to ... of Exxon Mobil Corporation, was instrumental in bringing the Harris Camp to WPI."
p5
aS'May 11, 2010 - By BRENDAN CASE and GARY JACOBSON / The Dallas Morning News. Published: 11 May 2010 02:31 .... Exxon Mobil, XOM, 78.06. Fluor Corp. FLR, 41.35.'
p6
aS'May 12, 2010 - Dallas Morning News Home ... Now called Six Flags Entertainment Corp., the parent emerged from bankruptcy this month, with its .... Exxon Mobil, XOM, 78.06.'
p7
aS'May 11, 2010 - midday news program .... Nicholas Shaxson in Poisoned Wells , accusing Shell, ExxonMobil and the French oil corporation Elf of destroying idyllic communities.'
p8
aS'May 12, 2010 - News & Info. Headlines ... IBM, International Business Machines Corporation, 149.30 Apr 21, Up ... XOM, Exxon Mobil Corporation, 86.79 Apr 21, Down ...'
p9
aS"May 11, 2010 - Visit StreetInsider.com at http://www.streetinsider.com/Corporate+News/ .... such as Exxon Mobil (XOM), ChevronTexaco (CVX), and Royal Dutch Shell (RDS'A)."
p10
a.