(lp0
S'May 18, 2010 - Investors in the fund include state-run Korea National Oil Corp., Korea Resources Corp. ... Oil companies including Exxon Mobil Corp and China Petroleum and ...'
p1
aS'May 18, 2010 - Cut costs through improved efficiency achieved with Mobil SHC Pegasus lubricants. ... The energy efficiency design is a trademark of Exxon Mobil Corporation. Mobil Proof of Performance  Looble Button  Download ... Latest Industrial News ...'
p2
aS"May 17, 2010 - Exxon Mobil Corporation's principal business is energy, involving exploration for, and production of, crude oil and natural gas, manufacturing of petroleum ..."
p3
aS'May 17, 2010 - ExxonMobilExxonMobil LogoSynesstic, Esterex, SpectraSynSpectraSyn EliteExxon Mobil Corporation () ...'
p4
aS'May 17, 2010 - Hawks News and Updates ... Thanks to the efforts of Olancha Mobil at 601 S Hwy 395, Lo Inyo Elementary has been awarded a $500 ... The ExxonMobil Corporation is also proud to support education through Upromise program, which helps ...'
p5
aS'May 17, 2010 - Exxon Mobil Corp. v. ... Exxon Mobil, 544 U.S. at 292. .... Research the law; Manage your practice; Manage your career; News and commentary; Get Legal Forms ...'
p6
aS'May 17, 2010 - CMS Energy Corp., Dearborn, Mich., has agreed to buy Panhandle Eastern Pipeline Co. ... Get All the Oil and Gas Journal News Delivered to Your Inbox ..... as part of the Baytown Complex Laboratory of ExxonMobil Refining Supply Company, ...'
p7
aS'May 17, 2010 - CSPnet.com - Convenience Store News  April 2016 CSP cover  Subscribe to our Newsletters .... Corporate News. May 17, 2010. View CSPnet.com Dashboard ...'
p8
aS"May 17, 2010 - By SHERYL JEAN / The Dallas Morning News sjean@dallasnews.com ... The chamber's corporate advisory council voted on Pena, who represents the council on the board for one year, with board ratification. ... Exxon Mobil, XOM, 78.06."
p9
aS'May 17, 2010 - Related News/Archive. Rays will reach out to businesses as part of search for ... Exxon Mobil Corporation. NYSE:XOM | Irving, Texas. Current Market Cap: 360.2 ...'
p10
a.