(lp0
S'May 19, 2010 - ExxonMobil celebrates 90 years of chemicals, community ... In addition to cake and a history lesson, ExxonMobil employees and other Baytown leaders got to ... Posted in News on Wednesday, May 19, 2010 12:00 am. ... AIR SERV CORP.'
p1
aS'May 19, 2010 - Terry McPhail, president and general manager of ExxonMobil Oil Indonesia Inc., speaks at the 34th ... Get premium, high resolution news photos at Getty Images. ... News Photo Asia,Business,Corporate Business,Delivering,Economy,Finance ...'
p2
aS"May 19, 2010 - 7-Eleven Australia is close to acquiring most of Exxon Mobil Corp's local filling stations, the Australian newspaper reported on its website, without saying where it ..."
p3
aS'May 18, 2010 - Investors in the fund include state-run Korea National Oil Corp., Korea Resources Corp. ... Oil companies including Exxon Mobil Corp and China Petroleum and ...'
p4
aS'May 19, 2010 - Unlike traditional clay treating processes, the Olgone process uses a proprietary catalyst to achieve cycle lengths 4 to 6 times that of clay.'
p5
aS'May 19, 2010 - Hidejiro Osawa told a recent news conference. Osawa .... The merger between Exxon Corp. and Mobil Corp., meanwhile, will provide the opportunity for the two ...'
p6
aS'May 19, 2010 - Join the Conversation  Send Us Your News ... Almost 30 years later Ritter is still happily employed at ExxonMobil. ... was to be able to do a lot of different things under one corporate umbrella, and ExxonMobil has given me that opportunity,'
p7
aS'May 19, 2010 - ExxonMobil safety award to MISTRAS Services for their work done at the Baytown Refinery in Baytown, TX. With zero recordable injuries and thousands of hours ...'
p8
aS'May 18, 2010 - Leonard James III, Corporate Policy Advisor for ExxonMobil Corp., the event host sponsor, greets conference attendees and sponsors and touches on the ...'
p9
aS"May 19, 2010 - CSPnet.com - Convenience Store News .... Family Foundation and secretary of the corporation, as well as performing other special assignments at Love's."
p10
a.