(lp0
S'May 26, 2010 - ... use associated with developing oil sands. Emerging technology has the potential to reduce these impacts. Careers  Contact us  Investors  News and updates ...'
p1
aS'May 26, 2010 - ExxonMobil will convene its annual shareholders meeting in Dallas this morning as the ... in 1989 is a chilling reminder of the need for government oversight and corporate accountability. .... Subscribe to Energy and Environment News Alerts ...'
p2
aS"May 27, 2010 - The only U.S. business with a higher market value is Exxon Mobil Corp. The oil company's market cap is about $279 billion, based on Wednesday's closing price ..."
p3
aS'May 27, 2010 - When Exxon Mobil borrowed billions from JPMorgan to pay damages in the case, the risk needed be managed somehow. ... where the goal became default -- when genuine fear caused some corporate .... Stay current on financial news,'
p4
aS"May 26, 2010 - Both look puny next to Exxon Mobil's $301.5 billion in annual revenue. ... Wired News: April 1, 1976: The Steves  June 5, 1977: From a Little Apple a Mighty ..."
p5
aS"May 26, 2010 - Apple Inc shot past Microsoft Corp as the world's biggest tech company based ... Poor's 500 index by market value, behind energy behemoth Exxon Mobil Corp. ... Thomson Reuters is the world's largest international multimedia news agency, ..."
p6
aS"May 27, 2010 - ... has a contract with Exxon Mobil Corp to try to make algae that can produce biofuel. ... Thomson Reuters is the world's largest international multimedia news ..."
p7
aS'May 26, 2010 - home  news  careers  contact us. English | . Global  ExxonMobil Chemical  products & services. polymers. polyethylene  polypropylene.'
p8
aS'May 27, 2010 - home  news  careers  contact us. English | . Global  ExxonMobil Chemical  products & ..... Copyright 2015 Exxon Mobil Corporation. All Rights ...'
p9
aS'May 27, 2010 - Nomac Drilling Corp. derrick man Justin Spruell, right, climbs down from an .... Chesapeake, second only to Exxon Mobil Corp. in gas production from U.S. fields, ...'
p10
a.