(lp0
S"May 27, 2010 - The only U.S. business with a higher market value is Exxon Mobil Corp. The oil company's market cap is about $279 billion, based on Wednesday's closing price ..."
p1
aS'May 28, 2010 - PARAMUS  The Exxon/Mobil Corporation has awarded the Paramus Catholic High School Robotics Club with a $7,500 grant. Robert Cattani, Exxon/Mobil ...'
p2
aS"May 27, 2010 - ... has a contract with Exxon Mobil Corp to try to make algae that can produce biofuel. ... Thomson Reuters is the world's largest international multimedia news ..."
p3
aS'May 28, 2010 - Shell is catching up with Exxon Mobil Corp. and BP Plc in snapping up unconventional gas reserves in anticipation prices for the cleaner-burning fuel will ...'
p4
aS'May 27, 2010 - When Exxon Mobil borrowed billions from JPMorgan to pay damages in the case, the risk needed be managed somehow. ... where the goal became default -- when genuine fear caused some corporate .... Stay current on financial news,'
p5
aS"May 29, 2010 - ... of the North Slope's other main players, Exxon Mobil Corp. and ConocoPhillips. ... Local, small business, finance and economy news for greater New Orleans."
p6
aS'May 29, 2010 - home  news  careers  contact us. English | . Global  ExxonMobil Chemical  products & services. polymers. polyethylene  polypropylene.'
p7
aS'May 28, 2010 - The study was funded primarily by a grant from the Exxon Mobil Corp. ... To automatically receive news releases from UT Southwestern via e-mail, subscribe at ...'
p8
aS'May 28, 2010 - Dallas Morning News Home ... of Brea, Calif.; Interlink Global Corp. of Miami; Medirect Latino Inc. of Fort Lauderdale, Fla.; National .... Exxon Mobil, XOM, 78.06.'
p9
aS"May 28, 2010 - FedEx Delivers for LGBT Employees while ExxonMobil Continues to Stall ... and ExxonMobil's workplace policies, this month, Tennessee-based FedEx Corp."
p10
a.