(lp0
S"May 4, 2010 - Co-op News ... A recent ExxonMobil advertorial on its oil products features a North Carolina co-op's truck fleet. (Photo By: ExxonMobil). Related Content. The truck fleet of Union Power Cooperative was picture-perfect for ExxonMobil Corp., ..."
p1
aS'May 4, 2010 - Profits from turning petroleum into chemicals used in shirts, tires and plastics may fall as Exxon Mobil Corp., Royal Dutch Shell Plc and Saudi Basic Industries ...'
p2
aS"May 3, 2010 - There is no effect on production at Exxon Mobil Corp. facilities in the Gulf of Mexico, said ... At that rate, the volume of the spill would exceed Alaska's 1989 Exxon ..."
p3
aS'May 4, 2010 - ExxonMobil Libya Limited and Noble North Africa Limited; Arbitration in Houston, Texas ... Davis Petroleum Corporation; Arbitration before the American Arbitration ... News. February 24 2016. Hicks Thomas Sues on Behalf of Cowboy Seeking ...'
p4
aS'May 3, 2010 - The Exxon Valdez spill in 1989 ended up costing ExxonMobil more than $4.3 billion, and has become firmly embedded in popular culture as a metaphor for ...'
p5
aS'May 4, 2010 - Energy Future Holdings Corp. had a first-quarter profit of $355 million, down from a gain of $442 ... Dallas Morning News Home .... Exxon Mobil, XOM, 78.06.'
p6
aS'May 3, 2010 - By MARIA HALKIAS / The Dallas Morning News mhalkias@dallasnews.com. Published: 03 May 2010 10:57 .... Exxon Mobil, XOM, 78.06. Fluor Corp. FLR, 41.35.'
p7
aS"May 3, 2010 - ... join the ranks of all-time corporate villains, a list that includes fellow oil giant Exxon Mobil, ... BP's brand won't fall because corporate marketers never should have ... Brand News: Coke Zero Rebrand, PepsiCo Shift, Delivery Wars and More ..."
p8
aS'May 3, 2010 - After the Exxon Valdez spill, an Alaska jury demanded $5 billion in punitive damages from Exxon ... J.P. Morgan, to protect itself in turn from an eventual default by Exxon, came up with a novel ... More News from MarketWatch ... Chinese investors dump U.S. stocks, but corporate buybacks offset losses ... Exxon Mobil Corp.'
p9
aS"May 3, 2010 - It was drilled to 30,067 ft and abandoned in 2006 by ExxonMobil. ... represents a market value for the news of $602 million for MMR's 32.7% working interest. ..... Pason Systems Corp. knows a thing or two about information and intelligence."
p10
a.