(lp0
S"Jun 22, 2010 - Exxon Mobil Corp. had spent $180 million by 2006 trying to drill the world's ... As Exxon's corporate safety program manager, Glenn Murray oversees the oil ... By ELIZABETH SOUDER / The Dallas Morning News esouder@dallasnews.com."
p1
aS'Jun 23, 2010 - Proposals in Congress to raise U.S. liability costs to $10 billion to drill for oil in the Gulf could leave just three companies -- BP, Exxon Mobil Corp. and Royal ...'
p2
aS'Jun 23, 2010 - Convinience Store News Logo. Choose .... Stores Inc. along with 170 convenience stores and fuel stations from the Exxon Mobil Corp. ... As a result of the transaction, MACS will be the largest ExxonMobil fuel marketer in the United States.'
p3
aS"Jun 22, 2010 - That is the section on corporate responsibility -- and, specifically, senior executives ... oil CEOS started with a cadre of heavyweights from Exxon Mobil (XOM - Get Report), ... Access to Jim Cramer's daily blog; Intraday commentary and news ..."
p4
aS'Jun 23, 2010 - ... Petroleum/Statoil, Mobil, and Shell are undertaking a methodical exploration program. .... in expanding its operations to the North Sea, according to news service Shana. ... Exxon Mobil Corp. has started oil production at the Julia field in the ...'
p5
aS'Jun 23, 2010 - Get All the Offshore Magazine News Delivered to Your Inbox for free ... Exxon Mobil Corp. has started oil production at the Julia field in the deepwater Gulf of ...'
p6
aS'Jun 23, 2010 - Get All the Offshore Magazine News Delivered to Your Inbox for free ... Exxon Mobil Corp. has started oil production at the Julia field in the deepwater Gulf of ...'
p7
aS'Jun 23, 2010 - Get All the Offshore Magazine News Delivered to Your Inbox for free ... the installation of subsea mooring connectors for Anadarko Petroleum Corp. .... as part of the Baytown Complex Laboratory of ExxonMobil Refining Supply Company, will ...'
p8
aS'Jun 23, 2010 - The prime offenders are Shell and ExxonMobil. They have more than 600 oil pumping sites in the delta. A spill from a broken pipeline in May dumped more than ...'
p9
aS'Jun 23, 2010 - Wal-Mart  Exxon Mobil  Chevron  GE  Bank of America  ConocoPhillips  AT&T  Ford Motor  J.P. Morgan Chase  H-P  Top companies in your state.'
p10
a.