(lp0
S"Jun 24, 2010 - ... (Uppy's) and 170 convenience stores/fuel stations from the Exxon Mobil Corporation (NYSE: XOM). ... As a result of the transaction, MACS will be the largest ExxonMobil fuel marketer in ... Uppy's features such brands as ExxonMobil, Dairy Queen, Subway and Noble Roman Pizza. ... The news you need, when you need it."
p1
aS'Jun 23, 2010 - Proposals in Congress to raise U.S. liability costs to $10 billion to drill for oil in the Gulf could leave just three companies -- BP, Exxon Mobil Corp. and Royal ...'
p2
aS'Jun 23, 2010 - Convinience Store News Logo. Choose .... Stores Inc. along with 170 convenience stores and fuel stations from the Exxon Mobil Corp. ... As a result of the transaction, MACS will be the largest ExxonMobil fuel marketer in the United States.'
p3
aS"Jun 24, 2010 - More News From Greenwire ... At the time of the spill, BP was a finalist for the agency's SAFE award, along with Eni US Operating Co. and Exxon Mobil Corp."
p4
aS'Jun 23, 2010 - Get All the Offshore Magazine News Delivered to Your Inbox for free ... Exxon Mobil Corp. has started oil production at the Julia field in the deepwater Gulf of ...'
p5
aS'Jun 23, 2010 - ... Petroleum/Statoil, Mobil, and Shell are undertaking a methodical exploration program. .... in expanding its operations to the North Sea, according to news service Shana. ... Exxon Mobil Corp. has started oil production at the Julia field in the ...'
p6
aS'Jun 23, 2010 - The prime offenders are Shell and ExxonMobil. They have more than 600 oil pumping sites in the delta. A spill from a broken pipeline in May dumped more than ...'
p7
aS'Jun 24, 2010 - XTO Energy Senior Debt And CP Rtgs Raised, CCR Withdrawn On Acquistion By ExxonMobil --U.S.-based integrated energy company ExxonMobil Corp.'
p8
aS'Jun 24, 2010 - DOW JONES, A NEWS CORP COMPANY. News Corp is a network of ..... House lawmakers accused BP, Exxon Mobil Corp. XOM 1.24 % , Chevron Corp.'
p9
aS'Jun 24, 2010 - ExxonMobil is the largest non-pharmaceutical corporate donor to malaria research and development efforts, and since 2000 has committed $193 million to ...'
p10
a.