(lp0
S'Jun 2, 2010 - Microsoft Corp. co-founder Bill Gates and Venrock Associates, the ... Exxon Mobil Corp. threw its weight behind algae in July 2009. The oil .... Bloomberg News.'
p1
aS"Jun 2, 2010 - How the share prices of BP and Exxon have fared after big oil spills. ... that is also implicated in the Gulf of Mexico spill, fell sharply on the news. This contrasts with the price of ExxonMobil's stock in the weeks following the Exxon Valdez spill ... The Economist Intelligence Unit Store  The Economist Corporate Network  Ideas ..."
p2
aS'Jun 2, 2010 - Get detailed financial information on President Chain Store Corporation (TPE:2912) including real-time stock quotes, historical charts & financial news, all for free! ... Lowry: The outrageous campaign against Exxon Mobil. Salt Lake Tribune ...'
p3
aS"Jun 3, 2010 - Exxon Mobil's website is interesting for a number of reasons. The first is that it has one of the most comprehensive corporate News sections on the web."
p4
aS'Jun 2, 2010 - QUOTE AND NEWS ... A unit of Philippine-based Petron Corp has further extended the acceptance of its takeover ... Malaysia: No application from ExxonMobil.'
p5
aS'Jun 3, 2010 - Sierra Club\'s ties to BP also escaped the notice of CBS "Morning News" on April 29, ... lead to better corporate environmental policies and less damage to the planet." ... According to MSNBC.com, ExxonMobil stopped funding CEI in 2006.'
p6
aS'Jun 3, 2010 - Compared, for example, to how Exxon handled itself with the Valdez spill, BP\'s ... "The more you posture yourself as a good corporate citizen, the more people expect ... Exxon also has the safety net of keeping the Mobil brand attached to it.'
p7
aS'Jun 3, 2010 - Walter Oil & Gas Corp. executives were within 9000 feet of finding out if they would ... More News From Greenwire .... It\'s smaller companies like his, he said, not the "super-majors" like Exxon Mobil Corp. or Shell, that take those kinds of risks.'
p8
aS'Jun 2, 2010 - Exxon-Mobil says it has two projects that had been scheduled to start May 10. ... Meanwhile, an analyst report Tuesday from JP Morgan Chase says that ATP Oil & Gas Corp. in Houston will have to plug the .... Your Regional News Pages.'
p9
aS'Jun 2, 2010 - Reliance is restoring a project originally slated to start in 2011 as refiners, including Exxon Mobil Corp., Royal Dutch Shell Plc and Saudi Basic Industries Corp., ...'
p10
a.