(lp0
S"Jun 8, 2010 - Exxon Mobil Corporation Key Recent Developments: Mar 04, 2016: Golar GenPower ... Thomson Reuters is the world's largest international multimedia news ..."
p1
aS"Jun 9, 2010 - Exxon Mobil Corp (XOM. ... Exxon, Petronas to lift Tapis oil output in 2013 ... In 2008, subsidiary ExxonMobil Exploration and Production Malaysia Inc signed a ... Thomson Reuters is the world's largest international multimedia news agency, ..."
p2
aS'Jun 9, 2010 - mobil-mystik-mcp. Menu. Home  About .... Mobil News. Exxon Mobil Corporation Declares Fourth Quarter Dividend. Wed, Oct 28, 2015. ExxonMobil says ...'
p3
aS"Jun 8, 2010 - After news of the Citizens United ruling sent shockwaves through political, legal, ... During the same 2008 election cycle, Exxon-Mobil's corporate profits totaled ..."
p4
aS"Jun 8, 2010 - ... year reopened a former Exxon Mobil Corp. operation on Carlinville's outskirts. ... St. Louis-based Peabody Energy Corp., the nation's largest coal producer, ..."
p5
aS'Jun 8, 2010 - DOW JONES, A NEWS CORP COMPANY ..... And two decades after the Exxon Valdez disaster, Exxon Mobil is the biggest company in the world by market ...'
p6
aS'Jun 8, 2010 - ... parties or trips to corporate ski chalets, they were having sex with oil-company officials. .... Exxon, quickly recognizing what still seems to elude the Obama ... is less an oil company than a bank that finances oil exploration; unlike ExxonMobil, .... That evening, administration officials received news that  to judge from their ...'
p7
aS'Jun 9, 2010 - Events; News ... Dr. Haward Wang, the Chief Engineer of oceanographic engineering of Exxon Mobil Corp, Dr. Yong Ming Chen, the Chief Engineer of Pipeline ...'
p8
aS'Jun 9, 2010 - By ELIZABETH SOUDER / The Dallas Morning News esouder@dallasnews.com. Published: 09 June 2010 .... Exxon Mobil, XOM, 78.06. Fluor Corp. FLR, 41.35.'
p9
aS"Jun 8, 2010 - Hugh W. Thompson, chairman of ExxonMobil Inc.'s ESSO Malaysia Bhd. unit, speaks at the 15th ... Get premium, high resolution news photos at Getty Images."
p10
a.