(lp0
S'Jul 19, 2010 - About Exxon Mobil Corporation. ExxonMobil, the largest publicly traded international oil and gas company, uses technology and innovation to help meet the ...'
p1
aS'Jul 19, 2010 - Three years after Venezuela nationalized Exxon Mobil Corp. ... The decision could signal good news for hundreds of other similar pending cases with tens of ...'
p2
aS'Jul 20, 2010 - ExxonMobil gave $1.5 million to climate deniers and industry front groups known for ... In its 2007 Corporate Citizenship Report, [Exxon] stated: In 2008 we will ... http://www.theaustralian.com.au/news/world/exxon-still-aids-climate-sceptics/ ...'
p3
aS'Jul 19, 2010 - Subsidiaries of ExxonMobil Corp. made an oil discovery this month on the Cepu block on Java. ... News. Oilfields development. Exploration Oilfield services ...'
p4
aS'Jul 18, 2010 - Exxon Mobil (NYSE:XOM) should be considered for potential purchase based on its ... About: Exxon Mobil Corporation (XOM), Includes: IMO ... Exxon had proved crude oil and natural gas reserves of about 23 billion barrels of oil ..... Weighing The Week Ahead: Time To Sell The News? by Jeff Miller; Biotech Daily Digest: ...'
p5
aS'Jul 19, 2010 - With regard to crude oil production, ExxonMobil affiliates put their half year crude ... ExxonMobil in its 2009 Corporate Citizenship Report made available to .... Breaking news: EFCC disowns Ekweremadu as anti-corruption ambassador92 ...'
p6
aS'Jul 20, 2010 - Woodford shale oil production and exploration news, resources and oil company stocks covering oil shale. ... Exxon Mobil ... Devon Energy Corp. has agreement to sell its non-core Mississippian assets in northern Oklahoma to White Star ...'
p7
aS'Jul 19, 2010 - Exxon Mobil Corp. ... On Twitter, users grouse that Toyota Motor Corp. is the "BP of the car ... "The bad news is that they\'re capturing it with ducks," he added.'
p8
aS'Jul 19, 2010 - ExxonMobil Corp. indicated production from the 45-tcf Natuna D-Alpha field may start in 2014. .... Get All the Oil and Gas Journal News Delivered to Your Inbox.'
p9
aS"Jul 19, 2010 - Exxon's first acreage in Congo, announced last May, is Marine Profound, ..... Get All the Offshore Magazine News Delivered to Your Inbox for free ... Exxon Mobil Corp. has started oil production at the Julia field in the deepwater Gulf of Mexico."
p10
a.