(lp0
S'Jul 22, 2010 - Exxon Mobil, Chevron, Royal Dutch Shell and ConocoPhillips are creating a strike force to stanch oil spills in the ... DOW JONES, A NEWS CORP COMPANY.'
p1
aS"Jul 22, 2010 - They also don't point out that ExxonMobil has undertaken climate change ... Click here to subscribe to the blog's RSS news feed. ... Exxon Mobil Corporation."
p2
aS"Jul 22, 2010 - ExxonMobil Corp. and BP have many things in common: They're both among the world's largest oil companies, both operate refineries and offshore platforms, ..."
p3
aS"Jul 23, 2010 - Legal News and Research from Who's Who Legal. ... In December 2009 Exxon Mobil Corporation carried out an all-stock transaction of XTO Energy valued at ..."
p4
aS'Jul 22, 2010 - The oil tanker Seaqueen is docked at the Valero Energy Corp. refinery at the ... continued stream of bad, disappointing news, said Walter J. Zimmerman Jr., ... companies such as Exxon Mobil Corp. and Valero Energy Corp. to increase output.'
p5
aS'Jul 23, 2010 - China told Exxon Mobil Corp. and BP Plc to halt exploration in offshore areas that ... the sea a core interest on par with Taiwan, Tibet and Xinjiang, Kyodo News ...'
p6
aS"Jul 22, 2010 - According to Trucking Info as well as numerous other news sources, UPS increased it's ... Earnings News: Facebook Inc (FB), Exxon Mobil Corporation (XOM), ..."
p7
aS'Jul 23, 2010 - Fort Worth has lost XTO Energy Inc. to ExxonMobil Corp. and Burlington Northern Santa Fe Railroad to Berkshire Hathaway in other high-profile acquisitions of ...'
p8
aS'Jul 23, 2010 - ... bid by the international oil giant Exxon Mobil to buy a 23% stake in the field. ... the contracts awarded to the state-run Ghana National Petroleum Corporation.'
p9
aS'Jul 23, 2010 - Get All the Offshore Magazine News Delivered to Your Inbox for free ... Exxon Mobil Corp. has started oil production at the Julia field in the deepwater Gulf of ...'
p10
a.