(lp0
S"Jul 1, 2010 - See Exxon Mobil Corp's earnings estimates and analyst ratings based on Wall Street analysts's analysis."
p1
aS"Jul 3, 2010 - The agency joined Canada's Imperial Oil, the unit of Exxon Mobil Corp. that's behind the shipments, in giving presentations in Moscow and Lewiston this week, ..."
p2
aS'Jul 1, 2010 - "In theory, either Exxon Mobil or RD Shell could consider a bid for BP," wrote Lucas in a note to investors. "We focus on these two names because they have ...'
p3
aS'Jul 2, 2010 - CSPnet.com - Convenience Store News .... Corporate News ... Alliance distributes a variety of gasoline brands, which include Exxon, Mobil, Sunoco, Shell, ...'
p4
aS'Jul 1, 2010 - The company also is a designated disabled veteran corporation and ... like Exxon Mobil Corporation, Chevron Corporation and ConocoPhillips, who ... Statements in this news release that are not historical facts are forward-looking statements ...'
p5
aS'Jul 2, 2010 - The government has also taken over assets from Exxon Mobil Corp., ConocoPhillips, Ternium SA and Mexican cement maker Cemex SAB, which listed on the ...'
p6
aS"Jul 1, 2010 - If that's proven, that's bad news. .... oil explorers are fighting a U.S. plan to toughen offshore drilling rules that Exxon Mobil Corp. said will cost $25 billion over 10 ..."
p7
aS'Jul 1, 2010 - Lucas named ExxonMobil Corp., Royal Dutch Shell, and PetroChina as potential ... Get All the Oil & Gas Financial Journal News Delivered to Your Inbox for free.'
p8
aS'Jul 2, 2010 - understanding which uses are supported. Plasticizer and Chemical Intermediate products sold by ExxonMobil Chemical affiliates in Europe are predominantly ...'
p9
aS"Jul 1, 2010 - THE bad news is we didn't hit oil, ran the old wildcatter's joke. The good ... Seven of the eight projects Exxon Mobil completed last year were for natural-gas ..."
p10
a.