(lp0
S'Jul 6, 2010 - By DAVE MICHAELS / The Dallas Morning News dmichaels@dallasnews.com ... and Irving-based Exxon Mobil Corp. pushed deeper and deeper into the Gulf of ...'
p1
aS"Jul 7, 2010 - So it was a natural fit when the university joined with ExxonMobil to challenge the company's employees and retirees to reach the $1 million mark in earned ..."
p2
aS'Jul 6, 2010 - Mr. Yongyot Harnsuvanich (2nd right), Vice President of ExxonMobil Exploration and ... news releases ... ExxonMobil Production Supports Local Forest Conservation at Amphur ... Exxon Mobil Corporation  Global Web Sites  Contact Us.'
p3
aS'Jul 5, 2010 - ... BP (Macondo), BHP Billiton, ExxonMobil, Hess Corp., LLOG Exploration, Murphy Oil Corp., ... Get All the Oil and Gas Journal News Delivered to Your Inbox.'
p4
aS'Jul 5, 2010 - Get All the Oil and Gas Journal News Delivered to Your Inbox ... TransCanada Corp., Calgary, has agreed to acquire Columbia Pipeline Group Inc. of .... Job Summary: ExxonMobil Research and Engineering Company has an immediate ...'
p5
aS'Jul 5, 2010 - MailOnline - news, sport, celebrity, science and health stories .... EXTRACT FROM A BOOK BY DR LESLIE GAINES-ROSS: Corporate Reputation: Jan 2008 ..... REUTERS ARTICLE: Exxon-Shell gas venture may have to adjust Groningen .... the USA  ExxonMobil Website  Fifo Mining Jobs  fuelfix.com  Google Shell News ...'
p6
aS'Jul 5, 2010 - This is also driven by a decrease in conventional reserves, which, according to Mark Albers, senior vice president of Exxon Mobil Corporation, means that in the ...'
p7
aS'Jul 5, 2010 - The fate of deepwater drilling in the United States does, of course, matter much more to the likes of BP and Exxon Mobil, which are shut out of many of the ...'
p8
aS"Jul 5, 2010 - T-shirt: Contra la agresin imperialista, no ExxonMobil ... Petroleos de Venezuela SA during court fight with Exxon Mobil Corp. over a $12 billion asset freeze, Valentine's day 2008. ... If this happens, it should be big news for Williams Cos."
p9
aS'Jul 6, 2010 - Technical placement - profile. Name: Emily Tucker Degree: Chemical Engineering at Bath University Placement: Technical Placement - Refining & Chemicals ...'
p10
a.