(lp0
S"Jul 7, 2010 - In this May 1, 2008, file photo, a customer pumps gas at an Exxon station in Middleton, Mass. Exxon Mobil Corp. said Thursday, June 12, 2008, it's getting out of ..."
p1
aS"Jul 7, 2010 - ... that they intend to sue ExxonMobil Corporation in federal court for thousands of violations of the federal Clean Air Act at its ... ExxonMobil Faces Clean Air Act Lawsuit For Violations At Nation's Largest Refinery .... News Releases by Program."
p2
aS'Jul 8, 2010 - ExxonMobil/XTO Merger Thursday, July 8, 2010 11:00 a.m. ET / 10:00 a.m. CT. Webcast Presentation. Listen to the Webcast in Windows Media Player ...'
p3
aS"Jul 7, 2010 - Frustrated green groups to sue ExxonMobil, saying Texas regulator isn't regulating ... accusing ExxonMobil Corp. of illegally releasing at least 5.9 million pounds of ... ExxonMobil declined to comment on the impending lawsuit, but said it has .... Sign up for the Center for Public Integrity's Watchdog email and get the news ..."
p4
aS'Jul 7, 2010 - Party Litigation  News & Events  Press Releases  Events ... Village of Kivalina v. ExxonMobil Corporation, et al. ... of Kivalina et al. v. ExxonMobil Corp. et al..pdf.'
p5
aS'Jul 8, 2010 - 2 spot to break a five-year run by Exxon Mobil in the No. 1 position. Wal-Mart regained the No. 1 spot by revenue for 2009, leaping over oil companies Royal ...'
p6
aS'Jul 8, 2010 - KKR, which is sitting on $12.6 billion in unused capital commitments, joins Exxon Mobil Corp. and BP Plc, the biggest owners of shale-gas deposits in the U.S., ...'
p7
aS'Jul 8, 2010 - ... with Exxon-Mobil Corp. based in Irving, Texas, to develop fuel from algae. ... Presidential Candidate Donald Trump Holds Election Night News Conference.'
p8
aS'Jul 8, 2010 - DOW JONES, A NEWS CORP COMPANY .... SA TOT -1.22 % Wednesday said it agreed to buy UTS Energy Corp. for 1.5 billion Canadian dollars ($1.42 billion) ...'
p9
aS'Jul 7, 2010 - ... produce more than 10 million barrels of oil a year -- were Eni U.S. Operating Co. and Exxon Mobil Corp. ... BP was also a finalist in 2009, when Exxon Mobil won. ... For more news on energy and the environment, visit www.greenwire.com.'
p10
a.