(lp0
S'Aug 12, 2010 - While competitors Exxon Mobil Corp. and Royal Dutch Shell Plc are free to pass on rising oil prices to consumers at the pump, state-controlled Petrobras is ...'
p1
aS"Aug 12, 2010 - S&P also ranks Exxon Mobil Corp., Microsoft Corp., and Automatic Data Processing Inc. as AAA, the same level it assigns to U.S. government debt. Moody's ..."
p2
aS'Aug 14, 2010 - [The Mobil logo, the flying horse, the running tiger and the ExxonMobil logo are trademarks of ExxonMobil Corporation or ... Nothing contained herein is intended to override the corporate separateness of affiliated companies.] News & Events.'
p3
aS'Aug 12, 2010 - Lubrication Technologies Acquires Egan Oil Corporation ... In 1971, the company began selling ExxonMobil products, which continues to date. ... Back To News.'
p4
aS'Aug 13, 2010 - home  news  careers  contact us. English | . Global  ExxonMobil Chemical  products & ..... Copyright 2015 Exxon Mobil Corporation. All Rights ...'
p5
aS'Aug 13, 2010 - First Philippine Industrial Corp. ... Philippine News for the Filipino Global Community ... Pilipinas Shell Petroleum Corp., Chevron Philippines and Exxon Mobil.'
p6
aS'Aug 13, 2010 - Exxon Mobil Corp. Treasurer. Angelo Chaclas ... Dow Corning Corp. Bart Eppenauer. Microsoft ... (Author of Friday Column in IPO Daily News. TM. , www.ipo.org)'
p7
aS'Aug 13, 2010 - By JASON ROBERSON / The Dallas Morning News jroberson@dallasnews.com. Published: 13 August .... Exxon Mobil, XOM, 78.06. Fluor Corp. FLR, 41.35.'
p8
aS'Aug 13, 2010 - Get All the Oil and Gas Journal News Delivered to Your Inbox ... Cabot Oil & Gas Corp. said it will appeal a federal court award of $4.24 million to two .... as part of the Baytown Complex Laboratory of ExxonMobil Refining Supply Company, will ...'
p9
aS'Aug 12, 2010 - The ratings also consider the extensive experience and level of commitment of Ancon`s parent, Exxon Mobil Corporation (NYSE: XOM), whose management ...'
p10
a.