(lp0
S'Aug 17, 2010 - Latest news, videos, images of BP. ... BP Plc, Exxon Mobil Corp, Chevron Corp and Royal Dutch Shell Plc - in state court on Wednesday for allegedly damaging ...'
p1
aS"Aug 17, 2010 - In 2004 the Bourg Corp. settled a lawsuit it filed against Exxon Mobil Corp. ... At Harry Bourg's muskrat marsh, the only good news lately is that oil from the BP ..."
p2
aS'Aug 17, 2010 - LN) and Exxon Mobil Corp. (XOM), want to build three trains at Gorgon capable of producing 15 million metric tons of LNG a year for an estimated cost of A$43 ...'
p3
aS'Aug 16, 2010 - ExxonMobil Foundation is the primary philanthropic arm of ExxonMobil Corporation in the United States. The Foundation engages in a broad range of ...'
p4
aS'Aug 16, 2010 - The original Wilton lease, along with a separate one to ExxonMobil Corp., was part of a deal to invest $94 million to rebuild the 1950s-era oases and fill them ...'
p5
aS'Aug 17, 2010 - Like Icahn, Paulson boosted its energy industry holdings, adding Exxon Mobil (XOM, Fortune 500) to its portfolio with the purchase of 9 million shares of the ...'
p6
aS'Aug 16, 2010 - ... Hall, Executive Director, Hampton-Newport News Community Services Board; ... Global Medical Director, Exxon Mobil Corporation; Advisory Council Member, ...'
p7
aS"Aug 17, 2010 - The Supreme Court's Citizens United ruling will allow corporate interests to spend unlimited amounts ... BP, Chevron, ConocoPhillips, Encana Oil & Gas, ExxonMobil and Noble Energy each ... Get news, videos, tips and more from Sunlight."
p8
aS'Aug 16, 2010 - Exxon Mobil Corp. paid more than that earlier this year$41 billionto purchase XTO Energy, which has big reserves in unconventional tar sands, oil shales, ...'
p9
aS'Aug 18, 2010 - Nationale Elf Aquitaine, Shell France, Esso SAF, BP France, and Mobil Oil Francaise-has ... polyethylene unit owned jointly with Exxon Chemical Co. in northern France and the ..... Get All the Oil and Gas Journal News Delivered to Your Inbox ... Pason Systems Corp. knows a thing or two about information and intelligence.'
p10
a.