(lp0
S'Aug 20, 2010 - home  news  careers  contact us  products & services  energy & ... Exxon Mobil Corporation  Global Websites  Contact Us  Copyright  Terms & Conditions ...'
p1
aS'Aug 20, 2010 - home  news  publications  contact us  products & services  energy & ... Exxon Mobil Corporation  Global Websites  contact us  copyright  terms & conditions ...'
p2
aS'Aug 19, 2010 - ACCRA, GhanaExxon Mobil Corp. said Wednesday it has canceled plans to ... a news release announcing the termination of the agreement with Exxon Mobil.'
p3
aS'Aug 19, 2010 - Owner: Adriatic LNG (ExxonMobil Italiana Gas; Qatar Terminal Limited [Qatar Petroleum] ... Aug 10, 2009 - ExxonMobil Corp. on Monday announced that the first ...'
p4
aS'Aug 20, 2010 - Due to strict university firewalls and IT security settings a number of ExxonMobil communications will not be received. Therefore we strongly advise that you do ...'
p5
aS'Aug 20, 2010 - Exxon Mobil Corp. spokesman Kevin Allexon said the company had not decided ... to $7 million in damages from Exxon Mobil, an appellate court ruled today. .... From local news to politics to entertainment and sports, the twice daily Right Now ...'
p6
aS"Aug 20, 2010 - Pemex expects Exxon Mobil Corp., Royal Dutch Shell Plc and Chevron Corp., ... Pemex's goal is to attract an Exxon, a BP, a Statoil, that would be the good .... are so widespread they're skewing the market's response to news in favor of rallies, ..."
p7
aS'Aug 20, 2010 - about ExxonMobil and our brands Esso en Mobil. ... The policy of Exxon Mobil Corporation is one of strict observance of all laws applicable to its business.'
p8
aS"Aug 20, 2010 - On Cross Offshore Corporation's abandonments, 100% of their piles and conductors are .... Get All the Offshore Magazine News Delivered to Your Inbox for free .... as part of the Baytown Complex Laboratory of ExxonMobil Refining & Supply ..."
p9
aS"Aug 20, 2010 - Exxon Mobil Corporation, Defendant-Appellant, v. ... The second was direct exposure during Bonnie's employment with Exxon from 1974 to 1986. ...... Research the law; Manage your practice; Manage your career; News and commentary; Get ..."
p10
a.