(lp0
S'Aug 24, 2010 - An overview of news releases, publications, a selection of articles on various subjects and a link to the Exxon Mobil Corporation international news room.'
p1
aS'Aug 25, 2010 - Chevron Corp. News CVX Chevron: Taking Measures To Respond To Apparent Oil New York Stock Exchange ... CVX Company Information  Chevron Corp. ... 04/13/2016, 11:10:00, Exxon Mobil CEO Tillerson Was Paid $27.3 Million for 2015.'
p2
aS'Aug 25, 2010 - ... stores/fuel stations, located in Northern Virginia and Maryland, from the Exxon Mobil Corporation (NYSE: XOM). ... one of the largest ExxonMobil branded wholesalers in the U.S. MACS was formed by Catterton Partners ... Share This News ...'
p3
aS'Aug 25, 2010 - News & Analysis ... A decade ago, Smith helped win a $1 billion verdict against ExxonMobil for environmental contamination near the Crescent City stemming ...'
p4
aS'Aug 25, 2010 - Bill Gates added to his holdings in Exxon Mobil Corp. by 13.67%. ... Exxon Mobil Corp. has a market cap of $303.66 billion; its shares were traded at around $59.88 with a P/E ratio of ... URL: http://www.gurufocus.com/news.php?id=104835.'
p5
aS"Aug 25, 2010 - This week, Koch Industries is in the news again following an expose by Jane Meyer at the ... These views dovetail with the brothers' corporate interests. ... the Kochs vastly outdid ExxonMobil in giving money to organizations fighting legislation ..."
p6
aS'Aug 25, 2010 - corporate proxy solicitations, and communication between shareholders in the proxy ...... Retirement Communities, LLC (Erickson); ExxonMobil Corporation.'
p7
aS"Aug 24, 2010 - Exxon Mobil Corp. announced in July that an analysis had shown it was not economical to ... News. Woman pleads not guilty to live-streaming friend's rape ..."
p8
aS'Aug 24, 2010 - ... is a freelance writer for Muse, the arts and leisure section of Bloomberg News. ... majors -- Exxon Mobil Corp., Royal Dutch Shell Plc, Chevron Corp., Total SA ...'
p9
aS'Aug 24, 2010 - Get All the Offshore Magazine News Delivered to Your Inbox for free .... as part of the Baytown Complex Laboratory of ExxonMobil Refining Supply Company, ...'
p10
a.