(lp0
S'Aug 1, 2010 - A. T. (Tim) Cejka, president, ExxonMobil Exploration Co., and vice president, Exxon ... It is expected that the board of directors of Exxon Mobil Corp. will appoint .... Get All the Oil & Gas Financial Journal News Delivered to Your Inbox for free.'
p1
aS'Aug 2, 2010 - News. Subscribe to us in your news reader: feed ProxyDemocracy News ... Shareholders of ExxonMobil Corp. will vote on eight resolutions concerning the ...'
p2
aS'Aug 2, 2010 - Refining and chemical margin recoveries are the key levers that helped Exxon Mobil Corporation (NYSE:XOM) recover its earning strength. I encourage you to ...'
p3
aS'Aug 3, 2010 - Exxon and Mobil are gas station brands with a great history of success.'
p4
aS'Aug 2, 2010 - Burgess put it on the biggest players in the Barnett, such as Devon Energy Corp., Chesapeake Energy Corp., Exxon Mobil Corp. and Williams Companies to ...'
p5
aS'Aug 1, 2010 - Sports consultant is dominant force for corporate clients ... This year, Genesco will help about 30 corporate clients spend several .... I came to work for The Dallas Morning News in May 1972 as a summer intern in ... Exxon Mobil, XOM, 78.06.'
p6
aS"Aug 2, 2010 - ExxonMobil's third well in SC 56, the Palendag-1 well offshore Sulu, has encountered gas. A fourth well, Babendil-1, is to be ... Upstream oil and gas news for exploration and production professionals ... Current Corporate Activity articles: 2567 ..."
p7
aS'Aug 2, 2010 - NEWS Brent spar experience haunts N. Sea platform abandonments ..... Pason Systems Corp. knows a thing or two about information and intelligence. .... as part of the Baytown Complex Laboratory of ExxonMobil Refining & Supply Company, ...'
p8
aS"Aug 2, 2010 - Shell Oil Co. has agreed to acquire Houston's Tejas Gas Corp. in a deal valued ... Get All the Oil and Gas Journal News Delivered to Your Inbox .... exxon mobil"
p9
aS'Aug 2, 2010 - More News From ClimateWire .... such as Devon Energy Corp., Chesapeake Energy Corp., Exxon Mobil Corp. and Williams Companies to help address public ...'
p10
a.