(lp0
S'Aug 30, 2010 - home  news  contact us  products & services  energy & environment ... Exxon Mobil Corporation  global web sites  contact us  copyright  terms & conditions ...'
p1
aS'Aug 30, 2010 - home  news  publications  contact us  products & services  energy & ... Exxon Mobil Corporation  Global Websites  contact us  copyright  terms & conditions ...'
p2
aS'Aug 29, 2010 - ExxonMobil Corporation  State of Texas, Public ... Bloomberg News, November 28, 2012; MSRB to Change ARS Data As Urged by Advisor The Bond Buyer ...'
p3
aS"Aug 30, 2010 - These views dovetail with the brothers' corporate interests. ... from 2005 to 2008, the Kochs vastly outdid ExxonMobil in giving money to organizations fighting ...... for policy at Americans for Prosperity, is a contributor to the Fox News Web site."
p4
aS"Aug 30, 2010 - Coming into favor were more stable if less flashy stocks like Exxon Mobil (XOM. ... Some funds turned to cell phone tower owners like American Tower Corp (AMT.N) and .... Thomson Reuters is the world's largest international multimedia news ..."
p5
aS'Aug 30, 2010 - ... and all stock screening tools do not know about news events such as an oil spill, ... this highly competitive corporation is engaged in every aspect of the oil and ... Exxon Mobil is rated a STRONG BUY and is expected to rally 15.6% over the ...'
p6
aS'Aug 29, 2010 - Brinderson is now a wholly-owned subsidiary of Aegion Corporation. Concentrating primarily on energy projects in the private sector, Brinderson serves a broad ...'
p7
aS"Aug 29, 2010 - zz_SUB - Subscriber Content Don't use anymore NEWS ... Mr. Jonas' IDT Corp. was a pioneer in driving down the cost of long-distance calls, ... Dutch Shell and Exxon Mobilit could make life considerably less comfortable for Saudi Arabia's ..."
p8
aS'Aug 30, 2010 - Copies of Orders. Exxon Mobil Corporation (PDF) (15 pp, 445K); Global Shipping and Global Marketing (PDF) (9 pp, 232K) ...'
p9
aS'Aug 29, 2010 - DOW JONES, A NEWS CORP COMPANY. News Corp is a .... That can worsen employment conditions, hurt corporate earnings and handcuff the economy.'
p10
a.