(lp0
S'Aug 4, 2010 - CSPnet.com - Convenience Store News  April 2016 CSP .... ExxonMobil C-Stores in Landshire Deal ... Exxon Mobil Corp. is based in Irving, Texas. Founded in ...'
p1
aS'Aug 3, 2010 - Careers  Investors  News; Select countryGlobal_selector_abbreviation ..... Careers  Contact us  Investors  News and updates  Perspectives blog.'
p2
aS'Aug 4, 2010 - ExxonMobil is seeking strategic alternatives for its 30% working interest in the 3818 ... Upstream oil and gas news for exploration and production professionals ... and Production Congo (Mer Tres Profonde Sud), an affiliate of ExxonMobil Corp, ...'
p3
aS'Aug 3, 2010 - DOW JONES, A NEWS CORP COMPANY ..... By comparison, Exxon Mobil, with a market cap of $295 million, had a total returns, which include dividends, ...'
p4
aS'Aug 4, 2010 - ... significantly expanded last year into a corporate regional office under the command of Dr William .... Get All the Offshore Magazine News Delivered to Your Inbox for free ... Exxon Mobil Corp. has started oil production at the Julia field in the ...'
p5
aS'Aug 4, 2010 - Exxon and Sinopec join traders in selling crude overseas ... Oil companies including Exxon Mobil Corp and China Petroleum and Chemical Corp have joined ...'
p6
aS'Aug 3, 2010 - ... Polypore said in March. TonenGeneral is a unit of Exxon Mobil Corp. Dow Chemical Co. and Exxon Mobil are the two largest U.S. chemical makers by sales.'
p7
aS'Aug 4, 2010 - Mobil Oil Coal to Methanol to Gasoline ... We frequently make reference in our posts to ExxonMobil\'s "MTG"(r), ... Assignee: Mobil Oil Corporation, NY. Abstract: A ...'
p8
aS'Aug 3, 2010 - Back to News & Media ... United States Coast Guard and ExxonMobil, Shell Oil, and/or ConocoPhillips concerning the safety of oil rigs in the Gulf and/or the term ...'
p9
aS"Aug 3, 2010 - They burn petroleum coke that's supplied by Exxon Corp.'s 128,000 .... Get All the Oil and Gas Journal News Delivered to Your Inbox. Subscribe .... exxon mobil"
p10
a.