(lp0
S'Aug 4, 2010 - CSPnet.com - Convenience Store News  April 2016 CSP .... ExxonMobil C-Stores in Landshire Deal ... Exxon Mobil Corp. is based in Irving, Texas. Founded in ...'
p1
aS'Aug 5, 2010 - Latest ExxonMobil News, Photos, Blogposts, Videos and Wallpapers. Explore ExxonMobil profile at Times of India.'
p2
aS'Aug 5, 2010 - The Mobil family of products/lubricants offers a range of automotive ... The ExxonMobil Fuel Finder is a free mobile application available for download.'
p3
aS'Aug 5, 2010 - Helping you find Mobil products and services for both consumer and business use, use the Mobil Distributor Locator tool to find an authorized ExxonMobil ...'
p4
aS'Aug 5, 2010 - Good News for Modi: Only a Third of India Projects Delayed ... Reliance joins Royal Dutch Shell Plc, BP Plc and Exxon Mobil Corp. in acquiring unconventional ...'
p5
aS'Aug 5, 2010 - The average yield on an investment-grade corporate bond was 4 percent as of Aug. .... Oil companies including Exxon Mobil Corp and China Petroleum and ...'
p6
aS'Aug 4, 2010 - Exxon and Sinopec join traders in selling crude overseas ... Oil companies including Exxon Mobil Corp and China Petroleum and Chemical Corp have joined ...'
p7
aS'Aug 4, 2010 - Mobil Oil Coal to Methanol to Gasoline ... We frequently make reference in our posts to ExxonMobil\'s "MTG"(r), ... Assignee: Mobil Oil Corporation, NY. Abstract: A ...'
p8
aS'Aug 4, 2010 - Caller: Exxon Mobil Corp. Call Type: ... I missed a call, no message was left, but after calling the number back learned it was Esso (Exxon Mobil). ... Latest News.'
p9
aS'Aug 4, 2010 - Dallas Morning News Home ... Kilgore Economic Development Corp., which unsuccessfully pressed Verizon Communications Inc. .... Exxon Mobil, XOM, 78.06.'
p10
a.