(lp0
S"Sep 14, 2010 - home  news  publications  contact us .... whether there is a fit with your profile and ExxonMobil's corporate culture and whether you have enough motivation ..."
p1
aS'Sep 13, 2010 - home  news  publications  contact us  products & services  energy & ... Exxon Mobil Corporation  Global Websites  contact us  copyright  terms & conditions ...'
p2
aS'Sep 13, 2010 - internet site. home  news  publications  contact us  products & services  energy & environment ... corporate culture  competencies & profiles  compensation & ...'
p3
aS"Sep 13, 2010 - Exxon Says `$25 Billion Rule' Will Sink Deepwater Oil Drilling ... U.S. plan to toughen offshore drilling rules that Exxon Mobil Corp. said will cost as much as $25 ..."
p4
aS"Sep 13, 2010 - ConocoPhillips' Wood River plant and Exxon Mobil Corp.'s Joliet refinery in Illinois, along with BP Plc's Whiting plant in Indiana, are also located in the vicinity of ..."
p5
aS'Sep 12, 2010 - As far as BP, an April 2010 Bloomberg News article calls Weems an oil and gas lawyer ... Noting that Porter owns stock in Exxon Mobil, Weems said in an interview: ... his wife--not Porter--owns 100 to 499 shares of stock in Exxon Mobil Corp.)'
p6
aS'Sep 13, 2010 - DOW JONES, A NEWS CORP COMPANY ..... Last December, Exxon Mobil Corp. .... In the near term, investors should watch for any news out of China or India ...'
p7
aS'Sep 13, 2010 - Alaska Dispatch News .... losers," as she feels it did with committing up to $500 million to TransCanada and Exxon Mobil Corp. for the state-sanctioned project.'
p8
aS"Sep 13, 2010 - Exxon Mobil (XOM, Fortune 500) recently paid over $40 billion for a shale ... That's good news to people concerned about global warming or foreign oil dependence. .... The company said the layoffs will primarily affect corporate and regional ..."
p9
aS'Sep 13, 2010 - Related News. CEO Watch  Nokia CEO, ... Celgene Corporation (NASDAQ:CELG) Builds on Success of REVLIMID ... Exxon Mobil Corporation. AT&amp;T Inc.'
p10
a.