(lp0
S'Sep 27, 2010 - DOW JONES, A NEWS CORP COMPANY. News Corp is a network of .... 27, 2010 12:17 p.m. ET. The Sakhalin-1 consortium operated by Exxon Mobil Corp.'
p1
aS"Sep 28, 2010 - Dec 19, 2008 - Recently uncovered damage at Exxon Mobil Corp.'s (XOM) $1 billion natural gas import terminal under construction in southeast Texas will delay ..."
p2
aS"Sep 28, 2010 - The launch of a new field at ExxonMobil led Sakhalin-1 will keep the Pacific offshore project's output roughly steady next ... Upstream oil and gas news for exploration and production professionals ... Current Corporate Activity articles: 2567 ..."
p3
aS"Sep 27, 2010 - ExxonMobil and its partner Shell plan to more than double the number of new wells in Iraq's West Qurna Phase One to ... Upstream oil and gas news for exploration and production professionals ... Current Corporate Activity articles: 2567 ..."
p4
aS'Sep 27, 2010 - Chevron Corp., ConocoPhillips, ExxonMobil Corp., and Royal Dutch Shell PLC pooled $1 ..... Get All the Oil and Gas Journal News Delivered to Your Inbox.'
p5
aS'Sep 27, 2010 - ExxonMobil Corp. reported second-quarter 2010 earnings of $7.56 billion, up from $3.95 billion a year earlier. .... International news for oil and gas professionals ...'
p6
aS'Sep 27, 2010 - United States. News | Mon Sep 27, 2010 9:33am EDT ... 1981 - Standard Oil of Ohio (SOHIO) purchases Kennecott Copper Corp. ... 2002 - Exxon Mobil sells its interests in copper producer Disputada to Anglo American for $1.3 billion. (Editing ...'
p7
aS'Sep 28, 2010 - Home; Report on Business; Industry News; Energy & Resources ... Energy Corp. and XTO Energy Inc. (the latter recently acquired by Exxon Mobil Corp. for ...'
p8
aS'Sep 28, 2010 - ... owned 70% by Qatar Petroleum International (QPI), the international arm of Qatar Petroleum (QP), and the remaining by ExxonMobil and ConocoPhillips.'
p9
aS'Sep 27, 2010 - The Boeing Corporate Travel Department handles travel services within the ...... BTN estimates Exxon Mobil reduced its U.S. booked air spending by more than ...'
p10
a.