(lp0
S'Sep 29, 2010 - Careers  Investors  News  Global .... percent), Sakhalinmorneftegas-Shelf (11.5 percent) and Oil and Natural Gas Corporation (ONGC) Videsh Ltd. (20 percent).'
p1
aS'Sep 29, 2010 - ExxonMobil Corp. started production from Odoptu field, the second offshore field developed in ... Get All the Oil and Gas Journal News Delivered to Your Inbox.'
p2
aS'Sep 29, 2010 - dit le 29/09/2010 - Plus de news de "ExxonMobil" - Voir la fiche entreprise de ... (11.5 percent) and Oil and Natural Gas Corporation (ONGC) Videsh Ltd. (20 ...'
p3
aS'Sep 29, 2010 - REGIONAL NEWS ... Exxon Mobil Corporation announced today the startup of production from the Odoptu field at the Sakhalin-1 project offshore northeastern ...'
p4
aS"Sep 30, 2010 - Vladimir Putin, Russia's prime minister, pauses during a news conference following ... Head of Corporate Affairs Dimitar Abadjiev told reporters in Bucharest today. That's ... Oil companies including Exxon Mobil Corp and China Petroleum and ..."
p5
aS'Sep 30, 2010 - good news. i hope this ignites a spark that eventually lead to redevelopment of the .... (NYSE: SWN) released details for its new corporate headquarters campus .... About 6-8 weeks ago I was speaking with two gentlemen with Exxon/Mobil at ...'
p6
aS'Sep 29, 2010 - News | Wed Sep 29, 2010 6:26am EDT ... Oilfields operated by units of Exxon Mobil and production streams run by Eni are also benefiting ... to a lack of funding from state run Nigeria National Petroleum Corp (NNPC), which holds a majority ...'
p7
aS'Sep 30, 2010 - By MARIA HALKIAS / The Dallas Morning News mhalkias@dallasnews.com ... Jared the Galleria of Jewelry, had revenue of more than $3.3 billion last year and has taken market share from Irving-based Zale Corp. ... Exxon Mobil, XOM, 78.06.'
p8
aS'Sep 30, 2010 - Home  News ... By KAREN ROBINSON-JACOBS / The Dallas Morning News krobinson@dallasnews.com. Published: .... Exxon Mobil, XOM, 78.06. Fluor Corp.'
p9
aS'Sep 30, 2010 - AG Communication Systems AG Communication Systems Corporation ..... Exxon Mobil Foundation ExxonMobil ..... Northrop Grumman Newport News Northwest ...'
p10
a.