(lp0
S"Sep 8, 2010 - Partnership's Acquisition of 42 ExxonMobil Company-Operated Stations Expected ... completed the purchase from Exxon Mobil Corporation of 148 dealer-operated Mobil ... Some of the information contained in this news release may contain ..."
p1
aS'Sep 8, 2010 - Get information, directions, products, services, phone numbers, and reviews on Exxon Mobil Corporation in Port Arthur, TX. Discover more Gasoline Service ...'
p2
aS'Sep 7, 2010 - News. Petry in Cardinal Cadence  Motiva- Port Arthur Business Profiles Related to ... ExxonMobil. Bechtel/Jacob Jacobs Engineering KBR URS Corporation'
p3
aS'Sep 7, 2010 - Oil company Chevron Corp. has invested in Solazyme. And Exxon Mobil Corp. last year announced a $600 million algae program with Synthetic Genomics Inc., ...'
p4
aS'Sep 7, 2010 - DOW JONES, A NEWS CORP COMPANY ... companies in the worlds of diversified media, news, education, and information services. ..... And Exxon Mobil Corp.'
p5
aS'Sep 7, 2010 - ... percent gain, according to the median of 40 estimates in a Bloomberg News survey. ... Oil companies including Exxon Mobil Corp and China Petroleum and ...'
p6
aS'Sep 7, 2010 - By S.C. GWYNNE and GARY JACOBSON / The Dallas Morning News .... This was in all ways a normal corporate transaction. .... As a benchmark, it was more than the directors of Exxon Mobil made that year, a company 100 times larger than ...'
p7
aS'Sep 7, 2010 - By MARIA HALKIAS / The Dallas Morning News mhalkias@dallasnews.com. Published: 07 September .... Exxon Mobil, XOM, 78.06. Fluor Corp. FLR, 41.35.'
p8
aS"Sep 8, 2010 - Given the importance of your CV, ExxonMobil recommends to go through at least ... whether there is a fit with your profile and ExxonMobil's corporate culture and ..."
p9
aS'Sep 8, 2010 - ... across different customs, geography and politics, said Donald Humphreys, a senior executive at Exxon Mobil Corp. ... (excerpted from OSU News Release.'
p10
a.