(dp0
(I5
I12
I2010
tp1
F0.39070344871455914
s(I3
I31
I2010
tp2
F0.44227882679948277
s(I12
I31
I2010
tp3
F0.1701148503827808
s(I5
I24
I2010
tp4
F0.5588436166893594
s(I10
I4
I2010
tp5
F0.6199043891987955
s(I2
I10
I2010
tp6
F0.26388923964583266
s(I9
I24
I2010
tp7
F0.32606879558046764
s(I2
I25
I2010
tp8
F0.35770028186262365
s(I7
I2
I2010
tp9
F0.28991035284257666
s(I5
I21
I2010
tp10
F0.32336782974724165
s(I12
I21
I2010
tp11
F0.1852788593813514
s(I11
I2
I2010
tp12
F0.4783360698446775
s(I2
I4
I2010
tp13
F0.2541896491825272
s(I9
I2
I2010
tp14
F0.3380865864787562
s(I7
I30
I2010
tp15
F0.22383230199600995
s(I12
I10
I2010
tp16
F0.4709255405185143
s(I2
I19
I2010
tp17
F0.3285641789012921
s(I4
I28
I2010
tp18
F0.43877320522211416
s(I11
I22
I2010
tp19
F0.30602091972069007
s(I7
I15
I2010
tp20
F0.5540898255067449
s(I9
I13
I2010
tp21
F0.31882641669882195
s(I9
I22
I2010
tp22
F0.27325656971864765
s(I1
I27
I2010
tp23
F0.375457716661753
s(I4
I14
I2010
tp24
F0.36108320591378107
s(I7
I27
I2010
tp25
F0.40125650222438186
s(I6
I2
I2010
tp26
F0.4482268724920808
s(I9
I17
I2010
tp27
F0.2542330721924472
s(I7
I20
I2010
tp28
F0.3659008344499183
s(I8
I4
I2010
tp29
F0.3735909760873676
s(I6
I1
I2010
tp30
F0.3934168168706221
s(I4
I26
I2010
tp31
F0.446504868541352
s(I11
I12
I2010
tp32
F0.2985968584265807
s(I12
I28
I2010
tp33
F0.35240402081107813
s(I1
I12
I2010
tp34
F0.25404281875511703
s(I4
I5
I2010
tp35
F0.362985128192861
s(I1
I29
I2010
tp36
F0.38000431480477415
s(I8
I13
I2010
tp37
F0.20885157313846844
s(I8
I24
I2010
tp38
F0.36882873483654266
s(I6
I21
I2010
tp39
F0.31883879627567174
s(I11
I11
I2010
tp40
F0.4029066943835485
s(I10
I29
I2010
tp41
F0.3146934503292305
s(I6
I4
I2010
tp42
F0.4379633446066099
s(I8
I10
I2010
tp43
F0.2637300820445699
s(I8
I17
I2010
tp44
F0.39789687927945483
s(I1
I6
I2010
tp45
F0.46788959496998056
s(I10
I14
I2010
tp46
F0.16509765404867738
s(I6
I24
I2010
tp47
F0.546808233745463
s(I5
I3
I2010
tp48
F0.3282133259340362
s(I12
I7
I2010
tp49
F0.2194630622944546
s(I8
I30
I2010
tp50
F0.25954524409373364
s(I6
I15
I2010
tp51
F0.4153218044830191
s(I7
I29
I2010
tp52
F0.34522118667965673
s(I10
I7
I2010
tp53
F0.5711446972178862
s(I2
I18
I2010
tp54
F0.3647779307098896
s(I3
I12
I2010
tp55
F0.3948246719960068
s(I5
I28
I2010
tp56
F0.5031787522098331
s(I10
I8
I2010
tp57
F0.541289978566674
s(I10
I19
I2010
tp58
F0.3356680680484108
s(I5
I13
I2010
tp59
F0.2729796331081194
s(I3
I16
I2010
tp60
F0.3071166939668572
s(I12
I16
I2010
tp61
F0.19561085997507013
s(I10
I20
I2010
tp62
F0.3367877067130458
s(I9
I7
I2010
tp63
F0.37682035945680026
s(I7
I6
I2010
tp64
F0.436410524693697
s(I5
I25
I2010
tp65
F0.33038804019012585
s(I12
I9
I2010
tp66
F0.46315226458599784
s(I2
I9
I2010
tp67
F0.3546670641201386
s(I5
I6
I2010
tp68
F0.5149808101682191
s(I2
I24
I2010
tp69
F0.2737956138956449
s(I9
I14
I2010
tp70
F0.3180716221097407
s(I9
I27
I2010
tp71
F0.36234401275300954
s(I12
I14
I2010
tp72
F0.427182546594821
s(I2
I23
I2010
tp73
F0.29312559838189733
s(I4
I16
I2010
tp74
F0.36579476660868676
s(I11
I18
I2010
tp75
F0.4460442324923998
s(I5
I18
I2010
tp76
F0.4391250788940554
s(I9
I9
I2010
tp77
F0.4202055836989632
s(I1
I7
I2010
tp78
F0.46653368889615476
s(I8
I3
I2010
tp79
F0.3980247869403432
s(I2
I3
I2010
tp80
F0.375116794655626
s(I11
I1
I2010
tp81
F0.3544641298983454
s(I1
I20
I2010
tp82
F0.3491349841675414
s(I6
I14
I2010
tp83
F0.4412751102324942
s(I9
I29
I2010
tp84
F0.3073725149318724
s(I7
I8
I2010
tp85
F0.27805292702214
s(I8
I23
I2010
tp86
F0.32895569455646734
s(I4
I30
I2010
tp87
F0.28009617641596557
s(I11
I8
I2010
tp88
F0.3976436853617146
s(I1
I8
I2010
tp89
F0.4530597580898107
s(I4
I9
I2010
tp90
F0.5013558047523854
s(I6
I18
I2010
tp91
F0.4692867440294216
s(I1
I25
I2010
tp92
F0.3424705423673493
s(I8
I9
I2010
tp93
F0.3930101839463589
s(I8
I20
I2010
tp94
F0.26874573180328465
s(I6
I17
I2010
tp95
F0.35358127087468905
s(I3
I1
I2010
tp96
F0.39938753844134645
s(I10
I1
I2010
tp97
F0.5916416803301927
s(I4
I21
I2010
tp98
F0.259400513004696
s(I3
I2
I2010
tp99
F0.43059855907240374
s(I1
I13
I2010
tp100
F0.25868993699370874
s(I3
I22
I2010
tp101
F0.2642922558232899
s(I8
I26
I2010
tp102
F0.2680891619489992
s(I6
I11
I2010
tp103
F0.4764396614101497
s(I10
I11
I2010
tp104
F0.27120094892517155
s(I3
I8
I2010
tp105
F0.31323331248279807
s(I5
I19
I2010
tp106
F0.573785072521999
s(I12
I23
I2010
tp107
F0.36626232291577715
s(I10
I12
I2010
tp108
F0.19463134566441612
s(I2
I2
I2010
tp109
F0.41119053441266196
s(I2
I17
I2010
tp110
F0.37556162718559116
s(I7
I9
I2010
tp111
F0.31187337095235673
s(I1
I11
I2010
tp112
F0.3895852817046189
s(I9
I20
I2010
tp113
F0.5014862846184551
s(I12
I13
I2010
tp114
F0.40175647671897996
s(I4
I8
I2010
tp115
F0.41538657928999473
s(I5
I10
I2010
tp116
F0.31370004552273595
s(I7
I21
I2010
tp117
F0.40416456533313694
s(I9
I10
I2010
tp118
F0.45505572581030423
s(I9
I23
I2010
tp119
F0.28579002353576727
s(I7
I22
I2010
tp120
F0.3683017008685642
s(I12
I2
I2010
tp121
F0.4195155793886752
s(I7
I7
I2010
tp122
F0.2948156602442297
s(I4
I7
I2010
tp123
F0.36043963250204053
s(I2
I8
I2010
tp124
F0.3476625459609585
s(I9
I30
I2010
tp125
F0.24250065214201158
s(I1
I19
I2010
tp126
F0.3968056195081623
s(I12
I30
I2010
tp127
F0.19520042117481184
s(I7
I19
I2010
tp128
F0.40763228928610246
s(I4
I19
I2010
tp129
F0.3883135394299934
s(I7
I12
I2010
tp130
F0.25369570172521144
s(I8
I12
I2010
tp131
F0.18394137047385814
s(I8
I19
I2010
tp132
F0.15903806846354657
s(I11
I4
I2010
tp133
F0.3430393338615751
s(I11
I17
I2010
tp134
F0.38741806601329287
s(I1
I4
I2010
tp135
F0.49412808955672105
s(I4
I13
I2010
tp136
F0.4168837060836335
s(I6
I30
I2010
tp137
F0.3941394678234555
s(I1
I21
I2010
tp138
F0.365193540880257
s(I11
I3
I2010
tp139
F0.48087249769423457
s(I11
I24
I2010
tp140
F0.346657893815553
s(I3
I29
I2010
tp141
F0.36137178840151923
s(I10
I5
I2010
tp142
F0.5096523906151683
s(I8
I25
I2010
tp143
F0.3130390536668892
s(I11
I23
I2010
tp144
F0.22922755740170836
s(I6
I16
I2010
tp145
F0.3726998760928786
s(I5
I11
I2010
tp146
F0.36067708027727985
s(I3
I18
I2010
tp147
F0.35359029355173055
s(I8
I6
I2010
tp148
F0.3714139588537123
s(I6
I7
I2010
tp149
F0.4489932065953581
s(I3
I3
I2010
tp150
F0.4680562936556031
s(I10
I15
I2010
tp151
F0.32299136743703305
s(I10
I18
I2010
tp152
F0.3821650383624343
s(I5
I7
I2010
tp153
F0.36993361737437325
s(I5
I4
I2010
tp154
F0.4090529136082555
s(I3
I23
I2010
tp155
F0.3864255618680631
s(I10
I27
I2010
tp156
F0.23886873955914947
s(I2
I22
I2010
tp157
F0.19040531707103886
s(I3
I24
I2010
tp158
F0.4144060155949778
s(I12
I8
I2010
tp159
F0.369921761568051
s(I8
I16
I2010
tp160
F0.3516552204907954
s(I10
I28
I2010
tp161
F0.1843286117976033
s(I9
I15
I2010
tp162
F0.4177234728885642
s(I9
I16
I2010
tp163
F0.37506313684115417
s(I12
I1
I2010
tp164
F0.41554419433616985
s(I12
I20
I2010
tp165
F0.20388988736754063
s(I2
I1
I2010
tp166
F0.3744225575641983
s(I5
I14
I2010
tp167
F0.33473226339114903
s(I2
I16
I2010
tp168
F0.3546476560684438
s(I9
I3
I2010
tp169
F0.3376158650993068
s(I12
I6
I2010
tp170
F0.4082309116722542
s(I12
I29
I2010
tp171
F0.31982402310503527
s(I11
I10
I2010
tp172
F0.38608651876795086
s(I5
I26
I2010
tp173
F0.31457354276019256
s(I2
I12
I2010
tp174
F0.37350630940776874
s(I8
I11
I2010
tp175
F0.23927770129770987
s(I3
I17
I2010
tp176
F0.32338483057981643
s(I11
I30
I2010
tp177
F0.45988883190536234
s(I7
I23
I2010
tp178
F0.27710104665546254
s(I4
I23
I2010
tp179
F0.4030305181419013
s(I8
I31
I2010
tp180
F0.38757332005466116
s(I4
I6
I2010
tp181
F0.25823351222956564
s(I11
I29
I2010
tp182
F0.4760582250540071
s(I6
I10
I2010
tp183
F0.49481730586578054
s(I7
I28
I2010
tp184
F0.4231908835219359
s(I6
I9
I2010
tp185
F0.45256635372676735
s(I3
I9
I2010
tp186
F0.37905939313079234
s(I4
I29
I2010
tp187
F0.314597615355665
s(I3
I10
I2010
tp188
F0.4234291274599945
s(I1
I5
I2010
tp189
F0.4900800214852451
s(I8
I5
I2010
tp190
F0.3187982300454459
s(I6
I29
I2010
tp191
F0.3351408411144695
s(I11
I19
I2010
tp192
F0.4287049196355624
s(I1
I26
I2010
tp193
F0.3496596525736415
s(I10
I21
I2010
tp194
F0.18823891271945026
s(I3
I30
I2010
tp195
F0.26802047928843115
s(I8
I2
I2010
tp196
F0.4134624562203588
s(I6
I3
I2010
tp197
F0.4455923724646696
s(I3
I15
I2010
tp198
F0.38315258773177263
s(I1
I14
I2010
tp199
F0.26619132821975156
s(I10
I6
I2010
tp200
F0.45158871060122613
s(I5
I27
I2010
tp201
F0.4000966970798789
s(I12
I15
I2010
tp202
F0.30056732313540746
s(I6
I23
I2010
tp203
F0.4317201478350774
s(I3
I19
I2010
tp204
F0.3163737467271678
s(I2
I26
I2010
tp205
F0.31188730154380384
s(I9
I8
I2010
tp206
F0.2644847598559335
s(I3
I4
I2010
tp207
F0.5048729116227444
s(I4
I20
I2010
tp208
F0.3545697763256915
s(I12
I27
I2010
tp209
F0.40634122274814455
s(I7
I1
I2010
tp210
F0.41363915833134407
s(I5
I20
I2010
tp211
F0.4008831145668756
s(I9
I28
I2010
tp212
F0.39844770107545974
s(I5
I5
I2010
tp213
F0.5588762343600651
s(I2
I5
I2010
tp214
F0.18552551099982115
s(I7
I13
I2010
tp215
F0.3306260316951091
s(I7
I14
I2010
tp216
F0.6038801742971985
s(I5
I17
I2010
tp217
F0.44077091026400705
s(I12
I17
I2010
tp218
F0.2484675878402584
s(I4
I12
I2010
tp219
F0.2946094403864639
s(I4
I15
I2010
tp220
F0.5000828681630121
s(I10
I22
I2010
tp221
F0.15697531551027916
s(I7
I26
I2010
tp222
F0.3723536281588122
s(I12
I22
I2010
tp223
F0.23487006760986168
s(I11
I5
I2010
tp224
F0.37316586137449925
s(I11
I26
I2010
tp225
F0.31171415686014037
s(I4
I27
I2010
tp226
F0.4984692149778647
s(I9
I1
I2010
tp227
F0.37501360583591054
s(I1
I15
I2010
tp228
F0.470031756329426
s(I8
I27
I2010
tp229
F0.2539645847369991
s(I2
I11
I2010
tp230
F0.3695247300813707
s(I11
I9
I2010
tp231
F0.3499590994696363
s(I1
I28
I2010
tp232
F0.3046023408952803
s(I6
I22
I2010
tp233
F0.26953873885721313
s(I9
I21
I2010
tp234
F0.4624701773903377
s(I7
I16
I2010
tp235
F0.4537730844259687
s(I4
I22
I2010
tp236
F0.1880313718240503
s(I11
I16
I2010
tp237
F0.33614258576541756
s(I3
I5
I2010
tp238
F0.34642663352484415
s(I10
I13
I2010
tp239
F0.16826586983242828
s(I4
I1
I2010
tp240
F0.41382314345187776
s(I6
I25
I2010
tp241
F0.4616292278310069
s(I11
I15
I2010
tp242
F0.29791976172401236
s(I1
I22
I2010
tp243
F0.37225332354242263
s(I3
I25
I2010
tp244
F0.415363621960325
s(I10
I25
I2010
tp245
F0.20571556492917914
s(I6
I8
I2010
tp246
F0.45143151759961925
s(I3
I26
I2010
tp247
F0.2593549543174025
s(I3
I11
I2010
tp248
F0.4772497078145578
s(I10
I26
I2010
tp249
F0.11196543944672481
s(I6
I28
I2010
tp250
F0.35859887753839237
s(I12
I3
I2010
tp251
F0.2431584664415845
s(I8
I18
I2010
tp252
F0.24561312745780225
s.