(lp0
S'The Charlotte Observer'
p1
aS"Investor's Business Daily"
p2
aS'Bloomberg L.P.'
p3
aS'The Wall Street Journal'
p4
aS'The Wall Street Journal'
p5
aS'Yellowpages.com'
p6
aS'Forbes'
p7
aS'Reuters'
p8
aS'Law360'
p9
a.