(lp0
S'Houston Community Newspapers Online'
p1
aS'Lodi NewsSentinel'
p2
aS'The Press Democrat'
p3
aS'The Fresno Bee'
p4
aS'CNBC'
p5
aS"Nation's Restaurant News"
p6
aS"Nation's Restaurant News"
p7
aS"Nation's Restaurant News"
p8
a.