(lp0
S'South Florida Business Journal'
p1
aS"Investor's Business Daily"
p2
aS'Fox Business Network'
p3
aS'Orange County Business Journal'
p4
aS'KOATTV'
p5
aS'Billings Gazette'
p6
aS'Seeking Alpha'
p7
a.