(lp0
S'KNBC'
p1
aS'The Motley Fool'
p2
aS'KCBSTV'
p3
aS'The Wall Street Journal'
p4
aS'MarketWatch'
p5
aS'Zacks Investment Research'
p6
aS"Nation's Restaurant News"
p7
aS'Orange County Register'
p8
aS'TheStreet, Inc.'
p9
a.