(lp0
S'KNBC'
p1
aS'KCBSTV'
p2
aS'The Wall Street Journal'
p3
aS'Los Angeles Times'
p4
aS'MarketWatch'
p5
aS'Zacks Investment Research'
p6
aS'KPCC'
p7
aS"Nation's Restaurant News"
p8
aS'Orange County Register'
p9
a.