(lp0
S'The San Bernardino Sun'
p1
aS'Inland Valley Daily Bulletin'
p2
aS'Zacks Investment Research'
p3
aS'South Florida Business Journal'
p4
aS'BDO USA, LLP'
p5
aS'Houston Community Newspapers Online'
p6
a.