(lp0
S'TheStreet, Inc.'
p1
aS'TheStreet, Inc.'
p2
aS'CNBC'
p3
aS"Investor's Business Daily"
p4
aS'Yahoo! Finance'
p5
aS"Nation's Restaurant News"
p6
aS"Nation's Restaurant News"
p7
aS'Houston Community Newspapers Online'
p8
a.