(lp0
S'TheStreet, Inc.'
p1
aS'Fox Business Network'
p2
aS'South Florida Business Journal'
p3
aS'Houston Community Newspapers Online'
p4
aS'SilverSeek.com'
p5
aS"Nation's Restaurant News"
p6
aS'KSRW'
p7
a.