(lp0
S'Zacks Investment Research'
p1
aS"Investor's Business Daily"
p2
aS'CNBC'
p3
aS'CNBC'
p4
aS'Yahoo! Finance'
p5
aS'Yahoo! Finance'
p6
aS'The Motley Fool'
p7
aS'The Santa Clarita Valley Signal'
p8
aS"Nation's Restaurant News"
p9
a.