(lp0
S'The Wall Street Journal'
p1
aS'TheStreet, Inc.'
p2
aS'TheStreet, Inc.'
p3
aS'CNBC'
p4
aS'The Motley Fool'
p5
aS'MarketWatch'
p6
aS'Yahoo! Finance'
p7
aS'Los Angeles Times'
p8
aS"Nation's Restaurant News"
p9
aS'Reuters'
p10
a.