(lp0
S"8 months later, BP's Gulf oil spill cleanup costs appear ..."
p1
aS'Where Things Stand: Gulf Oil Spill Claims - ProPublica'
p2
aS'Toyota, BP top list of biggest blunders in 2010 - Autoblog'
p3
aS'Recreational Fishermen Line Up for BP Oil Spill ...'
p4
aS'Corporate Announcement - About MB Petroleum Services'
p5
aS'A Justification of Habit - The Moments Count Journal'
p6
aS'Ferment Two Sugars at the Same Time - New Energy and Fuel'
p7
aS'NOLA Lawyer Prepares Challenge to Declaration of Gulf ...'
p8
aS'Ice Age Now! Damaged Gulf Stream affects Jet Stream ...'
p9
aS"Europe: Lord Stirling's News Blog EUROPE"
p10
a.