(lp0
S"BP makes a significant deep gas discovery in Egypt's West ..."
p1
aS'Chalmers Johnson on Iran, Blowback and the Perils of Empire'
p2
aS'Seafox 1 Rig to continue in UK Sector for Centrica ...'
p3
aS'John DeCock - Huffington Post'
p4
aS'public safety | Unsilent Generation'
p5
aS'Obituary: Faisal bin Shamlan (19342010) - Al-Bab'
p6
aS'Straight answers to tough questions about wood heat'
p7
aS'Audubon mobilizes Gulf volunteers, looks at energy impact ...'
p8
aS'How green is Green Mountain Energy? | Grist'
p9
aS'10 Platforms for Increasing the Peace | Fellowship of ...'
p10
a.