(lp0
S"America's Most Generous Corporate Foundations: No. 11 ..."
p1
aS'How to profit from the cold snap - Telegraph'
p2
aS'Hakluyt notorious spying for oil giants Shell and BP  Royal ...'
p3
aS'[PDF]\nAS 2, Managing Business Resources - CCEA'
p4
aS'Environmental, Compliance & Regulatory Advisor | Jobs in ...'
p5
aS'Jobs | Oil & Gas Salary Survey Results | Rigzone'
p6
aS"Baucus Announces Retirement of Leases on Montana's ..."
p7
aS'Attorneys - United Development Funding'
p8
aS'The Rights of Corporations Should Not Trump the Rights of ...'
p9
aS'Peril of petroleum-based plastics | SanDiegoUnionTribune ...'
p10
a.