(lp0
S'The BP oil spill, by the numbers - World - CBC News'
p1
aS'BP tells court it waives cap on spill liability | Reuters'
p2
aS'BP links staff bonuses to safety performance - BBC News'
p3
aS'Gulf Accountability | Declaration of Accountability'
p4
aS'From the archive, 20 October 1970: BP finds big oilfield in ...'
p5
aS'ECO NEWS: Update On The BP Oil Spills Effects on the ...'
p6
aS'One-Fifth Of Juvenile Atlantic Bluefin Tuna Killed by BP Oil ...'
p7
aS'BP Links Safety, Staff Pay in 4th Quarter - WSJ'
p8
aS'Oil India discovers huge gas reserves in Rajasthan desert ...'
p9
aS'Government Report on Fate of Oil Released After ...'
p10
a.