(lp0
S"Analysis: Post-spill, Gulf of Mexico key to BP's fortunes ..."
p1
aS'Scripps Institution of Oceanography Works With BP to ...'
p2
aS"NEW GULF CUISINE: BP's CATCH OF THE DAY - The World Vision Portal ..."
p3
aS'Port of Lake Charles makes way for 1,000 jobs - KPLC 7 ...'
p4
aS'BP | On Tap'
p5
aS'Gulf of Mexico Oil Spill Blog BP Amoco'
p6
aS'Halliburton Cut Costs and Corners with Well Cement they ...'
p7
aS'Apache Completes Acquisition of BP Assets in ... - Investors'
p8
aS'BP - Tony Hayward: profit vs safety - quotes from 2009 vs ...'
p9
aS'Staten Island Dems Michael McMahon, Janele Hyer ...'
p10
a.