(lp0
S'BP Growth Means ampm Changes | CSPnet'
p1
aS'Carl Hankey families raise $44,000 to fund IB program - The ...'
p2
aS'Photo gallery - The Anna Maria Island Sun Newspaper ...'
p3
aS'Towards A More Sophisticated Definition of Greenwash ...'
p4
aS"Scrooge: You gotta love him ... don't you? - The Denver Post"
p5
aS'BG Group launches search for new chairman - Telegraph'
p6
aS'North Sea Development Action Brisk; Plays Expand ...'
p7
aS'Compagnie Africaine de Ptes Alimentaires | LinkedIn'
p8
aS'Chinese Shale Gas Attracting International Investment ...'
p9
aS'Our Clients - BP Consultancy Co.'
p10
a.