(lp0
S'BP to streamline IT supply chain - ComputerWeekly.com'
p1
aS'Best of British: Brands we love...and lost | Express Yourself ...'
p2
aS'TED | TEDFellows Blog - Part 3'
p3
aS'Solar Power - Matthew Engel'
p4
aS'Alternative Energy - Matthew Engel'
p5
aS'France will have to swallow the Anglobalization of the ...'
p6
aS'Health benefits of red-wine chemical unclear : Nature News'
p7
aS"Follow Africa's heartbeat. | Just another WordPress.com ..."
p8
aS"The Rag Blog: Jordan Flaherty : New Orleans' Heart is in Haiti"
p9
aS'Morgan Spurlock Interview  Toxic Soup'
p10
a.