(lp0
S'BP Molds Security Strategy To Fit The Country - Oil & Gas ...'
p1
aS'TMK IPSCO Announces the Appointment of George Adams ...'
p2
aS'Exclusive Hip Hop News, Interviews, Rumors, Rap & Music ...'
p3
aS"Afren - the UK company leading the hunt for Africa's oil ..."
p4
aS'A green city arises from the desert of Abu Dhabi | The ...'
p5
aS'LILITH NEWS: Bees dying due to mites'
p6
aS'LILITH NEWS: Seal Hunt pie in your Face'
p7
aS'Jones Day | The Move to International Markets'
p8
aS'The Price of Energy - Forbes'
p9
aS'Empire States & Geostrategic Powercenters: City of London ...'
p10
a.