(lp0
S'BP Apology - British Petroleum Apolgizes CNN - Gulf Oil ...'
p1
aS'Oil industry has yet to adopt lessons of BP spill  Coastal Care'
p2
aS"Gulf seafood safety and the government's response ..."
p3
aS'BP May Have Violated U.S. Sanctions On Trade With Iran ...'
p4
aS'NY Sea Grant | NYSG: Gulf Oil Spill Discussion at SBU (Oct ...'
p5
aS'BP Systems Solutions | LinkedIn'
p6
aS"D'Souza's The Roots of Obama's Rage rooted in lies"
p7
aS'Ig Nobel Prizes 2010: Oil and Water Mixing, Preventing ...'
p8
aS'Dead Coal Miners: The Advertisement | Coal Mountain'
p9
aS'LILITH NEWS: Condom use highest amongst teens'
p10
a.