(lp0
S'BP initial image repair strategies after the Deepwater ...'
p1
aS'BP Oil Spill Blowout Preventer Investigation May Be ...'
p2
aS'Where Things Stand: Gulf Oil Spill Claims - ProPublica'
p3
aS'The Cutting Edge News - Energy'
p4
aS'Toyota, BP top list of biggest blunders in 2010 - Autoblog'
p5
aS'Iran Energy Project Milestones | Foundation for Defense of ...'
p6
aS'Passport to Texas  2010  December'
p7
aS'Connection between Freezing Europe and the BP spill | Physics ...'
p8
aS'Shell scam against its employees in the Philippines ...'
p9
aS'NOLA Lawyer Prepares Challenge to Declaration of Gulf ...'
p10
a.