(lp0
S'Asia Times Online :: South Asia news, business and ...'
p1
aS"The BP Oil Spill Conspiracy You Didn't Hear About |"
p2
aS'BP Gulf oil spill is sabotage : Conspiracy Theories  Rational ...'
p3
aS'Oil Exploration in West Africa - Investing News Network'
p4
aS'New Oil--and a Huge Challenge--for Ghana'
p5
aS'Environmental News, Articles & Information | Global ...'
p6
aS'USA Football, BP, Giants make equipment donation to ...'
p7
aS'BP | Brands of the World | Download vector logos and ...'
p8
aS'30 Facts  The Rothschild Bankers Planned The Gulf Disaster'
p9
aS'WikiLeaks       ... - Lenta.ru'
p10
a.