(lp0
S'3 environmental groups sue BP over gulf oil spill - latimes'
p1
aS"BP to miss Big Oil's bumper third quarter due to oil spill ..."
p2
aS"MIT - CEE's Eric Adams wins the Ig Nobel Prize in chemistry ..."
p3
aS"Don't Blink In Disbelief As BP Offers Electric Car Refilling"
p4
aS"Could BP's Safety Incentives Backfire? - IndustryWeek"
p5
aS'Oil spill aftermath: Are consumers still loyal to Gulf shrimp ...'
p6
aS'BP Claims in Bankruptcy - Credit Slips'
p7
aS'Six Months Later, What Have We Learned | Ocean Futures ...'
p8
aS'Mega-Cartels That Kill the Free Market and Our Sovereignty ...'
p9
aS'True Green Energy Group Goes Public on the FSE Trading ...'
p10
a.