(lp0
S"BP sells Argentina's Bridas to Bulgheroni family and ..."
p1
aS'TNK-BP to unveil oil trading operation - FT.com'
p2
aS'Bridas Corporation - Wikipedia, the free encyclopedia'
p3
aS"Florida Beaches (Without BP): The only oil you'll see here is ..."
p4
aS'Residents kept united front for gas leak cleanup - The ...'
p5
aS'WikiLeaks is threatening national security, says Downing ...'
p6
aS"Wikileaks: cables will embarrass, but won't cause diplomatic ..."
p7
aS'2 Responses to Gulf of Mexico Oil Spill Blog BP Pan American'
p8
aS'Petroleum Monopolies of the Capitalist Countries | Article ...'
p9
aS'The ESSO Petroleum Company Fleet History - Clyde ...'
p10
a.