(lp0
S'Study Shows BP Oil Spill Could Have Been Prevented by ...'
p1
aS'Bob Fryar | Executive team | Board and ... - BP Global'
p2
aS'BP to fund compensation bill with profits from Gulf fields ...'
p3
aS'MIT - Eric Adams Wins Ig Nobel Prize for Disproving Adage ...'
p4
aS"BP's ampm Introduces Hispanic Snacks | CSP Daily News"
p5
aS"Kuwait's KUFPEC eyeing BP's Vietnam assets - World ..."
p6
aS'After the BP Oil Spill, BP company has been regarded as a ...'
p7
aS'Major oil companies in Europe pledge to end Iran investments'
p8
aS'Gulf Oil Spill Lawyer Mississippi | BP Oil Spill Attorney ...'
p9
aS'BP Slick: October 2010'
p10
a.