(lp0
S'Cutting the cost of pipe - January 24, 2010 - Petroleum News'
p1
aS'Exclusive Hip Hop News, Interviews, Rumors, Rap & Music ...'
p2
aS'LILITH NEWS: Bees dying due to mites'
p3
aS'LILITH NEWS: Seal Hunt pie in your Face'
p4
aS'Jones Day | The Move to International Markets'
p5
aS'Empire States & Geostrategic Powercenters: City of London ...'
p6
aS"Afren - the UK company leading the hunt for Africa's oil ..."
p7
aS'A green city arises from the desert of Abu Dhabi | The ...'
p8
aS'There is (offshore wind powered) light at the end of the tunnel!'
p9
aS'Business Blunders of the Year - CBS News'
p10
a.