(lp0
S'BP Growth Means ampm Changes | CSPnet'
p1
aS'City crew accidentally rips open underground diesel pipeline'
p2
aS'BP Ordered to Return Items by Court in Oil-Trader Case ...'
p3
aS'BP faces new fines over second Alaska spill | Business | The ...'
p4
aS'THE SOURCE OF THE GULF BLUE PLAGUE (BP) - The World Vision Portal ...'
p5
aS'Eugene Wienke - The News-Dispatch'
p6
aS'Carl Hankey families raise $44,000 to fund IB program - The ...'
p7
aS'Towards A More Sophisticated Definition of Greenwash ...'
p8
aS'Gulf shores alabama Orange Beach & British Petroleum oil ...'
p9
aS"Scrooge: You gotta love him ... don't you? - The Denver Post"
p10
a.