(lp0
S'[PDF]\nThe BP Oil Spill as a Cultural Anomaly? - Erb Institute ...'
p1
aS'Company profile for BP | Global | The Guardian'
p2
aS'Lessons to be learnt from the Gap logo debacle - BBC News'
p3
aS'BP Costume Hot For Halloween This Year  CBS New York'
p4
aS'MATR News: Idaho National Laboratory News'
p5
aS"Petrobras' Offshore Oil and Gas Exploration in the US"
p6
aS'BP: Deepwater Horizon - dezastrul lobby-ului petrolului'
p7
aS'China Turns to Texas for Drilling Know-How - Wall Street ...'
p8
aS'Palo Petroleum :: Our History'
p9
aS"Interview: Richie Havens 'The Moment for a Generation ..."
p10
a.