(lp0
S'ALLIANCES & PARTNERSHIPS Alliance changes ...'
p1
aS'BP to restructure trading arm amid profit erosion | Reuters'
p2
aS'BP Puts Cap On Leaking Customer Base | Marketing ...'
p3
aS'Tropical Bioenergia SA | LinkedIn'
p4
aS'TNK-BP aims to buy BP assets in Algeria ...'
p5
aS"eKos Library: I'm In Love With My Car"
p6
aS'Hiking in the Green Mountains {A photo Earthship} - Daily Kos'
p7
aS'Inbred Elites | Foundingfather1776'
p8
aS'Pakistan Petroleum Ltd (PPL) plans to issue dollar bonds ...'
p9
aS"Obama's Game Changer - Nuclear Weapon in the Hands of ..."
p10
a.