(lp0
S'i recieve a mail from bp isthis fake or real BRITISH PETROLEUM ...'
p1
aS'Struggles of Asian workers in the Middle East and oil ...'
p2
aS'Nothing Like A Good Pair Of Nitric Oxide Socks - Science ...'
p3
aS'Law Makers and Law Breakers Rip Us Off on Gas Prices ...'
p4
aS"Antarctic sea water shows 'no sign' of warming | Watts Up ..."
p5
aS'UN IPCC chief Pachauri under fire in India for conflicts of ...'
p6
aS'LiveLeak.com - British Woman Arrested In Dubai For Illegal ...'
p7
aS'Umiat: a North Slope giant primed for oil development - Oil ...'
p8
aS'Grahaeme Henderson, MD of Brunei Shell  Royal Dutch ...'
p9
aS"[PDF]\nCompass Lexecon's 2009 Client Newsletter - Amazon Web ..."
p10
a.