(lp0
S'Shell attacks BP over oil well safety and design | The Week UK'
p1
aS'Defenders in Action: Defenders Responds to Offshore Oil ...'
p2
aS"[PDF]\nBP's Brand Image: The Past, the Deepwater Horizon ..."
p3
aS'Big Oil Goes to College | Center for American Progress'
p4
aS'U. S. Ends Deepwater Drilling Ban Sets New Rules ...'
p5
aS'U.S. lifts moratorium on deep-water drilling in Gulf of Mexico ...'
p6
aS'North Sea oil companies angry at new EU rules - Telegraph'
p7
aS'Report: UC Berkeley-BP pact riddled with conflicts | eats ...'
p8
aS'Ministry Achievements'
p9
aS'Wikipedia Klan exposed  Royal Dutch Shell plc .com'
p10
a.