(lp0
S'The BP Oil Spill Deepwater Horizon Disaster - YouTube'
p1
aS'BP: Public scrutiny and recovery efforts in the aftermath of ...'
p2
aS'Stillahippies News Blog | Still A Hippie After All These Years'
p3
aS'Bye-bye BP, hello Puma | Namibian Sun'
p4
aS'[PDF]\nPeer Assist: Learning Before Doing - Nasa'
p5
aS'Jay Keasling hits jackpot with biofuel startup - SFGate'
p6
aS'Speed Camera Firm a Millionaire Factory'
p7
aS"News From Around the Web - RL Macklin's Sustainability ..."
p8
aS"Wharton's Interview Questions For Applicants Leak - Poets ..."
p9
aS"Visiting Gulf Shores Alabama - Dave's Travel Corner"
p10
a.