(lp0
S'The BP Oil Spill Deepwater Horizon Disaster - YouTube'
p1
aS'BP: Public scrutiny and recovery efforts in the aftermath of ...'
p2
aS"BP makes a significant deep gas discovery in Egypt's West ..."
p3
aS'Bye-bye BP, hello Puma | Namibian Sun'
p4
aS'Chalmers Johnson on Iran, Blowback and the Perils of Empire'
p5
aS'[PDF]\nPeer Assist: Learning Before Doing - Nasa'
p6
aS'public safety | Unsilent Generation'
p7
aS'Seafox 1 Rig to continue in UK Sector for Centrica ...'
p8
aS'Speed Camera Firm a Millionaire Factory'
p9
aS'Obituary: Faisal bin Shamlan (19342010) - Al-Bab'
p10
a.