(lp0
S"The World's Biggest Oil Reserves - Forbes"
p1
aS'KBR to offer BP resid hydrocracking process - Oil & Gas ...'
p2
aS'The Top 10 Oil Fields Of The Future-News-BOMCO mud ...'
p3
aS'[PDF]\nAN INVESTIGATION INTO USING NEWS ANALYTICS DATA ...'
p4
aS'[PDF]\nApril 2010 BP Oil Spill Response Social Media Event ...'
p5
aS'TED | TEDFellows Blog - Part 3'
p6
aS'France will have to swallow the Anglobalization of the ...'
p7
aS"Norway's Yara earmarks US$275mn for Brazil expansion ..."
p8
aS'Oil executives check preparations for rig arrival in Falklands ...'
p9
aS'Direction Gnrale : Djenane El Malik -... - Sonatrach Trc-rtc ...'
p10
a.