(lp0
S'WikiLeaks cables: BP suffered blowout on Azerbaijan gas ...'
p1
aS'Montanan helped plug BP oil spill | Montana News ...'
p2
aS'Asia Times Online :: South Asia news, business and ...'
p3
aS"The BP Oil Spill Conspiracy You Didn't Hear About |"
p4
aS'BP Gulf oil spill is sabotage : Conspiracy Theories  Rational ...'
p5
aS'Oil Exploration in West Africa - Investing News Network'
p6
aS'BP Life Benefits (Core US Benefits) - Retiring from BP'
p7
aS'New Oil--and a Huge Challenge--for Ghana'
p8
aS'USA Football, BP, Giants make equipment donation to ...'
p9
aS'Environmental News, Articles & Information | Global ...'
p10
a.