(lp0
S'i recieve a mail from bp isthis fake or real BRITISH PETROLEUM ...'
p1
aS'Baroness of the Belize oil fields - BelfastTelegraph.co.uk'
p2
aS'Gas shortage: who got us into this mess? | The Week UK'
p3
aS'Three British workers kidnapped in Nigeria  Royal Dutch ...'
p4
aS'Nigeria gunmen kidnap 3 British workers, 1 Colombian ...'
p5
aS'Brand New: The Most Relevant Identity Work of the Decade'
p6
aS'Umiat: a North Slope giant primed for oil development - Oil ...'
p7
aS"Antarctic sea water shows 'no sign' of warming | Watts Up ..."
p8
aS'Background Note: Brunei | Scoop News'
p9
aS"[PDF]\nCompass Lexecon's 2009 Client Newsletter - Amazon Web ..."
p10
a.