(lp0
S'BP oil spill blamed on management and communication ...'
p1
aS'BP oil disaster was avoidable, commission staff says | NOLA ...'
p2
aS"Special report: How BP's oil spill costs could double | Reuters"
p3
aS'[PDF]\nCleaning Up the Muck - BrooklynWorks - Brooklyn Law School'
p4
aS'   " "'
p5
aS'Kate Sheppard: Digging Deeper - Covering the News'
p6
aS'The Kuwait Oil Company (KOC) - The International ...'
p7
aS'Oil and the economy: Why it is important to figure out ...'
p8
aS'Expats share memories of UAE - Gulf News'
p9
aS'Wellstream opens books to General Electric and Oilwell Varco'
p10
a.