(lp0
S'BP oil spill blamed on management and communication ...'
p1
aS'BP oil disaster was avoidable, commission staff says | NOLA ...'
p2
aS'BP Ignored Safety Software In Setting Up Oil Well | Techdirt'
p3
aS'Pest Analysis On British Petroleum - Management Paradise'
p4
aS'   " "'
p5
aS'Deepwater horizon - Topic - Digital Journal'
p6
aS'Expats share memories of UAE - Gulf News'
p7
aS'The Gulf of Mexico Oil Spill: The Complete Story'
p8
aS'WikiLeaks: US concerned over Falklands military action ...'
p9
aS'EU Fund Renewable Energy Infrastructure Project | For ...'
p10
a.