(lp0
S'3 environmental groups sue BP over gulf oil spill - latimes'
p1
aS"MIT - CEE's Eric Adams wins the Ig Nobel Prize in chemistry ..."
p2
aS'ECO NEWS: Update On The BP Oil Spills Effects on the ...'
p3
aS"Could BP's Safety Incentives Backfire? - IndustryWeek"
p4
aS'From the archive, 20 October 1970: BP finds big oilfield in ...'
p5
aS'BP Claims in Bankruptcy - Credit Slips'
p6
aS'Six Months Later, What Have We Learned | Ocean Futures ...'
p7
aS'One-Fifth Of Juvenile Atlantic Bluefin Tuna Killed by BP Oil ...'
p8
aS'Mega-Cartels That Kill the Free Market and Our Sovereignty ...'
p9
aS'Oil India discovers huge gas reserves in Rajasthan desert ...'
p10
a.