(lp0
S'Jobs | Oil & Gas Jobs in North America | Rigzone'
p1
aS'Oil companies targeted by hacking attack | Technology | The ...'
p2
aS'BP PRODUCTS NORTH AMERICA INC Warrenville IL ...'
p3
aS"Utah's Unstable Oil Refineries | Cover Story | Salt Lake City ..."
p4
aS'[PDF]\nDownload the full article/document - University of Dundee'
p5
aS'F. Gerald Maples, PA - F. Gerald Maples, PA'
p6
aS'Hydro-fracturing has a lucrative dirty secret | Georgia ...'
p7
aS"Shell's North Sea history of safety violations, blackmail and ..."
p8
aS'Certified Hazardous Materials Manager (CHMM) - PayScale'
p9
aS'9 ways to taste Houston (like an expert) | New York Post'
p10
a.