(lp0
S'BP to Sell African Marketing Business to Puma Energy | Africa'
p1
aS'BP | bersicht ber BP p.l.c. Common Stock- Yahoo! Finanzen'
p2
aS'Mmegi Online ::'
p3
aS'Researcher: Private Sector Has Key Role in Carbon ...'
p4
aS'50MILLION Americans starve as Wall Street executive pay ...'
p5
aS'Photo gallery - The Anna Maria Island Sun Newspaper ...'
p6
aS'North Sea Development Action Brisk; Plays Expand ...'
p7
aS"LILITH NEWS: America's New Slave Class"
p8
aS'Our Clients - BP Consultancy Co.'
p9
aS'Nigerian military rescues 19 hostages, including Canadian ...'
p10
a.