(lp0
S'bp - Connecticut Gas Prices'
p1
aS'BP Gas Stations in Sacramento, California'
p2
aS'BP to expand Hungarian service center | The Budapest ...'
p3
aS'Risk of gas supply cuts as temperatures plummet - Telegraph'
p4
aS'Reports: Shell to exit Africa nations  Royal Dutch Shell plc ...'
p5
aS'33 Conspiracy Theories That Turned Out To Be True, What ...'
p6
aS'Noah Raford  The coming boom and bust of design thinking'
p7
aS'Capitalism can wear a halo too, you know | News | London ...'
p8
aS'Naisby to Lead Caterpillar Marine in - Maritime News'
p9
aS'[PDF]\nEco-nomics: Are the Planet-Unfriendly Features of Capitalism'
p10
a.