(lp0
S'BP Oil Spill | TEDFellows Blog'
p1
aS'Former Shell Oil President John Hofmeister pompous as ever'
p2
aS'[PDF]\nPreventing Accidents in Offshore Oil and Gas Operations ...'
p3
aS'Iraq to Boost Oil Output -- Photos - WSJ'
p4
aS'Photo gallery - The Anna Maria Island Sun Newspaper ...'
p5
aS"La mare noire pourrait atteindre l'ocan Atlantique en juillet"
p6
aS'Iraq | Fred Donaldson'
p7
aS'BP Tony Hayward - Gulf of Mexico Oil Spill Blog'
p8
aS"Toxic Legacy: Boise's Burried Toxic Waste Past Means Hard ..."
p9
aS'BP: Office of the CTO - Benzinga'
p10
a.