(lp0
S'BP Tanzania employees accuse govt of betraying them in ...'
p1
aS'Oil Industry - Producers of Energy and Disasters / La ...'
p2
aS'BP agrees sale of five Southern African marketing ...'
p3
aS'BP sells African assets to Puma Energy for 296m - Telegraph'
p4
aS'News Text - Iran Daily'
p5
aS'Oil And Gas Leaks Continue Unabated At Macondo: Photos ...'
p6
aS'Current Comment | America Magazine'
p7
aS'A brief history of offshore oil drilling - Encyclopedia of Earth'
p8
aS'BP Archives - URANTIAN SOJOURN'
p9
aS'Non-U.S. firms making their marks in sizzling Gulf of Mexico ...'
p10
a.