(lp0
S"The World's Biggest Oil Reserves - Forbes"
p1
aS'KBR to offer BP resid hydrocracking process - Oil & Gas ...'
p2
aS'[PDF]\nAN INVESTIGATION INTO USING NEWS ANALYTICS DATA ...'
p3
aS'The Top 10 Oil Fields Of The Future-News-BOMCO mud ...'
p4
aS'[PDF]\nApril 2010 BP Oil Spill Response Social Media Event ...'
p5
aS"Ghana's Oil Bonanza Battle | The American Spectator"
p6
aS'The John David Group plc - Encyclopedia.com'
p7
aS'Advanced BioFuels USA  Tire-to-Oil Recycling Facility Set ...'
p8
aS'GCCC News - UK-Texas CCS Seminar'
p9
aS'Leviathan stirs again | The Economist'
p10
a.