(lp0
S'COMMENT: Communicating with the public: how BP told the ...'
p1
aS"BP's Challenge: Quality Control Post-Disaster | The Big Q Blog"
p2
aS'A Special Report : The Gulf of Mexico is Dying | Peak Oil ...'
p3
aS'Operating Experience - Deepwater Horizon Accident'
p4
aS'Category: Daniel Edwards - #CACA - Cory Allen ...'
p5
aS'Daniel Edwards - Lady Gaga - #CACA - Cory Allen ...'
p6
aS'Reinventing brand Airtel | Business Standard News'
p7
aS'How America will collapse (by 2025) - Salon.com'
p8
aS'Juan E. Trebino - Strategy - PwC'
p9
aS'Re: ExxonMobil Sacks 84 Nigerians: Is President Jonathan ...'
p10
a.