(lp0
S'BP Tanzania employees accuse govt of betraying them in ...'
p1
aS'Oil Industry - Producers of Energy and Disasters / La ...'
p2
aS'BP to Sell African Marketing Business to Puma Energy | Africa'
p3
aS'BP sells African assets to Puma Energy for 296m - Telegraph'
p4
aS'News Text - Iran Daily'
p5
aS'BP | bersicht ber BP p.l.c. Common Stock- Yahoo! Finanzen'
p6
aS'[PDF]\nCover_contents_SD371.qxd:Layout 1 - BP Global'
p7
aS'Current Comment | America Magazine'
p8
aS'Mmegi Online ::'
p9
aS'BP continues to shed assets: African operations go ...'
p10
a.