(lp0
S'BP signs $400m hosting deal with HP - ComputerWeekly.com'
p1
aS'HP grabs five-year BP deal - MicroScope'
p2
aS'HP News - BP Signs $400 Million Global Hosting Services ...'
p3
aS'LDWF and State Officials Finalize $2.56 Million Agreement ...'
p4
aS'Richard Hardman - Wikipedia, the free encyclopedia'
p5
aS'Cornstarch might have ended the Gulf spill agony sooner ...'
p6
aS'BP Shares Crash - America Wants To Sue'
p7
aS'News & Discoveries - NSF'
p8
aS"AG's in the News - 2010 Archives | National State Attorneys ..."
p9
aS'Post-drilling analysis identifies other play types in Falkland ...'
p10
a.