(lp0
S'BP Molds Security Strategy To Fit The Country - Oil & Gas ...'
p1
aS'TMK IPSCO Announces the Appointment of George Adams ...'
p2
aS'Oil companies targeted by hacking attack | Technology | The ...'
p3
aS"Utah's Unstable Oil Refineries | Cover Story | Salt Lake City ..."
p4
aS'Hydro-fracturing has a lucrative dirty secret | Georgia ...'
p5
aS'The Price of Energy - Forbes'
p6
aS'Certified Hazardous Materials Manager (CHMM) - PayScale'
p7
aS'[PDF]\nStarting your career in Nigeria Country Guide for ...'
p8
aS"Gig Alerts: Jon Wolfe at House of Blues' Voodoo Lounge ..."
p9
aS'Premier Automotive Group Headquarters | TK1SC'
p10
a.