(lp0
S'BBC News - UK Oil and gas reserves higher than thought'
p1
aS'BBC News - Drilling for oil begins off the Falkland Islands'
p2
aS'Falkland Islands oil drilling begins | Business | The Guardian'
p3
aS'Latin American leaders back Argentina over Falklands oil ...'
p4
aS'Mega Deals: $1 billion outsourcing contracts may come to ...'
p5
aS'Beyond Business - FT.com'
p6
aS'Download PDF - University of Illinois Law Review'
p7
aS'New OSHA Initiative Targets Underreporting of Workplace ...'
p8
aS"uk north sea's forties blend crude assayed - Oil & Gas Journal"
p9
aS'Jet pump feeds corrosion inhibitor in Russian waterflood ...'
p10
a.