(lp0
S'BP profit up as oil prices rise, misses forecasts | Reuters'
p1
aS'BP records refining losses but profits rise | Business | The ...'
p2
aS'[PDF]\nEOG Newspaper February 2010 Issue - Egypt Oil & Gas'
p3
aS'PETROCHEMICALS- WORLDWIDE CONSTRUCTION - Oil ...'
p4
aS"Foreign State-Owned Energy Companies Dominating Iraq's ..."
p5
aS'nowindmills.com - Home'
p6
aS'Two Petroleum Studies programmes at UWI get accreditation'
p7
aS'C.E. European Informant: Houston Oil Firm Frontera Drilling ...'
p8
aS'How the Thirties saw Britain fall in love with the car... and ...'
p9
aS'Waste-to-Energy: a wasted opportunity? - Power ...'
p10
a.