(lp0
S'BP, ConocoPhillips and Caterpillar Pull Out of Climate ...'
p1
aS'Russia to seize Kovytka gas field from BP venture - Telegraph'
p2
aS'BP TO DEVELOP NORTH SEA GAS FIELD - Oil & Gas Journal'
p3
aS'Argentina steps up row over Falklands oil exploration | UK ...'
p4
aS'CG4TV News and Press Releases - Cg4tv.com'
p5
aS'Oil and troubled waters | The Economist'
p6
aS'Oil War in the Falkland Islands - Oil-price.net'
p7
aS'Pilot, master guide, writer Bud Helmericks dies | Alaska ...'
p8
aS'Vision of True Vineyard Energy Independence | The ...'
p9
aS'Deadly Business in Moscow - Bloomberg'
p10
a.