(lp0
S'SEARCH FOR JOBS IN Iraq - Rigzone'
p1
aS'Falkland Islands oil row: Hillary Clinton steps into Argentina ...'
p2
aS"With friends like these ... Obama called 'feeble' by Brit for ..."
p3
aS'Science | The Diatribe'
p4
aS'BBC News - Argentina asks UN to bring UK into talks on ...'
p5
aS'Catastrophe cologique : news, photos, vidos'
p6
aS"Falklands' oil companies could be takeover targets, says ..."
p7
aS"Is he serious? Libya's Qaddafi declares jihad on ... - RT.com"
p8
aS'Juan Gonzalez Receives 2010 Justice in Action Award'
p9
aS'Schindler Holding AG (SCHN.S) People | Reuters.com'
p10
a.