(lp0
S'NEWS British Gas steps up campaign to expand ...'
p1
aS'Managing a global treasury and its challenges - BP Global'
p2
aS'BP and Manchester partner up | The University of Manchester'
p3
aS"Fatal Attraction in the Boardroom: BP's Former CEO Falls for ..."
p4
aS'Magellan Appoints New Chief Financial Officer and Treasurer'
p5
aS'The next crisis: prepare for peak oil - WSJ'
p6
aS'British Columbia Bans Mining, Drilling in Flathead River Valley'
p7
aS"'Broker, Trader, Lawyer, Spy' shines a light on corporate ..."
p8
aS'Why The New Congressional Threat To Iran Is A Huge Gift ...'
p9
aS"Next America's trade deficit: Oil and the current account"
p10
a.