(lp0
S'BP Corporate Strategy Brief by Katerina Fernandes (University'
p1
aS'Managing a global treasury and its challenges - BP Global'
p2
aS'The story of oil | Tampa Bay Times'
p3
aS'British oil dispute with Argentina escalates - Telegraph'
p4
aS'BP Life Benefits (Core US Benefits) - Employee Matching ...'
p5
aS"Fatal Attraction in the Boardroom: BP's Former CEO Falls for ..."
p6
aS'Big Risk, Bigger Rewards: Life expectancy climbs as ...'
p7
aS"Alaska's Cook Inlet basin - for Petroleum News"
p8
aS'New data, old story: US, Canada continue to dominate ...'
p9
aS'BECHTEL: KUWAITI RESTORATION COST OVERSTATED ...'
p10
a.