(lp0
S'NEWS British Gas steps up campaign to expand ...'
p1
aS'BP and Manchester partner up | The University of Manchester'
p2
aS'Magellan Appoints New Chief Financial Officer and Treasurer'
p3
aS'British Columbia Bans Mining, Drilling in Flathead River Valley'
p4
aS"Next America's trade deficit: Oil and the current account"
p5
aS'Carshalton crash victim told girlfriend he loved her minutes ...'
p6
aS'Cloud computing is a reality today: Dana S Deasy ...'
p7
aS'William E. Begley Jr.: Executive Profile & Biography ...'
p8
aS"Britain 'faces fuel shortages and dearer food by 2015' - The ..."
p9
aS'The Challenge of Algal Fuel: Economic Processing of the ...'
p10
a.