(lp0
S'BP profit up as oil prices rise, misses forecasts | Reuters'
p1
aS'BP records refining losses but profits rise | Business | The ...'
p2
aS'Green Health and Wellness | GreenandSave.com | Green ...'
p3
aS'Oil & Gas News (OGN)'
p4
aS"Foreign State-Owned Energy Companies Dominating Iraq's ..."
p5
aS'[PDF]\nSUBSEA UK NEWS'
p6
aS'nowindmills.com - Home'
p7
aS'Falklands: Argentina protests Falklands oil exploration plans'
p8
aS"Kufuor's Boys Demanded 5% Kickback On Oil Deals ..."
p9
aS'Re Summary of tonight - GULF KEYSTONE PETROLEUM Share Discussion ...'
p10
a.