(lp0
S"BP's Sun King Lord Browne reveals his darker side ..."
p1
aS'Are Vaseline and other petroleum products environmentally ...'
p2
aS"Cleveland's former BP America Building (200 Public Square ..."
p3
aS"galicia's atlantic coast basin - Oil & Gas Journal"
p4
aS'Cloud computing is a reality today: Dana S Deasy ...'
p5
aS'The Challenge of Algal Fuel: Economic Processing of the ...'
p6
aS'Companies Developing Modified Microorganisms for Ethanol'
p7
aS'The Oil Drum | Drumbeat: February 8, 2010'
p8
aS'Arash Izadi | Dr. Bijan Izadi'
p9
aS'Yahudi Kuasai Ekonomi Indonesia? | Syiar Islam'
p10
a.