(lp0
S'BP demonstrates its field of the future program at SPE ...'
p1
aS'Texas City Explosion Library BP Texas City Explosion'
p2
aS"False Profits: Reviving the Corporation's Public Purpose ..."
p3
aS'Latest News  Corpapp Blog'
p4
aS'Sudan and Saudi Arabia Go for Red Sea OilCaperi | Caperi'
p5
aS'Fraser Wilkins: Mideast Oil of "Tremendous" Importance to US'
p6
aS'CNPC, Shell join forces on Sichuan natural gas project'
p7
aS'Research Project for the 2010 Alaska Region National ...'
p8
aS'Can Big Oil buy a watered-down climate exhibit at the ...'
p9
aS'Kissinger, Palin, Mengele:How Deep Does The Rabbit Hole ...'
p10
a.