(lp0
S'BP to Explore Oil in Brazil | The Rio Times | Brazil News'
p1
aS'Debunking the Myth of Peak Oil - Why the Age of Cheap Oil ...'
p2
aS'Debunking the Myth of Peak Oil - Why the Age of Cheap Oil ...'
p3
aS'Falkland Islands oil row: Navy attack submarine HMS ...'
p4
aS'Royal Navy sends Swiftsure-class attack submarine to ...'
p5
aS'The Biggest Dump in the World - Telegraph'
p6
aS"Jaguar's Callum Ends Years of Dull Sedans With Cool ..."
p7
aS'[PDF]\nEconomic Challenges in Post-Conflict Iraq - Center for ...'
p8
aS'History | Arctic Slope Community Foundation'
p9
aS'Pipeline101 - research'
p10
a.