(lp0
S'Falkland Islands oil fever ebbs as Desire Petroleum ...'
p1
aS'Petrofac Wins Qatar Petroleum Contract Worth More Than ...'
p2
aS'Falkland Islands drilling disappoints for Desire | Business ...'
p3
aS'World energy briefing hears of peak oil by 2020'
p4
aS'Weatherford, Schlumberger win Iraq drilling bid ...'
p5
aS'Tea Party Republicans | rescue truth.'
p6
aS'Health Care | rescue truth.'
p7
aS'Oilholics Synonymous Report: March 2010'
p8
aS'Idea: Cities and regions competing on fitness and sex ...'
p9
aS'UPL | Stock Price Quote for Ultra Petroleum - Barchart.com'
p10
a.