(lp0
S"Global CIO: BP's Extraordinary Transformation Led By CIO ..."
p1
aS"BP's ampm Launches Personal Pizza | CSPnet"
p2
aS'[PDF]\nThe Wrong Kind of Green - Center for Biological Diversity'
p3
aS'The Wrong Kind of Green | The Nation'
p4
aS'The Nature Conservancy and Conservation International ...'
p5
aS'news in brief - TETRA + Critical Communications Association'
p6
aS'Inside story: Plumbing the depths - The Economist'
p7
aS'Graeber, who led Johnson Space Center architects, dies at 81'
p8
aS'News briefing: 4 March 2010 : Nature News'
p9
aS'PHILIPPINES RESTRUCTURING, PROMOTING ...'
p10
a.