(lp0
S'BP - Lewis Joint Venture in Eagle Ford Dry Gas | Eagle Ford ...'
p1
aS'BP pulls out of Zambia | Zambian Watchdog'
p2
aS'Article: Beauty and the Beast | OpEdNews'
p3
aS"Oil deals vital to Iraq PM's campaign - World news - Mideast ..."
p4
aS'Government takes decline as nations diversify terms to ...'
p5
aS'Clinton: US will help resolve Falklands oil row | UK news ...'
p6
aS'THE BLOOD OF THE EARTH: an oil and gas bonanza in ...'
p7
aS'ICF International Names Ronald P. Vargo Executive Vice ...'
p8
aS'University of East Anglia CRU unit (major researcher for the ...'
p9
aS'BP strategic plan to increase its profitability // Companies ...'
p10
a.