(lp0
S'BP Fined Over Ohio Refinery - WSJ'
p1
aS'Prison reform - Prison News Blog'
p2
aS'Prison News Blog - Page 2 of 24 - Prison News and ...'
p3
aS'Trinidad 2010 - Luke Marshall - Earth and Environmental ...'
p4
aS'The Wrong Kind of Green - Permaculture Research Institute'
p5
aS'The Real Climategate: Conservation Groups Align with ...'
p6
aS'Candax Receives Shareholder Approval in Respect of ...'
p7
aS'OMS - One Management System for BP Azerbaijan - YouTube'
p8
aS'Kuwaiti Scientists Say Peak Oil Will Arrive in 2014 - Gas 2'
p9
aS'BUSINESS BRIEFS - Offshore'
p10
a.