(lp0
S'Petrobras provides the opportunity, but partners help with ...'
p1
aS'Falkland Islands oil fever ebbs as Desire Petroleum ...'
p2
aS'World energy briefing hears of peak oil by 2020'
p3
aS'Petrofac Wins Qatar Petroleum Contract Worth More Than ...'
p4
aS'Falkland Islands drilling disappoints for Desire | Business ...'
p5
aS'Oilholics Synonymous Report: March 2010'
p6
aS'operators renewing exploration in offshore basins of france'
p7
aS'UPL | Stock Price Quote for Ultra Petroleum - Barchart.com'
p8
aS'IRAQs History Baghdad - Oil Empire Ira Q - N - YouTube'
p9
aS'HR Job | Careers in Human Resources | Recently Popular ...'
p10
a.