(lp0
S'Overall recommendations for BP Group - HSE'
p1
aS"Oil reserves 'exaggerated by one third' - Telegraph"
p2
aS'March  2010  2010 March | Geoengineering Watch'
p3
aS'Oxford report: World oil reserves at tipping point'
p4
aS'Non-OPEC Oil Production Hits the Wall - Resilience.org'
p5
aS'[PDF]\nView Report (PDF, 25 pages) - US Government ...'
p6
aS'Meat, dairy diet not tied to global warming - Washington Times'
p7
aS'BP: Scholarships & Opportunity Awards -'
p8
aS'Who Uses SPI Products - Specialty Products, Inc.'
p9
aS"Vital oil: photographer Ed Kashi captures Nigeria's toxic ..."
p10
a.