(lp0
S'BP stock quote - BP p.l.c. Common Stock price - NASDAQ.com'
p1
aS'ExxonMobil Takes Third Place in Big Oil Sustainability ...'
p2
aS'PhPC | LinkedIn'
p3
aS'  BP     | Forbes.ru'
p4
aS"Global CIO: BP's Extraordinary Transformation Led By CIO ..."
p5
aS"BP's ampm Launches Personal Pizza | CSPnet"
p6
aS'st. fergus terminal gets turboexpanders for critical service'
p7
aS'[PDF]\nBOL08439_00 Security cover:20-F - Share price - BP Global'
p8
aS'The Wrong Kind of Green | The Nation'
p9
aS'The Nature Conservancy and Conservation International ...'
p10
a.