(lp0
S'BP - Lewis Joint Venture in Eagle Ford Dry Gas | Eagle Ford ...'
p1
aS'VIETNAM Operators increase exploration, development off ...'
p2
aS'Government takes decline as nations diversify terms to ...'
p3
aS'Distillation capacities hold steady, more mergers planned ...'
p4
aS"Case Study: BP's Transformation Under CIO Dana Deasy ..."
p5
aS'THE BLOOD OF THE EARTH: an oil and gas bonanza in ...'
p6
aS'University of East Anglia CRU unit (major researcher for the ...'
p7
aS'ICF International Names Ronald P. Vargo Executive Vice ...'
p8
aS'Natural gas lobby challenging coal | TheHill'
p9
aS'Jobs | Oil & Gas Jobs in Kuwait | Rigzone'
p10
a.