(lp0
S'BP Looks to Future - Convenience Store Decisions'
p1
aS'BP Fined Over Ohio Refinery - WSJ'
p2
aS"2010 - 03/08/2010 - US Labor Department's OSHA ..."
p3
aS'The Wrong Kind of Green - Permaculture Research Institute'
p4
aS'The Real Climategate: Conservation Groups Align with ...'
p5
aS'Svanberg claims millions in holiday pay out - The Local'
p6
aS'[PDF]\nHerencia Research_PSQ_March 2010 - Herencia Resources'
p7
aS'Roy Alexander Franklin OBE, BSc, PMD: Executive Profile ...'
p8
aS'Drilling/Production New rigs scheduled for N. Sea ...'
p9
aS'Sam Fleming opinion: Shell dances with the dragon | This is ...'
p10
a.