(lp0
S'The Unsuitablog  Blog Archive  Team Earth: Another ...'
p1
aS'Latest News  Corpapp Blog'
p2
aS'Shell Wreak Havoc in Nigeria And Head to Ghana - Platform'
p3
aS'Another Aussie indie enters inlet; Buccaneer acquires ...'
p4
aS'Sudan and Saudi Arabia Go for Red Sea OilCaperi | Caperi'
p5
aS"False Profits: Reviving the Corporation's Public Purpose ..."
p6
aS"Visiting Norway's fields of black gold - CNN.com"
p7
aS'Short-termism at Royal Dutch Shell - Royal Dutch Shell plc ...'
p8
aS'40,000 Hookers at the World Cup: News Trafficking in Horse ...'
p9
aS'LHPT | Stock Price Quote for Lighthouse Petroleum'
p10
a.