(lp0
S'BP initiates response to Gulf of Mexico oil spill | Press ...'
p1
aS"BP's reputation at risk after oil rig explosion - Telegraph"
p2
aS'Deepwater Horizon clean-up workers fight to prevent disaster'
p3
aS'Deepwater Horizon oil rig explosion: 11 workers missing in ...'
p4
aS'Stupid Business Decisions: Drake Neglects To Patent Oil Drill'
p5
aS'As oil rig sinks, hope of finding 11 fades - Houston Chronicle'
p6
aS'[PDF]\nWhat Can We Learn from the 2010 BP Oil Spill? - Scholarly ...'
p7
aS'News briefs:April 23, 2010 - Wikinews, the free news source'
p8
aS'Louisiana Oil Rig Explosion Shows Human Cost of Offshore ...'
p9
aS'The Oil Drum | Drumbeat: April 23, 2010'
p10
a.