(lp0
S'Oil prices and not pressure groups can force BP to change ...'
p1
aS'What Happened on the BP Oil Rig? | Shell to Sea'
p2
aS'BP faces opposition to Canadian oil sands project - The Hindu'
p3
aS'New World Innovations - News'
p4
aS"BP Defeats Oil Sands Critics, But Controversy Won't Die - U.S."
p5
aS'Tony Hayward - Business Leader, Geologist, Scientist ...'
p6
aS"Gas and Petroleum drilling in Israel's Deep Waters: Lessons ..."
p7
aS'Case Study: Icaros Assists In BP Oil Spill Recovery'
p8
aS'[PDF]\nBeyond "Resource Nationalism:" Implications of State ...'
p9
aS'[PDF]\nStrategic implications of the BP Deepwater Horizon accident ...'
p10
a.