(lp0
S'The Dulles Brothers: how to wreak havoc in Guatemala and ...'
p1
aS'160-Square-Mile Oil Spill Fouls Mississippi Delta Wildlife ...'
p2
aS'PHILLIPS SETS SIGHTS ON NORTH SEA SATELLITES - Oil ...'
p3
aS"petrobras role in brazil's economy disputed - Oil & Gas Journal"
p4
aS'BBC News - Nigeria sacks head of state-run NNPC oil ...'
p5
aS'Venezuela and Uruguay Trade Oil for Food, Promote Latin ...'
p6
aS'Nicolaas D. Kanter: Executive Profile & Biography ...'
p7
aS'From Oil Sector to Wind Power in Norway - Renewable ...'
p8
aS'The Search for More Oil  VLO, TLW, APC, OXY, EOG ...'
p9
aS'Who is LTC Terry Lakin - American Patriot Foundation'
p10
a.