(lp0
S'Gulf oil rig explosion cleanup news conference planned ...'
p1
aS'Oil Leaking Underwater From Well in Rig Blast - ChimpsterNation'
p2
aS'Stand Up For Our Nation: 4/25/10 - 5/2/10'
p3
aS'Derrame de British Petroleum podra ser gran catstrofe ...'
p4
aS"Dopo l'esplosione della piattaforma Bp  disastro ..."
p5
aS"Sunken Oil Rig's Growing Spill - Quarter to Three"
p6
aS'[PDF]\nRobert C. Armstrong of MIT'
p7
aS'Heysham Shell Oil Refinery  Witness Appeal  Royal ...'
p8
aS'How Corporate Events Affect Stock- And Bondholders ...'
p9
aS'Massive and Ancient Asphalt Volcanoes Found ... - Fox News'
p10
a.