(lp0
S"BP Kicks Off Bid to Revive Iraq's Oil Industry - WSJ"
p1
aS"News Analysis - Risk Is Clear in Drilling - Payoff Isn't ..."
p2
aS'Warning over anti-British protests in Argentina - Telegraph'
p3
aS'Saudi Arabia  Oil and Gas Publication'
p4
aS'offshoreupdates  Offshore News Updates'
p5
aS'Desire Petroleum plc - Drilling Update  MercoPress'
p6
aS'Crude Oil Daily: April 2010'
p7
aS'Taking on Tarmageddon -- New Internationalist'
p8
aS'Climate Change: The Next Generation: April 2010'
p9
aS'News briefing: 1 April 2010 : Nature News'
p10
a.