(lp0
S'BP chief stresses energy diversity, competition - Oil & Gas ...'
p1
aS'Coast Guard, contractors work to contain oil spill in Delta ...'
p2
aS'BP: Beyond Petroleum? | Erb Institute  University of Michigan'
p3
aS'Peak asphalt: the return of gravel roads - Resilience.org'
p4
aS'Peace Magazine v26n2p16: Afghanistan, the Pipeline, and ...'
p5
aS'Todd Monette departure: William T. Purves Swings his ...'
p6
aS'Officials Wake Up to Peak Oil | Xenophilia (True Strange Stuff)'
p7
aS'Carbon-capture: A pipeline pioneer of a different sort - The ...'
p8
aS'The US military has confirmed the authenticity of newly ...'
p9
aS'TPLM | Stock Price Quote for Triangle Petroleum Corp'
p10
a.