(lp0
S'Director S&OR, Risk Champion | Jobs in Iraq by British ...'
p1
aS'Oil & Gas industry engineer - Engineering at Gulf Oil & Gas'
p2
aS'Algae Could Grow Into A Biofuels Leader - CNBC.com'
p3
aS'Natural Gas Boom Gets Put On Hold - Resilience.org'
p4
aS'Hydrogen tries to catch up in green car race - NBC News'
p5
aS'Gas OPEC Sends Prices Lower for Worst Commodity ...'
p6
aS'Trinidad Express Newspapers: | Where cocoa and parang ...'
p7
aS'Province announces Site C Clean Energy Project - BC Hydro'
p8
aS'Every Picture Tells a Story and Why That Matters ...'
p9
aS'PG Banker & Rory Owen Delaney  Toxic Soup'
p10
a.