(lp0
S'British Petroleum Profit Doubles to $6.1B - CBS News'
p1
aS"Gulf Oil Spill: BP CEO Hayward Just Can't Help Blaming ..."
p2
aS'British petroleum - Topic - Digital Journal'
p3
aS'Reports Show BP Opposed New Safety Rules - WSJ'
p4
aS'BP profits soar, investors eye oil spill | Reuters'
p5
aS'Whistleblower accuses BP over rig documents | Business ...'
p6
aS'Gulf oil spill  News Stories About Gulf oil spill - Page 1 ...'
p7
aS'How BP Manages Its Enterprise Architecture | CIO'
p8
aS'See how the oil spill grows in the Gulf of Mexico - USA Today'
p9
aS"BP's Oil Slick: LACMA Woes"
p10
a.