(lp0
S'BP-STATOIL PARTNERSHIP TAKES SHAPE - Oil & Gas ...'
p1
aS"BP's Knowledge Management - Offshore Technology"
p2
aS'Did Big Oil Win The War In Iraq? | Iraq Business News'
p3
aS'GRENADA-ENERGY-Ex-minister blasts government over oil ...'
p4
aS'The Social Poets: 04/01/2010 - 05/01/2010'
p5
aS"You've heard of peak oil. How about peak gold? - The Globe ..."
p6
aS'Royal Dutch Shell false reporting, fictitious sales, fictitious ...'
p7
aS'Sinopec Group Pays $4.65 Billion for Syncrude Stake ...'
p8
aS"Peter Nygard's empire reeling from CBC expose - Lilith News"
p9
aS'InterOil (IOC): Calling All Natural Gas Experts -- Is This A ...'
p10
a.