(lp0
S'British Petroleum Settlement - Jurist'
p1
aS'BP Case Study | Corporate Social Responsibility'
p2
aS'BP CEO Denies Responsibility for Deepwater Horizon Oil Spill'
p3
aS'BP Oil Spill | Stuart H. Smith'
p4
aS'BP Deepwater Horizon Gulf Oil Spill: Overview - Greenpeace'
p5
aS'Search for survivors of oil rig explosion aided by calm seas ...'
p6
aS'[PDF]\nA Stakeholder Analysis of the BP Oil Spill - University of ...'
p7
aS'Search continues for missing oil rig workers - NBC News'
p8
aS'[PDF]\nCase Study: The Gulf Coast and the BP Oil Spill About the ...'
p9
aS'Oyster Mortality Due to Freshwater Diversions in the ...'
p10
a.