(lp0
S'BP initiates response to Gulf of Mexico oil spill | Press ...'
p1
aS'Search for survivors of oil rig explosion aided by calm seas ...'
p2
aS'Search continues for missing oil rig workers - NBC News'
p3
aS'8 infamous business disasters - NBC News'
p4
aS'Deepwater Horizon oil rig explosion: 11 workers missing in ...'
p5
aS'As oil rig sinks, hope of finding 11 fades - Houston Chronicle'
p6
aS'[PDF]\nWhat Can We Learn from the 2010 BP Oil Spill? - Scholarly ...'
p7
aS'Gulf Oil Rig Explosion: "Deep Water" - BP - Haliburton - News ...'
p8
aS'Louisiana Oil Rig Explosion Shows Human Cost of Offshore ...'
p9
aS'30+ Miles of Smoke: Satellite Photos Show Smoke Plume ...'
p10
a.