(lp0
S'What Happened on the BP Oil Rig? | Shell to Sea'
p1
aS'New World Innovations - News'
p2
aS'Tony Hayward - Business Leader, Geologist, Scientist ...'
p3
aS'BP faces opposition to Canadian oil sands project - The Hindu'
p4
aS"BP Defeats Oil Sands Critics, But Controversy Won't Die - U.S."
p5
aS"Gas and Petroleum drilling in Israel's Deep Waters: Lessons ..."
p6
aS'Case Study: Icaros Assists In BP Oil Spill Recovery'
p7
aS'[PDF]\nBeyond "Resource Nationalism:" Implications of State ...'
p8
aS'[PDF]\nStrategic implications of the BP Deepwater Horizon accident ...'
p9
aS'[PDF]\nChronological Effects of the Deepwater Horizon Gulf ... - OERS'
p10
a.