(lp0
S'The Dulles Brothers: how to wreak havoc in Guatemala and ...'
p1
aS'Coast Guard, contractors work to contain oil spill in Delta ...'
p2
aS'PHILLIPS SETS SIGHTS ON NORTH SEA SATELLITES - Oil ...'
p3
aS'BBC News - Nigeria sacks head of state-run NNPC oil ...'
p4
aS'Peace Magazine v26n2p16: Afghanistan, the Pipeline, and ...'
p5
aS'Todd Monette departure: William T. Purves Swings his ...'
p6
aS'Carbon-capture: A pipeline pioneer of a different sort - The ...'
p7
aS'TPLM | Stock Price Quote for Triangle Petroleum Corp'
p8
aS'LILITH NEWS: Parliament Hill getting Submachine Guns'
p9
aS'The Search for More Oil  VLO, TLW, APC, OXY, EOG ...'
p10
a.