(lp0
S'Oil spill from BP explosion spreads in Gulf of Mexico - World ...'
p1
aS'The Gulf Of Mexico Oil Spill: A Timeline | Deep Sea News'
p2
aS'Reports Show BP Opposed New Safety Rules - WSJ'
p3
aS'British petroleum - Topic - Digital Journal'
p4
aS"Gulf Oil Spill: BP CEO Hayward Just Can't Help Blaming ..."
p5
aS"BP Exec: We'll Accept Military Help to Stem Leak - CBS News"
p6
aS'Whistleblower: BP Risks More Massive Catastrophes in Gulf'
p7
aS'Oil Rig - Huffington Post'
p8
aS'Oil from Gulf spill is reaching Louisiana coastline | NOLA.com'
p9
aS'Press Briefing on the BP Oil Spill in the Gulf Coast ...'
p10
a.