(lp0
S'The Ugly Truth About BP And Its CEO | Business News ...'
p1
aS"BP Didn't Plan for Major Oil Spill - CBS News"
p2
aS'BP Drill Plans Downplayed Risk of Rig Accident | Fox News'
p3
aS'BP downplayed oil-rig disaster risk - World - CBC News'
p4
aS'Oil spill from BP explosion spreads in Gulf of Mexico - World ...'
p5
aS'The Gulf Of Mexico Oil Spill: A Timeline | Deep Sea News'
p6
aS'Whistleblower: BP Risks More Massive Catastrophes in Gulf'
p7
aS"Rig explosion dirties BP's green image - NBC News"
p8
aS'Oil spill: Gulf of Mexico disaster holds big liabilities for BP ...'
p9
aS'Macondo Prospect, Gulf of Mexico - Offshore Technology'
p10
a.