(lp0
S'New Underwater footage of BP oil leak at the source ...'
p1
aS'Activists Protest BP At Rallies Across The U.S. | Getty Images'
p2
aS'Disaster unfolds slowly in the Gulf of Mexico - Photos - The ...'
p3
aS'BP boss Tony Hayward admits job is on the line over ...'
p4
aS'BP: The Unfinished Tale of Imperialism | Global Research ...'
p5
aS'Whistleblower Claims That BP Was Aware Of Cheating On ...'
p6
aS'Gulf of Mexico oil spill: James Cameron offers private ...'
p7
aS"Why BP's well isn't shut - the search for answers - May. 12 ..."
p8
aS'Gulf of Mexico massive oil spill | New York Post'
p9
aS'Gulf of Mexico Oil Spill  The Turtle Hospital. Rescue ...'
p10
a.