(lp0
S"BP OK's tests of Kevin Costner's invention - device to clean ..."
p1
aS'How BP Secretly Buys PR - The Daily Beast'
p2
aS'British Petroleum Greenwashing Backfired'
p3
aS'BP withholds oil spill facts  and government lets it ...'
p4
aS'Gulf of Mexico oil spill: BP faces growing calls for boycott of ...'
p5
aS'BP reduces Gulf of Mexico leak as new safety fears emerge ...'
p6
aS'BP disaster spreads oil pollution across the Gulf of Mexico ...'
p7
aS'Oil Spill Containment Does Not Shrink Closure Area | Food ...'
p8
aS"Astronauts see 'scary' oil spill from space - NBC News"
p9
aS'Sylvia Earle to U.S. Congress: Cheap oil is costing the Earth ...'
p10
a.