(lp0
S'British Petroleum Visionaries (comic) - Natural News'
p1
aS'Poll: 70% Say BP Handling Oil Spill Badly - CBS News'
p2
aS'Twitter, Facebook and the BP oil spill | NewsCut | Minnesota ...'
p3
aS'Fake BP Twitter Account Mocks Oil Spill PR Efforts - ABC ...'
p4
aS'ABC News interviews BP exec Tony Hayward in his deep ...'
p5
aS"BP: 'We are doing everything we can' to stop oil in Gulf of ..."
p6
aS'BP Oil Spill: Shocking BP Memo Says Safety Too Expensive ...'
p7
aS'BP Fake Twitter Account: The Most Ridiculous Tweets Yet ...'
p8
aS'"It\'s BP\'s Oil" | Mother Jones'
p9
aS'Fears BP spill could hit BHP Billiton Petroleum - Telegraph'
p10
a.