(lp0
S'British Petroleum Vs. a Sustainable Planet: Time to Ban BP ...'
p1
aS'Stopping the Gulf Oil Spill | TIME For Kids'
p2
aS'BP Stands for Bad Petroleum - Huffington Post'
p3
aS'Whistleblower: BP aware of safety problems - NBC News'
p4
aS'British Petroleum Riser Insertion Tube Tool: How It Works to ...'
p5
aS'Independent Oil & Gas Producers Sue Subsidiaries of ...'
p6
aS"Op-Ed: BP's criminal history of creating Environmental crises"
p7
aS"BP's Oil Spill is Latest Crime in a History of Plunder | Global ..."
p8
aS'British Petroleum successfully inserts siphon to help contain ...'
p9
aS'Too Big to Exist (TBE) - Big Oil | Scoop News'
p10
a.