(lp0
S'How BP Secretly Buys PR - The Daily Beast'
p1
aS'Stopping the Gulf Oil Spill | TIME For Kids'
p2
aS'BP withholds oil spill facts  and government lets it ...'
p3
aS'BP reduces Gulf of Mexico leak as new safety fears emerge ...'
p4
aS'Gulf oil slick wading closer to East Coast - NY Daily News'
p5
aS'Whistleblower: BP aware of safety problems - NBC News'
p6
aS"Astronauts see 'scary' oil spill from space - NBC News"
p7
aS'Oil Spill Containment Does Not Shrink Closure Area | Food ...'
p8
aS'Independent Oil & Gas Producers Sue Subsidiaries of ...'
p9
aS'BP slows Gulf leak but finds layers of oil underwater ...'
p10
a.