(lp0
S'BBC News - Oil spill in Gulf of Mexico in maps and graphics'
p1
aS"The three causes of BP's oil disaster - Salon.com"
p2
aS'Deepwater Horizon British Petroleum BP Rig ... - Inhabitat'
p3
aS'It Could Have Been Avoided - Sea Shepherd Conservation ...'
p4
aS'Anatomy of the BP Oil Spill: An Accident Waiting to Happen ...'
p5
aS"'Volcano' of oil to be absorbed using stockings ... - Daily Mail"
p6
aS'BP: From Oil Spilling to Financial Reform Killing | Mother ...'
p7
aS'Massive disaster looms in Gulf of Mexico spill - Phys.org'
p8
aS'Brazil Reacts to Gulf Oil Disaster | The Rio Times | Brazil News'
p9
aS'BP and Transocean blame each other for Gulf of Mexico oil ...'
p10
a.