(lp0
S'New Underwater footage of BP oil leak at the source ...'
p1
aS'Deepwater Horizon British Petroleum BP Rig ... - Inhabitat'
p2
aS'Disaster unfolds slowly in the Gulf of Mexico - Photos - The ...'
p3
aS'Brazil Reacts to Gulf Oil Disaster | The Rio Times | Brazil News'
p4
aS"Why BP's well isn't shut - the search for answers - May. 12 ..."
p5
aS'Whistleblower Claims That BP Was Aware Of Cheating On ...'
p6
aS'Gulf spill brings back memories for Orem engineer | Deseret ...'
p7
aS'BP and Transocean blame each other for Gulf of Mexico oil ...'
p8
aS'Gulf of Mexico massive oil spill | New York Post'
p9
aS'[PDF]\nthe bp deepwater horizon oil disaster - Greenpeace'
p10
a.