(lp0
S'BP\'s "Beyond Petroleum" Campaign Losing its Sheen | PR ...'
p1
aS"Gulf Oil Spill: Who's to Blame? BP, Halliburton and the Feds ..."
p2
aS"BP CEO: We'll Pay Oil Spill Costs - CBS News"
p3
aS"Tough-Talking Admin Officials Keep 'Boot on Neck' of BP ..."
p4
aS'Videos: BP oil spill in the Gulf of Mexico - USATODAY.com'
p5
aS"BP's Gulf of Mexico oil spill: the crude facts of an oil disaster ..."
p6
aS"BP's Slick Greenwashing | Mother Jones"
p7
aS'Lawsuit: BP Oil Spill - Gulf of Mexico Oil Spill, Oil Spill Laws'
p8
aS'Oil spill crisis a setback for BP and its chief executive'
p9
aS'Hold Your Nose and Buy BP Stock - Energy and Capital'
p10
a.