(lp0
S"BP Oil Spill: 7 Secrets BP Doesn't Want You To Know ..."
p1
aS'BP Gulf Oil Spill Cheat Sheet: A Timeline of Unfortunate ...'
p2
aS"BP's trail of accidents, scandals stretches to Alaska | The ..."
p3
aS'Obama biggest recipient of BP cash - POLITICO'
p4
aS"U.S. exempted BP's Gulf of Mexico drilling from ..."
p5
aS'Videos: BP oil spill in the Gulf of Mexico - USATODAY.com'
p6
aS"What P.R. experts think of BP's response to the oil spill. - Slate"
p7
aS'Lawsuit: BP Oil Spill - Gulf of Mexico Oil Spill, Oil Spill Laws'
p8
aS'BP: Dividend Date & History for BP PLC - Dividend.com'
p9
aS"BP's Gulf of Mexico oil spill: the crude facts of an oil disaster ..."
p10
a.