(lp0
S'Just a Few Things BP Plant Does NOT Want You to Know'
p1
aS'Bad timing for new Framingham BP station - News ...'
p2
aS'Who Is BP? Will It Survive? : The Consumer Warning Network'
p3
aS'BP, Big Oil: Meet Sarbanes-Oxley Section 302 - TheStreet'
p4
aS"BP's Iranian Ties Could Haunt Oil Giant, Too - Newsmax.com"
p5
aS'Funny Petroleum Pictures - Freaking News'
p6
aS'BBC Blogs - Adam Curtis - BP AND THE AXIS OF EVIL'
p7
aS'BP Oil Spill: The Contaminated Waters Might Be Losing ...'
p8
aS'BP may stand for Brad Pitt soon - NY Daily News'
p9
aS'Greenpeace BP Logo Competition - slide 21 - NY Daily News'
p10
a.