(lp0
S'BP engulfed in controversy again - BBC News - BBC.com'
p1
aS'BP - SourceWatch'
p2
aS'Oil spill: BP shares slide as crisis continues - BBC News'
p3
aS"BP oil spill: shares plummet as US warns it will 'take action ..."
p4
aS'Video: Dramatic new footage of BP oil rig explosion ...'
p5
aS'Bp Iran - Huffington Post'
p6
aS'BP Oil Spill Sparks Debate on Captive Insurers - The Source ...'
p7
aS'BP Oil Spill - A Poem - Salem-News.Com'
p8
aS"BP's Spill Contingency Plans Vastly Inadequate - CBS News"
p9
aS"BP's Social Media Campaign Going About as Well as ..."
p10
a.