(lp0
S'BP and Iran: The Forgotten History - CBS News'
p1
aS'Protesters foul Tate Britain over BP art sponsorship - BBC ...'
p2
aS'The New Rule: Precaution over speed and greed ...'
p3
aS'Okay America, So Why is BP Different from Union Carbide ...'
p4
aS'As CEO Hayward Remade BP, Safety, Cost Drives Clashed ...'
p5
aS'BP Oil Latest News Truth Facts Mexico Gulf Spill Leak ...'
p6
aS'BP Appeals to Banks for Help | Save | Get the best rates on ...'
p7
aS'Phil Wilayto, "BP and the Other Gulf"'
p8
aS'The Gulf Oil Spill: Effects on economy, human health, social ...'
p9
aS'Libya Goes Ahead With BP Drilling Agreement Despite The ...'
p10
a.