(lp0
S"BP = 'Beyond Petrolium' or 'Beyond Ponzi' - PESN.com"
p1
aS'BP oil spill timeline | Environment | The Guardian'
p2
aS'Can British Petroleum (BP) Go Bankrupt?'
p3
aS'Protesters foul Tate Britain over BP art sponsorship - BBC ...'
p4
aS"British royal family hasn't spoken of BP's oil spill: letter to the ..."
p5
aS'The New Rule: Precaution over speed and greed ...'
p6
aS'Ethical questions surrounding the BP Oil Spill | Practical Ethics'
p7
aS'News, Links of the Day, Coming Third World War, BP Gulf ...'
p8
aS"BP's Big Bad Oil Lead - The Viewspaper"
p9
aS'Offshore Drilling Moratorium - Huffington Post'
p10
a.