(lp0
S'BP oil leak: British company becomes butt of US jokes ...'
p1
aS'Stop blaming UK for BP oil spill disaster: Cable hits out at ...'
p2
aS'I would have fired BP chief by now, Obama says - NBC News'
p3
aS'The Spill, The Scandal and the President | Rolling Stone'
p4
aS'UTEP Oil Expert Analyzes BP Spill'
p5
aS"BP's Long History Of Destroying The World - Huffington Post"
p6
aS'Caspian Sea oil boom raises pollution fears - BBC News'
p7
aS"BP's PR Offensive - YouTube"
p8
aS'Gulf Coast disaster: Will BP be bought or bankrupt? - Jun. 7 ...'
p9
aS'Why BP will be the next bailout | New York Post'
p10
a.