(lp0
S'BP oil spill: British pensioners will pick up the bill for BP ...'
p1
aS'Oil spill: David Cameron confronts Barack Obama in battle ...'
p2
aS"Rep. Joe Barton Apologizes to BP's Tony Hayward for White ..."
p3
aS'BP Stops Dividend Payments During Oil Spill - CBS News'
p4
aS'BP crisis: The impact on your savings and investments - BBC'
p5
aS'BP to fund $20bn Gulf of Mexico oil spill payout - BBC News'
p6
aS'BP cuts dividend and capex to pay for oil spill | Reuters'
p7
aS'BP OKs $20 billion escrow fund, halts dividend - NBC News'
p8
aS"BP boss 'sorry' about 'small people' remark - NBC News"
p9
aS"BP won't pay dividends this year - Jun. 16, 2010 - Fortune"
p10
a.