(lp0
S"GULF OIL SPILL: Why's BP taking all the blame? | Daily Mail ..."
p1
aS'Oil Spill in the Gulf - a Summary | News-Basics'
p2
aS"Rep. Joe Barton Apologizes to BP's Tony Hayward for White ..."
p3
aS'BP crisis: The impact on your savings and investments - BBC'
p4
aS'BP to fund $20bn Gulf of Mexico oil spill payout - BBC News'
p5
aS'BP and the oil spill: The oil well and the damage done'
p6
aS"The Gulf of Mexico oil spill is bad, but BP's PR is even worse ..."
p7
aS'BP replaces CEO Hayward as point man for oil spill response'
p8
aS"Gorelick's challenge: Backing BP - POLITICO"
p9
aS'Oil Spill Lawsuits and Dangers - ConsumerAffairs.com'
p10
a.