(lp0
S'Stop blaming UK for BP oil spill disaster: Cable hits out at ...'
p1
aS'BP oil spill: UK may be next | UK | News | Daily Express'
p2
aS'UTEP Oil Expert Analyzes BP Spill'
p3
aS'BP Oil Spill Cleanup: How to Give a Real Apology - U.S.'
p4
aS'Why BP will be the next bailout | New York Post'
p5
aS'Florida minor league team takes swing at BP - NY Daily News'
p6
aS"BP's PR Offensive - YouTube"
p7
aS'Gulf Coast disaster: Will BP be bought or bankrupt? - Jun. 7 ...'
p8
aS'High-octane coverage - Media -- Dont Quote Me'
p9
aS'BP Oil Contamination Pictures Gallery - Freaking News'
p10
a.