(lp0
S'Boycotting BP: Who Gets Hurt? - ABC News'
p1
aS'BP shares plunge 15% after oil giant admits oil spill may last ...'
p2
aS'BP oil spill: Shares fall further | Business | The Guardian'
p3
aS"BP's clumsy response to oil spill threatens to make a bad ..."
p4
aS'Can BP do anything right? Gulf oil spill failures mount - NY ...'
p5
aS'BP loses $23,000,000,000 in value Tuesday as oil spill fears ...'
p6
aS'BP overcomes snag in bid to curb spill | Reuters'
p7
aS'BP, the Gulf Oil Spill, and the Long Road to the Truth; An ...'
p8
aS'How BP\'s "Beyond Petroleum" Branding Strategy Became ...'
p9
aS'The Oil Disaster Deepens | TIME For Kids'
p10
a.