(lp0
S"BP = 'Beyond Petrolium' or 'Beyond Ponzi' - PESN.com"
p1
aS'Can British Petroleum (BP) Go Bankrupt?'
p2
aS'BP oil spill timeline | Environment | The Guardian'
p3
aS"British royal family hasn't spoken of BP's oil spill: letter to the ..."
p4
aS'18 - Latest News BP Oil Spill Settlement Claims Attorneys'
p5
aS'Ex-BP official received payouts, perks - Washington Times'
p6
aS'Frustrated by boycott over Gulf of Mexico oil spill, station ...'
p7
aS'News, Links of the Day, Coming Third World War, BP Gulf ...'
p8
aS'Ethical questions surrounding the BP Oil Spill | Practical Ethics'
p9
aS"BP's Big Bad Oil Lead - The Viewspaper"
p10
a.