(lp0
S'Just a Few Things BP Plant Does NOT Want You to Know'
p1
aS'BP Has Spent $2 Billion on Oil Spill Cleanup - CBS News'
p2
aS"BP Oil Worth $100 Trillion - Let's Roll Forums"
p3
aS"BP's Iranian Ties Could Haunt Oil Giant, Too - Newsmax.com"
p4
aS'BP, Big Oil: Meet Sarbanes-Oxley Section 302 - TheStreet'
p5
aS'BBC Blogs - Adam Curtis - BP AND THE AXIS OF EVIL'
p6
aS'How BP blew crisis management 101 - CNN.com'
p7
aS'BP knew about problem well weeks before blast: employee ...'
p8
aS'Greenpeace BP Logo Competition - slide 21 - NY Daily News'
p9
aS'Funny Petroleum Pictures - Freaking News'
p10
a.