(lp0
S'BP stock price hits new 52-week low - Jun. 24, 2010'
p1
aS'Gulf of Mexico oil spill - Conservapedia'
p2
aS'BP OIL SPILL: Gulf captain William Allen Kruse shoots ...'
p3
aS'Travel News: Gulf Coast Oil Report: Local Businesses ...'
p4
aS'BP spill an argument against nuclear power - NBC News'
p5
aS'Oil spills: Legacy of the Torrey Canyon | Environment | The ...'
p6
aS"Why CSR Can't Help BP Now - Forbes"
p7
aS'BP - A Long, Bloody History of Reckless Greed | UE'
p8
aS'BP/Amoco merger creates third &#39 - Oil & Gas Journal'
p9
aS'BP says Gulf relief well on target for mid-August | syracuse ...'
p10
a.