(lp0
S'1970s BP-Branded Board Game Turned Offshore Drilling ...'
p1
aS'Which way forward for BP? - BBC News'
p2
aS'BP and Toyota - CBS News'
p3
aS'BP Oil Spill Cleanup Workers Getting Sick, Exxon Valdez ...'
p4
aS'BP deploys A-Whale to skim off oil - The Hindu'
p5
aS'Social Networking Crisis Map Shows Impacts of Oil Spill'
p6
aS'BP approaches funds to fend off takeover bids: source ...'
p7
aS"BP oil spill: the pressure grows on the company's non ..."
p8
aS'The Gulf Oil Disaster Is War On We, The People - 30 Facts ...'
p9
aS'Oil Rig - Tag - Truthdig'
p10
a.