(lp0
S'Which way forward for BP? - BBC News'
p1
aS'BP and Toyota - CBS News'
p2
aS'BP deploys A-Whale to skim off oil - The Hindu'
p3
aS'BP approaches funds to fend off takeover bids: source ...'
p4
aS'BP shareholders say no thank you to outside investment ...'
p5
aS'Oil Rig - Tag - Truthdig'
p6
aS'BP Offshore Oil Strike: The Game - Alibi'
p7
aS'Opinion: BP puts costs ahead of environment. Are we ...'
p8
aS'BP Offshore Oil Drilling Board Game Has Unfortunate ...'
p9
aS'Oil enters New Orleans through back door - Disaster in the ...'
p10
a.