(lp0
S"Is It Safe to Buy BP 'Junk' Bonds? - Seeking Alpha"
p1
aS'BP oil spill: 9 strange facts - The Week'
p2
aS"BP's Sustainability Lesson - Forbes"
p3
aS'Is it Safe to buy BP Junk Bonds? :: The Market Oracle ...'
p4
aS'Libyan Oil Clout Now Pushing For Buying Stake In BP ...'
p5
aS'Analysis: BP stake may help oil sovereign funds diversify ...'
p6
aS'british petroleum | a farther room'
p7
aS'30 Facts Evidencing that The Gulf Oil Crisis Was Planned'
p8
aS"Anadarko, part owner of blown-out well, tells BP it won't help ..."
p9
aS"BP aims to fix oil spill 'by end of July' - Telegraph"
p10
a.