(lp0
S'1970s BP-Branded Board Game Turned Offshore Drilling ...'
p1
aS"BP's Sustainability Lesson - Forbes"
p2
aS'BP oil spill: 9 strange facts - The Week'
p3
aS'BP Oil Spill Cleanup Workers Getting Sick, Exxon Valdez ...'
p4
aS'Libyan Oil Clout Now Pushing For Buying Stake In BP ...'
p5
aS'Social Networking Crisis Map Shows Impacts of Oil Spill'
p6
aS'Analysis: BP stake may help oil sovereign funds diversify ...'
p7
aS'The Gulf Oil Disaster Is War On We, The People - 30 Facts ...'
p8
aS'british petroleum | a farther room'
p9
aS"BP oil spill: the pressure grows on the company's non ..."
p10
a.