(lp0
S"All Things BNET on BP's Gulf of Mexico Oil Spill - CBS News"
p1
aS'What Is BP Doing Right? - Michael Hyatt'
p2
aS'Oil spill: BP considers Tony Hayward exit - Telegraph'
p3
aS'Oil spill: BP men named in Deepwater Horizon rig inquiry ...'
p4
aS"BP admits it 'Photoshopped' official images as oil spill 'cut ..."
p5
aS'On The Proposed Use of Cattail Fluff in the Cleaning Up of ...'
p6
aS'Lab engineers assist DOE Gulf oil spill effort | Lawrence ...'
p7
aS"Houston, we have a problem: BP admits 'Photoshopping ..."
p8
aS'BP Worker Safety | Video | C-SPAN.org'
p9
aS'Article: Government Allows BP to Dump Oil-Spill Waste on ...'
p10
a.