(lp0
S'BP Confirms Tony Hayward Out, Bob Dudley In - CBS News'
p1
aS'BP to fire Brit CEO, replace with U.S. exec | CTV News'
p2
aS"BP's new CEO: Gulf spill was a wake-up call - NBC News"
p3
aS'Did BP CEO Tony Hayward Receive Too Much Severance ...'
p4
aS'BP CEO Tony Hayward to step down and be succeeded by ...'
p5
aS"BP's Tony Hayward resigns after being 'demonised and ..."
p6
aS'BP oil spill: Tony Hayward replaced by Bob Dudley as oil ...'
p7
aS"Crisis management 101: What can BP CEO Hayward's ..."
p8
aS'Deepwater Horizon oil spill: BP gaffes in full | Business | The ...'
p9
aS'BP hopes to turn page with new CEO, leaner company - The ...'
p10
a.