(lp0
S'Timeline: BP oil spill - BBC News - BBC.com'
p1
aS'BP faces 7-year offshore drilling ban - BBC News'
p2
aS'BP Admits It Lobbied British for Libyan Prisoner Transfer ...'
p3
aS"   'british petroleum' // News | Neftegaz.RU"
p4
aS'BP Gulf Oil Spill - Dr. Sircus'
p5
aS'5 Impacts of the BP Oil Crisis | RiskLogic'
p6
aS'Gulf of Mexico oil spill: Lessons on how to handle crisis ...'
p7
aS"BP oil spill: 'Mystery plumber' may be brains behind ..."
p8
aS"BP Buys Verenium's Biofuel Business For $98 Million ..."
p9
aS'BP Claims Temporary Stop of Oil Spill in Gulf of Mexico ...'
p10
a.