(lp0
S"Casualties of the Spill: BP's Crisis Could Soon Become ..."
p1
aS'Clevelanders still have ties to BP through the old Sohio ...'
p2
aS'BP Market Cap (BP) - YCharts'
p3
aS'BP Return on Equity (TTM) (BP) - YCharts'
p4
aS"In BP's Record, a History of Boldness and Costly Blunders ..."
p5
aS"Did BP Negotiate a Terrorist's Release in Exchange for ..."
p6
aS"Tony Hayward, BP CEO: Gulf Oil Spill 'Relatively Tiny'"
p7
aS'BP faces US ban on new oil and gas drilling licences ...'
p8
aS'Lessons from Exxon Valdez spill have gone unheeded'
p9
aS'Abu Dhabi may invest in British Petroleum // Companies ...'
p10
a.