(lp0
S'At BP, a History of Boldness and Costly Blunders - The New ...'
p1
aS"Casualties of the Spill: BP's Crisis Could Soon Become ..."
p2
aS"How'd we get stuck with BP? - Jul. 12, 2010 - CNN Money"
p3
aS'BP builds defence in takeover threat - Telegraph'
p4
aS"Did BP Negotiate a Terrorist's Release in Exchange for ..."
p5
aS'Abu Dhabi may invest in British Petroleum // Companies ...'
p6
aS"'Oil slick' protest against BP at the British Museum - BBC News"
p7
aS'Offshore drilling moratorium hurting local companies - Your ...'
p8
aS'BP is actually a Rockefeller enterprise. Go figure..., page 1 ...'
p9
aS'Why a BP-Exxon Mobil Merger Is an (Oil) Pipe Dream - Deal ...'
p10
a.