(lp0
S'BP faces a dramatic restructuring - NY Daily News'
p1
aS"How BP's oil spill mess could be much worse"
p2
aS'US fears Gulf seabed oil seepage near stricken BP well - BBC'
p3
aS"What's BP's social responsibility? - Reuters"
p4
aS'BP photoshops fake photo of oil spill crisis command center ...'
p5
aS"Can BP's Image Survive the Spill? - TIME"
p6
aS'US gives BP 24 hours to see whether oil cap fits ...'
p7
aS'BP boss Tony Hayward to join board of joint venture with ...'
p8
aS'BP oil spill: US orders new emergency plan as seepage ...'
p9
aS"Goodheart's Extreme Science"
p10
a.