(lp0
S'BP vs Exxon Mobil - CBS News'
p1
aS'US fears Gulf seabed oil seepage near stricken BP well - BBC'
p2
aS'BP photoshops fake photo of oil spill crisis command center ...'
p3
aS"Can BP's Image Survive the Spill? - TIME"
p4
aS'BP to divest Pakistan operations - The Express Tribune'
p5
aS"What's BP's social responsibility? - Reuters"
p6
aS'EPA Whistleblower Accuses Agency of Covering Up Effects ...'
p7
aS"BP digitally alters press photo, confesses it's fake - NBC News"
p8
aS'US gives BP 24 hours to see whether oil cap fits ...'
p9
aS"BP didn't engineer Lockerbie bomber's release to Libya ..."
p10
a.