(lp0
S'BP faces 7-year offshore drilling ban - BBC News'
p1
aS'BP Admits It Lobbied British for Libyan Prisoner Transfer ...'
p2
aS'Clevelanders still have ties to BP through the old Sohio ...'
p3
aS"   'british petroleum' // News | Neftegaz.RU"
p4
aS'BP Gulf Oil Spill - Dr. Sircus'
p5
aS'5 Impacts of the BP Oil Crisis | RiskLogic'
p6
aS'BP faces US ban on new oil and gas drilling licences ...'
p7
aS"BP oil spill: 'Mystery plumber' may be brains behind ..."
p8
aS'BP Return on Equity (TTM) (BP) - YCharts'
p9
aS"Tony Hayward, BP CEO: Gulf Oil Spill 'Relatively Tiny'"
p10
a.