(lp0
S'british petroleum: buying silence - The Swash Zone'
p1
aS'Guess where BP is dumping its oil-spill waste ...'
p2
aS'The BP Oil Spill? Ida Tarbell Saw It Coming | OnEarth ...'
p3
aS"Oil industry's answers frustrate federal panel - latimes"
p4
aS'BP Oil Spill Movie Trailer - YouTube'
p5
aS'BP frozen out of Arctic oil drilling race | Environment | The ...'
p6
aS'Fischer Oil Company Joins ConocoPhillips - The Missourian ...'
p7
aS'BP withdraws drilling plans for Greenland amid unease at ...'
p8
aS'U.S. spill panel question drilling policy | Reuters'
p9
aS'Microbes aiding Gulf oil degradation, study says ...'
p10
a.