(lp0
S'As gulf cleanup continues, BP will also struggle to clean up ...'
p1
aS'[PDF]\nBP Oil Spill - Schulte Roth & Zabel LLP'
p2
aS"BP's long road to regaining consumer confidence in its brand"
p3
aS'BP Awards FleetCor New Fleet Fuel Card Contract'
p4
aS'Meet the Microbes Eating the Gulf Oil Spill [Slide Show ...'
p5
aS'Disappearing Gulf Oil and Dirty Canadian Crude | The ...'
p6
aS'What Happens in 50 Years When the Oil Runs Out? - Haaretz'
p7
aS'On the death of Matthew Simmons - Resilience.org'
p8
aS'Flashback to 1953 : Operation Ajax: Joint CIA/MI6 Military ...'
p9
aS'Bp in Houston, Texas with Reviews & Ratings - YP.com'
p10
a.