(lp0
S'BP Oil Spill Overview - Daily Titan'
p1
aS'BP, Tony Hayword, and Ethical Leadership'
p2
aS'BP Said to Fault Staff for Mistakes Before Blowout - Bloomberg'
p3
aS'The Comedy News: BP PATENTS PHRASE, "MAKING THIS ...'
p4
aS'National Commission on the BP Deepwater Horizon Oil Spill ...'
p5
aS'Human Rights in the Gulf Coast | Amnesty International USA'
p6
aS'Seaswarm: we can clean up the Gulf in a month | Hackaday'
p7
aS'Pete Thomas Outdoors: Natural and manmade disasters'
p8
aS'Risk-Taking Rises as Oil Rigs in Gulf Drill Deeper  Royal ...'
p9
aS'Strong Buys Among Oil Stocks - Forbes'
p10
a.