(lp0
S'BP - Latest news, videos, and information- NBCNews.com'
p1
aS'Business In The News: Crisis Management at BP'
p2
aS'British SIS Hit Team Kills Top US Oil Expert For Breaking ...'
p3
aS'BP raises $5bn in loans from oil revenue - FT.com'
p4
aS'Environmental Health Insights into the 2010 Deepwater ...'
p5
aS'Oil spilled. But hysteria did the real damage in the Gulf ...'
p6
aS'Collapsing Marsh Dwarfs BP Oil Blowout as Ecological ...'
p7
aS'Gulf Oil Disaster  Fire Earth'
p8
aS'The Influence of the Oil Spill on Coastal Louisiana Salt ...'
p9
aS'Narrative | Disenfranchised Citizen'
p10
a.