(lp0
S'british petroleum: buying silence - The Swash Zone'
p1
aS'Deepwater Horizon (BP) Oil-Spill Fraud | Department of ...'
p2
aS'BP frozen out of Arctic oil drilling race | Environment | The ...'
p3
aS'BP Oil Spill Movie Trailer - YouTube'
p4
aS'After the BP Deepwater Horizon Oil Spill - ChiefExecutive ...'
p5
aS'Fischer Oil Company Joins ConocoPhillips - The Missourian ...'
p6
aS'Tar Balls Dot Gulf Beaches | News For Kids, By Kids ...'
p7
aS"[PDF]\nHow the Minerals Management Service's partnership with ..."
p8
aS'Gulf Oil Spill | Co2 Insanity'
p9
aS'Warnings of gas-leak risk at BP well described at Gulf of ...'
p10
a.