(lp0
S"BP leak the world's worst accidental oil spill - Telegraph"
p1
aS'BP Sells Operations in Colombia for $1.9 Billion ...'
p2
aS'Green Solutions to the Gulf Oil Spill - asbmb'
p3
aS'BP changes head amid huge loss - The Hindu'
p4
aS"We've got a new logo for BP. Now let's spread it ..."
p5
aS'Gulf oil leak: Biggest ever, but how bad? - BBC News'
p6
aS'BP | Leaders We Deserve'
p7
aS'BP oil spill is largest accidental leak in history | The Times'
p8
aS'BP strikes deal in oil spill fire sale | The Times'
p9
aS'Timeline: BP Gulf of Mexico oil spill | National Post'
p10
a.