(lp0
S'BP Customer Base Falls In Wake of Spill | Marketing ...'
p1
aS"BP dividend 'will resume in February' after oil spill suspension"
p2
aS'Hurricanes, oil spills and whatever destruction comes next ...'
p3
aS'British Petroleum Archives - LaborUnionReport.com ...'
p4
aS'Protest With Me - Boycott BP because of gulf oil spill'
p5
aS'BP: Sweet Opportunity or Sloppy Mess? | Investing Caffeine'
p6
aS'Static Kill: Taking Stock of the BP Oil Spill In the Gulf of Mexico'
p7
aS'La British Petroleum minaccia la Sicilia | Caff News'
p8
aS'Final Update #8: Gulf Recovery in Editorial Cartoons ...'
p9
aS'Deepwater Disaster - GulagBound.com'
p10
a.