(lp0
S'BP Oil Spill Damages to Stretch Insurance Coverage ...'
p1
aS'Gulf Loop Current Stalls from BP Oil Disaster - PESN.com'
p2
aS'BP Will Begin Attempt to Permanently Plug Their Leaky Well ...'
p3
aS'Could better corporate ethics have prevented BP oil spill ...'
p4
aS'BP boss Tony Hayward to step down as firm seeks to repair ...'
p5
aS"BP's Environmental Racism | Grand Rapids Institute for ..."
p6
aS"CSR Fail: 30 things BP could've done differently | Justmeans"
p7
aS'Gulf Loop Current Stalls From BP Oil Disaster'
p8
aS"Rothschild's Black Gold Empire: BP Oil Disaster Brings ..."
p9
aS'BP Disaster Response Workers Report Low Morale, Lack of ...'
p10
a.