(lp0
S'Florida Realtors Receive $16 Million Payment from BP Oil ...'
p1
aS'Deepwater Horizon (BP) Oil-Spill Fraud | Department of ...'
p2
aS'Brad Pitt unleashes anger at BP in Spike Lee doc  The ...'
p3
aS'Gulf oil spill - World Socialist Web Site'
p4
aS'After the BP Deepwater Horizon Oil Spill - ChiefExecutive ...'
p5
aS"BP In Deep Water: A Bird's-Eye View Of The Oil Spill ..."
p6
aS'Handling a Fake Twitter Account: @BPGlobalPR Leaves ...'
p7
aS'Tar Balls Dot Gulf Beaches | News For Kids, By Kids ...'
p8
aS'Gulf Oil Spill | Co2 Insanity'
p9
aS"[PDF]\nHow the Minerals Management Service's partnership with ..."
p10
a.