(lp0
S'British Petroleum: The Unfinished Crimes and Plunder of ...'
p1
aS'BP Oil Spill: Preventable with Knowledge Management ...'
p2
aS'BP Closes In On Final Kill, Costs Escalate - Obama .net'
p3
aS'Government Assisted BP In Covering Up Effect Of Gulf Oil ...'
p4
aS'Asbestos Is A Good Lesson For BP -- To Avoid - Forbes'
p5
aS'Matt Simmons Has Died - Business Insider'
p6
aS'Matt Simmons Has Died Of A Heart Attack | Zero Hedge'
p7
aS'News, Disaster Warfare, Links of the Day, Coming T... - Europe'
p8
aS'Beach Bistro: "The BP (British Petroleum) Martini" - YouTube'
p9
aS'Legal Adviser | Jobs in Amman, Jordan by British Petroleum ...'
p10
a.