(lp0
S'British Petroleum: The Unfinished Crimes and Plunder of ...'
p1
aS"The Oil Drum | BP's Deepwater Oil Spill - The World ..."
p2
aS'Asbestos Is A Good Lesson For BP -- To Avoid - Forbes'
p3
aS'Matt Simmons Has Died - Business Insider'
p4
aS"An Overview Of Ghana's Petroleum Downstream Sector ..."
p5
aS'News, Disaster Warfare, Links of the Day, Coming T... - Europe'
p6
aS'Matt Simmons Has Died Of A Heart Attack | Zero Hedge'
p7
aS'Gulf seafood industry worried about an oily image : News & World ...'
p8
aS'About Sociological Images - The Society Pages'
p9
aS"BP oil spill: Experts fear consequence will 'last for decades ..."
p10
a.