(lp0
S'BP Shakes Up Management - WSJ'
p1
aS'Dudley announces changes in structure, management at BP ...'
p2
aS'The Oil Spill Should Teach America to Break Its Addiction to ...'
p3
aS'[PDF]\nThe BP paradox - Magazine de la communication de crise et ...'
p4
aS'BP oil spill: interactive timeline | Environment | theguardian ...'
p5
aS"BP's safety reforms are vital for its future | Business | The ..."
p6
aS'World Oil Reduction for the Gulf'
p7
aS"BP's ampm Introduces Hispanic Snacks | CSPnet"
p8
aS'BP Swimsuit Calender Shoot - YouTube'
p9
aS'Green Project Management and the BP Deepwater Horizon ...'
p10
a.