(lp0
S'Timeline: BP oil spill - BBC News'
p1
aS"BP oil spill: Gulf of Mexico well declared 'effectively dead ..."
p2
aS'BP | Science Buzz'
p3
aS'Oil spill cleanup: After digging deep to kill well, BP faces ...'
p4
aS'BP: The Unfinished Crimes and Plunder of Anglo-American ...'
p5
aS'TIMELINE - Gulf of Mexico oil spill | Reuters'
p6
aS"Big Dan's Big News Sept 20, 2010 - Big Dan's Big Blog"
p7
aS'Oljeutslppet i Mexikanska golfen 2010  Wikipedia'
p8
aS'Titania: a material-based approach to oil spill remediation?'
p9
aS'BBC Mundo - Internacional - BP sella definitivamente el ...'
p10
a.