(lp0
S"BP's Competitors Face Risk of Catastrophic Accident, Too ..."
p1
aS"BP 'flouted safety regs on North Sea platform' | The Week UK"
p2
aS'BP needs an unbiased safety assessment - Telegraph'
p3
aS'ASSOCIATES ONLINE - Gulf Oil Disaster'
p4
aS'BP Amoco Louisiana | Mesothelioma and Asbestos Jobsites'
p5
aS'BP/ARCO Carson Refinery | Mesothelioma and Asbestos ...'
p6
aS"Oil Rig Survivor Blames BP For 'Screwed-Up Plan' That ..."
p7
aS'Explaining a fish kill - Photos - NBC News'
p8
aS'oil and gas projects and news contracts for contractors and ...'
p9
aS"The Spirit of Ma'at September 2010 COREXIT By Marc ..."
p10
a.