(lp0
S'BP oil spill report  as it happened | Environment | The ...'
p1
aS'What do we know about the Deepwater Horizon disaster ...'
p2
aS'The eight failures that caused the Gulf oil spill | New Scientist'
p3
aS'8 Key Failures Led to Gulf Oil Spill, BP Report Says | PBS ...'
p4
aS'BP Report Pins Most of Blame on Others - WSJ'
p5
aS'BP oil spill: US reaction to the BP report - Telegraph'
p6
aS'BP Deepwater Horizon Accident Investigation Report ...'
p7
aS'BP Continues to Pollute Local Landfills With Oil Spill Waste ...'
p8
aS"What TruTV's 'Black Gold' Learned From The BP Oil Disaster ..."
p9
aS"Wildlife Extra News - World's smallest seahorse facing ..."
p10
a.