(lp0
S"BP lacked 'basic safety' in North Sea before Gulf of Mexico ..."
p1
aS"BP 'flouted safety regs on North Sea platform' | The Week UK"
p2
aS'British Petrolieum BP Mission Statement - Vision ...'
p3
aS"The Spirit of Ma'at September 2010 COREXIT By Marc ..."
p4
aS'oil and gas projects and news contracts for contractors and ...'
p5
aS'This Science Lesson is Brought to You By... | Campaign for ...'
p6
aS'Chevron Nears Natural-Gas Deal With CNPC - WSJ'
p7
aS'Sigma Journal: Rare Events - Noblis'
p8
aS'Baby Boom - Texas Monthly'
p9
aS'Herman Araya | At the middle of great times and tall deeds ...'
p10
a.