(lp0
S'Risk Communication Lessons from the BP Spill (Peter ...'
p1
aS'Multirotor to aid oil spill clean up efforts - sUAS News'
p2
aS'BP Alaska lays out plans for Northstar field - for Petroleum ...'
p3
aS'BP oil spill: Disaster by numbers | Environment | The ...'
p4
aS'Mining News & Discussion Thread | Oil, Minerals, Gas, etc. - Page ...'
p5
aS'The BP Oil Disaster: Blaming Individual Consumers for ...'
p6
aS'USA | cinemaelectronica | Page 7'
p7
aS'The Arctic oil rush | Environment | The Guardian'
p8
aS'Alien Craft retrieved at BP Deepwater Horizon wreckage site ...'
p9
aS"Protesters Condemn 'dirty Oil' At World Energy Congress ..."
p10
a.