(lp0
S"World's smallest seahorse faces extinction after BP oil spill ..."
p1
aS'BP Continues to Pollute Local Landfills With Oil Spill Waste ...'
p2
aS"Wildlife Extra News - World's smallest seahorse facing ..."
p3
aS'The Gulf Oil Spill - A Capitalist Crime'
p4
aS"What TruTV's 'Black Gold' Learned From The BP Oil Disaster ..."
p5
aS'EXCLUSIVE: U.S. Government Loaned Mexican ...'
p6
aS"'The most successful companies in the world have multiple ..."
p7
aS'Tar Babies News and Political Cartoons - CartoonStock'
p8
aS'Putin, Shifting Tone, Praises Obama - WSJ'
p9
aS'Defining Shareholders and Stakeholders | CitizenPolity'
p10
a.