(lp0
S'What do we know about the Deepwater Horizon disaster ...'
p1
aS'The eight failures that caused the Gulf oil spill | New Scientist'
p2
aS'8 Key Failures Led to Gulf Oil Spill, BP Report Says | PBS ...'
p3
aS'BP Report Pins Most of Blame on Others - WSJ'
p4
aS'Gulf oil disaster: BP admits missing warning signs hours ...'
p5
aS'BP oil spill: US reaction to the BP report - Telegraph'
p6
aS'BP Deepwater Horizon Accident Investigation Report ...'
p7
aS"BP: 'Sequence of failures' caused Gulf oil spill - USA Today"
p8
aS'The Truth WareHouse: September 2010'
p9
aS'Perception vs Reality - Trade What is Real, Not What You Feel'
p10
a.