(lp0
S'BP AND PUBLIC ISSUES (MIS)MANAGEMENT |'
p1
aS'Public perception of BP affected spill response, Allen says ...'
p2
aS'[PDF]\nBP Gulf Coast Disaster and Recovery - Daniels Fund Ethics ...'
p3
aS'Reflections on the BP Oil Spill Crisis'
p4
aS'Factbox: Reckless diversification by oil companies into ...'
p5
aS"BP's head of safety admits human error over oil spill | New ..."
p6
aS'Controversies surrounding Royal Dutch Shell'
p7
aS'Real-World Geography: Louisiana Bucket Brigade'
p8
aS'Shell - Ultime notizie su Shell - Argomenti del Sole 24 Ore'
p9
aS'[PDF]\nFraudclosure: The End Run - Rense.com'
p10
a.