(lp0
S'Did BP Oil Spill Clean-up End Too Soon?'
p1
aS'How has the BP Oil Spill Effected Your Business'
p2
aS"An Audition: British Petroleum's Public Relations Department"
p3
aS'Brabham Oil | News'
p4
aS'BP Frankenfish Bad News - YouTube'
p5
aS"Daily Kos Gulf Watchers ROV #392 - BP's Gulf Catastrophe ..."
p6
aS'Daily Kos: Bob Higgins'
p7
aS'Pensacola Beach Blog'
p8
aS'BP OIL SPILL.Ppt |authorSTREAM'
p9
aS'Social Media Crisis Management: Three Case Studies'
p10
a.