(lp0
S"BP's Competitors Face Risk of Catastrophic Accident, Too ..."
p1
aS'News Update: BP Relief Well Intersected With Macondo ...'
p2
aS'ASSOCIATES ONLINE - Gulf Oil Disaster'
p3
aS'BP Amoco Louisiana | Mesothelioma and Asbestos Jobsites'
p4
aS'BP Amoco Indiana | Mesothelioma and Asbestos Jobsites'
p5
aS"Oil Rig Survivor Blames BP For 'Screwed-Up Plan' That ..."
p6
aS'BP Had Been Reprimanded for Safety Flaws by UK Long Ago'
p7
aS'BP Gulf Coast restoration through pictures: cleaning ...'
p8
aS'Explaining a fish kill - Photos - NBC News'
p9
aS'John Boehner: the second of 12 kids from Ohio who is ...'
p10
a.