(lp0
S'BP outsources SAP to IBM in five year deal | Startups ...'
p1
aS'Did BP Assassinate This Man? - Death and Taxes'
p2
aS'[PDF]\nGulf of Mexico oil spill: Can BP stem the flow of oil and vitriol ...'
p3
aS'HEAT WAVES IN MY CORTEX Charles Burchfield, British ...'
p4
aS"The Surprise Threat to BP's Future :: The Market Oracle ..."
p5
aS'Why BP is key to our national future | The Jewish Chronicle'
p6
aS'BREAKING: Another Oil Rig Explodes in the Gulf of Mexico ...'
p7
aS"Damaged BOP Recovery - BP's Gulf Catastrophe - Daily Kos"
p8
aS'Attack on the Coast, Climate, People, and Fishing Industry of ...'
p9
aS'No Safe Harbor on Gulf Coast; Human Blood Tests Show ...'
p10
a.