(lp0
S'Brabham Oil | News'
p1
aS'Video study estimates oil spill in Gulf of Mexico | The Times'
p2
aS"Daily Kos Gulf Watchers ROV #392 - BP's Gulf Catastrophe ..."
p3
aS'The BP Spill: A Policy Turning Point or a Further Case of ...'
p4
aS'BP OIL SPILL.Ppt |authorSTREAM'
p5
aS'Prominent law professor Daniel Farber to speak at U of M on ...'
p6
aS'Hernando fishermen hope stone crabs rescue troubled ...'
p7
aS'Social Media Crisis Management: Three Case Studies'
p8
aS'lpest im Golf von Mexiko 2010  Wikipedia'
p9
aS'GM to Use Recycled Oil Spill Cleanup Materials in New ...'
p10
a.