(lp0
S"BP lacked 'basic safety' in North Sea before Gulf of Mexico ..."
p1
aS'British Petrolieum BP Mission Statement - Vision ...'
p2
aS'Risk Communication Lessons from the BP Spill (Peter ...'
p3
aS'Multirotor to aid oil spill clean up efforts - sUAS News'
p4
aS'BP oil spill: Disaster by numbers | Environment | The ...'
p5
aS'Mining News & Discussion Thread | Oil, Minerals, Gas, etc. - Page ...'
p6
aS'The BP Oil Disaster: Blaming Individual Consumers for ...'
p7
aS'The Arctic oil rush | Environment | The Guardian'
p8
aS'USA | cinemaelectronica | Page 7'
p9
aS'This Science Lesson is Brought to You By... | Campaign for ...'
p10
a.