(lp0
S'Study Shows BP Oil Spill Could Have Been Prevented by ...'
p1
aS'BP Shakes Up Management - WSJ'
p2
aS'The Oil Spill Should Teach America to Break Its Addiction to ...'
p3
aS'Dudley announces changes in structure, management at BP ...'
p4
aS'[PDF]\nThe BP paradox - Magazine de la communication de crise et ...'
p5
aS'MIT - Eric Adams Wins Ig Nobel Prize for Disproving Adage ...'
p6
aS'World Oil Reduction for the Gulf'
p7
aS'BP Swimsuit Calender Shoot - YouTube'
p8
aS"BP's safety reforms are vital for its future | Business | The ..."
p9
aS'Gulf Oil Spill Lawyer Mississippi | BP Oil Spill Attorney ...'
p10
a.