(lp0
S'Houston Chronicle'
p1
aS'San Francisco Chronicle'
p2
aS'The Daily Telegraph'
p3
aS'Akin Gump Strauss Hauer & Feld'
p4
aS'BBC'
p5
aS'San Antonio ExpressNews'
p6
aS'San Antonio ExpressNews'
p7
aS'The Hindu'
p8
a.