(lp0
S'San Antonio ExpressNews'
p1
aS'San Antonio ExpressNews'
p2
aS'San Antonio ExpressNews'
p3
aS'Reuters'
p4
aS'San Angelo StandardTimes'
p5
aS'Yahoo!'
p6
aS'Environment America'
p7
aS'Golf Channel'
p8
a.