(lp0
S'Legacy.com'
p1
aS'Bloomberg L.P.'
p2
aS'San Antonio ExpressNews'
p3
aS'San Antonio ExpressNews'
p4
aS'San Antonio ExpressNews'
p5
aS'San Antonio ExpressNews'
p6
aS'San Antonio ExpressNews'
p7
aS'USC Viterbi School of Engineering'
p8
a.