(lp0
S'San Antonio ExpressNews'
p1
aS'San Antonio ExpressNews'
p2
aS'San Antonio ExpressNews'
p3
aS'East Bay Express'
p4
aS'East Bay Express'
p5
aS'Hart Energy'
p6
aS'The Daily Telegraph'
p7
aS'The Guardian'
p8
a.