(lp0
S'San Antonio ExpressNews'
p1
aS'San Antonio ExpressNews'
p2
aS'San Antonio ExpressNews'
p3
aS'San Antonio ExpressNews'
p4
aS'East Bay Express'
p5
aS'East Bay Express'
p6
aS'USC Viterbi School of Engineering'
p7
aS'Stanford Law School'
p8
aS'New York Times Learning Network'
p9
a.