(lp0
S'San Antonio ExpressNews'
p1
aS'San Antonio ExpressNews'
p2
aS'Reuters'
p3
aS'University of Texas at Austin'
p4
aS'The Beaumont Enterprise'
p5
aS'The Daily Telegraph'
p6
aS'Haaretz'
p7
aS'San Angelo StandardTimes'
p8
a.