(lp0
S'Los Angeles Times'
p1
aS'NPR'
p2
aS'Environmental Leader'
p3
aS'San Antonio ExpressNews'
p4
aS'San Antonio ExpressNews'
p5
aS'San Antonio ExpressNews'
p6
aS'Oil & Gas Journal'
p7
aS'Science Daily'
p8
aS'Bloomberg L.P.'
p9
a.