(lp0
S'San Antonio ExpressNews'
p1
aS'San Antonio ExpressNews'
p2
aS'San Antonio ExpressNews'
p3
aS'San Antonio ExpressNews'
p4
aS'ADVFN'
p5
aS'Voice of America'
p6
aS'Roger Ebert'
p7
aS'Institute of Physics'
p8
aS'San Angelo StandardTimes'
p9
a.