(lp0
S'Los Angeles Times'
p1
aS'San Antonio ExpressNews'
p2
aS'San Antonio ExpressNews'
p3
aS'San Antonio ExpressNews'
p4
aS'San Antonio ExpressNews'
p5
aS'Phoenix New Times'
p6
aS'The Guardian'
p7
a.