(lp0
S'The Advocate'
p1
aS'NJ.com'
p2
aS'Reuters'
p3
aS'San Francisco Chronicle'
p4
aS'The Wall Street Journal'
p5
aS'San Antonio ExpressNews'
p6
aS'San Antonio ExpressNews'
p7
aS'San Antonio ExpressNews'
p8
aS'San Antonio ExpressNews'
p9
aS'Oil & Gas Journal'
p10
a.