(lp0
S'DSAOC Down Syndrome Association of Orange Cou...'
p1
aS'DSAOC Down Syndrome Association of Orange Cou...'
p2
aS'East Bay Express'
p3
aS'San Angelo StandardTimes'
p4
aS'San Angelo StandardTimes'
p5
aS'San Antonio ExpressNews'
p6
a.