(lp0
S'CBS News'
p1
aS'Los Angeles Times'
p2
aS'San Antonio ExpressNews'
p3
aS'Bloomberg L.P.'
p4
aS'The Plain Dealer'
p5
aS'East Bay Express'
p6
aS'East Bay Express'
p7
aS'Voice of America'
p8
aS'Yahoo!'
p9
a.