(lp0
S'CNNMoney'
p1
aS'ThinkProgress'
p2
aS'San Antonio ExpressNews'
p3
aS'San Antonio ExpressNews'
p4
aS'San Antonio ExpressNews'
p5
aS'San Antonio ExpressNews'
p6
aS'Voice of America'
p7
aS'Financial Accounting Standards Board'
p8
a.