(lp0
S'Ethanol Producer Magazine'
p1
aS'Ethanol Producer Magazine'
p2
aS'Ethanol Producer Magazine'
p3
aS'Ethanol Producer Magazine'
p4
aS'Google'
p5
aS'San Antonio ExpressNews'
p6
aS'San Antonio ExpressNews'
p7
aS'San Antonio ExpressNews'
p8
aS'East Bay Express'
p9
a.