(lp0
S'LinkedIn'
p1
aS'East Bay Express'
p2
aS'East Bay Express'
p3
aS'Indeed.com'
p4
aS'San Antonio ExpressNews'
p5
aS'San Antonio ExpressNews'
p6
aS'Milwaukee Journal Sentinel'
p7
aS'Roger Ebert'
p8
a.