(lp0
S'Houston Chronicle'
p1
aS'Voice of America'
p2
aS'Voice of America'
p3
aS'San Angelo StandardTimes'
p4
aS'Investigative Reporting Workshop'
p5
aS'The Daily Telegraph'
p6
aS'The Daily Telegraph'
p7
a.