(lp0
S'Qteros'
p1
aS'InsideClimate News'
p2
aS'The Republican'
p3
aS'San Antonio ExpressNews'
p4
aS'San Antonio ExpressNews'
p5
aS'San Antonio ExpressNews'
p6
aS'San Antonio ExpressNews'
p7
aS'East Bay Express'
p8
a.