(lp0
S'Bloomberg L.P.'
p1
aS'San Antonio ExpressNews'
p2
aS'San Antonio ExpressNews'
p3
aS'San Antonio ExpressNews'
p4
aS'Fidelity Investments'
p5
aS'Fidelity Investments'
p6
aS'East Bay Express'
p7
aS'East Bay Express'
p8
a.