(lp0
S'San Francisco Chronicle'
p1
aS'San Antonio ExpressNews'
p2
aS'San Antonio ExpressNews'
p3
aS'San Antonio ExpressNews'
p4
aS'East Bay Express'
p5
aS'East Bay Express'
p6
aS'East Bay Express'
p7
aS'The Texas Observer'
p8
a.