(lp0
S'Baker Botts'
p1
aS'San Antonio ExpressNews'
p2
aS'San Antonio ExpressNews'
p3
aS'San Antonio ExpressNews'
p4
aS'San Antonio ExpressNews'
p5
aS'San Antonio ExpressNews'
p6
aS'San Antonio ExpressNews'
p7
aS'East Bay Express'
p8
aS'East Bay Express'
p9
a.