(lp0
S'USA Today'
p1
aS'Chipotle Mexican Grill'
p2
aS"Nation's Restaurant News"
p3
aS'CNBC'
p4
aS'CNNMoney'
p5
aS'Bloomberg L.P.'
p6
aS'Forbes'
p7
aS'The Wall Street Journal'
p8
aS'The Daytona Beach NewsJournal'
p9
a.