(lp0
S'Fox News Channel'
p1
aS'CNBC'
p2
aS'CNBC'
p3
aS'Akron Beacon Journal'
p4
aS"Nation's Restaurant News"
p5
aS'Yahoo! News'
p6
aS'USA Today'
p7
aS'Reuters'
p8
aS'KCPQ'
p9
aS'The Motley Fool'
p10
a.