(lp0
S'NBCNews.com'
p1
aS'Yahoo! News'
p2
aS'The Seattle Times'
p3
aS'Fox News Channel'
p4
aS'Fox News Channel'
p5
aS'Chipotle Mexican Grill'
p6
aS"Nation's Restaurant News"
p7
aS'The Wall Street Journal'
p8
aS'KRQE'
p9
a.