(lp0
S'U.S. News & World Report'
p1
aS"Nation's Restaurant News"
p2
aS"Nation's Restaurant News"
p3
aS'Fox News Channel'
p4
aS'CNBC'
p5
aS'WCVBTV'
p6
aS'New York Daily News'
p7
aS'Yahoo! Finance'
p8
aS'Yahoo! News'
p9
a.