(lp0
S'New York Daily News'
p1
aS'NBCNews.com'
p2
aS'USA Today'
p3
aS'Talking Points Memo'
p4
aS'CBS News'
p5
aS'The Columbus Dispatch'
p6
aS'The Washington Times'
p7
aS'New York Post'
p8
aS'Wonkette'
p9
a.